ARM GAS  /tmp/ccXMhQIM.s 			page 1


   1              		.syntax unified
   2              		.cpu cortex-m3
   3              		.fpu softvfp
   4              		.eabi_attribute 20, 1
   5              		.eabi_attribute 21, 1
   6              		.eabi_attribute 23, 3
   7              		.eabi_attribute 24, 1
   8              		.eabi_attribute 25, 1
   9              		.eabi_attribute 26, 1
  10              		.eabi_attribute 30, 4
  11              		.eabi_attribute 34, 1
  12              		.eabi_attribute 18, 4
  13              		.thumb
  14              		.file	"sys_init.cpp"
  15              		.section	.text.SystemInit,"ax",%progbits
  16              		.align	1
  17              		.global	SystemInit
  18              		.thumb
  19              		.thumb_func
  21              	SystemInit:
  22              		.fnstart
  23              	.LFB65:
  24              		@ args = 0, pretend = 0, frame = 0
  25              		@ frame_needed = 0, uses_anonymous_args = 0
  26              		@ link register save eliminated.
  27 0000 0F4B     		ldr	r3, .L2
  28 0002 1A68     		ldr	r2, [r3]
  29 0004 42F00102 		orr	r2, r2, #1
  30 0008 1A60     		str	r2, [r3]
  31 000a 5968     		ldr	r1, [r3, #4]
  32 000c 0D4A     		ldr	r2, .L2+4
  33 000e 0A40     		ands	r2, r2, r1
  34 0010 5A60     		str	r2, [r3, #4]
  35 0012 1A68     		ldr	r2, [r3]
  36 0014 22F08472 		bic	r2, r2, #17301504
  37 0018 22F48032 		bic	r2, r2, #65536
  38 001c 1A60     		str	r2, [r3]
  39 001e 1A68     		ldr	r2, [r3]
  40 0020 22F48022 		bic	r2, r2, #262144
  41 0024 1A60     		str	r2, [r3]
  42 0026 5A68     		ldr	r2, [r3, #4]
  43 0028 22F4FE02 		bic	r2, r2, #8323072
  44 002c 5A60     		str	r2, [r3, #4]
  45 002e 4FF41F02 		mov	r2, #10420224
  46 0032 9A60     		str	r2, [r3, #8]
  47 0034 044B     		ldr	r3, .L2+8
  48 0036 4FF00062 		mov	r2, #134217728
  49 003a 9A60     		str	r2, [r3, #8]
  50 003c 7047     		bx	lr
  51              	.L3:
  52 003e 00BF     		.align	2
  53              	.L2:
  54 0040 00100240 		.word	1073876992
  55 0044 0000FFF8 		.word	-117506048
  56 0048 00ED00E0 		.word	-536810240
  57              		.cantunwind
  58              		.fnend
ARM GAS  /tmp/ccXMhQIM.s 			page 2


  60              		.section	.text.SystemCoreClockUpdate,"ax",%progbits
  61              		.align	1
  62              		.global	SystemCoreClockUpdate
  63              		.thumb
  64              		.thumb_func
  66              	SystemCoreClockUpdate:
  67              		.fnstart
  68              	.LFB66:
  69              		@ args = 0, pretend = 0, frame = 0
  70              		@ frame_needed = 0, uses_anonymous_args = 0
  71              		@ link register save eliminated.
  72 0000 134A     		ldr	r2, .L15
  73 0002 144B     		ldr	r3, .L15+4
  74 0004 5168     		ldr	r1, [r2, #4]
  75 0006 01F00C01 		and	r1, r1, #12
  76 000a 0429     		cmp	r1, #4
  77 000c 03D0     		beq	.L6
  78 000e 0829     		cmp	r1, #8
  79 0010 03D0     		beq	.L7
  80 0012 1149     		ldr	r1, .L15+8
  81 0014 11E0     		b	.L12
  82              	.L6:
  83 0016 1149     		ldr	r1, .L15+12
  84 0018 0FE0     		b	.L12
  85              	.L7:
  86 001a 5168     		ldr	r1, [r2, #4]
  87 001c 5068     		ldr	r0, [r2, #4]
  88 001e C1F38341 		ubfx	r1, r1, #18, #4
  89 0022 C003     		lsls	r0, r0, #15
  90 0024 01F10201 		add	r1, r1, #2
  91 0028 01D4     		bmi	.L10
  92 002a 0D48     		ldr	r0, .L15+16
  93 002c 04E0     		b	.L13
  94              	.L10:
  95 002e 5068     		ldr	r0, [r2, #4]
  96 0030 8003     		lsls	r0, r0, #14
  97 0032 4CBF     		ite	mi
  98 0034 0848     		ldrmi	r0, .L15+8
  99 0036 0948     		ldrpl	r0, .L15+12
 100              	.L13:
 101 0038 4143     		muls	r1, r0, r1
 102              	.L12:
 103 003a 1960     		str	r1, [r3]
 104 003c 5268     		ldr	r2, [r2, #4]
 105 003e 0949     		ldr	r1, .L15+20
 106 0040 C2F30312 		ubfx	r2, r2, #4, #4
 107 0044 895C     		ldrb	r1, [r1, r2]	@ zero_extendqisi2
 108 0046 1A68     		ldr	r2, [r3]
 109 0048 CA40     		lsrs	r2, r2, r1
 110 004a 1A60     		str	r2, [r3]
 111 004c 7047     		bx	lr
 112              	.L16:
 113 004e 00BF     		.align	2
 114              	.L15:
 115 0050 00100240 		.word	1073876992
 116 0054 00000000 		.word	.LANCHOR0
 117 0058 00127A00 		.word	8000000
ARM GAS  /tmp/ccXMhQIM.s 			page 3


 118 005c 0024F400 		.word	16000000
 119 0060 00093D00 		.word	4000000
 120 0064 00000000 		.word	.LANCHOR1
 121              		.cantunwind
 122              		.fnend
 124              		.global	APBPrescTable
 125              		.global	AHBPrescTable
 126              		.global	SystemCoreClock
 127              		.section	.rodata.AHBPrescTable,"a",%progbits
 128              		.set	.LANCHOR1,. + 0
 131              	AHBPrescTable:
 132 0000 00       		.byte	0
 133 0001 00       		.byte	0
 134 0002 00       		.byte	0
 135 0003 00       		.byte	0
 136 0004 00       		.byte	0
 137 0005 00       		.byte	0
 138 0006 00       		.byte	0
 139 0007 00       		.byte	0
 140 0008 01       		.byte	1
 141 0009 02       		.byte	2
 142 000a 03       		.byte	3
 143 000b 04       		.byte	4
 144 000c 06       		.byte	6
 145 000d 07       		.byte	7
 146 000e 08       		.byte	8
 147 000f 09       		.byte	9
 148              		.section	.rodata.APBPrescTable,"a",%progbits
 151              	APBPrescTable:
 152 0000 00       		.byte	0
 153 0001 00       		.byte	0
 154 0002 00       		.byte	0
 155 0003 00       		.byte	0
 156 0004 01       		.byte	1
 157 0005 02       		.byte	2
 158 0006 03       		.byte	3
 159 0007 04       		.byte	4
 160              		.section	.data.SystemCoreClock,"aw",%progbits
 161              		.align	2
 162              		.set	.LANCHOR0,. + 0
 165              	SystemCoreClock:
 166 0000 0024F400 		.word	16000000
 167              		.ident	"GCC: (15:4.9.3+svn231177-1) 4.9.3 20150529 (prerelease)"
ARM GAS  /tmp/ccXMhQIM.s 			page 4


DEFINED SYMBOLS
                            *ABS*:0000000000000000 sys_init.cpp
     /tmp/ccXMhQIM.s:16     .text.SystemInit:0000000000000000 $t
     /tmp/ccXMhQIM.s:21     .text.SystemInit:0000000000000000 SystemInit
     /tmp/ccXMhQIM.s:54     .text.SystemInit:0000000000000040 $d
       .ARM.exidx.text.SystemInit:0000000000000000 $d
     /tmp/ccXMhQIM.s:61     .text.SystemCoreClockUpdate:0000000000000000 $t
     /tmp/ccXMhQIM.s:66     .text.SystemCoreClockUpdate:0000000000000000 SystemCoreClockUpdate
     /tmp/ccXMhQIM.s:115    .text.SystemCoreClockUpdate:0000000000000050 $d
.ARM.exidx.text.SystemCoreClockUpdate:0000000000000000 $d
     /tmp/ccXMhQIM.s:151    .rodata.APBPrescTable:0000000000000000 APBPrescTable
     /tmp/ccXMhQIM.s:131    .rodata.AHBPrescTable:0000000000000000 AHBPrescTable
     /tmp/ccXMhQIM.s:165    .data.SystemCoreClock:0000000000000000 SystemCoreClock
     /tmp/ccXMhQIM.s:161    .data.SystemCoreClock:0000000000000000 $d

NO UNDEFINED SYMBOLS
