ARM GAS  /tmp/cc674Egv.s 			page 1


   1              		.cpu cortex-m3
   2              		.eabi_attribute 20, 1
   3              		.eabi_attribute 21, 1
   4              		.eabi_attribute 23, 3
   5              		.eabi_attribute 24, 1
   6              		.eabi_attribute 25, 1
   7              		.eabi_attribute 26, 1
   8              		.eabi_attribute 30, 1
   9              		.eabi_attribute 34, 1
  10              		.eabi_attribute 18, 4
  11              		.file	"sys_isr.cpp"
  12              		.section	.text.NMI_Handler,"ax",%progbits
  13              		.align	1
  14              		.global	NMI_Handler
  15              		.syntax unified
  16              		.thumb
  17              		.thumb_func
  18              		.fpu softvfp
  20              	NMI_Handler:
  21              		.fnstart
  22              	.LFB65:
  23              		@ args = 0, pretend = 0, frame = 0
  24              		@ frame_needed = 0, uses_anonymous_args = 0
  25              		@ link register save eliminated.
  26 0000 7047     		bx	lr
  27              		.cantunwind
  28              		.fnend
  30              		.section	.text.HardFault_Handler,"ax",%progbits
  31              		.align	1
  32              		.global	HardFault_Handler
  33              		.syntax unified
  34              		.thumb
  35              		.thumb_func
  36              		.fpu softvfp
  38              	HardFault_Handler:
  39              		.fnstart
  40              	.LFB66:
  41              		@ Volatile: function does not return.
  42              		@ args = 0, pretend = 0, frame = 0
  43              		@ frame_needed = 0, uses_anonymous_args = 0
  44              		@ link register save eliminated.
  45              	.L3:
  46 0000 FEE7     		b	.L3
  47              		.cantunwind
  48              		.fnend
  50              		.section	.text.MemManage_Handler,"ax",%progbits
  51              		.align	1
  52              		.global	MemManage_Handler
  53              		.syntax unified
  54              		.thumb
  55              		.thumb_func
  56              		.fpu softvfp
  58              	MemManage_Handler:
  59              		.fnstart
  60              	.LFB67:
  61              		@ Volatile: function does not return.
  62              		@ args = 0, pretend = 0, frame = 0
ARM GAS  /tmp/cc674Egv.s 			page 2


  63              		@ frame_needed = 0, uses_anonymous_args = 0
  64              		@ link register save eliminated.
  65              	.L5:
  66 0000 FEE7     		b	.L5
  67              		.cantunwind
  68              		.fnend
  70              		.section	.text.BusFault_Handler,"ax",%progbits
  71              		.align	1
  72              		.global	BusFault_Handler
  73              		.syntax unified
  74              		.thumb
  75              		.thumb_func
  76              		.fpu softvfp
  78              	BusFault_Handler:
  79              		.fnstart
  80              	.LFB68:
  81              		@ Volatile: function does not return.
  82              		@ args = 0, pretend = 0, frame = 0
  83              		@ frame_needed = 0, uses_anonymous_args = 0
  84              		@ link register save eliminated.
  85              	.L7:
  86 0000 FEE7     		b	.L7
  87              		.cantunwind
  88              		.fnend
  90              		.section	.text.UsageFault_Handler,"ax",%progbits
  91              		.align	1
  92              		.global	UsageFault_Handler
  93              		.syntax unified
  94              		.thumb
  95              		.thumb_func
  96              		.fpu softvfp
  98              	UsageFault_Handler:
  99              		.fnstart
 100              	.LFB69:
 101              		@ Volatile: function does not return.
 102              		@ args = 0, pretend = 0, frame = 0
 103              		@ frame_needed = 0, uses_anonymous_args = 0
 104              		@ link register save eliminated.
 105              	.L9:
 106 0000 FEE7     		b	.L9
 107              		.cantunwind
 108              		.fnend
 110              		.section	.text.SVC_Handler,"ax",%progbits
 111              		.align	1
 112              		.global	SVC_Handler
 113              		.syntax unified
 114              		.thumb
 115              		.thumb_func
 116              		.fpu softvfp
 118              	SVC_Handler:
 119              		.fnstart
 120              	.LFB70:
 121              		@ args = 0, pretend = 0, frame = 0
 122              		@ frame_needed = 0, uses_anonymous_args = 0
 123              		@ link register save eliminated.
 124 0000 7047     		bx	lr
 125              		.cantunwind
ARM GAS  /tmp/cc674Egv.s 			page 3


 126              		.fnend
 128              		.section	.text.DebugMon_Handler,"ax",%progbits
 129              		.align	1
 130              		.global	DebugMon_Handler
 131              		.syntax unified
 132              		.thumb
 133              		.thumb_func
 134              		.fpu softvfp
 136              	DebugMon_Handler:
 137              		.fnstart
 138              	.LFB71:
 139              		@ args = 0, pretend = 0, frame = 0
 140              		@ frame_needed = 0, uses_anonymous_args = 0
 141              		@ link register save eliminated.
 142 0000 7047     		bx	lr
 143              		.cantunwind
 144              		.fnend
 146              		.section	.text.PendSV_Handler,"ax",%progbits
 147              		.align	1
 148              		.global	PendSV_Handler
 149              		.syntax unified
 150              		.thumb
 151              		.thumb_func
 152              		.fpu softvfp
 154              	PendSV_Handler:
 155              		.fnstart
 156              	.LFB72:
 157              		@ args = 0, pretend = 0, frame = 0
 158              		@ frame_needed = 0, uses_anonymous_args = 0
 159              		@ link register save eliminated.
 160 0000 7047     		bx	lr
 161              		.cantunwind
 162              		.fnend
 164              		.section	.text.SysTick_Handler,"ax",%progbits
 165              		.align	1
 166              		.global	SysTick_Handler
 167              		.syntax unified
 168              		.thumb
 169              		.thumb_func
 170              		.fpu softvfp
 172              	SysTick_Handler:
 173              		.fnstart
 174              	.LFB73:
 175              		@ args = 0, pretend = 0, frame = 0
 176              		@ frame_needed = 0, uses_anonymous_args = 0
 177 0000 08B5     		push	{r3, lr}
 178              		.save {r3, lr}
 179 0002 FFF7FEFF 		bl	HAL_IncTick
 180 0006 08BD     		pop	{r3, pc}
 181              		.fnend
 183              		.ident	"GCC: (15:6.3.1+svn253039-1build1) 6.3.1 20170620"
ARM GAS  /tmp/cc674Egv.s 			page 4

