ARM GAS  /tmp/ccO6omx7.s 			page 1


   1              		.syntax unified
   2              		.cpu cortex-m3
   3              		.fpu softvfp
   4              		.eabi_attribute 20, 1
   5              		.eabi_attribute 21, 1
   6              		.eabi_attribute 23, 3
   7              		.eabi_attribute 24, 1
   8              		.eabi_attribute 25, 1
   9              		.eabi_attribute 26, 1
  10              		.eabi_attribute 30, 1
  11              		.eabi_attribute 34, 1
  12              		.eabi_attribute 18, 4
  13              		.thumb
  14              		.file	"sys_init.c"
  15              		.section	.text.SystemInit,"ax",%progbits
  16              		.align	2
  17              		.global	SystemInit
  18              		.thumb
  19              		.thumb_func
  21              	SystemInit:
  22              		@ args = 0, pretend = 0, frame = 0
  23              		@ frame_needed = 0, uses_anonymous_args = 0
  24              		@ link register save eliminated.
  25 0000 0F4B     		ldr	r3, .L2
  26 0002 1A68     		ldr	r2, [r3]
  27 0004 42F00102 		orr	r2, r2, #1
  28 0008 1A60     		str	r2, [r3]
  29 000a 5968     		ldr	r1, [r3, #4]
  30 000c 0D4A     		ldr	r2, .L2+4
  31 000e 0A40     		ands	r2, r2, r1
  32 0010 5A60     		str	r2, [r3, #4]
  33 0012 1A68     		ldr	r2, [r3]
  34 0014 22F08472 		bic	r2, r2, #17301504
  35 0018 22F48032 		bic	r2, r2, #65536
  36 001c 1A60     		str	r2, [r3]
  37 001e 1A68     		ldr	r2, [r3]
  38 0020 22F48022 		bic	r2, r2, #262144
  39 0024 1A60     		str	r2, [r3]
  40 0026 5A68     		ldr	r2, [r3, #4]
  41 0028 22F4FE02 		bic	r2, r2, #8323072
  42 002c 5A60     		str	r2, [r3, #4]
  43 002e 4FF41F02 		mov	r2, #10420224
  44 0032 9A60     		str	r2, [r3, #8]
  45 0034 4FF00062 		mov	r2, #134217728
  46 0038 034B     		ldr	r3, .L2+8
  47 003a 9A60     		str	r2, [r3, #8]
  48 003c 7047     		bx	lr
  49              	.L3:
  50 003e 00BF     		.align	2
  51              	.L2:
  52 0040 00100240 		.word	1073876992
  53 0044 0000FFF8 		.word	-117506048
  54 0048 00ED00E0 		.word	-536810240
  56              		.section	.text.SystemCoreClockUpdate,"ax",%progbits
  57              		.align	2
  58              		.global	SystemCoreClockUpdate
  59              		.thumb
ARM GAS  /tmp/ccO6omx7.s 			page 2


  60              		.thumb_func
  62              	SystemCoreClockUpdate:
  63              		@ args = 0, pretend = 0, frame = 0
  64              		@ frame_needed = 0, uses_anonymous_args = 0
  65              		@ link register save eliminated.
  66 0000 1F4B     		ldr	r3, .L13
  67 0002 5B68     		ldr	r3, [r3, #4]
  68 0004 03F00C03 		and	r3, r3, #12
  69 0008 042B     		cmp	r3, #4
  70 000a 06D0     		beq	.L6
  71 000c 082B     		cmp	r3, #8
  72 000e 08D0     		beq	.L7
  73 0010 3BBB     		cbnz	r3, .L12
  74 0012 1C4A     		ldr	r2, .L13+4
  75 0014 1C4B     		ldr	r3, .L13+8
  76 0016 1A60     		str	r2, [r3]
  77 0018 26E0     		b	.L9
  78              	.L6:
  79 001a 1C4A     		ldr	r2, .L13+12
  80 001c 1A4B     		ldr	r3, .L13+8
  81 001e 1A60     		str	r2, [r3]
  82 0020 22E0     		b	.L9
  83              	.L7:
  84 0022 174A     		ldr	r2, .L13
  85 0024 5368     		ldr	r3, [r2, #4]
  86 0026 5268     		ldr	r2, [r2, #4]
  87 0028 C3F38343 		ubfx	r3, r3, #18, #4
  88 002c 0233     		adds	r3, r3, #2
  89 002e 12F4803F 		tst	r2, #65536
  90 0032 05D1     		bne	.L10
  91 0034 164A     		ldr	r2, .L13+16
  92 0036 02FB03F3 		mul	r3, r2, r3
  93 003a 134A     		ldr	r2, .L13+8
  94 003c 1360     		str	r3, [r2]
  95 003e 13E0     		b	.L9
  96              	.L10:
  97 0040 0F4A     		ldr	r2, .L13
  98 0042 5268     		ldr	r2, [r2, #4]
  99 0044 12F4003F 		tst	r2, #131072
 100 0048 05D0     		beq	.L11
 101 004a 0E4A     		ldr	r2, .L13+4
 102 004c 02FB03F3 		mul	r3, r2, r3
 103 0050 0D4A     		ldr	r2, .L13+8
 104 0052 1360     		str	r3, [r2]
 105 0054 08E0     		b	.L9
 106              	.L11:
 107 0056 0D4A     		ldr	r2, .L13+12
 108 0058 02FB03F3 		mul	r3, r2, r3
 109 005c 0A4A     		ldr	r2, .L13+8
 110 005e 1360     		str	r3, [r2]
 111 0060 02E0     		b	.L9
 112              	.L12:
 113 0062 084A     		ldr	r2, .L13+4
 114 0064 084B     		ldr	r3, .L13+8
 115 0066 1A60     		str	r2, [r3]
 116              	.L9:
 117 0068 054B     		ldr	r3, .L13
ARM GAS  /tmp/ccO6omx7.s 			page 3


 118 006a 5B68     		ldr	r3, [r3, #4]
 119 006c C3F30313 		ubfx	r3, r3, #4, #4
 120 0070 084A     		ldr	r2, .L13+20
 121 0072 D15C     		ldrb	r1, [r2, r3]	@ zero_extendqisi2
 122 0074 044A     		ldr	r2, .L13+8
 123 0076 1368     		ldr	r3, [r2]
 124 0078 CB40     		lsrs	r3, r3, r1
 125 007a 1360     		str	r3, [r2]
 126 007c 7047     		bx	lr
 127              	.L14:
 128 007e 00BF     		.align	2
 129              	.L13:
 130 0080 00100240 		.word	1073876992
 131 0084 00127A00 		.word	8000000
 132 0088 00000000 		.word	.LANCHOR0
 133 008c 0024F400 		.word	16000000
 134 0090 00093D00 		.word	4000000
 135 0094 00000000 		.word	.LANCHOR1
 137              		.global	APBPrescTable
 138              		.global	AHBPrescTable
 139              		.global	SystemCoreClock
 140              		.section	.rodata.AHBPrescTable,"a",%progbits
 141              		.align	2
 142              		.set	.LANCHOR1,. + 0
 145              	AHBPrescTable:
 146 0000 00       		.byte	0
 147 0001 00       		.byte	0
 148 0002 00       		.byte	0
 149 0003 00       		.byte	0
 150 0004 00       		.byte	0
 151 0005 00       		.byte	0
 152 0006 00       		.byte	0
 153 0007 00       		.byte	0
 154 0008 01       		.byte	1
 155 0009 02       		.byte	2
 156 000a 03       		.byte	3
 157 000b 04       		.byte	4
 158 000c 06       		.byte	6
 159 000d 07       		.byte	7
 160 000e 08       		.byte	8
 161 000f 09       		.byte	9
 162              		.section	.rodata.APBPrescTable,"a",%progbits
 163              		.align	2
 166              	APBPrescTable:
 167 0000 00       		.byte	0
 168 0001 00       		.byte	0
 169 0002 00       		.byte	0
 170 0003 00       		.byte	0
 171 0004 01       		.byte	1
 172 0005 02       		.byte	2
 173 0006 03       		.byte	3
 174 0007 04       		.byte	4
 175              		.section	.data.SystemCoreClock,"aw",%progbits
 176              		.align	2
 177              		.set	.LANCHOR0,. + 0
 180              	SystemCoreClock:
 181 0000 0024F400 		.word	16000000
ARM GAS  /tmp/ccO6omx7.s 			page 4


 182              		.ident	"GCC: (15:4.9.3+svn231177-1) 4.9.3 20150529 (prerelease)"
ARM GAS  /tmp/ccO6omx7.s 			page 5


DEFINED SYMBOLS
                            *ABS*:0000000000000000 sys_init.c
     /tmp/ccO6omx7.s:16     .text.SystemInit:0000000000000000 $t
     /tmp/ccO6omx7.s:21     .text.SystemInit:0000000000000000 SystemInit
     /tmp/ccO6omx7.s:52     .text.SystemInit:0000000000000040 $d
     /tmp/ccO6omx7.s:57     .text.SystemCoreClockUpdate:0000000000000000 $t
     /tmp/ccO6omx7.s:62     .text.SystemCoreClockUpdate:0000000000000000 SystemCoreClockUpdate
     /tmp/ccO6omx7.s:130    .text.SystemCoreClockUpdate:0000000000000080 $d
     /tmp/ccO6omx7.s:166    .rodata.APBPrescTable:0000000000000000 APBPrescTable
     /tmp/ccO6omx7.s:145    .rodata.AHBPrescTable:0000000000000000 AHBPrescTable
     /tmp/ccO6omx7.s:180    .data.SystemCoreClock:0000000000000000 SystemCoreClock
     /tmp/ccO6omx7.s:141    .rodata.AHBPrescTable:0000000000000000 $d
     /tmp/ccO6omx7.s:163    .rodata.APBPrescTable:0000000000000000 $d
     /tmp/ccO6omx7.s:176    .data.SystemCoreClock:0000000000000000 $d

NO UNDEFINED SYMBOLS
