ARM GAS  /tmp/ccHI2Bo8.s 			page 1


   1              		.syntax unified
   2              		.cpu cortex-m3
   3              		.fpu softvfp
   4              		.eabi_attribute 20, 1
   5              		.eabi_attribute 21, 1
   6              		.eabi_attribute 23, 3
   7              		.eabi_attribute 24, 1
   8              		.eabi_attribute 25, 1
   9              		.eabi_attribute 26, 1
  10              		.eabi_attribute 30, 1
  11              		.eabi_attribute 34, 1
  12              		.eabi_attribute 18, 4
  13              		.thumb
  14              		.file	"stm32f1xx_hal_pcd.c"
  15              		.section	.text.HAL_PCD_MspInit,"ax",%progbits
  16              		.align	2
  17              		.weak	HAL_PCD_MspInit
  18              		.thumb
  19              		.thumb_func
  21              	HAL_PCD_MspInit:
  22              		@ args = 0, pretend = 0, frame = 0
  23              		@ frame_needed = 0, uses_anonymous_args = 0
  24              		@ link register save eliminated.
  25 0000 7047     		bx	lr
  27 0002 00BF     		.section	.text.HAL_PCD_Init,"ax",%progbits
  28              		.align	2
  29              		.global	HAL_PCD_Init
  30              		.thumb
  31              		.thumb_func
  33              	HAL_PCD_Init:
  34              		@ args = 0, pretend = 0, frame = 0
  35              		@ frame_needed = 0, uses_anonymous_args = 0
  36 0000 F0B5     		push	{r4, r5, r6, r7, lr}
  37 0002 87B0     		sub	sp, sp, #28
  38 0004 0028     		cmp	r0, #0
  39 0006 73D0     		beq	.L11
  40 0008 0446     		mov	r4, r0
  41 000a 90F82932 		ldrb	r3, [r0, #553]	@ zero_extendqisi2
  42 000e 13F0FF0F 		tst	r3, #255
  43 0012 04D1     		bne	.L4
  44 0014 0023     		movs	r3, #0
  45 0016 80F82832 		strb	r3, [r0, #552]
  46 001a FFF7FEFF 		bl	HAL_PCD_MspInit
  47              	.L4:
  48 001e 0323     		movs	r3, #3
  49 0020 84F82932 		strb	r3, [r4, #553]
  50 0024 2068     		ldr	r0, [r4]
  51 0026 FFF7FEFF 		bl	USB_DisableGlobalInt
  52 002a 2546     		mov	r5, r4
  53 002c 55F8107B 		ldr	r7, [r5], #16
  54 0030 6E46     		mov	r6, sp
  55 0032 0FCD     		ldmia	r5!, {r0, r1, r2, r3}
  56 0034 0FC6     		stmia	r6!, {r0, r1, r2, r3}
  57 0036 2B68     		ldr	r3, [r5]
  58 0038 3360     		str	r3, [r6]
  59 003a 231D     		adds	r3, r4, #4
  60 003c 0ECB     		ldmia	r3, {r1, r2, r3}
ARM GAS  /tmp/ccHI2Bo8.s 			page 2


  61 003e 3846     		mov	r0, r7
  62 0040 FFF7FEFF 		bl	USB_CoreInit
  63 0044 20B1     		cbz	r0, .L5
  64 0046 0223     		movs	r3, #2
  65 0048 84F82932 		strb	r3, [r4, #553]
  66 004c 0125     		movs	r5, #1
  67 004e 50E0     		b	.L3
  68              	.L5:
  69 0050 2068     		ldr	r0, [r4]
  70 0052 0021     		movs	r1, #0
  71 0054 FFF7FEFF 		bl	USB_SetCurrentMode
  72 0058 0023     		movs	r3, #0
  73 005a 11E0     		b	.L6
  74              	.L7:
  75 005c 04EB4312 		add	r2, r4, r3, lsl #5
  76 0060 0121     		movs	r1, #1
  77 0062 82F82910 		strb	r1, [r2, #41]
  78 0066 82F82830 		strb	r3, [r2, #40]
  79 006a D386     		strh	r3, [r2, #54]	@ movhi
  80 006c 0021     		movs	r1, #0
  81 006e 82F82B10 		strb	r1, [r2, #43]
  82 0072 9163     		str	r1, [r2, #56]
  83 0074 D163     		str	r1, [r2, #60]
  84 0076 9A1C     		adds	r2, r3, #2
  85 0078 5201     		lsls	r2, r2, #5
  86 007a A150     		str	r1, [r4, r2]
  87 007c 0133     		adds	r3, r3, #1
  88 007e DBB2     		uxtb	r3, r3
  89              	.L6:
  90 0080 6068     		ldr	r0, [r4, #4]
  91 0082 8342     		cmp	r3, r0
  92 0084 EAD3     		bcc	.L7
  93 0086 0023     		movs	r3, #0
  94 0088 12E0     		b	.L8
  95              	.L9:
  96 008a 04EB4311 		add	r1, r4, r3, lsl #5
  97 008e 0022     		movs	r2, #0
  98 0090 81F82921 		strb	r2, [r1, #297]
  99 0094 81F82831 		strb	r3, [r1, #296]
 100 0098 81F82B21 		strb	r2, [r1, #299]
 101 009c C1F83821 		str	r2, [r1, #312]
 102 00a0 C1F83C21 		str	r2, [r1, #316]
 103 00a4 03F10A01 		add	r1, r3, #10
 104 00a8 4901     		lsls	r1, r1, #5
 105 00aa 6250     		str	r2, [r4, r1]
 106 00ac 0133     		adds	r3, r3, #1
 107 00ae DBB2     		uxtb	r3, r3
 108              	.L8:
 109 00b0 9842     		cmp	r0, r3
 110 00b2 EAD8     		bhi	.L9
 111 00b4 2546     		mov	r5, r4
 112 00b6 55F8107B 		ldr	r7, [r5], #16
 113 00ba 6E46     		mov	r6, sp
 114 00bc 0FCD     		ldmia	r5!, {r0, r1, r2, r3}
 115 00be 0FC6     		stmia	r6!, {r0, r1, r2, r3}
 116 00c0 2B68     		ldr	r3, [r5]
 117 00c2 3360     		str	r3, [r6]
ARM GAS  /tmp/ccHI2Bo8.s 			page 3


 118 00c4 231D     		adds	r3, r4, #4
 119 00c6 0ECB     		ldmia	r3, {r1, r2, r3}
 120 00c8 3846     		mov	r0, r7
 121 00ca FFF7FEFF 		bl	USB_DevInit
 122 00ce 0546     		mov	r5, r0
 123 00d0 20B1     		cbz	r0, .L10
 124 00d2 0223     		movs	r3, #2
 125 00d4 84F82932 		strb	r3, [r4, #553]
 126 00d8 0125     		movs	r5, #1
 127 00da 0AE0     		b	.L3
 128              	.L10:
 129 00dc 0023     		movs	r3, #0
 130 00de 84F82430 		strb	r3, [r4, #36]
 131 00e2 0123     		movs	r3, #1
 132 00e4 84F82932 		strb	r3, [r4, #553]
 133 00e8 2068     		ldr	r0, [r4]
 134 00ea FFF7FEFF 		bl	USB_DevDisconnect
 135 00ee 00E0     		b	.L3
 136              	.L11:
 137 00f0 0125     		movs	r5, #1
 138              	.L3:
 139 00f2 2846     		mov	r0, r5
 140 00f4 07B0     		add	sp, sp, #28
 141              		@ sp needed
 142 00f6 F0BD     		pop	{r4, r5, r6, r7, pc}
 144              		.section	.text.HAL_PCD_MspDeInit,"ax",%progbits
 145              		.align	2
 146              		.weak	HAL_PCD_MspDeInit
 147              		.thumb
 148              		.thumb_func
 150              	HAL_PCD_MspDeInit:
 151              		@ args = 0, pretend = 0, frame = 0
 152              		@ frame_needed = 0, uses_anonymous_args = 0
 153              		@ link register save eliminated.
 154 0000 7047     		bx	lr
 156 0002 00BF     		.section	.text.HAL_PCD_Start,"ax",%progbits
 157              		.align	2
 158              		.global	HAL_PCD_Start
 159              		.thumb
 160              		.thumb_func
 162              	HAL_PCD_Start:
 163              		@ args = 0, pretend = 0, frame = 0
 164              		@ frame_needed = 0, uses_anonymous_args = 0
 165 0000 90F82832 		ldrb	r3, [r0, #552]	@ zero_extendqisi2
 166 0004 012B     		cmp	r3, #1
 167 0006 10D0     		beq	.L16
 168 0008 10B5     		push	{r4, lr}
 169 000a 0446     		mov	r4, r0
 170 000c 0121     		movs	r1, #1
 171 000e 80F82812 		strb	r1, [r0, #552]
 172 0012 FFF7FEFF 		bl	HAL_PCDEx_SetConnectionState
 173 0016 2068     		ldr	r0, [r4]
 174 0018 FFF7FEFF 		bl	USB_DevConnect
 175 001c 2068     		ldr	r0, [r4]
 176 001e FFF7FEFF 		bl	USB_EnableGlobalInt
 177 0022 0020     		movs	r0, #0
 178 0024 84F82802 		strb	r0, [r4, #552]
ARM GAS  /tmp/ccHI2Bo8.s 			page 4


 179 0028 10BD     		pop	{r4, pc}
 180              	.L16:
 181 002a 0220     		movs	r0, #2
 182 002c 7047     		bx	lr
 184 002e 00BF     		.section	.text.HAL_PCD_Stop,"ax",%progbits
 185              		.align	2
 186              		.global	HAL_PCD_Stop
 187              		.thumb
 188              		.thumb_func
 190              	HAL_PCD_Stop:
 191              		@ args = 0, pretend = 0, frame = 0
 192              		@ frame_needed = 0, uses_anonymous_args = 0
 193 0000 38B5     		push	{r3, r4, r5, lr}
 194 0002 90F82832 		ldrb	r3, [r0, #552]	@ zero_extendqisi2
 195 0006 012B     		cmp	r3, #1
 196 0008 17D0     		beq	.L22
 197 000a 0446     		mov	r4, r0
 198 000c 0123     		movs	r3, #1
 199 000e 80F82832 		strb	r3, [r0, #552]
 200 0012 0068     		ldr	r0, [r0]
 201 0014 FFF7FEFF 		bl	USB_DisableGlobalInt
 202 0018 2068     		ldr	r0, [r4]
 203 001a FFF7FEFF 		bl	USB_StopDevice
 204 001e 0546     		mov	r5, r0
 205 0020 20B1     		cbz	r0, .L21
 206 0022 0023     		movs	r3, #0
 207 0024 84F82832 		strb	r3, [r4, #552]
 208 0028 0125     		movs	r5, #1
 209 002a 07E0     		b	.L20
 210              	.L21:
 211 002c 2068     		ldr	r0, [r4]
 212 002e FFF7FEFF 		bl	USB_DevDisconnect
 213 0032 0023     		movs	r3, #0
 214 0034 84F82832 		strb	r3, [r4, #552]
 215 0038 00E0     		b	.L20
 216              	.L22:
 217 003a 0225     		movs	r5, #2
 218              	.L20:
 219 003c 2846     		mov	r0, r5
 220 003e 38BD     		pop	{r3, r4, r5, pc}
 222              		.section	.text.HAL_PCD_DeInit,"ax",%progbits
 223              		.align	2
 224              		.global	HAL_PCD_DeInit
 225              		.thumb
 226              		.thumb_func
 228              	HAL_PCD_DeInit:
 229              		@ args = 0, pretend = 0, frame = 0
 230              		@ frame_needed = 0, uses_anonymous_args = 0
 231 0000 68B1     		cbz	r0, .L26
 232 0002 10B5     		push	{r4, lr}
 233 0004 0446     		mov	r4, r0
 234 0006 0323     		movs	r3, #3
 235 0008 80F82932 		strb	r3, [r0, #553]
 236 000c FFF7FEFF 		bl	HAL_PCD_Stop
 237 0010 2046     		mov	r0, r4
 238 0012 FFF7FEFF 		bl	HAL_PCD_MspDeInit
 239 0016 0020     		movs	r0, #0
ARM GAS  /tmp/ccHI2Bo8.s 			page 5


 240 0018 84F82902 		strb	r0, [r4, #553]
 241 001c 10BD     		pop	{r4, pc}
 242              	.L26:
 243 001e 0120     		movs	r0, #1
 244 0020 7047     		bx	lr
 246 0022 00BF     		.section	.text.HAL_PCD_DataOutStageCallback,"ax",%progbits
 247              		.align	2
 248              		.weak	HAL_PCD_DataOutStageCallback
 249              		.thumb
 250              		.thumb_func
 252              	HAL_PCD_DataOutStageCallback:
 253              		@ args = 0, pretend = 0, frame = 0
 254              		@ frame_needed = 0, uses_anonymous_args = 0
 255              		@ link register save eliminated.
 256 0000 7047     		bx	lr
 258 0002 00BF     		.section	.text.HAL_PCD_DataInStageCallback,"ax",%progbits
 259              		.align	2
 260              		.weak	HAL_PCD_DataInStageCallback
 261              		.thumb
 262              		.thumb_func
 264              	HAL_PCD_DataInStageCallback:
 265              		@ args = 0, pretend = 0, frame = 0
 266              		@ frame_needed = 0, uses_anonymous_args = 0
 267              		@ link register save eliminated.
 268 0000 7047     		bx	lr
 270 0002 00BF     		.section	.text.HAL_PCD_SetupStageCallback,"ax",%progbits
 271              		.align	2
 272              		.weak	HAL_PCD_SetupStageCallback
 273              		.thumb
 274              		.thumb_func
 276              	HAL_PCD_SetupStageCallback:
 277              		@ args = 0, pretend = 0, frame = 0
 278              		@ frame_needed = 0, uses_anonymous_args = 0
 279              		@ link register save eliminated.
 280 0000 7047     		bx	lr
 282 0002 00BF     		.section	.text.HAL_PCD_SOFCallback,"ax",%progbits
 283              		.align	2
 284              		.weak	HAL_PCD_SOFCallback
 285              		.thumb
 286              		.thumb_func
 288              	HAL_PCD_SOFCallback:
 289              		@ args = 0, pretend = 0, frame = 0
 290              		@ frame_needed = 0, uses_anonymous_args = 0
 291              		@ link register save eliminated.
 292 0000 7047     		bx	lr
 294 0002 00BF     		.section	.text.HAL_PCD_ResetCallback,"ax",%progbits
 295              		.align	2
 296              		.weak	HAL_PCD_ResetCallback
 297              		.thumb
 298              		.thumb_func
 300              	HAL_PCD_ResetCallback:
 301              		@ args = 0, pretend = 0, frame = 0
 302              		@ frame_needed = 0, uses_anonymous_args = 0
 303              		@ link register save eliminated.
 304 0000 7047     		bx	lr
 306 0002 00BF     		.section	.text.HAL_PCD_SuspendCallback,"ax",%progbits
 307              		.align	2
ARM GAS  /tmp/ccHI2Bo8.s 			page 6


 308              		.weak	HAL_PCD_SuspendCallback
 309              		.thumb
 310              		.thumb_func
 312              	HAL_PCD_SuspendCallback:
 313              		@ args = 0, pretend = 0, frame = 0
 314              		@ frame_needed = 0, uses_anonymous_args = 0
 315              		@ link register save eliminated.
 316 0000 7047     		bx	lr
 318 0002 00BF     		.section	.text.HAL_PCD_ResumeCallback,"ax",%progbits
 319              		.align	2
 320              		.weak	HAL_PCD_ResumeCallback
 321              		.thumb
 322              		.thumb_func
 324              	HAL_PCD_ResumeCallback:
 325              		@ args = 0, pretend = 0, frame = 0
 326              		@ frame_needed = 0, uses_anonymous_args = 0
 327              		@ link register save eliminated.
 328 0000 7047     		bx	lr
 330 0002 00BF     		.section	.text.HAL_PCD_ISOOUTIncompleteCallback,"ax",%progbits
 331              		.align	2
 332              		.weak	HAL_PCD_ISOOUTIncompleteCallback
 333              		.thumb
 334              		.thumb_func
 336              	HAL_PCD_ISOOUTIncompleteCallback:
 337              		@ args = 0, pretend = 0, frame = 0
 338              		@ frame_needed = 0, uses_anonymous_args = 0
 339              		@ link register save eliminated.
 340 0000 7047     		bx	lr
 342 0002 00BF     		.section	.text.HAL_PCD_ISOINIncompleteCallback,"ax",%progbits
 343              		.align	2
 344              		.weak	HAL_PCD_ISOINIncompleteCallback
 345              		.thumb
 346              		.thumb_func
 348              	HAL_PCD_ISOINIncompleteCallback:
 349              		@ args = 0, pretend = 0, frame = 0
 350              		@ frame_needed = 0, uses_anonymous_args = 0
 351              		@ link register save eliminated.
 352 0000 7047     		bx	lr
 354 0002 00BF     		.section	.text.HAL_PCD_ConnectCallback,"ax",%progbits
 355              		.align	2
 356              		.weak	HAL_PCD_ConnectCallback
 357              		.thumb
 358              		.thumb_func
 360              	HAL_PCD_ConnectCallback:
 361              		@ args = 0, pretend = 0, frame = 0
 362              		@ frame_needed = 0, uses_anonymous_args = 0
 363              		@ link register save eliminated.
 364 0000 7047     		bx	lr
 366 0002 00BF     		.section	.text.HAL_PCD_DisconnectCallback,"ax",%progbits
 367              		.align	2
 368              		.weak	HAL_PCD_DisconnectCallback
 369              		.thumb
 370              		.thumb_func
 372              	HAL_PCD_DisconnectCallback:
 373              		@ args = 0, pretend = 0, frame = 0
 374              		@ frame_needed = 0, uses_anonymous_args = 0
 375              		@ link register save eliminated.
ARM GAS  /tmp/ccHI2Bo8.s 			page 7


 376 0000 7047     		bx	lr
 378 0002 00BF     		.section	.text.HAL_PCD_DevConnect,"ax",%progbits
 379              		.align	2
 380              		.global	HAL_PCD_DevConnect
 381              		.thumb
 382              		.thumb_func
 384              	HAL_PCD_DevConnect:
 385              		@ args = 0, pretend = 0, frame = 0
 386              		@ frame_needed = 0, uses_anonymous_args = 0
 387 0000 90F82832 		ldrb	r3, [r0, #552]	@ zero_extendqisi2
 388 0004 012B     		cmp	r3, #1
 389 0006 0DD0     		beq	.L42
 390 0008 10B5     		push	{r4, lr}
 391 000a 0446     		mov	r4, r0
 392 000c 0121     		movs	r1, #1
 393 000e 80F82812 		strb	r1, [r0, #552]
 394 0012 FFF7FEFF 		bl	HAL_PCDEx_SetConnectionState
 395 0016 2068     		ldr	r0, [r4]
 396 0018 FFF7FEFF 		bl	USB_DevConnect
 397 001c 0020     		movs	r0, #0
 398 001e 84F82802 		strb	r0, [r4, #552]
 399 0022 10BD     		pop	{r4, pc}
 400              	.L42:
 401 0024 0220     		movs	r0, #2
 402 0026 7047     		bx	lr
 404              		.section	.text.HAL_PCD_DevDisconnect,"ax",%progbits
 405              		.align	2
 406              		.global	HAL_PCD_DevDisconnect
 407              		.thumb
 408              		.thumb_func
 410              	HAL_PCD_DevDisconnect:
 411              		@ args = 0, pretend = 0, frame = 0
 412              		@ frame_needed = 0, uses_anonymous_args = 0
 413 0000 90F82832 		ldrb	r3, [r0, #552]	@ zero_extendqisi2
 414 0004 012B     		cmp	r3, #1
 415 0006 0ED0     		beq	.L47
 416 0008 10B5     		push	{r4, lr}
 417 000a 0446     		mov	r4, r0
 418 000c 0123     		movs	r3, #1
 419 000e 80F82832 		strb	r3, [r0, #552]
 420 0012 0021     		movs	r1, #0
 421 0014 FFF7FEFF 		bl	HAL_PCDEx_SetConnectionState
 422 0018 2068     		ldr	r0, [r4]
 423 001a FFF7FEFF 		bl	USB_DevDisconnect
 424 001e 0020     		movs	r0, #0
 425 0020 84F82802 		strb	r0, [r4, #552]
 426 0024 10BD     		pop	{r4, pc}
 427              	.L47:
 428 0026 0220     		movs	r0, #2
 429 0028 7047     		bx	lr
 431 002a 00BF     		.section	.text.HAL_PCD_SetAddress,"ax",%progbits
 432              		.align	2
 433              		.global	HAL_PCD_SetAddress
 434              		.thumb
 435              		.thumb_func
 437              	HAL_PCD_SetAddress:
 438              		@ args = 0, pretend = 0, frame = 0
ARM GAS  /tmp/ccHI2Bo8.s 			page 8


 439              		@ frame_needed = 0, uses_anonymous_args = 0
 440 0000 10B5     		push	{r4, lr}
 441 0002 0446     		mov	r4, r0
 442 0004 90F82832 		ldrb	r3, [r0, #552]	@ zero_extendqisi2
 443 0008 012B     		cmp	r3, #1
 444 000a 0BD0     		beq	.L52
 445 000c 0123     		movs	r3, #1
 446 000e 80F82832 		strb	r3, [r0, #552]
 447 0012 80F82410 		strb	r1, [r0, #36]
 448 0016 0068     		ldr	r0, [r0]
 449 0018 FFF7FEFF 		bl	USB_SetDevAddress
 450 001c 0020     		movs	r0, #0
 451 001e 84F82802 		strb	r0, [r4, #552]
 452 0022 10BD     		pop	{r4, pc}
 453              	.L52:
 454 0024 0220     		movs	r0, #2
 455 0026 10BD     		pop	{r4, pc}
 457              		.section	.text.HAL_PCD_EP_Open,"ax",%progbits
 458              		.align	2
 459              		.global	HAL_PCD_EP_Open
 460              		.thumb
 461              		.thumb_func
 463              	HAL_PCD_EP_Open:
 464              		@ args = 0, pretend = 0, frame = 0
 465              		@ frame_needed = 0, uses_anonymous_args = 0
 466 0000 70B5     		push	{r4, r5, r6, lr}
 467 0002 0546     		mov	r5, r0
 468 0004 11F0800F 		tst	r1, #128
 469 0008 0AD0     		beq	.L55
 470 000a 01F00700 		and	r0, r1, #7
 471 000e 4001     		lsls	r0, r0, #5
 472 0010 00F12804 		add	r4, r0, #40
 473 0014 2C44     		add	r4, r4, r5
 474 0016 2844     		add	r0, r0, r5
 475 0018 0126     		movs	r6, #1
 476 001a 80F82960 		strb	r6, [r0, #41]
 477 001e 09E0     		b	.L56
 478              	.L55:
 479 0020 01F00700 		and	r0, r1, #7
 480 0024 4001     		lsls	r0, r0, #5
 481 0026 00F59474 		add	r4, r0, #296
 482 002a 2C44     		add	r4, r4, r5
 483 002c 2844     		add	r0, r0, r5
 484 002e 0026     		movs	r6, #0
 485 0030 80F82961 		strb	r6, [r0, #297]
 486              	.L56:
 487 0034 01F00701 		and	r1, r1, #7
 488 0038 2170     		strb	r1, [r4]
 489 003a 2261     		str	r2, [r4, #16]
 490 003c E370     		strb	r3, [r4, #3]
 491 003e 6278     		ldrb	r2, [r4, #1]	@ zero_extendqisi2
 492 0040 02B1     		cbz	r2, .L57
 493 0042 E181     		strh	r1, [r4, #14]	@ movhi
 494              	.L57:
 495 0044 022B     		cmp	r3, #2
 496 0046 01D1     		bne	.L58
 497 0048 0023     		movs	r3, #0
ARM GAS  /tmp/ccHI2Bo8.s 			page 9


 498 004a 2371     		strb	r3, [r4, #4]
 499              	.L58:
 500 004c 95F82832 		ldrb	r3, [r5, #552]	@ zero_extendqisi2
 501 0050 012B     		cmp	r3, #1
 502 0052 0AD0     		beq	.L60
 503 0054 0123     		movs	r3, #1
 504 0056 85F82832 		strb	r3, [r5, #552]
 505 005a 2868     		ldr	r0, [r5]
 506 005c 2146     		mov	r1, r4
 507 005e FFF7FEFF 		bl	USB_ActivateEndpoint
 508 0062 0020     		movs	r0, #0
 509 0064 85F82802 		strb	r0, [r5, #552]
 510 0068 70BD     		pop	{r4, r5, r6, pc}
 511              	.L60:
 512 006a 0220     		movs	r0, #2
 513 006c 70BD     		pop	{r4, r5, r6, pc}
 515 006e 00BF     		.section	.text.HAL_PCD_EP_Close,"ax",%progbits
 516              		.align	2
 517              		.global	HAL_PCD_EP_Close
 518              		.thumb
 519              		.thumb_func
 521              	HAL_PCD_EP_Close:
 522              		@ args = 0, pretend = 0, frame = 0
 523              		@ frame_needed = 0, uses_anonymous_args = 0
 524 0000 10B5     		push	{r4, lr}
 525 0002 11F0800F 		tst	r1, #128
 526 0006 0AD0     		beq	.L63
 527 0008 01F00703 		and	r3, r1, #7
 528 000c 5B01     		lsls	r3, r3, #5
 529 000e 03F12802 		add	r2, r3, #40
 530 0012 0244     		add	r2, r2, r0
 531 0014 0344     		add	r3, r3, r0
 532 0016 0124     		movs	r4, #1
 533 0018 83F82940 		strb	r4, [r3, #41]
 534 001c 09E0     		b	.L64
 535              	.L63:
 536 001e 01F00703 		and	r3, r1, #7
 537 0022 5B01     		lsls	r3, r3, #5
 538 0024 03F59472 		add	r2, r3, #296
 539 0028 0244     		add	r2, r2, r0
 540 002a 0344     		add	r3, r3, r0
 541 002c 0024     		movs	r4, #0
 542 002e 83F82941 		strb	r4, [r3, #297]
 543              	.L64:
 544 0032 01F00703 		and	r3, r1, #7
 545 0036 1370     		strb	r3, [r2]
 546 0038 90F82832 		ldrb	r3, [r0, #552]	@ zero_extendqisi2
 547 003c 012B     		cmp	r3, #1
 548 003e 0BD0     		beq	.L66
 549 0040 0446     		mov	r4, r0
 550 0042 0123     		movs	r3, #1
 551 0044 80F82832 		strb	r3, [r0, #552]
 552 0048 0068     		ldr	r0, [r0]
 553 004a 1146     		mov	r1, r2
 554 004c FFF7FEFF 		bl	USB_DeactivateEndpoint
 555 0050 0020     		movs	r0, #0
 556 0052 84F82802 		strb	r0, [r4, #552]
ARM GAS  /tmp/ccHI2Bo8.s 			page 10


 557 0056 10BD     		pop	{r4, pc}
 558              	.L66:
 559 0058 0220     		movs	r0, #2
 560 005a 10BD     		pop	{r4, pc}
 562              		.section	.text.HAL_PCD_EP_Receive,"ax",%progbits
 563              		.align	2
 564              		.global	HAL_PCD_EP_Receive
 565              		.thumb
 566              		.thumb_func
 568              	HAL_PCD_EP_Receive:
 569              		@ args = 0, pretend = 0, frame = 0
 570              		@ frame_needed = 0, uses_anonymous_args = 0
 571 0000 70B5     		push	{r4, r5, r6, lr}
 572 0002 01F00705 		and	r5, r1, #7
 573 0006 6C01     		lsls	r4, r5, #5
 574 0008 04F59471 		add	r1, r4, #296
 575 000c 0144     		add	r1, r1, r0
 576 000e 0444     		add	r4, r4, r0
 577 0010 C4F83C21 		str	r2, [r4, #316]
 578 0014 05F10A02 		add	r2, r5, #10
 579 0018 5201     		lsls	r2, r2, #5
 580 001a 8618     		adds	r6, r0, r2
 581 001c 8350     		str	r3, [r0, r2]
 582 001e 0023     		movs	r3, #0
 583 0020 7360     		str	r3, [r6, #4]
 584 0022 84F82931 		strb	r3, [r4, #297]
 585 0026 84F82851 		strb	r5, [r4, #296]
 586 002a 1DB9     		cbnz	r5, .L69
 587 002c 0068     		ldr	r0, [r0]
 588 002e FFF7FEFF 		bl	USB_EPStartXfer
 589 0032 02E0     		b	.L70
 590              	.L69:
 591 0034 0068     		ldr	r0, [r0]
 592 0036 FFF7FEFF 		bl	USB_EPStartXfer
 593              	.L70:
 594 003a 0020     		movs	r0, #0
 595 003c 70BD     		pop	{r4, r5, r6, pc}
 597 003e 00BF     		.section	.text.HAL_PCD_EP_GetRxCount,"ax",%progbits
 598              		.align	2
 599              		.global	HAL_PCD_EP_GetRxCount
 600              		.thumb
 601              		.thumb_func
 603              	HAL_PCD_EP_GetRxCount:
 604              		@ args = 0, pretend = 0, frame = 0
 605              		@ frame_needed = 0, uses_anonymous_args = 0
 606              		@ link register save eliminated.
 607 0000 01F00701 		and	r1, r1, #7
 608 0004 00EB4110 		add	r0, r0, r1, lsl #5
 609 0008 D0F84401 		ldr	r0, [r0, #324]
 610 000c 7047     		bx	lr
 612 000e 00BF     		.section	.text.HAL_PCD_EP_Transmit,"ax",%progbits
 613              		.align	2
 614              		.global	HAL_PCD_EP_Transmit
 615              		.thumb
 616              		.thumb_func
 618              	HAL_PCD_EP_Transmit:
 619              		@ args = 0, pretend = 0, frame = 0
ARM GAS  /tmp/ccHI2Bo8.s 			page 11


 620              		@ frame_needed = 0, uses_anonymous_args = 0
 621 0000 70B5     		push	{r4, r5, r6, lr}
 622 0002 01F00705 		and	r5, r1, #7
 623 0006 6C01     		lsls	r4, r5, #5
 624 0008 04F12801 		add	r1, r4, #40
 625 000c 0144     		add	r1, r1, r0
 626 000e 0444     		add	r4, r4, r0
 627 0010 E263     		str	r2, [r4, #60]
 628 0012 AA1C     		adds	r2, r5, #2
 629 0014 5201     		lsls	r2, r2, #5
 630 0016 8618     		adds	r6, r0, r2
 631 0018 8350     		str	r3, [r0, r2]
 632 001a 0023     		movs	r3, #0
 633 001c 7360     		str	r3, [r6, #4]
 634 001e 0123     		movs	r3, #1
 635 0020 84F82930 		strb	r3, [r4, #41]
 636 0024 84F82850 		strb	r5, [r4, #40]
 637 0028 1DB9     		cbnz	r5, .L74
 638 002a 0068     		ldr	r0, [r0]
 639 002c FFF7FEFF 		bl	USB_EPStartXfer
 640 0030 02E0     		b	.L75
 641              	.L74:
 642 0032 0068     		ldr	r0, [r0]
 643 0034 FFF7FEFF 		bl	USB_EPStartXfer
 644              	.L75:
 645 0038 0020     		movs	r0, #0
 646 003a 70BD     		pop	{r4, r5, r6, pc}
 648              		.section	.text.PCD_EP_ISR_Handler,"ax",%progbits
 649              		.align	2
 650              		.thumb
 651              		.thumb_func
 653              	PCD_EP_ISR_Handler:
 654              		@ args = 0, pretend = 0, frame = 0
 655              		@ frame_needed = 0, uses_anonymous_args = 0
 656 0000 F8B5     		push	{r3, r4, r5, r6, r7, lr}
 657 0002 0446     		mov	r4, r0
 658 0004 B4E1     		b	.L78
 659              	.L97:
 660 0006 B0F84430 		ldrh	r3, [r0, #68]
 661 000a 9BB2     		uxth	r3, r3
 662 000c 13F00F06 		ands	r6, r3, #15
 663 0010 40F0D480 		bne	.L79
 664 0014 03F01003 		and	r3, r3, #16
 665 0018 9BB2     		uxth	r3, r3
 666 001a 002B     		cmp	r3, #0
 667 001c 36D1     		bne	.L80
 668 001e 0388     		ldrh	r3, [r0]
 669 0020 9BB2     		uxth	r3, r3
 670 0022 23F4E143 		bic	r3, r3, #28800
 671 0026 23F07003 		bic	r3, r3, #112
 672 002a 6FEA4343 		mvn	r3, r3, lsl #17
 673 002e 6FEA5343 		mvn	r3, r3, lsr #17
 674 0032 9BB2     		uxth	r3, r3
 675 0034 0380     		strh	r3, [r0]	@ movhi
 676 0036 2168     		ldr	r1, [r4]
 677 0038 B1F85030 		ldrh	r3, [r1, #80]
 678 003c 9AB2     		uxth	r2, r3
ARM GAS  /tmp/ccHI2Bo8.s 			page 12


 679 003e 94F82830 		ldrb	r3, [r4, #40]	@ zero_extendqisi2
 680 0042 02EBC303 		add	r3, r2, r3, lsl #3
 681 0046 01EB4303 		add	r3, r1, r3, lsl #1
 682 004a B3F80434 		ldrh	r3, [r3, #1028]
 683 004e C3F30903 		ubfx	r3, r3, #0, #10
 684 0052 6364     		str	r3, [r4, #68]
 685 0054 E26B     		ldr	r2, [r4, #60]
 686 0056 1344     		add	r3, r3, r2
 687 0058 E363     		str	r3, [r4, #60]
 688 005a 2046     		mov	r0, r4
 689 005c 0021     		movs	r1, #0
 690 005e FFF7FEFF 		bl	HAL_PCD_DataInStageCallback
 691 0062 94F82430 		ldrb	r3, [r4, #36]	@ zero_extendqisi2
 692 0066 13F0FF0F 		tst	r3, #255
 693 006a 00F08181 		beq	.L78
 694 006e 236C     		ldr	r3, [r4, #64]
 695 0070 002B     		cmp	r3, #0
 696 0072 40F07D81 		bne	.L78
 697 0076 2268     		ldr	r2, [r4]
 698 0078 94F82430 		ldrb	r3, [r4, #36]	@ zero_extendqisi2
 699 007c 43F08003 		orr	r3, r3, #128
 700 0080 A2F84C30 		strh	r3, [r2, #76]	@ movhi
 701 0084 0023     		movs	r3, #0
 702 0086 84F82430 		strb	r3, [r4, #36]
 703 008a 71E1     		b	.L78
 704              	.L80:
 705 008c 0388     		ldrh	r3, [r0]
 706 008e 9BB2     		uxth	r3, r3
 707 0090 03F40062 		and	r2, r3, #2048
 708 0094 92B2     		uxth	r2, r2
 709 0096 0AB3     		cbz	r2, .L82
 710 0098 B0F85030 		ldrh	r3, [r0, #80]
 711 009c 9BB2     		uxth	r3, r3
 712 009e 94F82821 		ldrb	r2, [r4, #296]	@ zero_extendqisi2
 713 00a2 03EBC203 		add	r3, r3, r2, lsl #3
 714 00a6 00EB4303 		add	r3, r0, r3, lsl #1
 715 00aa B3F80C34 		ldrh	r3, [r3, #1036]
 716 00ae C3F30903 		ubfx	r3, r3, #0, #10
 717 00b2 C4F84431 		str	r3, [r4, #324]
 718 00b6 04F50C71 		add	r1, r4, #560
 719 00ba B4F82E21 		ldrh	r2, [r4, #302]
 720 00be FFF7FEFF 		bl	USB_ReadPMA
 721 00c2 2268     		ldr	r2, [r4]
 722 00c4 1388     		ldrh	r3, [r2]
 723 00c6 23F07003 		bic	r3, r3, #112
 724 00ca 1B05     		lsls	r3, r3, #20
 725 00cc 1B0D     		lsrs	r3, r3, #20
 726 00ce 43F08003 		orr	r3, r3, #128
 727 00d2 1380     		strh	r3, [r2]	@ movhi
 728 00d4 2046     		mov	r0, r4
 729 00d6 FFF7FEFF 		bl	HAL_PCD_SetupStageCallback
 730 00da 49E1     		b	.L78
 731              	.L82:
 732 00dc 13F4004F 		tst	r3, #32768
 733 00e0 00F04681 		beq	.L78
 734 00e4 0388     		ldrh	r3, [r0]
 735 00e6 23F07003 		bic	r3, r3, #112
ARM GAS  /tmp/ccHI2Bo8.s 			page 13


 736 00ea 1B05     		lsls	r3, r3, #20
 737 00ec 1B0D     		lsrs	r3, r3, #20
 738 00ee 43F08003 		orr	r3, r3, #128
 739 00f2 0380     		strh	r3, [r0]	@ movhi
 740 00f4 2068     		ldr	r0, [r4]
 741 00f6 B0F85030 		ldrh	r3, [r0, #80]
 742 00fa 9BB2     		uxth	r3, r3
 743 00fc 94F82821 		ldrb	r2, [r4, #296]	@ zero_extendqisi2
 744 0100 03EBC203 		add	r3, r3, r2, lsl #3
 745 0104 00EB4303 		add	r3, r0, r3, lsl #1
 746 0108 B3F80C34 		ldrh	r3, [r3, #1036]
 747 010c C3F30903 		ubfx	r3, r3, #0, #10
 748 0110 C4F84431 		str	r3, [r4, #324]
 749 0114 8BB1     		cbz	r3, .L83
 750 0116 D4F83C11 		ldr	r1, [r4, #316]
 751 011a 71B1     		cbz	r1, .L83
 752 011c B4F82E21 		ldrh	r2, [r4, #302]
 753 0120 FFF7FEFF 		bl	USB_ReadPMA
 754 0124 D4F83C21 		ldr	r2, [r4, #316]
 755 0128 D4F84431 		ldr	r3, [r4, #324]
 756 012c 1344     		add	r3, r3, r2
 757 012e C4F83C31 		str	r3, [r4, #316]
 758 0132 2046     		mov	r0, r4
 759 0134 0021     		movs	r1, #0
 760 0136 FFF7FEFF 		bl	HAL_PCD_DataOutStageCallback
 761              	.L83:
 762 013a 2268     		ldr	r2, [r4]
 763 013c B2F85030 		ldrh	r3, [r2, #80]
 764 0140 9BB2     		uxth	r3, r3
 765 0142 1344     		add	r3, r3, r2
 766 0144 D4F83821 		ldr	r2, [r4, #312]
 767 0148 8AB9     		cbnz	r2, .L84
 768 014a B3F80C24 		ldrh	r2, [r3, #1036]
 769 014e 22F4F842 		bic	r2, r2, #31744
 770 0152 1204     		lsls	r2, r2, #16
 771 0154 120C     		lsrs	r2, r2, #16
 772 0156 A3F80C24 		strh	r2, [r3, #1036]	@ movhi
 773 015a B3F80C24 		ldrh	r2, [r3, #1036]
 774 015e 6FEA4242 		mvn	r2, r2, lsl #17
 775 0162 6FEA5242 		mvn	r2, r2, lsr #17
 776 0166 92B2     		uxth	r2, r2
 777 0168 A3F80C24 		strh	r2, [r3, #1036]	@ movhi
 778 016c 17E0     		b	.L85
 779              	.L84:
 780 016e 3E2A     		cmp	r2, #62
 781 0170 09D8     		bhi	.L86
 782 0172 5108     		lsrs	r1, r2, #1
 783 0174 12F0010F 		tst	r2, #1
 784 0178 00D0     		beq	.L87
 785 017a 0131     		adds	r1, r1, #1
 786              	.L87:
 787 017c 8A02     		lsls	r2, r1, #10
 788 017e 92B2     		uxth	r2, r2
 789 0180 A3F80C24 		strh	r2, [r3, #1036]	@ movhi
 790 0184 0BE0     		b	.L85
 791              	.L86:
 792 0186 5109     		lsrs	r1, r2, #5
ARM GAS  /tmp/ccHI2Bo8.s 			page 14


 793 0188 12F01F0F 		tst	r2, #31
 794 018c 00D1     		bne	.L88
 795 018e 0139     		subs	r1, r1, #1
 796              	.L88:
 797 0190 6FEAC162 		mvn	r2, r1, lsl #27
 798 0194 6FEA5242 		mvn	r2, r2, lsr #17
 799 0198 92B2     		uxth	r2, r2
 800 019a A3F80C24 		strh	r2, [r3, #1036]	@ movhi
 801              	.L85:
 802 019e 2268     		ldr	r2, [r4]
 803 01a0 1388     		ldrh	r3, [r2]
 804 01a2 9BB2     		uxth	r3, r3
 805 01a4 23F48043 		bic	r3, r3, #16384
 806 01a8 23F07003 		bic	r3, r3, #112
 807 01ac 83F44053 		eor	r3, r3, #12288
 808 01b0 43F40043 		orr	r3, r3, #32768
 809 01b4 43F08003 		orr	r3, r3, #128
 810 01b8 1380     		strh	r3, [r2]	@ movhi
 811 01ba D9E0     		b	.L78
 812              	.L79:
 813 01bc 30F82650 		ldrh	r5, [r0, r6, lsl #2]
 814 01c0 ADB2     		uxth	r5, r5
 815 01c2 15F4004F 		tst	r5, #32768
 816 01c6 00F09880 		beq	.L89
 817 01ca 30F82630 		ldrh	r3, [r0, r6, lsl #2]
 818 01ce 23F07003 		bic	r3, r3, #112
 819 01d2 1B05     		lsls	r3, r3, #20
 820 01d4 1B0D     		lsrs	r3, r3, #20
 821 01d6 43F08003 		orr	r3, r3, #128
 822 01da 20F82630 		strh	r3, [r0, r6, lsl #2]	@ movhi
 823 01de 04EB4613 		add	r3, r4, r6, lsl #5
 824 01e2 93F83431 		ldrb	r3, [r3, #308]	@ zero_extendqisi2
 825 01e6 DBB9     		cbnz	r3, .L90
 826 01e8 2068     		ldr	r0, [r4]
 827 01ea B0F85030 		ldrh	r3, [r0, #80]
 828 01ee 9BB2     		uxth	r3, r3
 829 01f0 04EB4612 		add	r2, r4, r6, lsl #5
 830 01f4 92F82821 		ldrb	r2, [r2, #296]	@ zero_extendqisi2
 831 01f8 03EBC203 		add	r3, r3, r2, lsl #3
 832 01fc 00EB4303 		add	r3, r0, r3, lsl #1
 833 0200 B3F80C74 		ldrh	r7, [r3, #1036]
 834 0204 C7F30907 		ubfx	r7, r7, #0, #10
 835 0208 002F     		cmp	r7, #0
 836 020a 51D0     		beq	.L91
 837 020c 04EB4613 		add	r3, r4, r6, lsl #5
 838 0210 D3F83C11 		ldr	r1, [r3, #316]
 839 0214 B3F82E21 		ldrh	r2, [r3, #302]
 840 0218 3B46     		mov	r3, r7
 841 021a FFF7FEFF 		bl	USB_ReadPMA
 842 021e 47E0     		b	.L91
 843              	.L90:
 844 0220 2068     		ldr	r0, [r4]
 845 0222 04EB4613 		add	r3, r4, r6, lsl #5
 846 0226 93F82811 		ldrb	r1, [r3, #296]	@ zero_extendqisi2
 847 022a 30F82130 		ldrh	r3, [r0, r1, lsl #2]
 848 022e 03F48043 		and	r3, r3, #16384
 849 0232 9BB2     		uxth	r3, r3
ARM GAS  /tmp/ccHI2Bo8.s 			page 15


 850 0234 ABB1     		cbz	r3, .L92
 851 0236 B0F85020 		ldrh	r2, [r0, #80]
 852 023a 92B2     		uxth	r2, r2
 853 023c 02EBC103 		add	r3, r2, r1, lsl #3
 854 0240 00EB4303 		add	r3, r0, r3, lsl #1
 855 0244 B3F80474 		ldrh	r7, [r3, #1028]
 856 0248 C7F30907 		ubfx	r7, r7, #0, #10
 857 024c F7B1     		cbz	r7, .L93
 858 024e 04EB4613 		add	r3, r4, r6, lsl #5
 859 0252 D3F83C11 		ldr	r1, [r3, #316]
 860 0256 B3F83021 		ldrh	r2, [r3, #304]
 861 025a 3B46     		mov	r3, r7
 862 025c FFF7FEFF 		bl	USB_ReadPMA
 863 0260 14E0     		b	.L93
 864              	.L92:
 865 0262 B0F85030 		ldrh	r3, [r0, #80]
 866 0266 9BB2     		uxth	r3, r3
 867 0268 03EBC103 		add	r3, r3, r1, lsl #3
 868 026c 00EB4303 		add	r3, r0, r3, lsl #1
 869 0270 B3F80C74 		ldrh	r7, [r3, #1036]
 870 0274 C7F30907 		ubfx	r7, r7, #0, #10
 871 0278 47B1     		cbz	r7, .L93
 872 027a 04EB4613 		add	r3, r4, r6, lsl #5
 873 027e D3F83C11 		ldr	r1, [r3, #316]
 874 0282 B3F83221 		ldrh	r2, [r3, #306]
 875 0286 3B46     		mov	r3, r7
 876 0288 FFF7FEFF 		bl	USB_ReadPMA
 877              	.L93:
 878 028c 2268     		ldr	r2, [r4]
 879 028e 04EB4613 		add	r3, r4, r6, lsl #5
 880 0292 93F82811 		ldrb	r1, [r3, #296]	@ zero_extendqisi2
 881 0296 32F82130 		ldrh	r3, [r2, r1, lsl #2]
 882 029a 9BB2     		uxth	r3, r3
 883 029c 23F4E043 		bic	r3, r3, #28672
 884 02a0 23F07003 		bic	r3, r3, #112
 885 02a4 43F40043 		orr	r3, r3, #32768
 886 02a8 43F0C003 		orr	r3, r3, #192
 887 02ac 22F82130 		strh	r3, [r2, r1, lsl #2]	@ movhi
 888              	.L91:
 889 02b0 06F10A03 		add	r3, r6, #10
 890 02b4 5B01     		lsls	r3, r3, #5
 891 02b6 E118     		adds	r1, r4, r3
 892 02b8 4A68     		ldr	r2, [r1, #4]
 893 02ba 3A44     		add	r2, r2, r7
 894 02bc 4A60     		str	r2, [r1, #4]
 895 02be 04EB4611 		add	r1, r4, r6, lsl #5
 896 02c2 D1F83C21 		ldr	r2, [r1, #316]
 897 02c6 3A44     		add	r2, r2, r7
 898 02c8 C1F83C21 		str	r2, [r1, #316]
 899 02cc E358     		ldr	r3, [r4, r3]
 900 02ce 2BB1     		cbz	r3, .L94
 901 02d0 04EB4611 		add	r1, r4, r6, lsl #5
 902 02d4 D1F83811 		ldr	r1, [r1, #312]
 903 02d8 8F42     		cmp	r7, r1
 904 02da 07D2     		bcs	.L95
 905              	.L94:
 906 02dc 04EB4613 		add	r3, r4, r6, lsl #5
ARM GAS  /tmp/ccHI2Bo8.s 			page 16


 907 02e0 2046     		mov	r0, r4
 908 02e2 93F82811 		ldrb	r1, [r3, #296]	@ zero_extendqisi2
 909 02e6 FFF7FEFF 		bl	HAL_PCD_DataOutStageCallback
 910 02ea 06E0     		b	.L89
 911              	.L95:
 912 02ec 04EB4611 		add	r1, r4, r6, lsl #5
 913 02f0 2046     		mov	r0, r4
 914 02f2 91F82811 		ldrb	r1, [r1, #296]	@ zero_extendqisi2
 915 02f6 FFF7FEFF 		bl	HAL_PCD_EP_Receive
 916              	.L89:
 917 02fa 05F08005 		and	r5, r5, #128
 918 02fe ADB2     		uxth	r5, r5
 919 0300 B5B3     		cbz	r5, .L78
 920 0302 2268     		ldr	r2, [r4]
 921 0304 32F82630 		ldrh	r3, [r2, r6, lsl #2]
 922 0308 9BB2     		uxth	r3, r3
 923 030a 23F4E143 		bic	r3, r3, #28800
 924 030e 23F07003 		bic	r3, r3, #112
 925 0312 6FEA4343 		mvn	r3, r3, lsl #17
 926 0316 6FEA5343 		mvn	r3, r3, lsr #17
 927 031a 9BB2     		uxth	r3, r3
 928 031c 22F82630 		strh	r3, [r2, r6, lsl #2]	@ movhi
 929 0320 2068     		ldr	r0, [r4]
 930 0322 B0F85030 		ldrh	r3, [r0, #80]
 931 0326 9AB2     		uxth	r2, r3
 932 0328 04EB4611 		add	r1, r4, r6, lsl #5
 933 032c 91F82830 		ldrb	r3, [r1, #40]	@ zero_extendqisi2
 934 0330 02EBC303 		add	r3, r2, r3, lsl #3
 935 0334 00EB4303 		add	r3, r0, r3, lsl #1
 936 0338 B3F80434 		ldrh	r3, [r3, #1028]
 937 033c C3F30903 		ubfx	r3, r3, #0, #10
 938 0340 B01C     		adds	r0, r6, #2
 939 0342 4001     		lsls	r0, r0, #5
 940 0344 2218     		adds	r2, r4, r0
 941 0346 5360     		str	r3, [r2, #4]
 942 0348 CA6B     		ldr	r2, [r1, #60]
 943 034a 1A44     		add	r2, r2, r3
 944 034c CA63     		str	r2, [r1, #60]
 945 034e 2358     		ldr	r3, [r4, r0]
 946 0350 3BB9     		cbnz	r3, .L96
 947 0352 04EB4611 		add	r1, r4, r6, lsl #5
 948 0356 2046     		mov	r0, r4
 949 0358 91F82810 		ldrb	r1, [r1, #40]	@ zero_extendqisi2
 950 035c FFF7FEFF 		bl	HAL_PCD_DataInStageCallback
 951 0360 06E0     		b	.L78
 952              	.L96:
 953 0362 04EB4611 		add	r1, r4, r6, lsl #5
 954 0366 2046     		mov	r0, r4
 955 0368 91F82810 		ldrb	r1, [r1, #40]	@ zero_extendqisi2
 956 036c FFF7FEFF 		bl	HAL_PCD_EP_Transmit
 957              	.L78:
 958 0370 2068     		ldr	r0, [r4]
 959 0372 B0F84430 		ldrh	r3, [r0, #68]
 960 0376 1BB2     		sxth	r3, r3
 961 0378 002B     		cmp	r3, #0
 962 037a FFF644AE 		blt	.L97
 963 037e 0020     		movs	r0, #0
ARM GAS  /tmp/ccHI2Bo8.s 			page 17


 964 0380 F8BD     		pop	{r3, r4, r5, r6, r7, pc}
 966 0382 00BF     		.section	.text.HAL_PCD_IRQHandler,"ax",%progbits
 967              		.align	2
 968              		.global	HAL_PCD_IRQHandler
 969              		.thumb
 970              		.thumb_func
 972              	HAL_PCD_IRQHandler:
 973              		@ args = 0, pretend = 0, frame = 0
 974              		@ frame_needed = 0, uses_anonymous_args = 0
 975 0000 10B5     		push	{r4, lr}
 976 0002 0446     		mov	r4, r0
 977 0004 0068     		ldr	r0, [r0]
 978 0006 FFF7FEFF 		bl	USB_ReadInterrupts
 979 000a 10F4004F 		tst	r0, #32768
 980 000e 02D0     		beq	.L100
 981 0010 2046     		mov	r0, r4
 982 0012 FFF7FEFF 		bl	PCD_EP_ISR_Handler
 983              	.L100:
 984 0016 2068     		ldr	r0, [r4]
 985 0018 FFF7FEFF 		bl	USB_ReadInterrupts
 986 001c 10F4806F 		tst	r0, #1024
 987 0020 0FD0     		beq	.L101
 988 0022 2268     		ldr	r2, [r4]
 989 0024 B2F84430 		ldrh	r3, [r2, #68]
 990 0028 23F48063 		bic	r3, r3, #1024
 991 002c 1B04     		lsls	r3, r3, #16
 992 002e 1B0C     		lsrs	r3, r3, #16
 993 0030 A2F84430 		strh	r3, [r2, #68]	@ movhi
 994 0034 2046     		mov	r0, r4
 995 0036 FFF7FEFF 		bl	HAL_PCD_ResetCallback
 996 003a 2046     		mov	r0, r4
 997 003c 0021     		movs	r1, #0
 998 003e FFF7FEFF 		bl	HAL_PCD_SetAddress
 999              	.L101:
 1000 0042 2068     		ldr	r0, [r4]
 1001 0044 FFF7FEFF 		bl	USB_ReadInterrupts
 1002 0048 10F4804F 		tst	r0, #16384
 1003 004c 08D0     		beq	.L102
 1004 004e 2268     		ldr	r2, [r4]
 1005 0050 B2F84430 		ldrh	r3, [r2, #68]
 1006 0054 23F48043 		bic	r3, r3, #16384
 1007 0058 1B04     		lsls	r3, r3, #16
 1008 005a 1B0C     		lsrs	r3, r3, #16
 1009 005c A2F84430 		strh	r3, [r2, #68]	@ movhi
 1010              	.L102:
 1011 0060 2068     		ldr	r0, [r4]
 1012 0062 FFF7FEFF 		bl	USB_ReadInterrupts
 1013 0066 10F4005F 		tst	r0, #8192
 1014 006a 08D0     		beq	.L103
 1015 006c 2268     		ldr	r2, [r4]
 1016 006e B2F84430 		ldrh	r3, [r2, #68]
 1017 0072 23F40053 		bic	r3, r3, #8192
 1018 0076 1B04     		lsls	r3, r3, #16
 1019 0078 1B0C     		lsrs	r3, r3, #16
 1020 007a A2F84430 		strh	r3, [r2, #68]	@ movhi
 1021              	.L103:
 1022 007e 2068     		ldr	r0, [r4]
ARM GAS  /tmp/ccHI2Bo8.s 			page 18


 1023 0080 FFF7FEFF 		bl	USB_ReadInterrupts
 1024 0084 10F4805F 		tst	r0, #4096
 1025 0088 1DD0     		beq	.L104
 1026 008a 2268     		ldr	r2, [r4]
 1027 008c B2F84030 		ldrh	r3, [r2, #64]
 1028 0090 23F00403 		bic	r3, r3, #4
 1029 0094 1B04     		lsls	r3, r3, #16
 1030 0096 1B0C     		lsrs	r3, r3, #16
 1031 0098 A2F84030 		strh	r3, [r2, #64]	@ movhi
 1032 009c 2268     		ldr	r2, [r4]
 1033 009e B2F84030 		ldrh	r3, [r2, #64]
 1034 00a2 23F00803 		bic	r3, r3, #8
 1035 00a6 1B04     		lsls	r3, r3, #16
 1036 00a8 1B0C     		lsrs	r3, r3, #16
 1037 00aa A2F84030 		strh	r3, [r2, #64]	@ movhi
 1038 00ae 2046     		mov	r0, r4
 1039 00b0 FFF7FEFF 		bl	HAL_PCD_ResumeCallback
 1040 00b4 2268     		ldr	r2, [r4]
 1041 00b6 B2F84430 		ldrh	r3, [r2, #68]
 1042 00ba 23F48053 		bic	r3, r3, #4096
 1043 00be 1B04     		lsls	r3, r3, #16
 1044 00c0 1B0C     		lsrs	r3, r3, #16
 1045 00c2 A2F84430 		strh	r3, [r2, #68]	@ movhi
 1046              	.L104:
 1047 00c6 2068     		ldr	r0, [r4]
 1048 00c8 FFF7FEFF 		bl	USB_ReadInterrupts
 1049 00cc 10F4006F 		tst	r0, #2048
 1050 00d0 2AD0     		beq	.L105
 1051 00d2 2268     		ldr	r2, [r4]
 1052 00d4 B2F84030 		ldrh	r3, [r2, #64]
 1053 00d8 9BB2     		uxth	r3, r3
 1054 00da 43F00803 		orr	r3, r3, #8
 1055 00de A2F84030 		strh	r3, [r2, #64]	@ movhi
 1056 00e2 2268     		ldr	r2, [r4]
 1057 00e4 B2F84430 		ldrh	r3, [r2, #68]
 1058 00e8 23F40063 		bic	r3, r3, #2048
 1059 00ec 1B04     		lsls	r3, r3, #16
 1060 00ee 1B0C     		lsrs	r3, r3, #16
 1061 00f0 A2F84430 		strh	r3, [r2, #68]	@ movhi
 1062 00f4 2268     		ldr	r2, [r4]
 1063 00f6 B2F84030 		ldrh	r3, [r2, #64]
 1064 00fa 9BB2     		uxth	r3, r3
 1065 00fc 43F00403 		orr	r3, r3, #4
 1066 0100 A2F84030 		strh	r3, [r2, #64]	@ movhi
 1067 0104 2068     		ldr	r0, [r4]
 1068 0106 FFF7FEFF 		bl	USB_ReadInterrupts
 1069 010a 10F4805F 		tst	r0, #4096
 1070 010e 08D0     		beq	.L106
 1071 0110 2268     		ldr	r2, [r4]
 1072 0112 B2F84430 		ldrh	r3, [r2, #68]
 1073 0116 23F48053 		bic	r3, r3, #4096
 1074 011a 1B04     		lsls	r3, r3, #16
 1075 011c 1B0C     		lsrs	r3, r3, #16
 1076 011e A2F84430 		strh	r3, [r2, #68]	@ movhi
 1077              	.L106:
 1078 0122 2046     		mov	r0, r4
 1079 0124 FFF7FEFF 		bl	HAL_PCD_SuspendCallback
ARM GAS  /tmp/ccHI2Bo8.s 			page 19


 1080              	.L105:
 1081 0128 2068     		ldr	r0, [r4]
 1082 012a FFF7FEFF 		bl	USB_ReadInterrupts
 1083 012e 10F4007F 		tst	r0, #512
 1084 0132 0BD0     		beq	.L107
 1085 0134 2268     		ldr	r2, [r4]
 1086 0136 B2F84430 		ldrh	r3, [r2, #68]
 1087 013a 23F40073 		bic	r3, r3, #512
 1088 013e 1B04     		lsls	r3, r3, #16
 1089 0140 1B0C     		lsrs	r3, r3, #16
 1090 0142 A2F84430 		strh	r3, [r2, #68]	@ movhi
 1091 0146 2046     		mov	r0, r4
 1092 0148 FFF7FEFF 		bl	HAL_PCD_SOFCallback
 1093              	.L107:
 1094 014c 2068     		ldr	r0, [r4]
 1095 014e FFF7FEFF 		bl	USB_ReadInterrupts
 1096 0152 10F4807F 		tst	r0, #256
 1097 0156 08D0     		beq	.L99
 1098 0158 2268     		ldr	r2, [r4]
 1099 015a B2F84430 		ldrh	r3, [r2, #68]
 1100 015e 23F48073 		bic	r3, r3, #256
 1101 0162 1B04     		lsls	r3, r3, #16
 1102 0164 1B0C     		lsrs	r3, r3, #16
 1103 0166 A2F84430 		strh	r3, [r2, #68]	@ movhi
 1104              	.L99:
 1105 016a 10BD     		pop	{r4, pc}
 1107              		.section	.text.HAL_PCD_EP_SetStall,"ax",%progbits
 1108              		.align	2
 1109              		.global	HAL_PCD_EP_SetStall
 1110              		.thumb
 1111              		.thumb_func
 1113              	HAL_PCD_EP_SetStall:
 1114              		@ args = 0, pretend = 0, frame = 0
 1115              		@ frame_needed = 0, uses_anonymous_args = 0
 1116 0000 38B5     		push	{r3, r4, r5, lr}
 1117 0002 01F00705 		and	r5, r1, #7
 1118 0006 4368     		ldr	r3, [r0, #4]
 1119 0008 9D42     		cmp	r5, r3
 1120 000a 2BD8     		bhi	.L115
 1121 000c 11F0800F 		tst	r1, #128
 1122 0010 08D0     		beq	.L112
 1123 0012 6B01     		lsls	r3, r5, #5
 1124 0014 03F12801 		add	r1, r3, #40
 1125 0018 0144     		add	r1, r1, r0
 1126 001a 0344     		add	r3, r3, r0
 1127 001c 0122     		movs	r2, #1
 1128 001e 83F82920 		strb	r2, [r3, #41]
 1129 0022 07E0     		b	.L113
 1130              	.L112:
 1131 0024 4B01     		lsls	r3, r1, #5
 1132 0026 03F59471 		add	r1, r3, #296
 1133 002a 0144     		add	r1, r1, r0
 1134 002c 0344     		add	r3, r3, r0
 1135 002e 0022     		movs	r2, #0
 1136 0030 83F82921 		strb	r2, [r3, #297]
 1137              	.L113:
 1138 0034 0123     		movs	r3, #1
ARM GAS  /tmp/ccHI2Bo8.s 			page 20


 1139 0036 8B70     		strb	r3, [r1, #2]
 1140 0038 0D70     		strb	r5, [r1]
 1141 003a 90F82832 		ldrb	r3, [r0, #552]	@ zero_extendqisi2
 1142 003e 012B     		cmp	r3, #1
 1143 0040 12D0     		beq	.L116
 1144 0042 0446     		mov	r4, r0
 1145 0044 0123     		movs	r3, #1
 1146 0046 80F82832 		strb	r3, [r0, #552]
 1147 004a 0068     		ldr	r0, [r0]
 1148 004c FFF7FEFF 		bl	USB_EPSetStall
 1149 0050 25B9     		cbnz	r5, .L114
 1150 0052 2068     		ldr	r0, [r4]
 1151 0054 04F50C71 		add	r1, r4, #560
 1152 0058 FFF7FEFF 		bl	USB_EP0_OutStart
 1153              	.L114:
 1154 005c 0020     		movs	r0, #0
 1155 005e 84F82802 		strb	r0, [r4, #552]
 1156 0062 38BD     		pop	{r3, r4, r5, pc}
 1157              	.L115:
 1158 0064 0120     		movs	r0, #1
 1159 0066 38BD     		pop	{r3, r4, r5, pc}
 1160              	.L116:
 1161 0068 0220     		movs	r0, #2
 1162 006a 38BD     		pop	{r3, r4, r5, pc}
 1164              		.section	.text.HAL_PCD_EP_ClrStall,"ax",%progbits
 1165              		.align	2
 1166              		.global	HAL_PCD_EP_ClrStall
 1167              		.thumb
 1168              		.thumb_func
 1170              	HAL_PCD_EP_ClrStall:
 1171              		@ args = 0, pretend = 0, frame = 0
 1172              		@ frame_needed = 0, uses_anonymous_args = 0
 1173 0000 01F00F02 		and	r2, r1, #15
 1174 0004 4368     		ldr	r3, [r0, #4]
 1175 0006 9A42     		cmp	r2, r3
 1176 0008 2DD8     		bhi	.L122
 1177 000a 10B5     		push	{r4, lr}
 1178 000c 11F0800F 		tst	r1, #128
 1179 0010 0AD0     		beq	.L120
 1180 0012 01F00703 		and	r3, r1, #7
 1181 0016 5B01     		lsls	r3, r3, #5
 1182 0018 03F12802 		add	r2, r3, #40
 1183 001c 0244     		add	r2, r2, r0
 1184 001e 0344     		add	r3, r3, r0
 1185 0020 0124     		movs	r4, #1
 1186 0022 83F82940 		strb	r4, [r3, #41]
 1187 0026 09E0     		b	.L121
 1188              	.L120:
 1189 0028 01F00703 		and	r3, r1, #7
 1190 002c 5B01     		lsls	r3, r3, #5
 1191 002e 03F59472 		add	r2, r3, #296
 1192 0032 0244     		add	r2, r2, r0
 1193 0034 0344     		add	r3, r3, r0
 1194 0036 0024     		movs	r4, #0
 1195 0038 83F82941 		strb	r4, [r3, #297]
 1196              	.L121:
 1197 003c 0023     		movs	r3, #0
ARM GAS  /tmp/ccHI2Bo8.s 			page 21


 1198 003e 9370     		strb	r3, [r2, #2]
 1199 0040 01F00703 		and	r3, r1, #7
 1200 0044 1370     		strb	r3, [r2]
 1201 0046 90F82832 		ldrb	r3, [r0, #552]	@ zero_extendqisi2
 1202 004a 012B     		cmp	r3, #1
 1203 004c 0DD0     		beq	.L123
 1204 004e 0446     		mov	r4, r0
 1205 0050 0123     		movs	r3, #1
 1206 0052 80F82832 		strb	r3, [r0, #552]
 1207 0056 0068     		ldr	r0, [r0]
 1208 0058 1146     		mov	r1, r2
 1209 005a FFF7FEFF 		bl	USB_EPClearStall
 1210 005e 0020     		movs	r0, #0
 1211 0060 84F82802 		strb	r0, [r4, #552]
 1212 0064 10BD     		pop	{r4, pc}
 1213              	.L122:
 1214 0066 0120     		movs	r0, #1
 1215 0068 7047     		bx	lr
 1216              	.L123:
 1217 006a 0220     		movs	r0, #2
 1218 006c 10BD     		pop	{r4, pc}
 1220 006e 00BF     		.section	.text.HAL_PCD_EP_Flush,"ax",%progbits
 1221              		.align	2
 1222              		.global	HAL_PCD_EP_Flush
 1223              		.thumb
 1224              		.thumb_func
 1226              	HAL_PCD_EP_Flush:
 1227              		@ args = 0, pretend = 0, frame = 0
 1228              		@ frame_needed = 0, uses_anonymous_args = 0
 1229 0000 90F82832 		ldrb	r3, [r0, #552]	@ zero_extendqisi2
 1230 0004 012B     		cmp	r3, #1
 1231 0006 14D0     		beq	.L129
 1232 0008 10B5     		push	{r4, lr}
 1233 000a 0446     		mov	r4, r0
 1234 000c 0123     		movs	r3, #1
 1235 000e 80F82832 		strb	r3, [r0, #552]
 1236 0012 11F0800F 		tst	r1, #128
 1237 0016 05D0     		beq	.L127
 1238 0018 0068     		ldr	r0, [r0]
 1239 001a 01F00701 		and	r1, r1, #7
 1240 001e FFF7FEFF 		bl	USB_FlushTxFifo
 1241 0022 02E0     		b	.L128
 1242              	.L127:
 1243 0024 0068     		ldr	r0, [r0]
 1244 0026 FFF7FEFF 		bl	USB_FlushRxFifo
 1245              	.L128:
 1246 002a 0020     		movs	r0, #0
 1247 002c 84F82802 		strb	r0, [r4, #552]
 1248 0030 10BD     		pop	{r4, pc}
 1249              	.L129:
 1250 0032 0220     		movs	r0, #2
 1251 0034 7047     		bx	lr
 1253 0036 00BF     		.section	.text.HAL_PCD_ActivateRemoteWakeup,"ax",%progbits
 1254              		.align	2
 1255              		.global	HAL_PCD_ActivateRemoteWakeup
 1256              		.thumb
 1257              		.thumb_func
ARM GAS  /tmp/ccHI2Bo8.s 			page 22


 1259              	HAL_PCD_ActivateRemoteWakeup:
 1260              		@ args = 0, pretend = 0, frame = 0
 1261              		@ frame_needed = 0, uses_anonymous_args = 0
 1262 0000 08B5     		push	{r3, lr}
 1263 0002 0068     		ldr	r0, [r0]
 1264 0004 FFF7FEFF 		bl	USB_ActivateRemoteWakeup
 1265 0008 08BD     		pop	{r3, pc}
 1267 000a 00BF     		.section	.text.HAL_PCD_DeActivateRemoteWakeup,"ax",%progbits
 1268              		.align	2
 1269              		.global	HAL_PCD_DeActivateRemoteWakeup
 1270              		.thumb
 1271              		.thumb_func
 1273              	HAL_PCD_DeActivateRemoteWakeup:
 1274              		@ args = 0, pretend = 0, frame = 0
 1275              		@ frame_needed = 0, uses_anonymous_args = 0
 1276 0000 08B5     		push	{r3, lr}
 1277 0002 0068     		ldr	r0, [r0]
 1278 0004 FFF7FEFF 		bl	USB_DeActivateRemoteWakeup
 1279 0008 08BD     		pop	{r3, pc}
 1281 000a 00BF     		.section	.text.HAL_PCD_GetState,"ax",%progbits
 1282              		.align	2
 1283              		.global	HAL_PCD_GetState
 1284              		.thumb
 1285              		.thumb_func
 1287              	HAL_PCD_GetState:
 1288              		@ args = 0, pretend = 0, frame = 0
 1289              		@ frame_needed = 0, uses_anonymous_args = 0
 1290              		@ link register save eliminated.
 1291 0000 90F82902 		ldrb	r0, [r0, #553]	@ zero_extendqisi2
 1292 0004 7047     		bx	lr
 1294 0006 00BF     		.ident	"GCC: (15:4.9.3+svn231177-1) 4.9.3 20150529 (prerelease)"
ARM GAS  /tmp/ccHI2Bo8.s 			page 23


DEFINED SYMBOLS
                            *ABS*:0000000000000000 stm32f1xx_hal_pcd.c
     /tmp/ccHI2Bo8.s:16     .text.HAL_PCD_MspInit:0000000000000000 $t
     /tmp/ccHI2Bo8.s:21     .text.HAL_PCD_MspInit:0000000000000000 HAL_PCD_MspInit
     /tmp/ccHI2Bo8.s:28     .text.HAL_PCD_Init:0000000000000000 $t
     /tmp/ccHI2Bo8.s:33     .text.HAL_PCD_Init:0000000000000000 HAL_PCD_Init
     /tmp/ccHI2Bo8.s:145    .text.HAL_PCD_MspDeInit:0000000000000000 $t
     /tmp/ccHI2Bo8.s:150    .text.HAL_PCD_MspDeInit:0000000000000000 HAL_PCD_MspDeInit
     /tmp/ccHI2Bo8.s:157    .text.HAL_PCD_Start:0000000000000000 $t
     /tmp/ccHI2Bo8.s:162    .text.HAL_PCD_Start:0000000000000000 HAL_PCD_Start
     /tmp/ccHI2Bo8.s:185    .text.HAL_PCD_Stop:0000000000000000 $t
     /tmp/ccHI2Bo8.s:190    .text.HAL_PCD_Stop:0000000000000000 HAL_PCD_Stop
     /tmp/ccHI2Bo8.s:223    .text.HAL_PCD_DeInit:0000000000000000 $t
     /tmp/ccHI2Bo8.s:228    .text.HAL_PCD_DeInit:0000000000000000 HAL_PCD_DeInit
     /tmp/ccHI2Bo8.s:247    .text.HAL_PCD_DataOutStageCallback:0000000000000000 $t
     /tmp/ccHI2Bo8.s:252    .text.HAL_PCD_DataOutStageCallback:0000000000000000 HAL_PCD_DataOutStageCallback
     /tmp/ccHI2Bo8.s:259    .text.HAL_PCD_DataInStageCallback:0000000000000000 $t
     /tmp/ccHI2Bo8.s:264    .text.HAL_PCD_DataInStageCallback:0000000000000000 HAL_PCD_DataInStageCallback
     /tmp/ccHI2Bo8.s:271    .text.HAL_PCD_SetupStageCallback:0000000000000000 $t
     /tmp/ccHI2Bo8.s:276    .text.HAL_PCD_SetupStageCallback:0000000000000000 HAL_PCD_SetupStageCallback
     /tmp/ccHI2Bo8.s:283    .text.HAL_PCD_SOFCallback:0000000000000000 $t
     /tmp/ccHI2Bo8.s:288    .text.HAL_PCD_SOFCallback:0000000000000000 HAL_PCD_SOFCallback
     /tmp/ccHI2Bo8.s:295    .text.HAL_PCD_ResetCallback:0000000000000000 $t
     /tmp/ccHI2Bo8.s:300    .text.HAL_PCD_ResetCallback:0000000000000000 HAL_PCD_ResetCallback
     /tmp/ccHI2Bo8.s:307    .text.HAL_PCD_SuspendCallback:0000000000000000 $t
     /tmp/ccHI2Bo8.s:312    .text.HAL_PCD_SuspendCallback:0000000000000000 HAL_PCD_SuspendCallback
     /tmp/ccHI2Bo8.s:319    .text.HAL_PCD_ResumeCallback:0000000000000000 $t
     /tmp/ccHI2Bo8.s:324    .text.HAL_PCD_ResumeCallback:0000000000000000 HAL_PCD_ResumeCallback
     /tmp/ccHI2Bo8.s:331    .text.HAL_PCD_ISOOUTIncompleteCallback:0000000000000000 $t
     /tmp/ccHI2Bo8.s:336    .text.HAL_PCD_ISOOUTIncompleteCallback:0000000000000000 HAL_PCD_ISOOUTIncompleteCallback
     /tmp/ccHI2Bo8.s:343    .text.HAL_PCD_ISOINIncompleteCallback:0000000000000000 $t
     /tmp/ccHI2Bo8.s:348    .text.HAL_PCD_ISOINIncompleteCallback:0000000000000000 HAL_PCD_ISOINIncompleteCallback
     /tmp/ccHI2Bo8.s:355    .text.HAL_PCD_ConnectCallback:0000000000000000 $t
     /tmp/ccHI2Bo8.s:360    .text.HAL_PCD_ConnectCallback:0000000000000000 HAL_PCD_ConnectCallback
     /tmp/ccHI2Bo8.s:367    .text.HAL_PCD_DisconnectCallback:0000000000000000 $t
     /tmp/ccHI2Bo8.s:372    .text.HAL_PCD_DisconnectCallback:0000000000000000 HAL_PCD_DisconnectCallback
     /tmp/ccHI2Bo8.s:379    .text.HAL_PCD_DevConnect:0000000000000000 $t
     /tmp/ccHI2Bo8.s:384    .text.HAL_PCD_DevConnect:0000000000000000 HAL_PCD_DevConnect
     /tmp/ccHI2Bo8.s:405    .text.HAL_PCD_DevDisconnect:0000000000000000 $t
     /tmp/ccHI2Bo8.s:410    .text.HAL_PCD_DevDisconnect:0000000000000000 HAL_PCD_DevDisconnect
     /tmp/ccHI2Bo8.s:432    .text.HAL_PCD_SetAddress:0000000000000000 $t
     /tmp/ccHI2Bo8.s:437    .text.HAL_PCD_SetAddress:0000000000000000 HAL_PCD_SetAddress
     /tmp/ccHI2Bo8.s:458    .text.HAL_PCD_EP_Open:0000000000000000 $t
     /tmp/ccHI2Bo8.s:463    .text.HAL_PCD_EP_Open:0000000000000000 HAL_PCD_EP_Open
     /tmp/ccHI2Bo8.s:516    .text.HAL_PCD_EP_Close:0000000000000000 $t
     /tmp/ccHI2Bo8.s:521    .text.HAL_PCD_EP_Close:0000000000000000 HAL_PCD_EP_Close
     /tmp/ccHI2Bo8.s:563    .text.HAL_PCD_EP_Receive:0000000000000000 $t
     /tmp/ccHI2Bo8.s:568    .text.HAL_PCD_EP_Receive:0000000000000000 HAL_PCD_EP_Receive
     /tmp/ccHI2Bo8.s:598    .text.HAL_PCD_EP_GetRxCount:0000000000000000 $t
     /tmp/ccHI2Bo8.s:603    .text.HAL_PCD_EP_GetRxCount:0000000000000000 HAL_PCD_EP_GetRxCount
     /tmp/ccHI2Bo8.s:613    .text.HAL_PCD_EP_Transmit:0000000000000000 $t
     /tmp/ccHI2Bo8.s:618    .text.HAL_PCD_EP_Transmit:0000000000000000 HAL_PCD_EP_Transmit
     /tmp/ccHI2Bo8.s:649    .text.PCD_EP_ISR_Handler:0000000000000000 $t
     /tmp/ccHI2Bo8.s:653    .text.PCD_EP_ISR_Handler:0000000000000000 PCD_EP_ISR_Handler
     /tmp/ccHI2Bo8.s:967    .text.HAL_PCD_IRQHandler:0000000000000000 $t
     /tmp/ccHI2Bo8.s:972    .text.HAL_PCD_IRQHandler:0000000000000000 HAL_PCD_IRQHandler
     /tmp/ccHI2Bo8.s:1108   .text.HAL_PCD_EP_SetStall:0000000000000000 $t
ARM GAS  /tmp/ccHI2Bo8.s 			page 24


     /tmp/ccHI2Bo8.s:1113   .text.HAL_PCD_EP_SetStall:0000000000000000 HAL_PCD_EP_SetStall
     /tmp/ccHI2Bo8.s:1165   .text.HAL_PCD_EP_ClrStall:0000000000000000 $t
     /tmp/ccHI2Bo8.s:1170   .text.HAL_PCD_EP_ClrStall:0000000000000000 HAL_PCD_EP_ClrStall
     /tmp/ccHI2Bo8.s:1221   .text.HAL_PCD_EP_Flush:0000000000000000 $t
     /tmp/ccHI2Bo8.s:1226   .text.HAL_PCD_EP_Flush:0000000000000000 HAL_PCD_EP_Flush
     /tmp/ccHI2Bo8.s:1254   .text.HAL_PCD_ActivateRemoteWakeup:0000000000000000 $t
     /tmp/ccHI2Bo8.s:1259   .text.HAL_PCD_ActivateRemoteWakeup:0000000000000000 HAL_PCD_ActivateRemoteWakeup
     /tmp/ccHI2Bo8.s:1268   .text.HAL_PCD_DeActivateRemoteWakeup:0000000000000000 $t
     /tmp/ccHI2Bo8.s:1273   .text.HAL_PCD_DeActivateRemoteWakeup:0000000000000000 HAL_PCD_DeActivateRemoteWakeup
     /tmp/ccHI2Bo8.s:1282   .text.HAL_PCD_GetState:0000000000000000 $t
     /tmp/ccHI2Bo8.s:1287   .text.HAL_PCD_GetState:0000000000000000 HAL_PCD_GetState

UNDEFINED SYMBOLS
USB_DisableGlobalInt
USB_CoreInit
USB_SetCurrentMode
USB_DevInit
USB_DevDisconnect
HAL_PCDEx_SetConnectionState
USB_DevConnect
USB_EnableGlobalInt
USB_StopDevice
USB_SetDevAddress
USB_ActivateEndpoint
USB_DeactivateEndpoint
USB_EPStartXfer
USB_ReadPMA
USB_ReadInterrupts
USB_EPSetStall
USB_EP0_OutStart
USB_EPClearStall
USB_FlushTxFifo
USB_FlushRxFifo
USB_ActivateRemoteWakeup
USB_DeActivateRemoteWakeup
