ARM GAS  /tmp/cc0zucMI.s 			page 1


   1              		.syntax unified
   2              		.cpu cortex-m3
   3              		.fpu softvfp
   4              		.eabi_attribute 20, 1
   5              		.eabi_attribute 21, 1
   6              		.eabi_attribute 23, 3
   7              		.eabi_attribute 24, 1
   8              		.eabi_attribute 25, 1
   9              		.eabi_attribute 26, 1
  10              		.eabi_attribute 30, 1
  11              		.eabi_attribute 34, 1
  12              		.eabi_attribute 18, 4
  13              		.thumb
  14              		.file	"stm32f1xx_hal_can.c"
  15              		.section	.text.HAL_CAN_MspInit,"ax",%progbits
  16              		.align	2
  17              		.weak	HAL_CAN_MspInit
  18              		.thumb
  19              		.thumb_func
  21              	HAL_CAN_MspInit:
  22              		@ args = 0, pretend = 0, frame = 0
  23              		@ frame_needed = 0, uses_anonymous_args = 0
  24              		@ link register save eliminated.
  25 0000 7047     		bx	lr
  27 0002 00BF     		.section	.text.HAL_CAN_Init,"ax",%progbits
  28              		.align	2
  29              		.global	HAL_CAN_Init
  30              		.thumb
  31              		.thumb_func
  33              	HAL_CAN_Init:
  34              		@ args = 0, pretend = 0, frame = 0
  35              		@ frame_needed = 0, uses_anonymous_args = 0
  36 0000 0028     		cmp	r0, #0
  37 0002 00F0A480 		beq	.L21
  38 0006 38B5     		push	{r3, r4, r5, lr}
  39 0008 0446     		mov	r4, r0
  40 000a 90F82030 		ldrb	r3, [r0, #32]	@ zero_extendqisi2
  41 000e 13F0FF0F 		tst	r3, #255
  42 0012 01D1     		bne	.L4
  43 0014 FFF7FEFF 		bl	HAL_CAN_MspInit
  44              	.L4:
  45 0018 2268     		ldr	r2, [r4]
  46 001a 1368     		ldr	r3, [r2]
  47 001c 23F00203 		bic	r3, r3, #2
  48 0020 1360     		str	r3, [r2]
  49 0022 FFF7FEFF 		bl	HAL_GetTick
  50 0026 0546     		mov	r5, r0
  51 0028 0DE0     		b	.L5
  52              	.L6:
  53 002a FFF7FEFF 		bl	HAL_GetTick
  54 002e 401B     		subs	r0, r0, r5
  55 0030 0A28     		cmp	r0, #10
  56 0032 08D9     		bls	.L5
  57 0034 636A     		ldr	r3, [r4, #36]
  58 0036 43F40033 		orr	r3, r3, #131072
  59 003a 6362     		str	r3, [r4, #36]
  60 003c 0523     		movs	r3, #5
ARM GAS  /tmp/cc0zucMI.s 			page 2


  61 003e 84F82030 		strb	r3, [r4, #32]
  62 0042 0120     		movs	r0, #1
  63 0044 38BD     		pop	{r3, r4, r5, pc}
  64              	.L5:
  65 0046 2368     		ldr	r3, [r4]
  66 0048 5A68     		ldr	r2, [r3, #4]
  67 004a 12F0020F 		tst	r2, #2
  68 004e ECD1     		bne	.L6
  69 0050 1A68     		ldr	r2, [r3]
  70 0052 42F00102 		orr	r2, r2, #1
  71 0056 1A60     		str	r2, [r3]
  72 0058 FFF7FEFF 		bl	HAL_GetTick
  73 005c 0546     		mov	r5, r0
  74 005e 0DE0     		b	.L7
  75              	.L8:
  76 0060 FFF7FEFF 		bl	HAL_GetTick
  77 0064 401B     		subs	r0, r0, r5
  78 0066 0A28     		cmp	r0, #10
  79 0068 08D9     		bls	.L7
  80 006a 636A     		ldr	r3, [r4, #36]
  81 006c 43F40033 		orr	r3, r3, #131072
  82 0070 6362     		str	r3, [r4, #36]
  83 0072 0523     		movs	r3, #5
  84 0074 84F82030 		strb	r3, [r4, #32]
  85 0078 0120     		movs	r0, #1
  86 007a 38BD     		pop	{r3, r4, r5, pc}
  87              	.L7:
  88 007c 2368     		ldr	r3, [r4]
  89 007e 5A68     		ldr	r2, [r3, #4]
  90 0080 12F0010F 		tst	r2, #1
  91 0084 ECD0     		beq	.L8
  92 0086 227E     		ldrb	r2, [r4, #24]	@ zero_extendqisi2
  93 0088 012A     		cmp	r2, #1
  94 008a 04D1     		bne	.L9
  95 008c 1A68     		ldr	r2, [r3]
  96 008e 42F08002 		orr	r2, r2, #128
  97 0092 1A60     		str	r2, [r3]
  98 0094 03E0     		b	.L10
  99              	.L9:
 100 0096 1A68     		ldr	r2, [r3]
 101 0098 22F08002 		bic	r2, r2, #128
 102 009c 1A60     		str	r2, [r3]
 103              	.L10:
 104 009e 637E     		ldrb	r3, [r4, #25]	@ zero_extendqisi2
 105 00a0 012B     		cmp	r3, #1
 106 00a2 05D1     		bne	.L11
 107 00a4 2268     		ldr	r2, [r4]
 108 00a6 1368     		ldr	r3, [r2]
 109 00a8 43F04003 		orr	r3, r3, #64
 110 00ac 1360     		str	r3, [r2]
 111 00ae 04E0     		b	.L12
 112              	.L11:
 113 00b0 2268     		ldr	r2, [r4]
 114 00b2 1368     		ldr	r3, [r2]
 115 00b4 23F04003 		bic	r3, r3, #64
 116 00b8 1360     		str	r3, [r2]
 117              	.L12:
ARM GAS  /tmp/cc0zucMI.s 			page 3


 118 00ba A37E     		ldrb	r3, [r4, #26]	@ zero_extendqisi2
 119 00bc 012B     		cmp	r3, #1
 120 00be 05D1     		bne	.L13
 121 00c0 2268     		ldr	r2, [r4]
 122 00c2 1368     		ldr	r3, [r2]
 123 00c4 43F02003 		orr	r3, r3, #32
 124 00c8 1360     		str	r3, [r2]
 125 00ca 04E0     		b	.L14
 126              	.L13:
 127 00cc 2268     		ldr	r2, [r4]
 128 00ce 1368     		ldr	r3, [r2]
 129 00d0 23F02003 		bic	r3, r3, #32
 130 00d4 1360     		str	r3, [r2]
 131              	.L14:
 132 00d6 E37E     		ldrb	r3, [r4, #27]	@ zero_extendqisi2
 133 00d8 012B     		cmp	r3, #1
 134 00da 05D1     		bne	.L15
 135 00dc 2268     		ldr	r2, [r4]
 136 00de 1368     		ldr	r3, [r2]
 137 00e0 23F01003 		bic	r3, r3, #16
 138 00e4 1360     		str	r3, [r2]
 139 00e6 04E0     		b	.L16
 140              	.L15:
 141 00e8 2268     		ldr	r2, [r4]
 142 00ea 1368     		ldr	r3, [r2]
 143 00ec 43F01003 		orr	r3, r3, #16
 144 00f0 1360     		str	r3, [r2]
 145              	.L16:
 146 00f2 237F     		ldrb	r3, [r4, #28]	@ zero_extendqisi2
 147 00f4 012B     		cmp	r3, #1
 148 00f6 05D1     		bne	.L17
 149 00f8 2268     		ldr	r2, [r4]
 150 00fa 1368     		ldr	r3, [r2]
 151 00fc 43F00803 		orr	r3, r3, #8
 152 0100 1360     		str	r3, [r2]
 153 0102 04E0     		b	.L18
 154              	.L17:
 155 0104 2268     		ldr	r2, [r4]
 156 0106 1368     		ldr	r3, [r2]
 157 0108 23F00803 		bic	r3, r3, #8
 158 010c 1360     		str	r3, [r2]
 159              	.L18:
 160 010e 637F     		ldrb	r3, [r4, #29]	@ zero_extendqisi2
 161 0110 012B     		cmp	r3, #1
 162 0112 05D1     		bne	.L19
 163 0114 2268     		ldr	r2, [r4]
 164 0116 1368     		ldr	r3, [r2]
 165 0118 43F00403 		orr	r3, r3, #4
 166 011c 1360     		str	r3, [r2]
 167 011e 04E0     		b	.L20
 168              	.L19:
 169 0120 2268     		ldr	r2, [r4]
 170 0122 1368     		ldr	r3, [r2]
 171 0124 23F00403 		bic	r3, r3, #4
 172 0128 1360     		str	r3, [r2]
 173              	.L20:
 174 012a 2168     		ldr	r1, [r4]
ARM GAS  /tmp/cc0zucMI.s 			page 4


 175 012c A268     		ldr	r2, [r4, #8]
 176 012e E368     		ldr	r3, [r4, #12]
 177 0130 1A43     		orrs	r2, r2, r3
 178 0132 2369     		ldr	r3, [r4, #16]
 179 0134 1A43     		orrs	r2, r2, r3
 180 0136 6369     		ldr	r3, [r4, #20]
 181 0138 1A43     		orrs	r2, r2, r3
 182 013a 6368     		ldr	r3, [r4, #4]
 183 013c 013B     		subs	r3, r3, #1
 184 013e 1343     		orrs	r3, r3, r2
 185 0140 CB61     		str	r3, [r1, #28]
 186 0142 0020     		movs	r0, #0
 187 0144 6062     		str	r0, [r4, #36]
 188 0146 0123     		movs	r3, #1
 189 0148 84F82030 		strb	r3, [r4, #32]
 190 014c 38BD     		pop	{r3, r4, r5, pc}
 191              	.L21:
 192 014e 0120     		movs	r0, #1
 193 0150 7047     		bx	lr
 195 0152 00BF     		.section	.text.HAL_CAN_MspDeInit,"ax",%progbits
 196              		.align	2
 197              		.weak	HAL_CAN_MspDeInit
 198              		.thumb
 199              		.thumb_func
 201              	HAL_CAN_MspDeInit:
 202              		@ args = 0, pretend = 0, frame = 0
 203              		@ frame_needed = 0, uses_anonymous_args = 0
 204              		@ link register save eliminated.
 205 0000 7047     		bx	lr
 207 0002 00BF     		.section	.text.HAL_CAN_ConfigFilter,"ax",%progbits
 208              		.align	2
 209              		.global	HAL_CAN_ConfigFilter
 210              		.thumb
 211              		.thumb_func
 213              	HAL_CAN_ConfigFilter:
 214              		@ args = 0, pretend = 0, frame = 0
 215              		@ frame_needed = 0, uses_anonymous_args = 0
 216              		@ link register save eliminated.
 217 0000 0268     		ldr	r2, [r0]
 218 0002 90F82030 		ldrb	r3, [r0, #32]	@ zero_extendqisi2
 219 0006 013B     		subs	r3, r3, #1
 220 0008 DBB2     		uxtb	r3, r3
 221 000a 012B     		cmp	r3, #1
 222 000c 6CD8     		bhi	.L26
 223 000e 70B4     		push	{r4, r5, r6}
 224 0010 D2F80032 		ldr	r3, [r2, #512]
 225 0014 43F00103 		orr	r3, r3, #1
 226 0018 C2F80032 		str	r3, [r2, #512]
 227 001c 4B69     		ldr	r3, [r1, #20]
 228 001e 03F01F00 		and	r0, r3, #31
 229 0022 0123     		movs	r3, #1
 230 0024 8340     		lsls	r3, r3, r0
 231 0026 D2F81C02 		ldr	r0, [r2, #540]
 232 002a DC43     		mvns	r4, r3
 233 002c 2040     		ands	r0, r0, r4
 234 002e C2F81C02 		str	r0, [r2, #540]
 235 0032 C869     		ldr	r0, [r1, #28]
ARM GAS  /tmp/cc0zucMI.s 			page 5


 236 0034 A8B9     		cbnz	r0, .L27
 237 0036 D2F80C02 		ldr	r0, [r2, #524]
 238 003a 2040     		ands	r0, r0, r4
 239 003c C2F80C02 		str	r0, [r2, #524]
 240 0040 4869     		ldr	r0, [r1, #20]
 241 0042 CE68     		ldr	r6, [r1, #12]
 242 0044 8D88     		ldrh	r5, [r1, #4]
 243 0046 45EA0645 		orr	r5, r5, r6, lsl #16
 244 004a 4830     		adds	r0, r0, #72
 245 004c 42F83050 		str	r5, [r2, r0, lsl #3]
 246 0050 4869     		ldr	r0, [r1, #20]
 247 0052 8E68     		ldr	r6, [r1, #8]
 248 0054 0D88     		ldrh	r5, [r1]
 249 0056 45EA0645 		orr	r5, r5, r6, lsl #16
 250 005a 4830     		adds	r0, r0, #72
 251 005c 02EBC000 		add	r0, r2, r0, lsl #3
 252 0060 4560     		str	r5, [r0, #4]
 253              	.L27:
 254 0062 C869     		ldr	r0, [r1, #28]
 255 0064 0128     		cmp	r0, #1
 256 0066 15D1     		bne	.L28
 257 0068 D2F80C02 		ldr	r0, [r2, #524]
 258 006c 1843     		orrs	r0, r0, r3
 259 006e C2F80C02 		str	r0, [r2, #524]
 260 0072 4869     		ldr	r0, [r1, #20]
 261 0074 0E68     		ldr	r6, [r1]
 262 0076 8D88     		ldrh	r5, [r1, #4]
 263 0078 45EA0645 		orr	r5, r5, r6, lsl #16
 264 007c 4830     		adds	r0, r0, #72
 265 007e 42F83050 		str	r5, [r2, r0, lsl #3]
 266 0082 4869     		ldr	r0, [r1, #20]
 267 0084 8E68     		ldr	r6, [r1, #8]
 268 0086 8D89     		ldrh	r5, [r1, #12]
 269 0088 45EA0645 		orr	r5, r5, r6, lsl #16
 270 008c 4830     		adds	r0, r0, #72
 271 008e 02EBC000 		add	r0, r2, r0, lsl #3
 272 0092 4560     		str	r5, [r0, #4]
 273              	.L28:
 274 0094 8869     		ldr	r0, [r1, #24]
 275 0096 28B9     		cbnz	r0, .L29
 276 0098 D2F80402 		ldr	r0, [r2, #516]
 277 009c 2040     		ands	r0, r0, r4
 278 009e C2F80402 		str	r0, [r2, #516]
 279 00a2 04E0     		b	.L30
 280              	.L29:
 281 00a4 D2F80402 		ldr	r0, [r2, #516]
 282 00a8 1843     		orrs	r0, r0, r3
 283 00aa C2F80402 		str	r0, [r2, #516]
 284              	.L30:
 285 00ae 0869     		ldr	r0, [r1, #16]
 286 00b0 28B9     		cbnz	r0, .L31
 287 00b2 D2F81402 		ldr	r0, [r2, #532]
 288 00b6 0440     		ands	r4, r4, r0
 289 00b8 C2F81442 		str	r4, [r2, #532]
 290 00bc 04E0     		b	.L32
 291              	.L31:
 292 00be D2F81402 		ldr	r0, [r2, #532]
ARM GAS  /tmp/cc0zucMI.s 			page 6


 293 00c2 1843     		orrs	r0, r0, r3
 294 00c4 C2F81402 		str	r0, [r2, #532]
 295              	.L32:
 296 00c8 096A     		ldr	r1, [r1, #32]
 297 00ca 0129     		cmp	r1, #1
 298 00cc 04D1     		bne	.L33
 299 00ce D2F81C12 		ldr	r1, [r2, #540]
 300 00d2 0B43     		orrs	r3, r3, r1
 301 00d4 C2F81C32 		str	r3, [r2, #540]
 302              	.L33:
 303 00d8 D2F80032 		ldr	r3, [r2, #512]
 304 00dc 23F00103 		bic	r3, r3, #1
 305 00e0 C2F80032 		str	r3, [r2, #512]
 306 00e4 0020     		movs	r0, #0
 307 00e6 05E0     		b	.L34
 308              	.L26:
 309 00e8 436A     		ldr	r3, [r0, #36]
 310 00ea 43F48023 		orr	r3, r3, #262144
 311 00ee 4362     		str	r3, [r0, #36]
 312 00f0 0120     		movs	r0, #1
 313 00f2 7047     		bx	lr
 314              	.L34:
 315 00f4 70BC     		pop	{r4, r5, r6}
 316 00f6 7047     		bx	lr
 318              		.section	.text.HAL_CAN_Start,"ax",%progbits
 319              		.align	2
 320              		.global	HAL_CAN_Start
 321              		.thumb
 322              		.thumb_func
 324              	HAL_CAN_Start:
 325              		@ args = 0, pretend = 0, frame = 0
 326              		@ frame_needed = 0, uses_anonymous_args = 0
 327 0000 38B5     		push	{r3, r4, r5, lr}
 328 0002 90F82030 		ldrb	r3, [r0, #32]	@ zero_extendqisi2
 329 0006 DBB2     		uxtb	r3, r3
 330 0008 012B     		cmp	r3, #1
 331 000a 22D1     		bne	.L38
 332 000c 0446     		mov	r4, r0
 333 000e 0223     		movs	r3, #2
 334 0010 80F82030 		strb	r3, [r0, #32]
 335 0014 0268     		ldr	r2, [r0]
 336 0016 1368     		ldr	r3, [r2]
 337 0018 23F00103 		bic	r3, r3, #1
 338 001c 1360     		str	r3, [r2]
 339 001e FFF7FEFF 		bl	HAL_GetTick
 340 0022 0546     		mov	r5, r0
 341 0024 0DE0     		b	.L39
 342              	.L41:
 343 0026 FFF7FEFF 		bl	HAL_GetTick
 344 002a 401B     		subs	r0, r0, r5
 345 002c 0A28     		cmp	r0, #10
 346 002e 08D9     		bls	.L39
 347 0030 636A     		ldr	r3, [r4, #36]
 348 0032 43F40033 		orr	r3, r3, #131072
 349 0036 6362     		str	r3, [r4, #36]
 350 0038 0523     		movs	r3, #5
 351 003a 84F82030 		strb	r3, [r4, #32]
ARM GAS  /tmp/cc0zucMI.s 			page 7


 352 003e 0120     		movs	r0, #1
 353 0040 38BD     		pop	{r3, r4, r5, pc}
 354              	.L39:
 355 0042 2368     		ldr	r3, [r4]
 356 0044 5B68     		ldr	r3, [r3, #4]
 357 0046 13F0010F 		tst	r3, #1
 358 004a ECD1     		bne	.L41
 359 004c 0020     		movs	r0, #0
 360 004e 6062     		str	r0, [r4, #36]
 361 0050 38BD     		pop	{r3, r4, r5, pc}
 362              	.L38:
 363 0052 436A     		ldr	r3, [r0, #36]
 364 0054 43F40023 		orr	r3, r3, #524288
 365 0058 4362     		str	r3, [r0, #36]
 366 005a 0120     		movs	r0, #1
 367 005c 38BD     		pop	{r3, r4, r5, pc}
 369 005e 00BF     		.section	.text.HAL_CAN_Stop,"ax",%progbits
 370              		.align	2
 371              		.global	HAL_CAN_Stop
 372              		.thumb
 373              		.thumb_func
 375              	HAL_CAN_Stop:
 376              		@ args = 0, pretend = 0, frame = 0
 377              		@ frame_needed = 0, uses_anonymous_args = 0
 378 0000 38B5     		push	{r3, r4, r5, lr}
 379 0002 90F82030 		ldrb	r3, [r0, #32]	@ zero_extendqisi2
 380 0006 DBB2     		uxtb	r3, r3
 381 0008 022B     		cmp	r3, #2
 382 000a 25D1     		bne	.L44
 383 000c 0446     		mov	r4, r0
 384 000e 0268     		ldr	r2, [r0]
 385 0010 1368     		ldr	r3, [r2]
 386 0012 43F00103 		orr	r3, r3, #1
 387 0016 1360     		str	r3, [r2]
 388 0018 FFF7FEFF 		bl	HAL_GetTick
 389 001c 0546     		mov	r5, r0
 390 001e 0DE0     		b	.L45
 391              	.L47:
 392 0020 FFF7FEFF 		bl	HAL_GetTick
 393 0024 401B     		subs	r0, r0, r5
 394 0026 0A28     		cmp	r0, #10
 395 0028 08D9     		bls	.L45
 396 002a 636A     		ldr	r3, [r4, #36]
 397 002c 43F40033 		orr	r3, r3, #131072
 398 0030 6362     		str	r3, [r4, #36]
 399 0032 0523     		movs	r3, #5
 400 0034 84F82030 		strb	r3, [r4, #32]
 401 0038 0120     		movs	r0, #1
 402 003a 38BD     		pop	{r3, r4, r5, pc}
 403              	.L45:
 404 003c 2368     		ldr	r3, [r4]
 405 003e 5A68     		ldr	r2, [r3, #4]
 406 0040 12F0010F 		tst	r2, #1
 407 0044 ECD0     		beq	.L47
 408 0046 1A68     		ldr	r2, [r3]
 409 0048 22F00202 		bic	r2, r2, #2
 410 004c 1A60     		str	r2, [r3]
ARM GAS  /tmp/cc0zucMI.s 			page 8


 411 004e 0123     		movs	r3, #1
 412 0050 84F82030 		strb	r3, [r4, #32]
 413 0054 0020     		movs	r0, #0
 414 0056 38BD     		pop	{r3, r4, r5, pc}
 415              	.L44:
 416 0058 436A     		ldr	r3, [r0, #36]
 417 005a 43F48013 		orr	r3, r3, #1048576
 418 005e 4362     		str	r3, [r0, #36]
 419 0060 0120     		movs	r0, #1
 420 0062 38BD     		pop	{r3, r4, r5, pc}
 422              		.section	.text.HAL_CAN_DeInit,"ax",%progbits
 423              		.align	2
 424              		.global	HAL_CAN_DeInit
 425              		.thumb
 426              		.thumb_func
 428              	HAL_CAN_DeInit:
 429              		@ args = 0, pretend = 0, frame = 0
 430              		@ frame_needed = 0, uses_anonymous_args = 0
 431 0000 80B1     		cbz	r0, .L51
 432 0002 10B5     		push	{r4, lr}
 433 0004 0446     		mov	r4, r0
 434 0006 FFF7FEFF 		bl	HAL_CAN_Stop
 435 000a 2046     		mov	r0, r4
 436 000c FFF7FEFF 		bl	HAL_CAN_MspDeInit
 437 0010 2268     		ldr	r2, [r4]
 438 0012 1368     		ldr	r3, [r2]
 439 0014 43F40043 		orr	r3, r3, #32768
 440 0018 1360     		str	r3, [r2]
 441 001a 0020     		movs	r0, #0
 442 001c 6062     		str	r0, [r4, #36]
 443 001e 84F82000 		strb	r0, [r4, #32]
 444 0022 10BD     		pop	{r4, pc}
 445              	.L51:
 446 0024 0120     		movs	r0, #1
 447 0026 7047     		bx	lr
 449              		.section	.text.HAL_CAN_RequestSleep,"ax",%progbits
 450              		.align	2
 451              		.global	HAL_CAN_RequestSleep
 452              		.thumb
 453              		.thumb_func
 455              	HAL_CAN_RequestSleep:
 456              		@ args = 0, pretend = 0, frame = 0
 457              		@ frame_needed = 0, uses_anonymous_args = 0
 458              		@ link register save eliminated.
 459 0000 90F82030 		ldrb	r3, [r0, #32]	@ zero_extendqisi2
 460 0004 013B     		subs	r3, r3, #1
 461 0006 DBB2     		uxtb	r3, r3
 462 0008 012B     		cmp	r3, #1
 463 000a 06D8     		bhi	.L55
 464 000c 0268     		ldr	r2, [r0]
 465 000e 1368     		ldr	r3, [r2]
 466 0010 43F00203 		orr	r3, r3, #2
 467 0014 1360     		str	r3, [r2]
 468 0016 0020     		movs	r0, #0
 469 0018 7047     		bx	lr
 470              	.L55:
 471 001a 436A     		ldr	r3, [r0, #36]
ARM GAS  /tmp/cc0zucMI.s 			page 9


 472 001c 43F48023 		orr	r3, r3, #262144
 473 0020 4362     		str	r3, [r0, #36]
 474 0022 0120     		movs	r0, #1
 475 0024 7047     		bx	lr
 477 0026 00BF     		.section	.text.HAL_CAN_WakeUp,"ax",%progbits
 478              		.align	2
 479              		.global	HAL_CAN_WakeUp
 480              		.thumb
 481              		.thumb_func
 483              	HAL_CAN_WakeUp:
 484              		@ args = 0, pretend = 0, frame = 8
 485              		@ frame_needed = 0, uses_anonymous_args = 0
 486              		@ link register save eliminated.
 487 0000 82B0     		sub	sp, sp, #8
 488 0002 0023     		movs	r3, #0
 489 0004 0193     		str	r3, [sp, #4]
 490 0006 90F82030 		ldrb	r3, [r0, #32]	@ zero_extendqisi2
 491 000a 013B     		subs	r3, r3, #1
 492 000c DBB2     		uxtb	r3, r3
 493 000e 012B     		cmp	r3, #1
 494 0010 18D8     		bhi	.L58
 495 0012 0268     		ldr	r2, [r0]
 496 0014 1368     		ldr	r3, [r2]
 497 0016 23F00203 		bic	r3, r3, #2
 498 001a 1360     		str	r3, [r2]
 499              	.L61:
 500 001c 019B     		ldr	r3, [sp, #4]
 501 001e 0133     		adds	r3, r3, #1
 502 0020 0193     		str	r3, [sp, #4]
 503 0022 019A     		ldr	r2, [sp, #4]
 504 0024 0B4B     		ldr	r3, .L63
 505 0026 9A42     		cmp	r2, r3
 506 0028 05D9     		bls	.L59
 507 002a 436A     		ldr	r3, [r0, #36]
 508 002c 43F40033 		orr	r3, r3, #131072
 509 0030 4362     		str	r3, [r0, #36]
 510 0032 0120     		movs	r0, #1
 511 0034 0BE0     		b	.L60
 512              	.L59:
 513 0036 0368     		ldr	r3, [r0]
 514 0038 5B68     		ldr	r3, [r3, #4]
 515 003a 13F0020F 		tst	r3, #2
 516 003e EDD1     		bne	.L61
 517 0040 0020     		movs	r0, #0
 518 0042 04E0     		b	.L60
 519              	.L58:
 520 0044 436A     		ldr	r3, [r0, #36]
 521 0046 43F48023 		orr	r3, r3, #262144
 522 004a 4362     		str	r3, [r0, #36]
 523 004c 0120     		movs	r0, #1
 524              	.L60:
 525 004e 02B0     		add	sp, sp, #8
 526              		@ sp needed
 527 0050 7047     		bx	lr
 528              	.L64:
 529 0052 00BF     		.align	2
 530              	.L63:
ARM GAS  /tmp/cc0zucMI.s 			page 10


 531 0054 40420F00 		.word	1000000
 533              		.section	.text.HAL_CAN_IsSleepActive,"ax",%progbits
 534              		.align	2
 535              		.global	HAL_CAN_IsSleepActive
 536              		.thumb
 537              		.thumb_func
 539              	HAL_CAN_IsSleepActive:
 540              		@ args = 0, pretend = 0, frame = 0
 541              		@ frame_needed = 0, uses_anonymous_args = 0
 542              		@ link register save eliminated.
 543 0000 90F82030 		ldrb	r3, [r0, #32]	@ zero_extendqisi2
 544 0004 013B     		subs	r3, r3, #1
 545 0006 DBB2     		uxtb	r3, r3
 546 0008 012B     		cmp	r3, #1
 547 000a 06D8     		bhi	.L67
 548 000c 0368     		ldr	r3, [r0]
 549 000e 5B68     		ldr	r3, [r3, #4]
 550 0010 13F0020F 		tst	r3, #2
 551 0014 03D1     		bne	.L68
 552 0016 0020     		movs	r0, #0
 553 0018 7047     		bx	lr
 554              	.L67:
 555 001a 0020     		movs	r0, #0
 556 001c 7047     		bx	lr
 557              	.L68:
 558 001e 0120     		movs	r0, #1
 559 0020 7047     		bx	lr
 561 0022 00BF     		.section	.text.HAL_CAN_AddTxMessage,"ax",%progbits
 562              		.align	2
 563              		.global	HAL_CAN_AddTxMessage
 564              		.thumb
 565              		.thumb_func
 567              	HAL_CAN_AddTxMessage:
 568              		@ args = 0, pretend = 0, frame = 0
 569              		@ frame_needed = 0, uses_anonymous_args = 0
 570              		@ link register save eliminated.
 571 0000 70B4     		push	{r4, r5, r6}
 572 0002 90F82040 		ldrb	r4, [r0, #32]	@ zero_extendqisi2
 573 0006 0568     		ldr	r5, [r0]
 574 0008 AD68     		ldr	r5, [r5, #8]
 575 000a 013C     		subs	r4, r4, #1
 576 000c E4B2     		uxtb	r4, r4
 577 000e 012C     		cmp	r4, #1
 578 0010 62D8     		bhi	.L70
 579 0012 15F0E05F 		tst	r5, #469762048
 580 0016 59D0     		beq	.L71
 581 0018 C5F30165 		ubfx	r5, r5, #24, #2
 582 001c 022D     		cmp	r5, #2
 583 001e 05D9     		bls	.L72
 584 0020 436A     		ldr	r3, [r0, #36]
 585 0022 43F40003 		orr	r3, r3, #8388608
 586 0026 4362     		str	r3, [r0, #36]
 587 0028 0120     		movs	r0, #1
 588 002a 5AE0     		b	.L73
 589              	.L72:
 590 002c 0124     		movs	r4, #1
 591 002e AC40     		lsls	r4, r4, r5
ARM GAS  /tmp/cc0zucMI.s 			page 11


 592 0030 1C60     		str	r4, [r3]
 593 0032 8B68     		ldr	r3, [r1, #8]
 594 0034 4BB9     		cbnz	r3, .L74
 595 0036 0468     		ldr	r4, [r0]
 596 0038 0E68     		ldr	r6, [r1]
 597 003a CB68     		ldr	r3, [r1, #12]
 598 003c 43EA4656 		orr	r6, r3, r6, lsl #21
 599 0040 05F11803 		add	r3, r5, #24
 600 0044 1B01     		lsls	r3, r3, #4
 601 0046 E650     		str	r6, [r4, r3]
 602 0048 09E0     		b	.L75
 603              	.L74:
 604 004a 0668     		ldr	r6, [r0]
 605 004c 4C68     		ldr	r4, [r1, #4]
 606 004e 43EAC403 		orr	r3, r3, r4, lsl #3
 607 0052 CC68     		ldr	r4, [r1, #12]
 608 0054 2343     		orrs	r3, r3, r4
 609 0056 05F11804 		add	r4, r5, #24
 610 005a 2401     		lsls	r4, r4, #4
 611 005c 3351     		str	r3, [r6, r4]
 612              	.L75:
 613 005e 0368     		ldr	r3, [r0]
 614 0060 0C69     		ldr	r4, [r1, #16]
 615 0062 05F11806 		add	r6, r5, #24
 616 0066 03EB0613 		add	r3, r3, r6, lsl #4
 617 006a 5C60     		str	r4, [r3, #4]
 618 006c 0B7D     		ldrb	r3, [r1, #20]	@ zero_extendqisi2
 619 006e 012B     		cmp	r3, #1
 620 0070 06D1     		bne	.L76
 621 0072 0368     		ldr	r3, [r0]
 622 0074 03EB0613 		add	r3, r3, r6, lsl #4
 623 0078 5968     		ldr	r1, [r3, #4]
 624 007a 41F48071 		orr	r1, r1, #256
 625 007e 5960     		str	r1, [r3, #4]
 626              	.L76:
 627 0080 0168     		ldr	r1, [r0]
 628 0082 D479     		ldrb	r4, [r2, #7]	@ zero_extendqisi2
 629 0084 9379     		ldrb	r3, [r2, #6]	@ zero_extendqisi2
 630 0086 1B04     		lsls	r3, r3, #16
 631 0088 43EA0463 		orr	r3, r3, r4, lsl #24
 632 008c 5479     		ldrb	r4, [r2, #5]	@ zero_extendqisi2
 633 008e 43EA0423 		orr	r3, r3, r4, lsl #8
 634 0092 1479     		ldrb	r4, [r2, #4]	@ zero_extendqisi2
 635 0094 2343     		orrs	r3, r3, r4
 636 0096 2C01     		lsls	r4, r5, #4
 637 0098 2144     		add	r1, r1, r4
 638 009a C1F88C31 		str	r3, [r1, #396]
 639 009e 0168     		ldr	r1, [r0]
 640 00a0 D678     		ldrb	r6, [r2, #3]	@ zero_extendqisi2
 641 00a2 9378     		ldrb	r3, [r2, #2]	@ zero_extendqisi2
 642 00a4 1B04     		lsls	r3, r3, #16
 643 00a6 43EA0663 		orr	r3, r3, r6, lsl #24
 644 00aa 5678     		ldrb	r6, [r2, #1]	@ zero_extendqisi2
 645 00ac 43EA0623 		orr	r3, r3, r6, lsl #8
 646 00b0 1278     		ldrb	r2, [r2]	@ zero_extendqisi2
 647 00b2 1343     		orrs	r3, r3, r2
 648 00b4 2144     		add	r1, r1, r4
ARM GAS  /tmp/cc0zucMI.s 			page 12


 649 00b6 C1F88831 		str	r3, [r1, #392]
 650 00ba 0268     		ldr	r2, [r0]
 651 00bc 1835     		adds	r5, r5, #24
 652 00be 2D01     		lsls	r5, r5, #4
 653 00c0 5359     		ldr	r3, [r2, r5]
 654 00c2 43F00103 		orr	r3, r3, #1
 655 00c6 5351     		str	r3, [r2, r5]
 656 00c8 0020     		movs	r0, #0
 657 00ca 0AE0     		b	.L73
 658              	.L71:
 659 00cc 436A     		ldr	r3, [r0, #36]
 660 00ce 43F40013 		orr	r3, r3, #2097152
 661 00d2 4362     		str	r3, [r0, #36]
 662 00d4 0120     		movs	r0, #1
 663 00d6 04E0     		b	.L73
 664              	.L70:
 665 00d8 436A     		ldr	r3, [r0, #36]
 666 00da 43F48023 		orr	r3, r3, #262144
 667 00de 4362     		str	r3, [r0, #36]
 668 00e0 0120     		movs	r0, #1
 669              	.L73:
 670 00e2 70BC     		pop	{r4, r5, r6}
 671 00e4 7047     		bx	lr
 673 00e6 00BF     		.section	.text.HAL_CAN_AbortTxRequest,"ax",%progbits
 674              		.align	2
 675              		.global	HAL_CAN_AbortTxRequest
 676              		.thumb
 677              		.thumb_func
 679              	HAL_CAN_AbortTxRequest:
 680              		@ args = 0, pretend = 0, frame = 0
 681              		@ frame_needed = 0, uses_anonymous_args = 0
 682              		@ link register save eliminated.
 683 0000 90F82030 		ldrb	r3, [r0, #32]	@ zero_extendqisi2
 684 0004 013B     		subs	r3, r3, #1
 685 0006 DBB2     		uxtb	r3, r3
 686 0008 012B     		cmp	r3, #1
 687 000a 19D8     		bhi	.L79
 688 000c 11F0010F 		tst	r1, #1
 689 0010 04D0     		beq	.L80
 690 0012 0268     		ldr	r2, [r0]
 691 0014 9368     		ldr	r3, [r2, #8]
 692 0016 43F08003 		orr	r3, r3, #128
 693 001a 9360     		str	r3, [r2, #8]
 694              	.L80:
 695 001c 11F0020F 		tst	r1, #2
 696 0020 04D0     		beq	.L81
 697 0022 0268     		ldr	r2, [r0]
 698 0024 9368     		ldr	r3, [r2, #8]
 699 0026 43F40043 		orr	r3, r3, #32768
 700 002a 9360     		str	r3, [r2, #8]
 701              	.L81:
 702 002c 11F0040F 		tst	r1, #4
 703 0030 0CD0     		beq	.L83
 704 0032 0268     		ldr	r2, [r0]
 705 0034 9368     		ldr	r3, [r2, #8]
 706 0036 43F40003 		orr	r3, r3, #8388608
 707 003a 9360     		str	r3, [r2, #8]
ARM GAS  /tmp/cc0zucMI.s 			page 13


 708 003c 0020     		movs	r0, #0
 709 003e 7047     		bx	lr
 710              	.L79:
 711 0040 436A     		ldr	r3, [r0, #36]
 712 0042 43F48023 		orr	r3, r3, #262144
 713 0046 4362     		str	r3, [r0, #36]
 714 0048 0120     		movs	r0, #1
 715 004a 7047     		bx	lr
 716              	.L83:
 717 004c 0020     		movs	r0, #0
 718 004e 7047     		bx	lr
 720              		.section	.text.HAL_CAN_GetTxMailboxesFreeLevel,"ax",%progbits
 721              		.align	2
 722              		.global	HAL_CAN_GetTxMailboxesFreeLevel
 723              		.thumb
 724              		.thumb_func
 726              	HAL_CAN_GetTxMailboxesFreeLevel:
 727              		@ args = 0, pretend = 0, frame = 0
 728              		@ frame_needed = 0, uses_anonymous_args = 0
 729              		@ link register save eliminated.
 730 0000 90F82030 		ldrb	r3, [r0, #32]	@ zero_extendqisi2
 731 0004 013B     		subs	r3, r3, #1
 732 0006 DBB2     		uxtb	r3, r3
 733 0008 012B     		cmp	r3, #1
 734 000a 12D8     		bhi	.L88
 735 000c 0368     		ldr	r3, [r0]
 736 000e 9A68     		ldr	r2, [r3, #8]
 737 0010 12F0806F 		tst	r2, #67108864
 738 0014 01D1     		bne	.L89
 739 0016 0020     		movs	r0, #0
 740 0018 00E0     		b	.L86
 741              	.L89:
 742 001a 0120     		movs	r0, #1
 743              	.L86:
 744 001c 9A68     		ldr	r2, [r3, #8]
 745 001e 12F0006F 		tst	r2, #134217728
 746 0022 00D0     		beq	.L87
 747 0024 0130     		adds	r0, r0, #1
 748              	.L87:
 749 0026 9B68     		ldr	r3, [r3, #8]
 750 0028 13F0805F 		tst	r3, #268435456
 751 002c 02D0     		beq	.L85
 752 002e 0130     		adds	r0, r0, #1
 753 0030 7047     		bx	lr
 754              	.L88:
 755 0032 0020     		movs	r0, #0
 756              	.L85:
 757 0034 7047     		bx	lr
 759 0036 00BF     		.section	.text.HAL_CAN_IsTxMessagePending,"ax",%progbits
 760              		.align	2
 761              		.global	HAL_CAN_IsTxMessagePending
 762              		.thumb
 763              		.thumb_func
 765              	HAL_CAN_IsTxMessagePending:
 766              		@ args = 0, pretend = 0, frame = 0
 767              		@ frame_needed = 0, uses_anonymous_args = 0
 768              		@ link register save eliminated.
ARM GAS  /tmp/cc0zucMI.s 			page 14


 769 0000 90F82030 		ldrb	r3, [r0, #32]	@ zero_extendqisi2
 770 0004 013B     		subs	r3, r3, #1
 771 0006 DBB2     		uxtb	r3, r3
 772 0008 012B     		cmp	r3, #1
 773 000a 07D8     		bhi	.L92
 774 000c 0368     		ldr	r3, [r0]
 775 000e 9B68     		ldr	r3, [r3, #8]
 776 0010 8906     		lsls	r1, r1, #26
 777 0012 0B40     		ands	r3, r3, r1
 778 0014 9942     		cmp	r1, r3
 779 0016 03D1     		bne	.L93
 780 0018 0020     		movs	r0, #0
 781 001a 7047     		bx	lr
 782              	.L92:
 783 001c 0020     		movs	r0, #0
 784 001e 7047     		bx	lr
 785              	.L93:
 786 0020 0120     		movs	r0, #1
 787 0022 7047     		bx	lr
 789              		.section	.text.HAL_CAN_GetTxTimestamp,"ax",%progbits
 790              		.align	2
 791              		.global	HAL_CAN_GetTxTimestamp
 792              		.thumb
 793              		.thumb_func
 795              	HAL_CAN_GetTxTimestamp:
 796              		@ args = 0, pretend = 0, frame = 0
 797              		@ frame_needed = 0, uses_anonymous_args = 0
 798              		@ link register save eliminated.
 799 0000 90F82030 		ldrb	r3, [r0, #32]	@ zero_extendqisi2
 800 0004 013B     		subs	r3, r3, #1
 801 0006 DBB2     		uxtb	r3, r3
 802 0008 012B     		cmp	r3, #1
 803 000a 0AD8     		bhi	.L96
 804              	@ 988 "../cmsiscore/inc/cmsis_gcc.h" 1
 805 000c 91FAA1F1 		rbit r1, r1
 806              	@ 0 "" 2
 807              		.thumb
 808 0010 B1FA81F1 		clz	r1, r1
 809 0014 0368     		ldr	r3, [r0]
 810 0016 1831     		adds	r1, r1, #24
 811 0018 03EB0111 		add	r1, r3, r1, lsl #4
 812 001c 4868     		ldr	r0, [r1, #4]
 813 001e 000C     		lsrs	r0, r0, #16
 814 0020 7047     		bx	lr
 815              	.L96:
 816 0022 0020     		movs	r0, #0
 817 0024 7047     		bx	lr
 819 0026 00BF     		.section	.text.HAL_CAN_GetRxMessage,"ax",%progbits
 820              		.align	2
 821              		.global	HAL_CAN_GetRxMessage
 822              		.thumb
 823              		.thumb_func
 825              	HAL_CAN_GetRxMessage:
 826              		@ args = 0, pretend = 0, frame = 0
 827              		@ frame_needed = 0, uses_anonymous_args = 0
 828              		@ link register save eliminated.
 829 0000 30B4     		push	{r4, r5}
ARM GAS  /tmp/cc0zucMI.s 			page 15


 830 0002 90F82040 		ldrb	r4, [r0, #32]	@ zero_extendqisi2
 831 0006 013C     		subs	r4, r4, #1
 832 0008 E4B2     		uxtb	r4, r4
 833 000a 012C     		cmp	r4, #1
 834 000c 00F28E80 		bhi	.L98
 835 0010 51B9     		cbnz	r1, .L99
 836 0012 0468     		ldr	r4, [r0]
 837 0014 E468     		ldr	r4, [r4, #12]
 838 0016 14F0030F 		tst	r4, #3
 839 001a 10D1     		bne	.L100
 840 001c 436A     		ldr	r3, [r0, #36]
 841 001e 43F40013 		orr	r3, r3, #2097152
 842 0022 4362     		str	r3, [r0, #36]
 843 0024 0120     		movs	r0, #1
 844 0026 86E0     		b	.L101
 845              	.L99:
 846 0028 0468     		ldr	r4, [r0]
 847 002a 2469     		ldr	r4, [r4, #16]
 848 002c 14F0030F 		tst	r4, #3
 849 0030 05D1     		bne	.L100
 850 0032 436A     		ldr	r3, [r0, #36]
 851 0034 43F40013 		orr	r3, r3, #2097152
 852 0038 4362     		str	r3, [r0, #36]
 853 003a 0120     		movs	r0, #1
 854 003c 7BE0     		b	.L101
 855              	.L100:
 856 003e 0568     		ldr	r5, [r0]
 857 0040 01F11B04 		add	r4, r1, #27
 858 0044 2401     		lsls	r4, r4, #4
 859 0046 2C59     		ldr	r4, [r5, r4]
 860 0048 04F00404 		and	r4, r4, #4
 861 004c 9460     		str	r4, [r2, #8]
 862 004e 3CB9     		cbnz	r4, .L102
 863 0050 0568     		ldr	r5, [r0]
 864 0052 01F11B04 		add	r4, r1, #27
 865 0056 2401     		lsls	r4, r4, #4
 866 0058 2C59     		ldr	r4, [r5, r4]
 867 005a 640D     		lsrs	r4, r4, #21
 868 005c 1460     		str	r4, [r2]
 869 005e 06E0     		b	.L103
 870              	.L102:
 871 0060 0568     		ldr	r5, [r0]
 872 0062 01F11B04 		add	r4, r1, #27
 873 0066 2401     		lsls	r4, r4, #4
 874 0068 2C59     		ldr	r4, [r5, r4]
 875 006a E408     		lsrs	r4, r4, #3
 876 006c 5460     		str	r4, [r2, #4]
 877              	.L103:
 878 006e 0568     		ldr	r5, [r0]
 879 0070 01F11B04 		add	r4, r1, #27
 880 0074 2401     		lsls	r4, r4, #4
 881 0076 2D59     		ldr	r5, [r5, r4]
 882 0078 05F00205 		and	r5, r5, #2
 883 007c D560     		str	r5, [r2, #12]
 884 007e 0568     		ldr	r5, [r0]
 885 0080 2544     		add	r5, r5, r4
 886 0082 6D68     		ldr	r5, [r5, #4]
ARM GAS  /tmp/cc0zucMI.s 			page 16


 887 0084 05F00F05 		and	r5, r5, #15
 888 0088 1561     		str	r5, [r2, #16]
 889 008a 0568     		ldr	r5, [r0]
 890 008c 2544     		add	r5, r5, r4
 891 008e 6D68     		ldr	r5, [r5, #4]
 892 0090 C5F30725 		ubfx	r5, r5, #8, #8
 893 0094 9561     		str	r5, [r2, #24]
 894 0096 0568     		ldr	r5, [r0]
 895 0098 2C44     		add	r4, r4, r5
 896 009a 6468     		ldr	r4, [r4, #4]
 897 009c 240C     		lsrs	r4, r4, #16
 898 009e 5461     		str	r4, [r2, #20]
 899 00a0 0468     		ldr	r4, [r0]
 900 00a2 0A01     		lsls	r2, r1, #4
 901 00a4 1444     		add	r4, r4, r2
 902 00a6 D4F8B841 		ldr	r4, [r4, #440]
 903 00aa 1C70     		strb	r4, [r3]
 904 00ac 0468     		ldr	r4, [r0]
 905 00ae 1444     		add	r4, r4, r2
 906 00b0 D4F8B841 		ldr	r4, [r4, #440]
 907 00b4 C4F30724 		ubfx	r4, r4, #8, #8
 908 00b8 5C70     		strb	r4, [r3, #1]
 909 00ba 0468     		ldr	r4, [r0]
 910 00bc 1444     		add	r4, r4, r2
 911 00be D4F8B841 		ldr	r4, [r4, #440]
 912 00c2 C4F30744 		ubfx	r4, r4, #16, #8
 913 00c6 9C70     		strb	r4, [r3, #2]
 914 00c8 0468     		ldr	r4, [r0]
 915 00ca 1444     		add	r4, r4, r2
 916 00cc D4F8B841 		ldr	r4, [r4, #440]
 917 00d0 240E     		lsrs	r4, r4, #24
 918 00d2 DC70     		strb	r4, [r3, #3]
 919 00d4 0468     		ldr	r4, [r0]
 920 00d6 1444     		add	r4, r4, r2
 921 00d8 04F5DC74 		add	r4, r4, #440
 922 00dc 6468     		ldr	r4, [r4, #4]
 923 00de 1C71     		strb	r4, [r3, #4]
 924 00e0 0468     		ldr	r4, [r0]
 925 00e2 1444     		add	r4, r4, r2
 926 00e4 04F5DC74 		add	r4, r4, #440
 927 00e8 6468     		ldr	r4, [r4, #4]
 928 00ea C4F30724 		ubfx	r4, r4, #8, #8
 929 00ee 5C71     		strb	r4, [r3, #5]
 930 00f0 0468     		ldr	r4, [r0]
 931 00f2 1444     		add	r4, r4, r2
 932 00f4 04F5DC74 		add	r4, r4, #440
 933 00f8 6468     		ldr	r4, [r4, #4]
 934 00fa C4F30744 		ubfx	r4, r4, #16, #8
 935 00fe 9C71     		strb	r4, [r3, #6]
 936 0100 0468     		ldr	r4, [r0]
 937 0102 2244     		add	r2, r2, r4
 938 0104 02F5DC72 		add	r2, r2, #440
 939 0108 5268     		ldr	r2, [r2, #4]
 940 010a 120E     		lsrs	r2, r2, #24
 941 010c DA71     		strb	r2, [r3, #7]
 942 010e 31B9     		cbnz	r1, .L104
 943 0110 0268     		ldr	r2, [r0]
ARM GAS  /tmp/cc0zucMI.s 			page 17


 944 0112 D368     		ldr	r3, [r2, #12]
 945 0114 43F02003 		orr	r3, r3, #32
 946 0118 D360     		str	r3, [r2, #12]
 947 011a 0020     		movs	r0, #0
 948 011c 0BE0     		b	.L101
 949              	.L104:
 950 011e 0268     		ldr	r2, [r0]
 951 0120 1369     		ldr	r3, [r2, #16]
 952 0122 43F02003 		orr	r3, r3, #32
 953 0126 1361     		str	r3, [r2, #16]
 954 0128 0020     		movs	r0, #0
 955 012a 04E0     		b	.L101
 956              	.L98:
 957 012c 436A     		ldr	r3, [r0, #36]
 958 012e 43F48023 		orr	r3, r3, #262144
 959 0132 4362     		str	r3, [r0, #36]
 960 0134 0120     		movs	r0, #1
 961              	.L101:
 962 0136 30BC     		pop	{r4, r5}
 963 0138 7047     		bx	lr
 965 013a 00BF     		.section	.text.HAL_CAN_GetRxFifoFillLevel,"ax",%progbits
 966              		.align	2
 967              		.global	HAL_CAN_GetRxFifoFillLevel
 968              		.thumb
 969              		.thumb_func
 971              	HAL_CAN_GetRxFifoFillLevel:
 972              		@ args = 0, pretend = 0, frame = 0
 973              		@ frame_needed = 0, uses_anonymous_args = 0
 974              		@ link register save eliminated.
 975 0000 90F82030 		ldrb	r3, [r0, #32]	@ zero_extendqisi2
 976 0004 013B     		subs	r3, r3, #1
 977 0006 DBB2     		uxtb	r3, r3
 978 0008 012B     		cmp	r3, #1
 979 000a 0AD8     		bhi	.L109
 980 000c 21B9     		cbnz	r1, .L108
 981 000e 0368     		ldr	r3, [r0]
 982 0010 D868     		ldr	r0, [r3, #12]
 983 0012 00F00300 		and	r0, r0, #3
 984 0016 7047     		bx	lr
 985              	.L108:
 986 0018 0368     		ldr	r3, [r0]
 987 001a 1869     		ldr	r0, [r3, #16]
 988 001c 00F00300 		and	r0, r0, #3
 989 0020 7047     		bx	lr
 990              	.L109:
 991 0022 0020     		movs	r0, #0
 992 0024 7047     		bx	lr
 994 0026 00BF     		.section	.text.HAL_CAN_ActivateNotification,"ax",%progbits
 995              		.align	2
 996              		.global	HAL_CAN_ActivateNotification
 997              		.thumb
 998              		.thumb_func
 1000              	HAL_CAN_ActivateNotification:
 1001              		@ args = 0, pretend = 0, frame = 0
 1002              		@ frame_needed = 0, uses_anonymous_args = 0
 1003              		@ link register save eliminated.
 1004 0000 90F82030 		ldrb	r3, [r0, #32]	@ zero_extendqisi2
ARM GAS  /tmp/cc0zucMI.s 			page 18


 1005 0004 013B     		subs	r3, r3, #1
 1006 0006 DBB2     		uxtb	r3, r3
 1007 0008 012B     		cmp	r3, #1
 1008 000a 05D8     		bhi	.L111
 1009 000c 0368     		ldr	r3, [r0]
 1010 000e 5A69     		ldr	r2, [r3, #20]
 1011 0010 1143     		orrs	r1, r1, r2
 1012 0012 5961     		str	r1, [r3, #20]
 1013 0014 0020     		movs	r0, #0
 1014 0016 7047     		bx	lr
 1015              	.L111:
 1016 0018 436A     		ldr	r3, [r0, #36]
 1017 001a 43F48023 		orr	r3, r3, #262144
 1018 001e 4362     		str	r3, [r0, #36]
 1019 0020 0120     		movs	r0, #1
 1020 0022 7047     		bx	lr
 1022              		.section	.text.HAL_CAN_DeactivateNotification,"ax",%progbits
 1023              		.align	2
 1024              		.global	HAL_CAN_DeactivateNotification
 1025              		.thumb
 1026              		.thumb_func
 1028              	HAL_CAN_DeactivateNotification:
 1029              		@ args = 0, pretend = 0, frame = 0
 1030              		@ frame_needed = 0, uses_anonymous_args = 0
 1031              		@ link register save eliminated.
 1032 0000 90F82030 		ldrb	r3, [r0, #32]	@ zero_extendqisi2
 1033 0004 013B     		subs	r3, r3, #1
 1034 0006 DBB2     		uxtb	r3, r3
 1035 0008 012B     		cmp	r3, #1
 1036 000a 06D8     		bhi	.L114
 1037 000c 0268     		ldr	r2, [r0]
 1038 000e 5369     		ldr	r3, [r2, #20]
 1039 0010 23EA0101 		bic	r1, r3, r1
 1040 0014 5161     		str	r1, [r2, #20]
 1041 0016 0020     		movs	r0, #0
 1042 0018 7047     		bx	lr
 1043              	.L114:
 1044 001a 436A     		ldr	r3, [r0, #36]
 1045 001c 43F48023 		orr	r3, r3, #262144
 1046 0020 4362     		str	r3, [r0, #36]
 1047 0022 0120     		movs	r0, #1
 1048 0024 7047     		bx	lr
 1050 0026 00BF     		.section	.text.HAL_CAN_TxMailbox0CompleteCallback,"ax",%progbits
 1051              		.align	2
 1052              		.weak	HAL_CAN_TxMailbox0CompleteCallback
 1053              		.thumb
 1054              		.thumb_func
 1056              	HAL_CAN_TxMailbox0CompleteCallback:
 1057              		@ args = 0, pretend = 0, frame = 0
 1058              		@ frame_needed = 0, uses_anonymous_args = 0
 1059              		@ link register save eliminated.
 1060 0000 7047     		bx	lr
 1062 0002 00BF     		.section	.text.HAL_CAN_TxMailbox1CompleteCallback,"ax",%progbits
 1063              		.align	2
 1064              		.weak	HAL_CAN_TxMailbox1CompleteCallback
 1065              		.thumb
 1066              		.thumb_func
ARM GAS  /tmp/cc0zucMI.s 			page 19


 1068              	HAL_CAN_TxMailbox1CompleteCallback:
 1069              		@ args = 0, pretend = 0, frame = 0
 1070              		@ frame_needed = 0, uses_anonymous_args = 0
 1071              		@ link register save eliminated.
 1072 0000 7047     		bx	lr
 1074 0002 00BF     		.section	.text.HAL_CAN_TxMailbox2CompleteCallback,"ax",%progbits
 1075              		.align	2
 1076              		.weak	HAL_CAN_TxMailbox2CompleteCallback
 1077              		.thumb
 1078              		.thumb_func
 1080              	HAL_CAN_TxMailbox2CompleteCallback:
 1081              		@ args = 0, pretend = 0, frame = 0
 1082              		@ frame_needed = 0, uses_anonymous_args = 0
 1083              		@ link register save eliminated.
 1084 0000 7047     		bx	lr
 1086 0002 00BF     		.section	.text.HAL_CAN_TxMailbox0AbortCallback,"ax",%progbits
 1087              		.align	2
 1088              		.weak	HAL_CAN_TxMailbox0AbortCallback
 1089              		.thumb
 1090              		.thumb_func
 1092              	HAL_CAN_TxMailbox0AbortCallback:
 1093              		@ args = 0, pretend = 0, frame = 0
 1094              		@ frame_needed = 0, uses_anonymous_args = 0
 1095              		@ link register save eliminated.
 1096 0000 7047     		bx	lr
 1098 0002 00BF     		.section	.text.HAL_CAN_TxMailbox1AbortCallback,"ax",%progbits
 1099              		.align	2
 1100              		.weak	HAL_CAN_TxMailbox1AbortCallback
 1101              		.thumb
 1102              		.thumb_func
 1104              	HAL_CAN_TxMailbox1AbortCallback:
 1105              		@ args = 0, pretend = 0, frame = 0
 1106              		@ frame_needed = 0, uses_anonymous_args = 0
 1107              		@ link register save eliminated.
 1108 0000 7047     		bx	lr
 1110 0002 00BF     		.section	.text.HAL_CAN_TxMailbox2AbortCallback,"ax",%progbits
 1111              		.align	2
 1112              		.weak	HAL_CAN_TxMailbox2AbortCallback
 1113              		.thumb
 1114              		.thumb_func
 1116              	HAL_CAN_TxMailbox2AbortCallback:
 1117              		@ args = 0, pretend = 0, frame = 0
 1118              		@ frame_needed = 0, uses_anonymous_args = 0
 1119              		@ link register save eliminated.
 1120 0000 7047     		bx	lr
 1122 0002 00BF     		.section	.text.HAL_CAN_RxFifo0MsgPendingCallback,"ax",%progbits
 1123              		.align	2
 1124              		.weak	HAL_CAN_RxFifo0MsgPendingCallback
 1125              		.thumb
 1126              		.thumb_func
 1128              	HAL_CAN_RxFifo0MsgPendingCallback:
 1129              		@ args = 0, pretend = 0, frame = 0
 1130              		@ frame_needed = 0, uses_anonymous_args = 0
 1131              		@ link register save eliminated.
 1132 0000 7047     		bx	lr
 1134 0002 00BF     		.section	.text.HAL_CAN_RxFifo0FullCallback,"ax",%progbits
 1135              		.align	2
ARM GAS  /tmp/cc0zucMI.s 			page 20


 1136              		.weak	HAL_CAN_RxFifo0FullCallback
 1137              		.thumb
 1138              		.thumb_func
 1140              	HAL_CAN_RxFifo0FullCallback:
 1141              		@ args = 0, pretend = 0, frame = 0
 1142              		@ frame_needed = 0, uses_anonymous_args = 0
 1143              		@ link register save eliminated.
 1144 0000 7047     		bx	lr
 1146 0002 00BF     		.section	.text.HAL_CAN_RxFifo1MsgPendingCallback,"ax",%progbits
 1147              		.align	2
 1148              		.weak	HAL_CAN_RxFifo1MsgPendingCallback
 1149              		.thumb
 1150              		.thumb_func
 1152              	HAL_CAN_RxFifo1MsgPendingCallback:
 1153              		@ args = 0, pretend = 0, frame = 0
 1154              		@ frame_needed = 0, uses_anonymous_args = 0
 1155              		@ link register save eliminated.
 1156 0000 7047     		bx	lr
 1158 0002 00BF     		.section	.text.HAL_CAN_RxFifo1FullCallback,"ax",%progbits
 1159              		.align	2
 1160              		.weak	HAL_CAN_RxFifo1FullCallback
 1161              		.thumb
 1162              		.thumb_func
 1164              	HAL_CAN_RxFifo1FullCallback:
 1165              		@ args = 0, pretend = 0, frame = 0
 1166              		@ frame_needed = 0, uses_anonymous_args = 0
 1167              		@ link register save eliminated.
 1168 0000 7047     		bx	lr
 1170 0002 00BF     		.section	.text.HAL_CAN_SleepCallback,"ax",%progbits
 1171              		.align	2
 1172              		.weak	HAL_CAN_SleepCallback
 1173              		.thumb
 1174              		.thumb_func
 1176              	HAL_CAN_SleepCallback:
 1177              		@ args = 0, pretend = 0, frame = 0
 1178              		@ frame_needed = 0, uses_anonymous_args = 0
 1179              		@ link register save eliminated.
 1180 0000 7047     		bx	lr
 1182 0002 00BF     		.section	.text.HAL_CAN_WakeUpFromRxMsgCallback,"ax",%progbits
 1183              		.align	2
 1184              		.weak	HAL_CAN_WakeUpFromRxMsgCallback
 1185              		.thumb
 1186              		.thumb_func
 1188              	HAL_CAN_WakeUpFromRxMsgCallback:
 1189              		@ args = 0, pretend = 0, frame = 0
 1190              		@ frame_needed = 0, uses_anonymous_args = 0
 1191              		@ link register save eliminated.
 1192 0000 7047     		bx	lr
 1194 0002 00BF     		.section	.text.HAL_CAN_ErrorCallback,"ax",%progbits
 1195              		.align	2
 1196              		.weak	HAL_CAN_ErrorCallback
 1197              		.thumb
 1198              		.thumb_func
 1200              	HAL_CAN_ErrorCallback:
 1201              		@ args = 0, pretend = 0, frame = 0
 1202              		@ frame_needed = 0, uses_anonymous_args = 0
 1203              		@ link register save eliminated.
ARM GAS  /tmp/cc0zucMI.s 			page 21


 1204 0000 7047     		bx	lr
 1206 0002 00BF     		.section	.text.HAL_CAN_IRQHandler,"ax",%progbits
 1207              		.align	2
 1208              		.global	HAL_CAN_IRQHandler
 1209              		.thumb
 1210              		.thumb_func
 1212              	HAL_CAN_IRQHandler:
 1213              		@ args = 0, pretend = 0, frame = 0
 1214              		@ frame_needed = 0, uses_anonymous_args = 0
 1215 0000 2DE9F84F 		push	{r3, r4, r5, r6, r7, r8, r9, r10, fp, lr}
 1216 0004 0546     		mov	r5, r0
 1217 0006 0368     		ldr	r3, [r0]
 1218 0008 5C69     		ldr	r4, [r3, #20]
 1219 000a 5F68     		ldr	r7, [r3, #4]
 1220 000c 9E68     		ldr	r6, [r3, #8]
 1221 000e D3F80C90 		ldr	r9, [r3, #12]
 1222 0012 D3F81080 		ldr	r8, [r3, #16]
 1223 0016 D3F818A0 		ldr	r10, [r3, #24]
 1224 001a 14F0010F 		tst	r4, #1
 1225 001e 5AD0     		beq	.L162
 1226 0020 16F0010F 		tst	r6, #1
 1227 0024 14D0     		beq	.L163
 1228 0026 0122     		movs	r2, #1
 1229 0028 9A60     		str	r2, [r3, #8]
 1230 002a 16F0020F 		tst	r6, #2
 1231 002e 04D0     		beq	.L132
 1232 0030 FFF7FEFF 		bl	HAL_CAN_TxMailbox0CompleteCallback
 1233 0034 4FF0000B 		mov	fp, #0
 1234 0038 12E0     		b	.L131
 1235              	.L132:
 1236 003a 16F0040F 		tst	r6, #4
 1237 003e 0AD1     		bne	.L164
 1238 0040 16F0080F 		tst	r6, #8
 1239 0044 0AD1     		bne	.L165
 1240 0046 FFF7FEFF 		bl	HAL_CAN_TxMailbox0AbortCallback
 1241 004a 4FF0000B 		mov	fp, #0
 1242 004e 07E0     		b	.L131
 1243              	.L163:
 1244 0050 4FF0000B 		mov	fp, #0
 1245 0054 04E0     		b	.L131
 1246              	.L164:
 1247 0056 4FF4006B 		mov	fp, #2048
 1248 005a 01E0     		b	.L131
 1249              	.L165:
 1250 005c 4FF4805B 		mov	fp, #4096
 1251              	.L131:
 1252 0060 16F4807F 		tst	r6, #256
 1253 0064 19D0     		beq	.L133
 1254 0066 2B68     		ldr	r3, [r5]
 1255 0068 4FF48072 		mov	r2, #256
 1256 006c 9A60     		str	r2, [r3, #8]
 1257 006e 16F4007F 		tst	r6, #512
 1258 0072 03D0     		beq	.L134
 1259 0074 2846     		mov	r0, r5
 1260 0076 FFF7FEFF 		bl	HAL_CAN_TxMailbox1CompleteCallback
 1261 007a 0EE0     		b	.L133
 1262              	.L134:
ARM GAS  /tmp/cc0zucMI.s 			page 22


 1263 007c 16F4806F 		tst	r6, #1024
 1264 0080 02D0     		beq	.L135
 1265 0082 4BF4005B 		orr	fp, fp, #8192
 1266 0086 08E0     		b	.L133
 1267              	.L135:
 1268 0088 16F4006F 		tst	r6, #2048
 1269 008c 02D0     		beq	.L136
 1270 008e 4BF4804B 		orr	fp, fp, #16384
 1271 0092 02E0     		b	.L133
 1272              	.L136:
 1273 0094 2846     		mov	r0, r5
 1274 0096 FFF7FEFF 		bl	HAL_CAN_TxMailbox1AbortCallback
 1275              	.L133:
 1276 009a 16F4803F 		tst	r6, #65536
 1277 009e 1CD0     		beq	.L130
 1278 00a0 2B68     		ldr	r3, [r5]
 1279 00a2 4FF48032 		mov	r2, #65536
 1280 00a6 9A60     		str	r2, [r3, #8]
 1281 00a8 16F4003F 		tst	r6, #131072
 1282 00ac 03D0     		beq	.L137
 1283 00ae 2846     		mov	r0, r5
 1284 00b0 FFF7FEFF 		bl	HAL_CAN_TxMailbox2CompleteCallback
 1285 00b4 11E0     		b	.L130
 1286              	.L137:
 1287 00b6 16F4802F 		tst	r6, #262144
 1288 00ba 02D0     		beq	.L138
 1289 00bc 4BF4004B 		orr	fp, fp, #32768
 1290 00c0 0BE0     		b	.L130
 1291              	.L138:
 1292 00c2 16F4002F 		tst	r6, #524288
 1293 00c6 02D0     		beq	.L139
 1294 00c8 4BF4803B 		orr	fp, fp, #65536
 1295 00cc 05E0     		b	.L130
 1296              	.L139:
 1297 00ce 2846     		mov	r0, r5
 1298 00d0 FFF7FEFF 		bl	HAL_CAN_TxMailbox2AbortCallback
 1299 00d4 01E0     		b	.L130
 1300              	.L162:
 1301 00d6 4FF0000B 		mov	fp, #0
 1302              	.L130:
 1303 00da 14F0080F 		tst	r4, #8
 1304 00de 07D0     		beq	.L140
 1305 00e0 19F0100F 		tst	r9, #16
 1306 00e4 04D0     		beq	.L140
 1307 00e6 4BF4007B 		orr	fp, fp, #512
 1308 00ea 2B68     		ldr	r3, [r5]
 1309 00ec 1022     		movs	r2, #16
 1310 00ee DA60     		str	r2, [r3, #12]
 1311              	.L140:
 1312 00f0 14F0040F 		tst	r4, #4
 1313 00f4 08D0     		beq	.L141
 1314 00f6 19F0080F 		tst	r9, #8
 1315 00fa 05D0     		beq	.L141
 1316 00fc 2B68     		ldr	r3, [r5]
 1317 00fe 0822     		movs	r2, #8
 1318 0100 DA60     		str	r2, [r3, #12]
 1319 0102 2846     		mov	r0, r5
ARM GAS  /tmp/cc0zucMI.s 			page 23


 1320 0104 FFF7FEFF 		bl	HAL_CAN_RxFifo0FullCallback
 1321              	.L141:
 1322 0108 14F0020F 		tst	r4, #2
 1323 010c 07D0     		beq	.L142
 1324 010e 2B68     		ldr	r3, [r5]
 1325 0110 DB68     		ldr	r3, [r3, #12]
 1326 0112 13F0030F 		tst	r3, #3
 1327 0116 02D0     		beq	.L142
 1328 0118 2846     		mov	r0, r5
 1329 011a FFF7FEFF 		bl	HAL_CAN_RxFifo0MsgPendingCallback
 1330              	.L142:
 1331 011e 14F0400F 		tst	r4, #64
 1332 0122 07D0     		beq	.L143
 1333 0124 18F0100F 		tst	r8, #16
 1334 0128 04D0     		beq	.L143
 1335 012a 4BF4806B 		orr	fp, fp, #1024
 1336 012e 2B68     		ldr	r3, [r5]
 1337 0130 1022     		movs	r2, #16
 1338 0132 1A61     		str	r2, [r3, #16]
 1339              	.L143:
 1340 0134 14F0200F 		tst	r4, #32
 1341 0138 08D0     		beq	.L144
 1342 013a 18F0080F 		tst	r8, #8
 1343 013e 05D0     		beq	.L144
 1344 0140 2B68     		ldr	r3, [r5]
 1345 0142 0822     		movs	r2, #8
 1346 0144 1A61     		str	r2, [r3, #16]
 1347 0146 2846     		mov	r0, r5
 1348 0148 FFF7FEFF 		bl	HAL_CAN_RxFifo1FullCallback
 1349              	.L144:
 1350 014c 14F0100F 		tst	r4, #16
 1351 0150 07D0     		beq	.L145
 1352 0152 2B68     		ldr	r3, [r5]
 1353 0154 1B69     		ldr	r3, [r3, #16]
 1354 0156 13F0030F 		tst	r3, #3
 1355 015a 02D0     		beq	.L145
 1356 015c 2846     		mov	r0, r5
 1357 015e FFF7FEFF 		bl	HAL_CAN_RxFifo1MsgPendingCallback
 1358              	.L145:
 1359 0162 14F4003F 		tst	r4, #131072
 1360 0166 08D0     		beq	.L146
 1361 0168 17F0100F 		tst	r7, #16
 1362 016c 05D0     		beq	.L146
 1363 016e 2B68     		ldr	r3, [r5]
 1364 0170 1022     		movs	r2, #16
 1365 0172 5A60     		str	r2, [r3, #4]
 1366 0174 2846     		mov	r0, r5
 1367 0176 FFF7FEFF 		bl	HAL_CAN_SleepCallback
 1368              	.L146:
 1369 017a 14F4803F 		tst	r4, #65536
 1370 017e 08D0     		beq	.L147
 1371 0180 17F0080F 		tst	r7, #8
 1372 0184 05D0     		beq	.L147
 1373 0186 2B68     		ldr	r3, [r5]
 1374 0188 0822     		movs	r2, #8
 1375 018a 5A60     		str	r2, [r3, #4]
 1376 018c 2846     		mov	r0, r5
ARM GAS  /tmp/cc0zucMI.s 			page 24


 1377 018e FFF7FEFF 		bl	HAL_CAN_WakeUpFromRxMsgCallback
 1378              	.L147:
 1379 0192 14F4004F 		tst	r4, #32768
 1380 0196 4ED0     		beq	.L148
 1381 0198 17F0040F 		tst	r7, #4
 1382 019c 48D0     		beq	.L149
 1383 019e 14F4807F 		tst	r4, #256
 1384 01a2 04D0     		beq	.L150
 1385 01a4 1AF0010F 		tst	r10, #1
 1386 01a8 01D0     		beq	.L150
 1387 01aa 4BF0010B 		orr	fp, fp, #1
 1388              	.L150:
 1389 01ae 14F4007F 		tst	r4, #512
 1390 01b2 04D0     		beq	.L151
 1391 01b4 1AF0020F 		tst	r10, #2
 1392 01b8 01D0     		beq	.L151
 1393 01ba 4BF0020B 		orr	fp, fp, #2
 1394              	.L151:
 1395 01be 14F4806F 		tst	r4, #1024
 1396 01c2 04D0     		beq	.L152
 1397 01c4 1AF0040F 		tst	r10, #4
 1398 01c8 01D0     		beq	.L152
 1399 01ca 4BF0040B 		orr	fp, fp, #4
 1400              	.L152:
 1401 01ce 14F4006F 		tst	r4, #2048
 1402 01d2 2DD0     		beq	.L149
 1403 01d4 1AF0700A 		ands	r10, r10, #112
 1404 01d8 2AD0     		beq	.L149
 1405 01da BAF1300F 		cmp	r10, #48
 1406 01de 17D0     		beq	.L154
 1407 01e0 06D8     		bhi	.L155
 1408 01e2 BAF1100F 		cmp	r10, #16
 1409 01e6 0DD0     		beq	.L156
 1410 01e8 BAF1200F 		cmp	r10, #32
 1411 01ec 0DD0     		beq	.L157
 1412 01ee 1AE0     		b	.L153
 1413              	.L155:
 1414 01f0 BAF1500F 		cmp	r10, #80
 1415 01f4 12D0     		beq	.L158
 1416 01f6 BAF1600F 		cmp	r10, #96
 1417 01fa 12D0     		beq	.L159
 1418 01fc BAF1400F 		cmp	r10, #64
 1419 0200 11D1     		bne	.L153
 1420 0202 08E0     		b	.L160
 1421              	.L156:
 1422 0204 4BF0080B 		orr	fp, fp, #8
 1423 0208 0DE0     		b	.L153
 1424              	.L157:
 1425 020a 4BF0100B 		orr	fp, fp, #16
 1426 020e 0AE0     		b	.L153
 1427              	.L154:
 1428 0210 4BF0200B 		orr	fp, fp, #32
 1429 0214 07E0     		b	.L153
 1430              	.L160:
 1431 0216 4BF0400B 		orr	fp, fp, #64
 1432 021a 04E0     		b	.L153
 1433              	.L158:
ARM GAS  /tmp/cc0zucMI.s 			page 25


 1434 021c 4BF0800B 		orr	fp, fp, #128
 1435 0220 01E0     		b	.L153
 1436              	.L159:
 1437 0222 4BF4807B 		orr	fp, fp, #256
 1438              	.L153:
 1439 0226 2A68     		ldr	r2, [r5]
 1440 0228 9369     		ldr	r3, [r2, #24]
 1441 022a 23F07003 		bic	r3, r3, #112
 1442 022e 9361     		str	r3, [r2, #24]
 1443              	.L149:
 1444 0230 2B68     		ldr	r3, [r5]
 1445 0232 0422     		movs	r2, #4
 1446 0234 5A60     		str	r2, [r3, #4]
 1447              	.L148:
 1448 0236 BBF1000F 		cmp	fp, #0
 1449 023a 06D0     		beq	.L129
 1450 023c 6B6A     		ldr	r3, [r5, #36]
 1451 023e 43EA0B03 		orr	r3, r3, fp
 1452 0242 6B62     		str	r3, [r5, #36]
 1453 0244 2846     		mov	r0, r5
 1454 0246 FFF7FEFF 		bl	HAL_CAN_ErrorCallback
 1455              	.L129:
 1456 024a BDE8F88F 		pop	{r3, r4, r5, r6, r7, r8, r9, r10, fp, pc}
 1458 024e 00BF     		.section	.text.HAL_CAN_GetState,"ax",%progbits
 1459              		.align	2
 1460              		.global	HAL_CAN_GetState
 1461              		.thumb
 1462              		.thumb_func
 1464              	HAL_CAN_GetState:
 1465              		@ args = 0, pretend = 0, frame = 0
 1466              		@ frame_needed = 0, uses_anonymous_args = 0
 1467              		@ link register save eliminated.
 1468 0000 90F82030 		ldrb	r3, [r0, #32]	@ zero_extendqisi2
 1469 0004 DBB2     		uxtb	r3, r3
 1470 0006 5A1E     		subs	r2, r3, #1
 1471 0008 D2B2     		uxtb	r2, r2
 1472 000a 012A     		cmp	r2, #1
 1473 000c 0CD8     		bhi	.L168
 1474 000e 0268     		ldr	r2, [r0]
 1475 0010 5168     		ldr	r1, [r2, #4]
 1476 0012 11F0020F 		tst	r1, #2
 1477 0016 04D1     		bne	.L169
 1478 0018 1268     		ldr	r2, [r2]
 1479 001a 12F0020F 		tst	r2, #2
 1480 001e 02D1     		bne	.L170
 1481 0020 02E0     		b	.L168
 1482              	.L169:
 1483 0022 0423     		movs	r3, #4
 1484 0024 00E0     		b	.L168
 1485              	.L170:
 1486 0026 0323     		movs	r3, #3
 1487              	.L168:
 1488 0028 1846     		mov	r0, r3
 1489 002a 7047     		bx	lr
 1491              		.section	.text.HAL_CAN_GetError,"ax",%progbits
 1492              		.align	2
 1493              		.global	HAL_CAN_GetError
ARM GAS  /tmp/cc0zucMI.s 			page 26


 1494              		.thumb
 1495              		.thumb_func
 1497              	HAL_CAN_GetError:
 1498              		@ args = 0, pretend = 0, frame = 0
 1499              		@ frame_needed = 0, uses_anonymous_args = 0
 1500              		@ link register save eliminated.
 1501 0000 406A     		ldr	r0, [r0, #36]
 1502 0002 7047     		bx	lr
 1504              		.section	.text.HAL_CAN_ResetError,"ax",%progbits
 1505              		.align	2
 1506              		.global	HAL_CAN_ResetError
 1507              		.thumb
 1508              		.thumb_func
 1510              	HAL_CAN_ResetError:
 1511              		@ args = 0, pretend = 0, frame = 0
 1512              		@ frame_needed = 0, uses_anonymous_args = 0
 1513              		@ link register save eliminated.
 1514 0000 90F82030 		ldrb	r3, [r0, #32]	@ zero_extendqisi2
 1515 0004 013B     		subs	r3, r3, #1
 1516 0006 DBB2     		uxtb	r3, r3
 1517 0008 012B     		cmp	r3, #1
 1518 000a 03D8     		bhi	.L173
 1519 000c 0023     		movs	r3, #0
 1520 000e 4362     		str	r3, [r0, #36]
 1521 0010 1846     		mov	r0, r3
 1522 0012 7047     		bx	lr
 1523              	.L173:
 1524 0014 436A     		ldr	r3, [r0, #36]
 1525 0016 43F48023 		orr	r3, r3, #262144
 1526 001a 4362     		str	r3, [r0, #36]
 1527 001c 0120     		movs	r0, #1
 1528 001e 7047     		bx	lr
 1530              		.ident	"GCC: (15:4.9.3+svn231177-1) 4.9.3 20150529 (prerelease)"
ARM GAS  /tmp/cc0zucMI.s 			page 27


DEFINED SYMBOLS
                            *ABS*:0000000000000000 stm32f1xx_hal_can.c
     /tmp/cc0zucMI.s:16     .text.HAL_CAN_MspInit:0000000000000000 $t
     /tmp/cc0zucMI.s:21     .text.HAL_CAN_MspInit:0000000000000000 HAL_CAN_MspInit
     /tmp/cc0zucMI.s:28     .text.HAL_CAN_Init:0000000000000000 $t
     /tmp/cc0zucMI.s:33     .text.HAL_CAN_Init:0000000000000000 HAL_CAN_Init
     /tmp/cc0zucMI.s:196    .text.HAL_CAN_MspDeInit:0000000000000000 $t
     /tmp/cc0zucMI.s:201    .text.HAL_CAN_MspDeInit:0000000000000000 HAL_CAN_MspDeInit
     /tmp/cc0zucMI.s:208    .text.HAL_CAN_ConfigFilter:0000000000000000 $t
     /tmp/cc0zucMI.s:213    .text.HAL_CAN_ConfigFilter:0000000000000000 HAL_CAN_ConfigFilter
     /tmp/cc0zucMI.s:319    .text.HAL_CAN_Start:0000000000000000 $t
     /tmp/cc0zucMI.s:324    .text.HAL_CAN_Start:0000000000000000 HAL_CAN_Start
     /tmp/cc0zucMI.s:370    .text.HAL_CAN_Stop:0000000000000000 $t
     /tmp/cc0zucMI.s:375    .text.HAL_CAN_Stop:0000000000000000 HAL_CAN_Stop
     /tmp/cc0zucMI.s:423    .text.HAL_CAN_DeInit:0000000000000000 $t
     /tmp/cc0zucMI.s:428    .text.HAL_CAN_DeInit:0000000000000000 HAL_CAN_DeInit
     /tmp/cc0zucMI.s:450    .text.HAL_CAN_RequestSleep:0000000000000000 $t
     /tmp/cc0zucMI.s:455    .text.HAL_CAN_RequestSleep:0000000000000000 HAL_CAN_RequestSleep
     /tmp/cc0zucMI.s:478    .text.HAL_CAN_WakeUp:0000000000000000 $t
     /tmp/cc0zucMI.s:483    .text.HAL_CAN_WakeUp:0000000000000000 HAL_CAN_WakeUp
     /tmp/cc0zucMI.s:531    .text.HAL_CAN_WakeUp:0000000000000054 $d
     /tmp/cc0zucMI.s:534    .text.HAL_CAN_IsSleepActive:0000000000000000 $t
     /tmp/cc0zucMI.s:539    .text.HAL_CAN_IsSleepActive:0000000000000000 HAL_CAN_IsSleepActive
     /tmp/cc0zucMI.s:562    .text.HAL_CAN_AddTxMessage:0000000000000000 $t
     /tmp/cc0zucMI.s:567    .text.HAL_CAN_AddTxMessage:0000000000000000 HAL_CAN_AddTxMessage
     /tmp/cc0zucMI.s:674    .text.HAL_CAN_AbortTxRequest:0000000000000000 $t
     /tmp/cc0zucMI.s:679    .text.HAL_CAN_AbortTxRequest:0000000000000000 HAL_CAN_AbortTxRequest
     /tmp/cc0zucMI.s:721    .text.HAL_CAN_GetTxMailboxesFreeLevel:0000000000000000 $t
     /tmp/cc0zucMI.s:726    .text.HAL_CAN_GetTxMailboxesFreeLevel:0000000000000000 HAL_CAN_GetTxMailboxesFreeLevel
     /tmp/cc0zucMI.s:760    .text.HAL_CAN_IsTxMessagePending:0000000000000000 $t
     /tmp/cc0zucMI.s:765    .text.HAL_CAN_IsTxMessagePending:0000000000000000 HAL_CAN_IsTxMessagePending
     /tmp/cc0zucMI.s:790    .text.HAL_CAN_GetTxTimestamp:0000000000000000 $t
     /tmp/cc0zucMI.s:795    .text.HAL_CAN_GetTxTimestamp:0000000000000000 HAL_CAN_GetTxTimestamp
     /tmp/cc0zucMI.s:820    .text.HAL_CAN_GetRxMessage:0000000000000000 $t
     /tmp/cc0zucMI.s:825    .text.HAL_CAN_GetRxMessage:0000000000000000 HAL_CAN_GetRxMessage
     /tmp/cc0zucMI.s:966    .text.HAL_CAN_GetRxFifoFillLevel:0000000000000000 $t
     /tmp/cc0zucMI.s:971    .text.HAL_CAN_GetRxFifoFillLevel:0000000000000000 HAL_CAN_GetRxFifoFillLevel
     /tmp/cc0zucMI.s:995    .text.HAL_CAN_ActivateNotification:0000000000000000 $t
     /tmp/cc0zucMI.s:1000   .text.HAL_CAN_ActivateNotification:0000000000000000 HAL_CAN_ActivateNotification
     /tmp/cc0zucMI.s:1023   .text.HAL_CAN_DeactivateNotification:0000000000000000 $t
     /tmp/cc0zucMI.s:1028   .text.HAL_CAN_DeactivateNotification:0000000000000000 HAL_CAN_DeactivateNotification
     /tmp/cc0zucMI.s:1051   .text.HAL_CAN_TxMailbox0CompleteCallback:0000000000000000 $t
     /tmp/cc0zucMI.s:1056   .text.HAL_CAN_TxMailbox0CompleteCallback:0000000000000000 HAL_CAN_TxMailbox0CompleteCallback
     /tmp/cc0zucMI.s:1063   .text.HAL_CAN_TxMailbox1CompleteCallback:0000000000000000 $t
     /tmp/cc0zucMI.s:1068   .text.HAL_CAN_TxMailbox1CompleteCallback:0000000000000000 HAL_CAN_TxMailbox1CompleteCallback
     /tmp/cc0zucMI.s:1075   .text.HAL_CAN_TxMailbox2CompleteCallback:0000000000000000 $t
     /tmp/cc0zucMI.s:1080   .text.HAL_CAN_TxMailbox2CompleteCallback:0000000000000000 HAL_CAN_TxMailbox2CompleteCallback
     /tmp/cc0zucMI.s:1087   .text.HAL_CAN_TxMailbox0AbortCallback:0000000000000000 $t
     /tmp/cc0zucMI.s:1092   .text.HAL_CAN_TxMailbox0AbortCallback:0000000000000000 HAL_CAN_TxMailbox0AbortCallback
     /tmp/cc0zucMI.s:1099   .text.HAL_CAN_TxMailbox1AbortCallback:0000000000000000 $t
     /tmp/cc0zucMI.s:1104   .text.HAL_CAN_TxMailbox1AbortCallback:0000000000000000 HAL_CAN_TxMailbox1AbortCallback
     /tmp/cc0zucMI.s:1111   .text.HAL_CAN_TxMailbox2AbortCallback:0000000000000000 $t
     /tmp/cc0zucMI.s:1116   .text.HAL_CAN_TxMailbox2AbortCallback:0000000000000000 HAL_CAN_TxMailbox2AbortCallback
     /tmp/cc0zucMI.s:1123   .text.HAL_CAN_RxFifo0MsgPendingCallback:0000000000000000 $t
     /tmp/cc0zucMI.s:1128   .text.HAL_CAN_RxFifo0MsgPendingCallback:0000000000000000 HAL_CAN_RxFifo0MsgPendingCallback
     /tmp/cc0zucMI.s:1135   .text.HAL_CAN_RxFifo0FullCallback:0000000000000000 $t
     /tmp/cc0zucMI.s:1140   .text.HAL_CAN_RxFifo0FullCallback:0000000000000000 HAL_CAN_RxFifo0FullCallback
ARM GAS  /tmp/cc0zucMI.s 			page 28


     /tmp/cc0zucMI.s:1147   .text.HAL_CAN_RxFifo1MsgPendingCallback:0000000000000000 $t
     /tmp/cc0zucMI.s:1152   .text.HAL_CAN_RxFifo1MsgPendingCallback:0000000000000000 HAL_CAN_RxFifo1MsgPendingCallback
     /tmp/cc0zucMI.s:1159   .text.HAL_CAN_RxFifo1FullCallback:0000000000000000 $t
     /tmp/cc0zucMI.s:1164   .text.HAL_CAN_RxFifo1FullCallback:0000000000000000 HAL_CAN_RxFifo1FullCallback
     /tmp/cc0zucMI.s:1171   .text.HAL_CAN_SleepCallback:0000000000000000 $t
     /tmp/cc0zucMI.s:1176   .text.HAL_CAN_SleepCallback:0000000000000000 HAL_CAN_SleepCallback
     /tmp/cc0zucMI.s:1183   .text.HAL_CAN_WakeUpFromRxMsgCallback:0000000000000000 $t
     /tmp/cc0zucMI.s:1188   .text.HAL_CAN_WakeUpFromRxMsgCallback:0000000000000000 HAL_CAN_WakeUpFromRxMsgCallback
     /tmp/cc0zucMI.s:1195   .text.HAL_CAN_ErrorCallback:0000000000000000 $t
     /tmp/cc0zucMI.s:1200   .text.HAL_CAN_ErrorCallback:0000000000000000 HAL_CAN_ErrorCallback
     /tmp/cc0zucMI.s:1207   .text.HAL_CAN_IRQHandler:0000000000000000 $t
     /tmp/cc0zucMI.s:1212   .text.HAL_CAN_IRQHandler:0000000000000000 HAL_CAN_IRQHandler
     /tmp/cc0zucMI.s:1459   .text.HAL_CAN_GetState:0000000000000000 $t
     /tmp/cc0zucMI.s:1464   .text.HAL_CAN_GetState:0000000000000000 HAL_CAN_GetState
     /tmp/cc0zucMI.s:1492   .text.HAL_CAN_GetError:0000000000000000 $t
     /tmp/cc0zucMI.s:1497   .text.HAL_CAN_GetError:0000000000000000 HAL_CAN_GetError
     /tmp/cc0zucMI.s:1505   .text.HAL_CAN_ResetError:0000000000000000 $t
     /tmp/cc0zucMI.s:1510   .text.HAL_CAN_ResetError:0000000000000000 HAL_CAN_ResetError

UNDEFINED SYMBOLS
HAL_GetTick
