ARM GAS  /tmp/cc7GOLLV.s 			page 1


   1              		.cpu cortex-m3
   2              		.eabi_attribute 20, 1
   3              		.eabi_attribute 21, 1
   4              		.eabi_attribute 23, 3
   5              		.eabi_attribute 24, 1
   6              		.eabi_attribute 25, 1
   7              		.eabi_attribute 26, 1
   8              		.eabi_attribute 30, 1
   9              		.eabi_attribute 34, 1
  10              		.eabi_attribute 18, 4
  11              		.file	"stm32f1xx_ll_usb.c"
  12              		.section	.text.USB_CoreInit,"ax",%progbits
  13              		.align	1
  14              		.global	USB_CoreInit
  15              		.syntax unified
  16              		.thumb
  17              		.thumb_func
  18              		.fpu softvfp
  20              	USB_CoreInit:
  21              		@ args = 36, pretend = 16, frame = 0
  22              		@ frame_needed = 0, uses_anonymous_args = 0
  23              		@ link register save eliminated.
  24 0000 84B0     		sub	sp, sp, #16
  25 0002 01A8     		add	r0, sp, #4
  26 0004 80E80E00 		stm	r0, {r1, r2, r3}
  27 0008 0020     		movs	r0, #0
  28 000a 04B0     		add	sp, sp, #16
  29 000c 7047     		bx	lr
  31              		.section	.text.USB_EnableGlobalInt,"ax",%progbits
  32              		.align	1
  33              		.global	USB_EnableGlobalInt
  34              		.syntax unified
  35              		.thumb
  36              		.thumb_func
  37              		.fpu softvfp
  39              	USB_EnableGlobalInt:
  40              		@ args = 0, pretend = 0, frame = 0
  41              		@ frame_needed = 0, uses_anonymous_args = 0
  42              		@ link register save eliminated.
  43 0000 B0F84030 		ldrh	r3, [r0, #64]
  44 0004 9BB2     		uxth	r3, r3
  45 0006 43F43F43 		orr	r3, r3, #48896
  46 000a A0F84030 		strh	r3, [r0, #64]	@ movhi
  47 000e 0020     		movs	r0, #0
  48 0010 7047     		bx	lr
  50              		.section	.text.USB_DisableGlobalInt,"ax",%progbits
  51              		.align	1
  52              		.global	USB_DisableGlobalInt
  53              		.syntax unified
  54              		.thumb
  55              		.thumb_func
  56              		.fpu softvfp
  58              	USB_DisableGlobalInt:
  59              		@ args = 0, pretend = 0, frame = 0
  60              		@ frame_needed = 0, uses_anonymous_args = 0
  61              		@ link register save eliminated.
  62 0000 B0F84030 		ldrh	r3, [r0, #64]
ARM GAS  /tmp/cc7GOLLV.s 			page 2


  63 0004 23F47C53 		bic	r3, r3, #16128
  64 0008 5B04     		lsls	r3, r3, #17
  65 000a 5B0C     		lsrs	r3, r3, #17
  66 000c A0F84030 		strh	r3, [r0, #64]	@ movhi
  67 0010 0020     		movs	r0, #0
  68 0012 7047     		bx	lr
  70              		.section	.text.USB_SetCurrentMode,"ax",%progbits
  71              		.align	1
  72              		.global	USB_SetCurrentMode
  73              		.syntax unified
  74              		.thumb
  75              		.thumb_func
  76              		.fpu softvfp
  78              	USB_SetCurrentMode:
  79              		@ args = 0, pretend = 0, frame = 0
  80              		@ frame_needed = 0, uses_anonymous_args = 0
  81              		@ link register save eliminated.
  82 0000 0020     		movs	r0, #0
  83 0002 7047     		bx	lr
  85              		.section	.text.USB_DevInit,"ax",%progbits
  86              		.align	1
  87              		.global	USB_DevInit
  88              		.syntax unified
  89              		.thumb
  90              		.thumb_func
  91              		.fpu softvfp
  93              	USB_DevInit:
  94              		@ args = 36, pretend = 16, frame = 0
  95              		@ frame_needed = 0, uses_anonymous_args = 0
  96 0000 84B0     		sub	sp, sp, #16
  97 0002 38B5     		push	{r3, r4, r5, lr}
  98 0004 05AC     		add	r4, sp, #20
  99 0006 84E80E00 		stm	r4, {r1, r2, r3}
 100 000a 0123     		movs	r3, #1
 101 000c A0F84030 		strh	r3, [r0, #64]	@ movhi
 102 0010 0024     		movs	r4, #0
 103 0012 A0F84040 		strh	r4, [r0, #64]	@ movhi
 104 0016 A0F84440 		strh	r4, [r0, #68]	@ movhi
 105 001a A0F85040 		strh	r4, [r0, #80]	@ movhi
 106 001e FFF7FEFF 		bl	USB_EnableGlobalInt
 107 0022 2046     		mov	r0, r4
 108 0024 BDE83840 		pop	{r3, r4, r5, lr}
 109 0028 04B0     		add	sp, sp, #16
 110 002a 7047     		bx	lr
 112              		.section	.text.USB_SetDevSpeed,"ax",%progbits
 113              		.align	1
 114              		.global	USB_SetDevSpeed
 115              		.syntax unified
 116              		.thumb
 117              		.thumb_func
 118              		.fpu softvfp
 120              	USB_SetDevSpeed:
 121              		@ args = 0, pretend = 0, frame = 0
 122              		@ frame_needed = 0, uses_anonymous_args = 0
 123              		@ link register save eliminated.
 124 0000 0020     		movs	r0, #0
 125 0002 7047     		bx	lr
ARM GAS  /tmp/cc7GOLLV.s 			page 3


 127              		.section	.text.USB_FlushTxFifo,"ax",%progbits
 128              		.align	1
 129              		.global	USB_FlushTxFifo
 130              		.syntax unified
 131              		.thumb
 132              		.thumb_func
 133              		.fpu softvfp
 135              	USB_FlushTxFifo:
 136              		@ args = 0, pretend = 0, frame = 0
 137              		@ frame_needed = 0, uses_anonymous_args = 0
 138              		@ link register save eliminated.
 139 0000 0020     		movs	r0, #0
 140 0002 7047     		bx	lr
 142              		.section	.text.USB_FlushRxFifo,"ax",%progbits
 143              		.align	1
 144              		.global	USB_FlushRxFifo
 145              		.syntax unified
 146              		.thumb
 147              		.thumb_func
 148              		.fpu softvfp
 150              	USB_FlushRxFifo:
 151              		@ args = 0, pretend = 0, frame = 0
 152              		@ frame_needed = 0, uses_anonymous_args = 0
 153              		@ link register save eliminated.
 154 0000 0020     		movs	r0, #0
 155 0002 7047     		bx	lr
 157              		.section	.text.USB_ActivateEndpoint,"ax",%progbits
 158              		.align	1
 159              		.global	USB_ActivateEndpoint
 160              		.syntax unified
 161              		.thumb
 162              		.thumb_func
 163              		.fpu softvfp
 165              	USB_ActivateEndpoint:
 166              		@ args = 0, pretend = 0, frame = 0
 167              		@ frame_needed = 0, uses_anonymous_args = 0
 168              		@ link register save eliminated.
 169 0000 30B4     		push	{r4, r5}
 170 0002 0346     		mov	r3, r0
 171 0004 0C78     		ldrb	r4, [r1]	@ zero_extendqisi2
 172 0006 30F82420 		ldrh	r2, [r0, r4, lsl #2]
 173 000a 92B2     		uxth	r2, r2
 174 000c 22F4EC42 		bic	r2, r2, #30208
 175 0010 22F07002 		bic	r2, r2, #112
 176 0014 92B2     		uxth	r2, r2
 177 0016 C878     		ldrb	r0, [r1, #3]	@ zero_extendqisi2
 178 0018 0328     		cmp	r0, #3
 179 001a 5CD8     		bhi	.L36
 180 001c DFE800F0 		tbb	[pc, r0]
 181              	.L14:
 182 0020 4F       		.byte	(.L13-.L14)/2
 183 0021 57       		.byte	(.L15-.L14)/2
 184 0022 02       		.byte	(.L16-.L14)/2
 185 0023 53       		.byte	(.L17-.L14)/2
 186              		.p2align 1
 187              	.L16:
 188 0024 0020     		movs	r0, #0
ARM GAS  /tmp/cc7GOLLV.s 			page 4


 189              	.L12:
 190 0026 48F28005 		movw	r5, #32896
 191 002a 2A43     		orrs	r2, r2, r5
 192 002c 23F82420 		strh	r2, [r3, r4, lsl #2]	@ movhi
 193 0030 0C78     		ldrb	r4, [r1]	@ zero_extendqisi2
 194 0032 33F82420 		ldrh	r2, [r3, r4, lsl #2]
 195 0036 92B2     		uxth	r2, r2
 196 0038 22F4E042 		bic	r2, r2, #28672
 197 003c 22F07002 		bic	r2, r2, #112
 198 0040 2243     		orrs	r2, r2, r4
 199 0042 2A43     		orrs	r2, r2, r5
 200 0044 23F82420 		strh	r2, [r3, r4, lsl #2]	@ movhi
 201 0048 0A7B     		ldrb	r2, [r1, #12]	@ zero_extendqisi2
 202 004a 002A     		cmp	r2, #0
 203 004c 40F0B980 		bne	.L18
 204 0050 4A78     		ldrb	r2, [r1, #1]	@ zero_extendqisi2
 205 0052 002A     		cmp	r2, #0
 206 0054 50D0     		beq	.L19
 207 0056 B3F85020 		ldrh	r2, [r3, #80]
 208 005a 92B2     		uxth	r2, r2
 209 005c 1A44     		add	r2, r2, r3
 210 005e 0C78     		ldrb	r4, [r1]	@ zero_extendqisi2
 211 0060 02EB0412 		add	r2, r2, r4, lsl #4
 212 0064 CC88     		ldrh	r4, [r1, #6]
 213 0066 24F00104 		bic	r4, r4, #1
 214 006a A4B2     		uxth	r4, r4
 215 006c A2F80044 		strh	r4, [r2, #1024]	@ movhi
 216 0070 0C78     		ldrb	r4, [r1]	@ zero_extendqisi2
 217 0072 33F82420 		ldrh	r2, [r3, r4, lsl #2]
 218 0076 12F0400F 		tst	r2, #64
 219 007a 0CD0     		beq	.L20
 220 007c 33F82420 		ldrh	r2, [r3, r4, lsl #2]
 221 0080 92B2     		uxth	r2, r2
 222 0082 22F4E042 		bic	r2, r2, #28672
 223 0086 22F07002 		bic	r2, r2, #112
 224 008a 42F40042 		orr	r2, r2, #32768
 225 008e 42F0C002 		orr	r2, r2, #192
 226 0092 23F82420 		strh	r2, [r3, r4, lsl #2]	@ movhi
 227              	.L20:
 228 0096 CA78     		ldrb	r2, [r1, #3]	@ zero_extendqisi2
 229 0098 012A     		cmp	r2, #1
 230 009a 1ED0     		beq	.L21
 231 009c 0978     		ldrb	r1, [r1]	@ zero_extendqisi2
 232 009e 33F82120 		ldrh	r2, [r3, r1, lsl #2]
 233 00a2 92B2     		uxth	r2, r2
 234 00a4 22F4E042 		bic	r2, r2, #28672
 235 00a8 22F04002 		bic	r2, r2, #64
 236 00ac 82F02002 		eor	r2, r2, #32
 237 00b0 42F40042 		orr	r2, r2, #32768
 238 00b4 42F08002 		orr	r2, r2, #128
 239 00b8 23F82120 		strh	r2, [r3, r1, lsl #2]	@ movhi
 240 00bc 66E0     		b	.L22
 241              	.L13:
 242 00be 42F40072 		orr	r2, r2, #512
 243 00c2 0020     		movs	r0, #0
 244 00c4 AFE7     		b	.L12
 245              	.L17:
ARM GAS  /tmp/cc7GOLLV.s 			page 5


 246 00c6 42F4C062 		orr	r2, r2, #1536
 247 00ca 0020     		movs	r0, #0
 248 00cc ABE7     		b	.L12
 249              	.L15:
 250 00ce 42F48062 		orr	r2, r2, #1024
 251 00d2 0020     		movs	r0, #0
 252 00d4 A7E7     		b	.L12
 253              	.L36:
 254 00d6 0120     		movs	r0, #1
 255 00d8 A5E7     		b	.L12
 256              	.L21:
 257 00da 0978     		ldrb	r1, [r1]	@ zero_extendqisi2
 258 00dc 33F82120 		ldrh	r2, [r3, r1, lsl #2]
 259 00e0 92B2     		uxth	r2, r2
 260 00e2 22F4E042 		bic	r2, r2, #28672
 261 00e6 22F04002 		bic	r2, r2, #64
 262 00ea 42F40042 		orr	r2, r2, #32768
 263 00ee 42F08002 		orr	r2, r2, #128
 264 00f2 23F82120 		strh	r2, [r3, r1, lsl #2]	@ movhi
 265 00f6 49E0     		b	.L22
 266              	.L19:
 267 00f8 B3F85020 		ldrh	r2, [r3, #80]
 268 00fc 92B2     		uxth	r2, r2
 269 00fe 1A44     		add	r2, r2, r3
 270 0100 0C78     		ldrb	r4, [r1]	@ zero_extendqisi2
 271 0102 02EB0412 		add	r2, r2, r4, lsl #4
 272 0106 CC88     		ldrh	r4, [r1, #6]
 273 0108 24F00104 		bic	r4, r4, #1
 274 010c A4B2     		uxth	r4, r4
 275 010e A2F80844 		strh	r4, [r2, #1032]	@ movhi
 276 0112 B3F85020 		ldrh	r2, [r3, #80]
 277 0116 92B2     		uxth	r2, r2
 278 0118 1A44     		add	r2, r2, r3
 279 011a 0C78     		ldrb	r4, [r1]	@ zero_extendqisi2
 280 011c 02EB0412 		add	r2, r2, r4, lsl #4
 281 0120 0C69     		ldr	r4, [r1, #16]
 282 0122 ACBB     		cbnz	r4, .L23
 283 0124 B2F80C44 		ldrh	r4, [r2, #1036]
 284 0128 A4B2     		uxth	r4, r4
 285 012a 24F4F844 		bic	r4, r4, #31744
 286 012e A4B2     		uxth	r4, r4
 287 0130 A2F80C44 		strh	r4, [r2, #1036]	@ movhi
 288 0134 B2F80C44 		ldrh	r4, [r2, #1036]
 289 0138 6FEA4444 		mvn	r4, r4, lsl #17
 290 013c 6FEA5444 		mvn	r4, r4, lsr #17
 291 0140 A4B2     		uxth	r4, r4
 292 0142 A2F80C44 		strh	r4, [r2, #1036]	@ movhi
 293              	.L24:
 294 0146 0C78     		ldrb	r4, [r1]	@ zero_extendqisi2
 295 0148 33F82420 		ldrh	r2, [r3, r4, lsl #2]
 296 014c 12F4804F 		tst	r2, #16384
 297 0150 0CD0     		beq	.L28
 298 0152 33F82420 		ldrh	r2, [r3, r4, lsl #2]
 299 0156 92B2     		uxth	r2, r2
 300 0158 22F4E042 		bic	r2, r2, #28672
 301 015c 22F07002 		bic	r2, r2, #112
 302 0160 42F44042 		orr	r2, r2, #49152
ARM GAS  /tmp/cc7GOLLV.s 			page 6


 303 0164 42F08002 		orr	r2, r2, #128
 304 0168 23F82420 		strh	r2, [r3, r4, lsl #2]	@ movhi
 305              	.L28:
 306 016c 0978     		ldrb	r1, [r1]	@ zero_extendqisi2
 307 016e 33F82120 		ldrh	r2, [r3, r1, lsl #2]
 308 0172 92B2     		uxth	r2, r2
 309 0174 22F48042 		bic	r2, r2, #16384
 310 0178 22F07002 		bic	r2, r2, #112
 311 017c 82F44052 		eor	r2, r2, #12288
 312 0180 42F40042 		orr	r2, r2, #32768
 313 0184 42F08002 		orr	r2, r2, #128
 314 0188 23F82120 		strh	r2, [r3, r1, lsl #2]	@ movhi
 315              	.L22:
 316 018c 30BC     		pop	{r4, r5}
 317 018e 7047     		bx	lr
 318              	.L23:
 319 0190 3E2C     		cmp	r4, #62
 320 0192 09D8     		bhi	.L25
 321 0194 6508     		lsrs	r5, r4, #1
 322 0196 14F0010F 		tst	r4, #1
 323 019a 00D0     		beq	.L26
 324 019c 0135     		adds	r5, r5, #1
 325              	.L26:
 326 019e AD02     		lsls	r5, r5, #10
 327 01a0 ADB2     		uxth	r5, r5
 328 01a2 A2F80C54 		strh	r5, [r2, #1036]	@ movhi
 329 01a6 CEE7     		b	.L24
 330              	.L25:
 331 01a8 6509     		lsrs	r5, r4, #5
 332 01aa 14F01F0F 		tst	r4, #31
 333 01ae 00D1     		bne	.L27
 334 01b0 013D     		subs	r5, r5, #1
 335              	.L27:
 336 01b2 6FEAC564 		mvn	r4, r5, lsl #27
 337 01b6 6FEA5444 		mvn	r4, r4, lsr #17
 338 01ba A4B2     		uxth	r4, r4
 339 01bc A2F80C44 		strh	r4, [r2, #1036]	@ movhi
 340 01c0 C1E7     		b	.L24
 341              	.L18:
 342 01c2 0C78     		ldrb	r4, [r1]	@ zero_extendqisi2
 343 01c4 33F82420 		ldrh	r2, [r3, r4, lsl #2]
 344 01c8 92B2     		uxth	r2, r2
 345 01ca 22F4E042 		bic	r2, r2, #28672
 346 01ce 22F07002 		bic	r2, r2, #112
 347 01d2 42F40142 		orr	r2, r2, #33024
 348 01d6 42F08002 		orr	r2, r2, #128
 349 01da 23F82420 		strh	r2, [r3, r4, lsl #2]	@ movhi
 350 01de B3F85020 		ldrh	r2, [r3, #80]
 351 01e2 92B2     		uxth	r2, r2
 352 01e4 1A44     		add	r2, r2, r3
 353 01e6 0C78     		ldrb	r4, [r1]	@ zero_extendqisi2
 354 01e8 02EB0412 		add	r2, r2, r4, lsl #4
 355 01ec 0C89     		ldrh	r4, [r1, #8]
 356 01ee 24F00104 		bic	r4, r4, #1
 357 01f2 A4B2     		uxth	r4, r4
 358 01f4 A2F80044 		strh	r4, [r2, #1024]	@ movhi
 359 01f8 B3F85020 		ldrh	r2, [r3, #80]
ARM GAS  /tmp/cc7GOLLV.s 			page 7


 360 01fc 92B2     		uxth	r2, r2
 361 01fe 1A44     		add	r2, r2, r3
 362 0200 0C78     		ldrb	r4, [r1]	@ zero_extendqisi2
 363 0202 02EB0412 		add	r2, r2, r4, lsl #4
 364 0206 4C89     		ldrh	r4, [r1, #10]
 365 0208 24F00104 		bic	r4, r4, #1
 366 020c A4B2     		uxth	r4, r4
 367 020e A2F80844 		strh	r4, [r2, #1032]	@ movhi
 368 0212 4A78     		ldrb	r2, [r1, #1]	@ zero_extendqisi2
 369 0214 002A     		cmp	r2, #0
 370 0216 4ED1     		bne	.L29
 371 0218 0C78     		ldrb	r4, [r1]	@ zero_extendqisi2
 372 021a 33F82420 		ldrh	r2, [r3, r4, lsl #2]
 373 021e 12F4804F 		tst	r2, #16384
 374 0222 0CD0     		beq	.L30
 375 0224 33F82420 		ldrh	r2, [r3, r4, lsl #2]
 376 0228 92B2     		uxth	r2, r2
 377 022a 22F4E042 		bic	r2, r2, #28672
 378 022e 22F07002 		bic	r2, r2, #112
 379 0232 42F44042 		orr	r2, r2, #49152
 380 0236 42F08002 		orr	r2, r2, #128
 381 023a 23F82420 		strh	r2, [r3, r4, lsl #2]	@ movhi
 382              	.L30:
 383 023e 0C78     		ldrb	r4, [r1]	@ zero_extendqisi2
 384 0240 33F82420 		ldrh	r2, [r3, r4, lsl #2]
 385 0244 12F0400F 		tst	r2, #64
 386 0248 0CD0     		beq	.L31
 387 024a 33F82420 		ldrh	r2, [r3, r4, lsl #2]
 388 024e 92B2     		uxth	r2, r2
 389 0250 22F4E042 		bic	r2, r2, #28672
 390 0254 22F07002 		bic	r2, r2, #112
 391 0258 42F40042 		orr	r2, r2, #32768
 392 025c 42F0C002 		orr	r2, r2, #192
 393 0260 23F82420 		strh	r2, [r3, r4, lsl #2]	@ movhi
 394              	.L31:
 395 0264 0C78     		ldrb	r4, [r1]	@ zero_extendqisi2
 396 0266 33F82420 		ldrh	r2, [r3, r4, lsl #2]
 397 026a 92B2     		uxth	r2, r2
 398 026c 22F4E042 		bic	r2, r2, #28672
 399 0270 22F07002 		bic	r2, r2, #112
 400 0274 42F40042 		orr	r2, r2, #32768
 401 0278 42F0C002 		orr	r2, r2, #192
 402 027c 23F82420 		strh	r2, [r3, r4, lsl #2]	@ movhi
 403 0280 0D78     		ldrb	r5, [r1]	@ zero_extendqisi2
 404 0282 33F82520 		ldrh	r2, [r3, r5, lsl #2]
 405 0286 92B2     		uxth	r2, r2
 406 0288 22F48042 		bic	r2, r2, #16384
 407 028c 22F07002 		bic	r2, r2, #112
 408 0290 82F44052 		eor	r2, r2, #12288
 409 0294 48F28004 		movw	r4, #32896
 410 0298 2243     		orrs	r2, r2, r4
 411 029a 23F82520 		strh	r2, [r3, r5, lsl #2]	@ movhi
 412 029e 0978     		ldrb	r1, [r1]	@ zero_extendqisi2
 413 02a0 33F82120 		ldrh	r2, [r3, r1, lsl #2]
 414 02a4 92B2     		uxth	r2, r2
 415 02a6 22F4E042 		bic	r2, r2, #28672
 416 02aa 22F04002 		bic	r2, r2, #64
ARM GAS  /tmp/cc7GOLLV.s 			page 8


 417 02ae 2243     		orrs	r2, r2, r4
 418 02b0 23F82120 		strh	r2, [r3, r1, lsl #2]	@ movhi
 419 02b4 6AE7     		b	.L22
 420              	.L29:
 421 02b6 0C78     		ldrb	r4, [r1]	@ zero_extendqisi2
 422 02b8 33F82420 		ldrh	r2, [r3, r4, lsl #2]
 423 02bc 12F4804F 		tst	r2, #16384
 424 02c0 0CD0     		beq	.L32
 425 02c2 33F82420 		ldrh	r2, [r3, r4, lsl #2]
 426 02c6 92B2     		uxth	r2, r2
 427 02c8 22F4E042 		bic	r2, r2, #28672
 428 02cc 22F07002 		bic	r2, r2, #112
 429 02d0 42F44042 		orr	r2, r2, #49152
 430 02d4 42F08002 		orr	r2, r2, #128
 431 02d8 23F82420 		strh	r2, [r3, r4, lsl #2]	@ movhi
 432              	.L32:
 433 02dc 0C78     		ldrb	r4, [r1]	@ zero_extendqisi2
 434 02de 33F82420 		ldrh	r2, [r3, r4, lsl #2]
 435 02e2 12F0400F 		tst	r2, #64
 436 02e6 0CD0     		beq	.L33
 437 02e8 33F82420 		ldrh	r2, [r3, r4, lsl #2]
 438 02ec 92B2     		uxth	r2, r2
 439 02ee 22F4E042 		bic	r2, r2, #28672
 440 02f2 22F07002 		bic	r2, r2, #112
 441 02f6 42F40042 		orr	r2, r2, #32768
 442 02fa 42F0C002 		orr	r2, r2, #192
 443 02fe 23F82420 		strh	r2, [r3, r4, lsl #2]	@ movhi
 444              	.L33:
 445 0302 0C78     		ldrb	r4, [r1]	@ zero_extendqisi2
 446 0304 33F82420 		ldrh	r2, [r3, r4, lsl #2]
 447 0308 92B2     		uxth	r2, r2
 448 030a 22F4E042 		bic	r2, r2, #28672
 449 030e 22F07002 		bic	r2, r2, #112
 450 0312 42F44042 		orr	r2, r2, #49152
 451 0316 42F08002 		orr	r2, r2, #128
 452 031a 23F82420 		strh	r2, [r3, r4, lsl #2]	@ movhi
 453 031e CA78     		ldrb	r2, [r1, #3]	@ zero_extendqisi2
 454 0320 012A     		cmp	r2, #1
 455 0322 1ED0     		beq	.L34
 456 0324 0C78     		ldrb	r4, [r1]	@ zero_extendqisi2
 457 0326 33F82420 		ldrh	r2, [r3, r4, lsl #2]
 458 032a 92B2     		uxth	r2, r2
 459 032c 22F4E042 		bic	r2, r2, #28672
 460 0330 22F04002 		bic	r2, r2, #64
 461 0334 82F02002 		eor	r2, r2, #32
 462 0338 42F40042 		orr	r2, r2, #32768
 463 033c 42F08002 		orr	r2, r2, #128
 464 0340 23F82420 		strh	r2, [r3, r4, lsl #2]	@ movhi
 465              	.L35:
 466 0344 0978     		ldrb	r1, [r1]	@ zero_extendqisi2
 467 0346 33F82120 		ldrh	r2, [r3, r1, lsl #2]
 468 034a 92B2     		uxth	r2, r2
 469 034c 22F48042 		bic	r2, r2, #16384
 470 0350 22F07002 		bic	r2, r2, #112
 471 0354 42F40042 		orr	r2, r2, #32768
 472 0358 42F08002 		orr	r2, r2, #128
 473 035c 23F82120 		strh	r2, [r3, r1, lsl #2]	@ movhi
ARM GAS  /tmp/cc7GOLLV.s 			page 9


 474 0360 14E7     		b	.L22
 475              	.L34:
 476 0362 0C78     		ldrb	r4, [r1]	@ zero_extendqisi2
 477 0364 33F82420 		ldrh	r2, [r3, r4, lsl #2]
 478 0368 92B2     		uxth	r2, r2
 479 036a 22F4E042 		bic	r2, r2, #28672
 480 036e 22F04002 		bic	r2, r2, #64
 481 0372 42F40042 		orr	r2, r2, #32768
 482 0376 42F08002 		orr	r2, r2, #128
 483 037a 23F82420 		strh	r2, [r3, r4, lsl #2]	@ movhi
 484 037e E1E7     		b	.L35
 486              		.section	.text.USB_DeactivateEndpoint,"ax",%progbits
 487              		.align	1
 488              		.global	USB_DeactivateEndpoint
 489              		.syntax unified
 490              		.thumb
 491              		.thumb_func
 492              		.fpu softvfp
 494              	USB_DeactivateEndpoint:
 495              		@ args = 0, pretend = 0, frame = 0
 496              		@ frame_needed = 0, uses_anonymous_args = 0
 497              		@ link register save eliminated.
 498 0000 0B7B     		ldrb	r3, [r1, #12]	@ zero_extendqisi2
 499 0002 002B     		cmp	r3, #0
 500 0004 46D1     		bne	.L39
 501 0006 4B78     		ldrb	r3, [r1, #1]	@ zero_extendqisi2
 502 0008 13B3     		cbz	r3, .L40
 503 000a 0A78     		ldrb	r2, [r1]	@ zero_extendqisi2
 504 000c 30F82230 		ldrh	r3, [r0, r2, lsl #2]
 505 0010 13F0400F 		tst	r3, #64
 506 0014 0CD0     		beq	.L41
 507 0016 30F82230 		ldrh	r3, [r0, r2, lsl #2]
 508 001a 9BB2     		uxth	r3, r3
 509 001c 23F4E043 		bic	r3, r3, #28672
 510 0020 23F07003 		bic	r3, r3, #112
 511 0024 43F40043 		orr	r3, r3, #32768
 512 0028 43F0C003 		orr	r3, r3, #192
 513 002c 20F82230 		strh	r3, [r0, r2, lsl #2]	@ movhi
 514              	.L41:
 515 0030 0A78     		ldrb	r2, [r1]	@ zero_extendqisi2
 516 0032 30F82230 		ldrh	r3, [r0, r2, lsl #2]
 517 0036 9BB2     		uxth	r3, r3
 518 0038 23F4E043 		bic	r3, r3, #28672
 519 003c 23F04003 		bic	r3, r3, #64
 520 0040 43F40043 		orr	r3, r3, #32768
 521 0044 43F08003 		orr	r3, r3, #128
 522 0048 20F82230 		strh	r3, [r0, r2, lsl #2]	@ movhi
 523              	.L50:
 524 004c 0020     		movs	r0, #0
 525 004e 7047     		bx	lr
 526              	.L40:
 527 0050 0A78     		ldrb	r2, [r1]	@ zero_extendqisi2
 528 0052 30F82230 		ldrh	r3, [r0, r2, lsl #2]
 529 0056 13F4804F 		tst	r3, #16384
 530 005a 0CD0     		beq	.L43
 531 005c 30F82230 		ldrh	r3, [r0, r2, lsl #2]
 532 0060 9BB2     		uxth	r3, r3
ARM GAS  /tmp/cc7GOLLV.s 			page 10


 533 0062 23F4E043 		bic	r3, r3, #28672
 534 0066 23F07003 		bic	r3, r3, #112
 535 006a 43F44043 		orr	r3, r3, #49152
 536 006e 43F08003 		orr	r3, r3, #128
 537 0072 20F82230 		strh	r3, [r0, r2, lsl #2]	@ movhi
 538              	.L43:
 539 0076 0A78     		ldrb	r2, [r1]	@ zero_extendqisi2
 540 0078 30F82230 		ldrh	r3, [r0, r2, lsl #2]
 541 007c 9BB2     		uxth	r3, r3
 542 007e 23F48043 		bic	r3, r3, #16384
 543 0082 23F07003 		bic	r3, r3, #112
 544 0086 43F40043 		orr	r3, r3, #32768
 545 008a 43F08003 		orr	r3, r3, #128
 546 008e 20F82230 		strh	r3, [r0, r2, lsl #2]	@ movhi
 547 0092 DBE7     		b	.L50
 548              	.L39:
 549 0094 10B4     		push	{r4}
 550 0096 4B78     		ldrb	r3, [r1, #1]	@ zero_extendqisi2
 551 0098 002B     		cmp	r3, #0
 552 009a 4ED1     		bne	.L44
 553 009c 0A78     		ldrb	r2, [r1]	@ zero_extendqisi2
 554 009e 30F82230 		ldrh	r3, [r0, r2, lsl #2]
 555 00a2 13F4804F 		tst	r3, #16384
 556 00a6 0CD0     		beq	.L45
 557 00a8 30F82230 		ldrh	r3, [r0, r2, lsl #2]
 558 00ac 9BB2     		uxth	r3, r3
 559 00ae 23F4E043 		bic	r3, r3, #28672
 560 00b2 23F07003 		bic	r3, r3, #112
 561 00b6 43F44043 		orr	r3, r3, #49152
 562 00ba 43F08003 		orr	r3, r3, #128
 563 00be 20F82230 		strh	r3, [r0, r2, lsl #2]	@ movhi
 564              	.L45:
 565 00c2 0A78     		ldrb	r2, [r1]	@ zero_extendqisi2
 566 00c4 30F82230 		ldrh	r3, [r0, r2, lsl #2]
 567 00c8 13F0400F 		tst	r3, #64
 568 00cc 0CD0     		beq	.L46
 569 00ce 30F82230 		ldrh	r3, [r0, r2, lsl #2]
 570 00d2 9BB2     		uxth	r3, r3
 571 00d4 23F4E043 		bic	r3, r3, #28672
 572 00d8 23F07003 		bic	r3, r3, #112
 573 00dc 43F40043 		orr	r3, r3, #32768
 574 00e0 43F0C003 		orr	r3, r3, #192
 575 00e4 20F82230 		strh	r3, [r0, r2, lsl #2]	@ movhi
 576              	.L46:
 577 00e8 0A78     		ldrb	r2, [r1]	@ zero_extendqisi2
 578 00ea 30F82230 		ldrh	r3, [r0, r2, lsl #2]
 579 00ee 9BB2     		uxth	r3, r3
 580 00f0 23F4E043 		bic	r3, r3, #28672
 581 00f4 23F07003 		bic	r3, r3, #112
 582 00f8 43F40043 		orr	r3, r3, #32768
 583 00fc 43F0C003 		orr	r3, r3, #192
 584 0100 20F82230 		strh	r3, [r0, r2, lsl #2]	@ movhi
 585 0104 0B78     		ldrb	r3, [r1]	@ zero_extendqisi2
 586 0106 30F82320 		ldrh	r2, [r0, r3, lsl #2]
 587 010a 92B2     		uxth	r2, r2
 588 010c 22F48042 		bic	r2, r2, #16384
 589 0110 22F07002 		bic	r2, r2, #112
ARM GAS  /tmp/cc7GOLLV.s 			page 11


 590 0114 48F28004 		movw	r4, #32896
 591 0118 2243     		orrs	r2, r2, r4
 592 011a 20F82320 		strh	r2, [r0, r3, lsl #2]	@ movhi
 593 011e 0A78     		ldrb	r2, [r1]	@ zero_extendqisi2
 594 0120 30F82230 		ldrh	r3, [r0, r2, lsl #2]
 595 0124 9BB2     		uxth	r3, r3
 596 0126 23F4E043 		bic	r3, r3, #28672
 597 012a 23F04003 		bic	r3, r3, #64
 598 012e 2343     		orrs	r3, r3, r4
 599 0130 20F82230 		strh	r3, [r0, r2, lsl #2]	@ movhi
 600              	.L42:
 601 0134 0020     		movs	r0, #0
 602 0136 10BC     		pop	{r4}
 603 0138 7047     		bx	lr
 604              	.L44:
 605 013a 0A78     		ldrb	r2, [r1]	@ zero_extendqisi2
 606 013c 30F82230 		ldrh	r3, [r0, r2, lsl #2]
 607 0140 13F4804F 		tst	r3, #16384
 608 0144 0CD0     		beq	.L47
 609 0146 30F82230 		ldrh	r3, [r0, r2, lsl #2]
 610 014a 9BB2     		uxth	r3, r3
 611 014c 23F4E043 		bic	r3, r3, #28672
 612 0150 23F07003 		bic	r3, r3, #112
 613 0154 43F44043 		orr	r3, r3, #49152
 614 0158 43F08003 		orr	r3, r3, #128
 615 015c 20F82230 		strh	r3, [r0, r2, lsl #2]	@ movhi
 616              	.L47:
 617 0160 0A78     		ldrb	r2, [r1]	@ zero_extendqisi2
 618 0162 30F82230 		ldrh	r3, [r0, r2, lsl #2]
 619 0166 13F0400F 		tst	r3, #64
 620 016a 0CD0     		beq	.L48
 621 016c 30F82230 		ldrh	r3, [r0, r2, lsl #2]
 622 0170 9BB2     		uxth	r3, r3
 623 0172 23F4E043 		bic	r3, r3, #28672
 624 0176 23F07003 		bic	r3, r3, #112
 625 017a 43F40043 		orr	r3, r3, #32768
 626 017e 43F0C003 		orr	r3, r3, #192
 627 0182 20F82230 		strh	r3, [r0, r2, lsl #2]	@ movhi
 628              	.L48:
 629 0186 0A78     		ldrb	r2, [r1]	@ zero_extendqisi2
 630 0188 30F82230 		ldrh	r3, [r0, r2, lsl #2]
 631 018c 9BB2     		uxth	r3, r3
 632 018e 23F4E043 		bic	r3, r3, #28672
 633 0192 23F07003 		bic	r3, r3, #112
 634 0196 43F44043 		orr	r3, r3, #49152
 635 019a 43F08003 		orr	r3, r3, #128
 636 019e 20F82230 		strh	r3, [r0, r2, lsl #2]	@ movhi
 637 01a2 0B78     		ldrb	r3, [r1]	@ zero_extendqisi2
 638 01a4 30F82320 		ldrh	r2, [r0, r3, lsl #2]
 639 01a8 92B2     		uxth	r2, r2
 640 01aa 22F4E042 		bic	r2, r2, #28672
 641 01ae 22F04002 		bic	r2, r2, #64
 642 01b2 48F28004 		movw	r4, #32896
 643 01b6 2243     		orrs	r2, r2, r4
 644 01b8 20F82320 		strh	r2, [r0, r3, lsl #2]	@ movhi
 645 01bc 0A78     		ldrb	r2, [r1]	@ zero_extendqisi2
 646 01be 30F82230 		ldrh	r3, [r0, r2, lsl #2]
ARM GAS  /tmp/cc7GOLLV.s 			page 12


 647 01c2 9BB2     		uxth	r3, r3
 648 01c4 23F48043 		bic	r3, r3, #16384
 649 01c8 23F07003 		bic	r3, r3, #112
 650 01cc 2343     		orrs	r3, r3, r4
 651 01ce 20F82230 		strh	r3, [r0, r2, lsl #2]	@ movhi
 652 01d2 AFE7     		b	.L42
 654              		.section	.text.USB_WritePacket,"ax",%progbits
 655              		.align	1
 656              		.global	USB_WritePacket
 657              		.syntax unified
 658              		.thumb
 659              		.thumb_func
 660              		.fpu softvfp
 662              	USB_WritePacket:
 663              		@ args = 0, pretend = 0, frame = 0
 664              		@ frame_needed = 0, uses_anonymous_args = 0
 665              		@ link register save eliminated.
 666 0000 0020     		movs	r0, #0
 667 0002 7047     		bx	lr
 669              		.section	.text.USB_ReadPacket,"ax",%progbits
 670              		.align	1
 671              		.global	USB_ReadPacket
 672              		.syntax unified
 673              		.thumb
 674              		.thumb_func
 675              		.fpu softvfp
 677              	USB_ReadPacket:
 678              		@ args = 0, pretend = 0, frame = 0
 679              		@ frame_needed = 0, uses_anonymous_args = 0
 680              		@ link register save eliminated.
 681 0000 0020     		movs	r0, #0
 682 0002 7047     		bx	lr
 684              		.section	.text.USB_EPSetStall,"ax",%progbits
 685              		.align	1
 686              		.global	USB_EPSetStall
 687              		.syntax unified
 688              		.thumb
 689              		.thumb_func
 690              		.fpu softvfp
 692              	USB_EPSetStall:
 693              		@ args = 0, pretend = 0, frame = 0
 694              		@ frame_needed = 0, uses_anonymous_args = 0
 695              		@ link register save eliminated.
 696 0000 4B78     		ldrb	r3, [r1, #1]	@ zero_extendqisi2
 697 0002 8BB9     		cbnz	r3, .L57
 698 0004 0A78     		ldrb	r2, [r1]	@ zero_extendqisi2
 699 0006 30F82230 		ldrh	r3, [r0, r2, lsl #2]
 700 000a 9BB2     		uxth	r3, r3
 701 000c 23F48043 		bic	r3, r3, #16384
 702 0010 23F07003 		bic	r3, r3, #112
 703 0014 83F48053 		eor	r3, r3, #4096
 704 0018 43F40043 		orr	r3, r3, #32768
 705 001c 43F08003 		orr	r3, r3, #128
 706 0020 20F82230 		strh	r3, [r0, r2, lsl #2]	@ movhi
 707              	.L56:
 708 0024 0020     		movs	r0, #0
 709 0026 7047     		bx	lr
ARM GAS  /tmp/cc7GOLLV.s 			page 13


 710              	.L57:
 711 0028 0A78     		ldrb	r2, [r1]	@ zero_extendqisi2
 712 002a 30F82230 		ldrh	r3, [r0, r2, lsl #2]
 713 002e 9BB2     		uxth	r3, r3
 714 0030 23F4E043 		bic	r3, r3, #28672
 715 0034 23F04003 		bic	r3, r3, #64
 716 0038 83F01003 		eor	r3, r3, #16
 717 003c 43F40043 		orr	r3, r3, #32768
 718 0040 43F08003 		orr	r3, r3, #128
 719 0044 20F82230 		strh	r3, [r0, r2, lsl #2]	@ movhi
 720 0048 ECE7     		b	.L56
 722              		.section	.text.USB_EPClearStall,"ax",%progbits
 723              		.align	1
 724              		.global	USB_EPClearStall
 725              		.syntax unified
 726              		.thumb
 727              		.thumb_func
 728              		.fpu softvfp
 730              	USB_EPClearStall:
 731              		@ args = 0, pretend = 0, frame = 0
 732              		@ frame_needed = 0, uses_anonymous_args = 0
 733              		@ link register save eliminated.
 734 0000 0B7B     		ldrb	r3, [r1, #12]	@ zero_extendqisi2
 735 0002 002B     		cmp	r3, #0
 736 0004 4BD1     		bne	.L59
 737 0006 4B78     		ldrb	r3, [r1, #1]	@ zero_extendqisi2
 738 0008 33B3     		cbz	r3, .L60
 739 000a 0A78     		ldrb	r2, [r1]	@ zero_extendqisi2
 740 000c 30F82230 		ldrh	r3, [r0, r2, lsl #2]
 741 0010 13F0400F 		tst	r3, #64
 742 0014 0CD0     		beq	.L61
 743 0016 30F82230 		ldrh	r3, [r0, r2, lsl #2]
 744 001a 9BB2     		uxth	r3, r3
 745 001c 23F4E043 		bic	r3, r3, #28672
 746 0020 23F07003 		bic	r3, r3, #112
 747 0024 43F40043 		orr	r3, r3, #32768
 748 0028 43F0C003 		orr	r3, r3, #192
 749 002c 20F82230 		strh	r3, [r0, r2, lsl #2]	@ movhi
 750              	.L61:
 751 0030 CB78     		ldrb	r3, [r1, #3]	@ zero_extendqisi2
 752 0032 012B     		cmp	r3, #1
 753 0034 33D0     		beq	.L59
 754 0036 0A78     		ldrb	r2, [r1]	@ zero_extendqisi2
 755 0038 30F82230 		ldrh	r3, [r0, r2, lsl #2]
 756 003c 9BB2     		uxth	r3, r3
 757 003e 23F4E043 		bic	r3, r3, #28672
 758 0042 23F04003 		bic	r3, r3, #64
 759 0046 83F02003 		eor	r3, r3, #32
 760 004a 43F40043 		orr	r3, r3, #32768
 761 004e 43F08003 		orr	r3, r3, #128
 762 0052 20F82230 		strh	r3, [r0, r2, lsl #2]	@ movhi
 763 0056 22E0     		b	.L59
 764              	.L60:
 765 0058 0A78     		ldrb	r2, [r1]	@ zero_extendqisi2
 766 005a 30F82230 		ldrh	r3, [r0, r2, lsl #2]
 767 005e 13F4804F 		tst	r3, #16384
 768 0062 0CD0     		beq	.L62
ARM GAS  /tmp/cc7GOLLV.s 			page 14


 769 0064 30F82230 		ldrh	r3, [r0, r2, lsl #2]
 770 0068 9BB2     		uxth	r3, r3
 771 006a 23F4E043 		bic	r3, r3, #28672
 772 006e 23F07003 		bic	r3, r3, #112
 773 0072 43F44043 		orr	r3, r3, #49152
 774 0076 43F08003 		orr	r3, r3, #128
 775 007a 20F82230 		strh	r3, [r0, r2, lsl #2]	@ movhi
 776              	.L62:
 777 007e 0A78     		ldrb	r2, [r1]	@ zero_extendqisi2
 778 0080 30F82230 		ldrh	r3, [r0, r2, lsl #2]
 779 0084 9BB2     		uxth	r3, r3
 780 0086 23F48043 		bic	r3, r3, #16384
 781 008a 23F07003 		bic	r3, r3, #112
 782 008e 83F44053 		eor	r3, r3, #12288
 783 0092 43F40043 		orr	r3, r3, #32768
 784 0096 43F08003 		orr	r3, r3, #128
 785 009a 20F82230 		strh	r3, [r0, r2, lsl #2]	@ movhi
 786              	.L59:
 787 009e 0020     		movs	r0, #0
 788 00a0 7047     		bx	lr
 790              		.section	.text.USB_StopDevice,"ax",%progbits
 791              		.align	1
 792              		.global	USB_StopDevice
 793              		.syntax unified
 794              		.thumb
 795              		.thumb_func
 796              		.fpu softvfp
 798              	USB_StopDevice:
 799              		@ args = 0, pretend = 0, frame = 0
 800              		@ frame_needed = 0, uses_anonymous_args = 0
 801              		@ link register save eliminated.
 802 0000 0346     		mov	r3, r0
 803 0002 0122     		movs	r2, #1
 804 0004 A0F84020 		strh	r2, [r0, #64]	@ movhi
 805 0008 0020     		movs	r0, #0
 806 000a A3F84400 		strh	r0, [r3, #68]	@ movhi
 807 000e 0322     		movs	r2, #3
 808 0010 A3F84020 		strh	r2, [r3, #64]	@ movhi
 809 0014 7047     		bx	lr
 811              		.section	.text.USB_SetDevAddress,"ax",%progbits
 812              		.align	1
 813              		.global	USB_SetDevAddress
 814              		.syntax unified
 815              		.thumb
 816              		.thumb_func
 817              		.fpu softvfp
 819              	USB_SetDevAddress:
 820              		@ args = 0, pretend = 0, frame = 0
 821              		@ frame_needed = 0, uses_anonymous_args = 0
 822              		@ link register save eliminated.
 823 0000 11B9     		cbnz	r1, .L65
 824 0002 8023     		movs	r3, #128
 825 0004 A0F84C30 		strh	r3, [r0, #76]	@ movhi
 826              	.L65:
 827 0008 0020     		movs	r0, #0
 828 000a 7047     		bx	lr
 830              		.section	.text.USB_DevConnect,"ax",%progbits
ARM GAS  /tmp/cc7GOLLV.s 			page 15


 831              		.align	1
 832              		.global	USB_DevConnect
 833              		.syntax unified
 834              		.thumb
 835              		.thumb_func
 836              		.fpu softvfp
 838              	USB_DevConnect:
 839              		@ args = 0, pretend = 0, frame = 0
 840              		@ frame_needed = 0, uses_anonymous_args = 0
 841              		@ link register save eliminated.
 842 0000 0020     		movs	r0, #0
 843 0002 7047     		bx	lr
 845              		.section	.text.USB_DevDisconnect,"ax",%progbits
 846              		.align	1
 847              		.global	USB_DevDisconnect
 848              		.syntax unified
 849              		.thumb
 850              		.thumb_func
 851              		.fpu softvfp
 853              	USB_DevDisconnect:
 854              		@ args = 0, pretend = 0, frame = 0
 855              		@ frame_needed = 0, uses_anonymous_args = 0
 856              		@ link register save eliminated.
 857 0000 0020     		movs	r0, #0
 858 0002 7047     		bx	lr
 860              		.section	.text.USB_ReadInterrupts,"ax",%progbits
 861              		.align	1
 862              		.global	USB_ReadInterrupts
 863              		.syntax unified
 864              		.thumb
 865              		.thumb_func
 866              		.fpu softvfp
 868              	USB_ReadInterrupts:
 869              		@ args = 0, pretend = 0, frame = 0
 870              		@ frame_needed = 0, uses_anonymous_args = 0
 871              		@ link register save eliminated.
 872 0000 B0F84400 		ldrh	r0, [r0, #68]
 873 0004 80B2     		uxth	r0, r0
 874 0006 7047     		bx	lr
 876              		.section	.text.USB_ReadDevAllOutEpInterrupt,"ax",%progbits
 877              		.align	1
 878              		.global	USB_ReadDevAllOutEpInterrupt
 879              		.syntax unified
 880              		.thumb
 881              		.thumb_func
 882              		.fpu softvfp
 884              	USB_ReadDevAllOutEpInterrupt:
 885              		@ args = 0, pretend = 0, frame = 0
 886              		@ frame_needed = 0, uses_anonymous_args = 0
 887              		@ link register save eliminated.
 888 0000 0020     		movs	r0, #0
 889 0002 7047     		bx	lr
 891              		.section	.text.USB_ReadDevAllInEpInterrupt,"ax",%progbits
 892              		.align	1
 893              		.global	USB_ReadDevAllInEpInterrupt
 894              		.syntax unified
 895              		.thumb
ARM GAS  /tmp/cc7GOLLV.s 			page 16


 896              		.thumb_func
 897              		.fpu softvfp
 899              	USB_ReadDevAllInEpInterrupt:
 900              		@ args = 0, pretend = 0, frame = 0
 901              		@ frame_needed = 0, uses_anonymous_args = 0
 902              		@ link register save eliminated.
 903 0000 0020     		movs	r0, #0
 904 0002 7047     		bx	lr
 906              		.section	.text.USB_ReadDevOutEPInterrupt,"ax",%progbits
 907              		.align	1
 908              		.global	USB_ReadDevOutEPInterrupt
 909              		.syntax unified
 910              		.thumb
 911              		.thumb_func
 912              		.fpu softvfp
 914              	USB_ReadDevOutEPInterrupt:
 915              		@ args = 0, pretend = 0, frame = 0
 916              		@ frame_needed = 0, uses_anonymous_args = 0
 917              		@ link register save eliminated.
 918 0000 0020     		movs	r0, #0
 919 0002 7047     		bx	lr
 921              		.section	.text.USB_ReadDevInEPInterrupt,"ax",%progbits
 922              		.align	1
 923              		.global	USB_ReadDevInEPInterrupt
 924              		.syntax unified
 925              		.thumb
 926              		.thumb_func
 927              		.fpu softvfp
 929              	USB_ReadDevInEPInterrupt:
 930              		@ args = 0, pretend = 0, frame = 0
 931              		@ frame_needed = 0, uses_anonymous_args = 0
 932              		@ link register save eliminated.
 933 0000 0020     		movs	r0, #0
 934 0002 7047     		bx	lr
 936              		.section	.text.USB_ClearInterrupts,"ax",%progbits
 937              		.align	1
 938              		.global	USB_ClearInterrupts
 939              		.syntax unified
 940              		.thumb
 941              		.thumb_func
 942              		.fpu softvfp
 944              	USB_ClearInterrupts:
 945              		@ args = 0, pretend = 0, frame = 0
 946              		@ frame_needed = 0, uses_anonymous_args = 0
 947              		@ link register save eliminated.
 948 0000 7047     		bx	lr
 950              		.section	.text.USB_EP0_OutStart,"ax",%progbits
 951              		.align	1
 952              		.global	USB_EP0_OutStart
 953              		.syntax unified
 954              		.thumb
 955              		.thumb_func
 956              		.fpu softvfp
 958              	USB_EP0_OutStart:
 959              		@ args = 0, pretend = 0, frame = 0
 960              		@ frame_needed = 0, uses_anonymous_args = 0
 961              		@ link register save eliminated.
ARM GAS  /tmp/cc7GOLLV.s 			page 17


 962 0000 0020     		movs	r0, #0
 963 0002 7047     		bx	lr
 965              		.section	.text.USB_ActivateRemoteWakeup,"ax",%progbits
 966              		.align	1
 967              		.global	USB_ActivateRemoteWakeup
 968              		.syntax unified
 969              		.thumb
 970              		.thumb_func
 971              		.fpu softvfp
 973              	USB_ActivateRemoteWakeup:
 974              		@ args = 0, pretend = 0, frame = 0
 975              		@ frame_needed = 0, uses_anonymous_args = 0
 976              		@ link register save eliminated.
 977 0000 B0F84030 		ldrh	r3, [r0, #64]
 978 0004 9BB2     		uxth	r3, r3
 979 0006 43F01003 		orr	r3, r3, #16
 980 000a A0F84030 		strh	r3, [r0, #64]	@ movhi
 981 000e 0020     		movs	r0, #0
 982 0010 7047     		bx	lr
 984              		.section	.text.USB_DeActivateRemoteWakeup,"ax",%progbits
 985              		.align	1
 986              		.global	USB_DeActivateRemoteWakeup
 987              		.syntax unified
 988              		.thumb
 989              		.thumb_func
 990              		.fpu softvfp
 992              	USB_DeActivateRemoteWakeup:
 993              		@ args = 0, pretend = 0, frame = 0
 994              		@ frame_needed = 0, uses_anonymous_args = 0
 995              		@ link register save eliminated.
 996 0000 B0F84030 		ldrh	r3, [r0, #64]
 997 0004 9BB2     		uxth	r3, r3
 998 0006 23F01003 		bic	r3, r3, #16
 999 000a 9BB2     		uxth	r3, r3
 1000 000c A0F84030 		strh	r3, [r0, #64]	@ movhi
 1001 0010 0020     		movs	r0, #0
 1002 0012 7047     		bx	lr
 1004              		.section	.text.USB_WritePMA,"ax",%progbits
 1005              		.align	1
 1006              		.global	USB_WritePMA
 1007              		.syntax unified
 1008              		.thumb
 1009              		.thumb_func
 1010              		.fpu softvfp
 1012              	USB_WritePMA:
 1013              		@ args = 0, pretend = 0, frame = 0
 1014              		@ frame_needed = 0, uses_anonymous_args = 0
 1015              		@ link register save eliminated.
 1016 0000 0133     		adds	r3, r3, #1
 1017 0002 5B08     		lsrs	r3, r3, #1
 1018 0004 00EB4202 		add	r2, r0, r2, lsl #1
 1019 0008 02F58062 		add	r2, r2, #1024
 1020 000c 63B1     		cbz	r3, .L83
 1021 000e 10B4     		push	{r4}
 1022              	.L79:
 1023 0010 0C78     		ldrb	r4, [r1]	@ zero_extendqisi2
 1024 0012 4878     		ldrb	r0, [r1, #1]	@ zero_extendqisi2
ARM GAS  /tmp/cc7GOLLV.s 			page 18


 1025 0014 44EA0024 		orr	r4, r4, r0, lsl #8
 1026 0018 22F8044B 		strh	r4, [r2], #4	@ movhi
 1027 001c 0231     		adds	r1, r1, #2
 1028 001e 013B     		subs	r3, r3, #1
 1029 0020 002B     		cmp	r3, #0
 1030 0022 F5D1     		bne	.L79
 1031 0024 10BC     		pop	{r4}
 1032 0026 7047     		bx	lr
 1033              	.L83:
 1034 0028 7047     		bx	lr
 1036              		.section	.text.USB_EPStartXfer,"ax",%progbits
 1037              		.align	1
 1038              		.global	USB_EPStartXfer
 1039              		.syntax unified
 1040              		.thumb
 1041              		.thumb_func
 1042              		.fpu softvfp
 1044              	USB_EPStartXfer:
 1045              		@ args = 0, pretend = 0, frame = 0
 1046              		@ frame_needed = 0, uses_anonymous_args = 0
 1047 0000 70B5     		push	{r4, r5, r6, lr}
 1048 0002 4C78     		ldrb	r4, [r1, #1]	@ zero_extendqisi2
 1049 0004 012C     		cmp	r4, #1
 1050 0006 37D0     		beq	.L125
 1051 0008 8A69     		ldr	r2, [r1, #24]
 1052 000a 0B69     		ldr	r3, [r1, #16]
 1053 000c 9A42     		cmp	r2, r3
 1054 000e 40F20B81 		bls	.L106
 1055 0012 D21A     		subs	r2, r2, r3
 1056 0014 8A61     		str	r2, [r1, #24]
 1057              	.L107:
 1058 0016 0A7B     		ldrb	r2, [r1, #12]	@ zero_extendqisi2
 1059 0018 002A     		cmp	r2, #0
 1060 001a 40F02281 		bne	.L108
 1061 001e B0F85020 		ldrh	r2, [r0, #80]
 1062 0022 92B2     		uxth	r2, r2
 1063 0024 0244     		add	r2, r2, r0
 1064 0026 0C78     		ldrb	r4, [r1]	@ zero_extendqisi2
 1065 0028 02EB0412 		add	r2, r2, r4, lsl #4
 1066 002c 002B     		cmp	r3, #0
 1067 002e 40F0FF80 		bne	.L109
 1068 0032 B2F80C34 		ldrh	r3, [r2, #1036]
 1069 0036 9BB2     		uxth	r3, r3
 1070 0038 23F4F843 		bic	r3, r3, #31744
 1071 003c 9BB2     		uxth	r3, r3
 1072 003e A2F80C34 		strh	r3, [r2, #1036]	@ movhi
 1073 0042 B2F80C34 		ldrh	r3, [r2, #1036]
 1074 0046 6FEA4343 		mvn	r3, r3, lsl #17
 1075 004a 6FEA5343 		mvn	r3, r3, lsr #17
 1076 004e 9BB2     		uxth	r3, r3
 1077 0050 A2F80C34 		strh	r3, [r2, #1036]	@ movhi
 1078              	.L110:
 1079 0054 0A78     		ldrb	r2, [r1]	@ zero_extendqisi2
 1080 0056 30F82230 		ldrh	r3, [r0, r2, lsl #2]
 1081 005a 9BB2     		uxth	r3, r3
 1082 005c 23F48043 		bic	r3, r3, #16384
 1083 0060 23F07003 		bic	r3, r3, #112
ARM GAS  /tmp/cc7GOLLV.s 			page 19


 1084 0064 83F44053 		eor	r3, r3, #12288
 1085 0068 43F40043 		orr	r3, r3, #32768
 1086 006c 43F08003 		orr	r3, r3, #128
 1087 0070 20F82230 		strh	r3, [r0, r2, lsl #2]	@ movhi
 1088              	.L105:
 1089 0074 0020     		movs	r0, #0
 1090 0076 70BD     		pop	{r4, r5, r6, pc}
 1091              	.L125:
 1092 0078 8A69     		ldr	r2, [r1, #24]
 1093 007a 0B69     		ldr	r3, [r1, #16]
 1094 007c 9A42     		cmp	r2, r3
 1095 007e 26D9     		bls	.L86
 1096 0080 D21A     		subs	r2, r2, r3
 1097 0082 8A61     		str	r2, [r1, #24]
 1098              	.L87:
 1099 0084 0E46     		mov	r6, r1
 1100 0086 0546     		mov	r5, r0
 1101 0088 0A7B     		ldrb	r2, [r1, #12]	@ zero_extendqisi2
 1102 008a 22B3     		cbz	r2, .L126
 1103 008c 0A78     		ldrb	r2, [r1]	@ zero_extendqisi2
 1104 008e 30F82210 		ldrh	r1, [r0, r2, lsl #2]
 1105 0092 11F0400F 		tst	r1, #64
 1106 0096 78D0     		beq	.L90
 1107 0098 002C     		cmp	r4, #0
 1108 009a 45D1     		bne	.L91
 1109 009c B0F85010 		ldrh	r1, [r0, #80]
 1110 00a0 89B2     		uxth	r1, r1
 1111 00a2 0144     		add	r1, r1, r0
 1112 00a4 01EB0212 		add	r2, r1, r2, lsl #4
 1113 00a8 2BBB     		cbnz	r3, .L92
 1114 00aa B2F80C14 		ldrh	r1, [r2, #1036]
 1115 00ae 89B2     		uxth	r1, r1
 1116 00b0 21F4F841 		bic	r1, r1, #31744
 1117 00b4 89B2     		uxth	r1, r1
 1118 00b6 A2F80C14 		strh	r1, [r2, #1036]	@ movhi
 1119 00ba B2F80C14 		ldrh	r1, [r2, #1036]
 1120 00be 6FEA4141 		mvn	r1, r1, lsl #17
 1121 00c2 6FEA5141 		mvn	r1, r1, lsr #17
 1122 00c6 89B2     		uxth	r1, r1
 1123 00c8 A2F80C14 		strh	r1, [r2, #1036]	@ movhi
 1124 00cc 35E0     		b	.L93
 1125              	.L86:
 1126 00ce 0023     		movs	r3, #0
 1127 00d0 8B61     		str	r3, [r1, #24]
 1128 00d2 1346     		mov	r3, r2
 1129 00d4 D6E7     		b	.L87
 1130              	.L126:
 1131 00d6 9CB2     		uxth	r4, r3
 1132 00d8 2346     		mov	r3, r4
 1133 00da CA88     		ldrh	r2, [r1, #6]
 1134 00dc 4969     		ldr	r1, [r1, #20]
 1135 00de FFF7FEFF 		bl	USB_WritePMA
 1136 00e2 B5F85030 		ldrh	r3, [r5, #80]
 1137 00e6 9BB2     		uxth	r3, r3
 1138 00e8 2B44     		add	r3, r3, r5
 1139 00ea 3278     		ldrb	r2, [r6]	@ zero_extendqisi2
 1140 00ec 03EB0213 		add	r3, r3, r2, lsl #4
ARM GAS  /tmp/cc7GOLLV.s 			page 20


 1141 00f0 A3F80444 		strh	r4, [r3, #1028]	@ movhi
 1142 00f4 38E0     		b	.L89
 1143              	.L92:
 1144 00f6 3E2B     		cmp	r3, #62
 1145 00f8 09D8     		bhi	.L94
 1146 00fa 5908     		lsrs	r1, r3, #1
 1147 00fc 13F0010F 		tst	r3, #1
 1148 0100 00D0     		beq	.L95
 1149 0102 0131     		adds	r1, r1, #1
 1150              	.L95:
 1151 0104 8902     		lsls	r1, r1, #10
 1152 0106 89B2     		uxth	r1, r1
 1153 0108 A2F80C14 		strh	r1, [r2, #1036]	@ movhi
 1154 010c 15E0     		b	.L93
 1155              	.L94:
 1156 010e 5909     		lsrs	r1, r3, #5
 1157 0110 13F01F0F 		tst	r3, #31
 1158 0114 00D1     		bne	.L96
 1159 0116 0139     		subs	r1, r1, #1
 1160              	.L96:
 1161 0118 6FEAC161 		mvn	r1, r1, lsl #27
 1162 011c 6FEA5141 		mvn	r1, r1, lsr #17
 1163 0120 89B2     		uxth	r1, r1
 1164 0122 A2F80C14 		strh	r1, [r2, #1036]	@ movhi
 1165 0126 08E0     		b	.L93
 1166              	.L91:
 1167 0128 B0F85010 		ldrh	r1, [r0, #80]
 1168 012c 89B2     		uxth	r1, r1
 1169 012e 0144     		add	r1, r1, r0
 1170 0130 01EB0212 		add	r2, r1, r2, lsl #4
 1171 0134 99B2     		uxth	r1, r3
 1172 0136 A2F80C14 		strh	r1, [r2, #1036]	@ movhi
 1173              	.L93:
 1174 013a 7289     		ldrh	r2, [r6, #10]
 1175              	.L97:
 1176 013c 9BB2     		uxth	r3, r3
 1177 013e 7169     		ldr	r1, [r6, #20]
 1178 0140 2846     		mov	r0, r5
 1179 0142 FFF7FEFF 		bl	USB_WritePMA
 1180 0146 7378     		ldrb	r3, [r6, #1]	@ zero_extendqisi2
 1181 0148 002B     		cmp	r3, #0
 1182 014a 5CD1     		bne	.L104
 1183 014c 3278     		ldrb	r2, [r6]	@ zero_extendqisi2
 1184 014e 35F82230 		ldrh	r3, [r5, r2, lsl #2]
 1185 0152 9BB2     		uxth	r3, r3
 1186 0154 23F4E043 		bic	r3, r3, #28672
 1187 0158 23F07003 		bic	r3, r3, #112
 1188 015c 43F40043 		orr	r3, r3, #32768
 1189 0160 43F0C003 		orr	r3, r3, #192
 1190 0164 25F82230 		strh	r3, [r5, r2, lsl #2]	@ movhi
 1191              	.L89:
 1192 0168 3278     		ldrb	r2, [r6]	@ zero_extendqisi2
 1193 016a 35F82230 		ldrh	r3, [r5, r2, lsl #2]
 1194 016e 9BB2     		uxth	r3, r3
 1195 0170 23F4E043 		bic	r3, r3, #28672
 1196 0174 23F04003 		bic	r3, r3, #64
 1197 0178 83F03003 		eor	r3, r3, #48
ARM GAS  /tmp/cc7GOLLV.s 			page 21


 1198 017c 43F40043 		orr	r3, r3, #32768
 1199 0180 43F08003 		orr	r3, r3, #128
 1200 0184 25F82230 		strh	r3, [r5, r2, lsl #2]	@ movhi
 1201 0188 74E7     		b	.L105
 1202              	.L90:
 1203 018a 8CBB     		cbnz	r4, .L98
 1204 018c B0F85010 		ldrh	r1, [r0, #80]
 1205 0190 89B2     		uxth	r1, r1
 1206 0192 0144     		add	r1, r1, r0
 1207 0194 01EB0212 		add	r2, r1, r2, lsl #4
 1208 0198 8BB9     		cbnz	r3, .L99
 1209 019a B2F80414 		ldrh	r1, [r2, #1028]
 1210 019e 89B2     		uxth	r1, r1
 1211 01a0 21F4F841 		bic	r1, r1, #31744
 1212 01a4 89B2     		uxth	r1, r1
 1213 01a6 A2F80414 		strh	r1, [r2, #1028]	@ movhi
 1214 01aa B2F80414 		ldrh	r1, [r2, #1028]
 1215 01ae 6FEA4141 		mvn	r1, r1, lsl #17
 1216 01b2 6FEA5141 		mvn	r1, r1, lsr #17
 1217 01b6 89B2     		uxth	r1, r1
 1218 01b8 A2F80414 		strh	r1, [r2, #1028]	@ movhi
 1219 01bc 21E0     		b	.L100
 1220              	.L99:
 1221 01be 3E2B     		cmp	r3, #62
 1222 01c0 09D8     		bhi	.L101
 1223 01c2 5908     		lsrs	r1, r3, #1
 1224 01c4 13F0010F 		tst	r3, #1
 1225 01c8 00D0     		beq	.L102
 1226 01ca 0131     		adds	r1, r1, #1
 1227              	.L102:
 1228 01cc 8902     		lsls	r1, r1, #10
 1229 01ce 89B2     		uxth	r1, r1
 1230 01d0 A2F80414 		strh	r1, [r2, #1028]	@ movhi
 1231 01d4 15E0     		b	.L100
 1232              	.L101:
 1233 01d6 5909     		lsrs	r1, r3, #5
 1234 01d8 13F01F0F 		tst	r3, #31
 1235 01dc 00D1     		bne	.L103
 1236 01de 0139     		subs	r1, r1, #1
 1237              	.L103:
 1238 01e0 6FEAC161 		mvn	r1, r1, lsl #27
 1239 01e4 6FEA5141 		mvn	r1, r1, lsr #17
 1240 01e8 89B2     		uxth	r1, r1
 1241 01ea A2F80414 		strh	r1, [r2, #1028]	@ movhi
 1242 01ee 08E0     		b	.L100
 1243              	.L98:
 1244 01f0 B0F85010 		ldrh	r1, [r0, #80]
 1245 01f4 89B2     		uxth	r1, r1
 1246 01f6 0144     		add	r1, r1, r0
 1247 01f8 01EB0212 		add	r2, r1, r2, lsl #4
 1248 01fc 99B2     		uxth	r1, r3
 1249 01fe A2F80414 		strh	r1, [r2, #1028]	@ movhi
 1250              	.L100:
 1251 0202 3289     		ldrh	r2, [r6, #8]
 1252 0204 9AE7     		b	.L97
 1253              	.L104:
 1254 0206 012B     		cmp	r3, #1
ARM GAS  /tmp/cc7GOLLV.s 			page 22


 1255 0208 AED1     		bne	.L89
 1256 020a 3278     		ldrb	r2, [r6]	@ zero_extendqisi2
 1257 020c 35F82230 		ldrh	r3, [r5, r2, lsl #2]
 1258 0210 9BB2     		uxth	r3, r3
 1259 0212 23F4E043 		bic	r3, r3, #28672
 1260 0216 23F07003 		bic	r3, r3, #112
 1261 021a 43F44043 		orr	r3, r3, #49152
 1262 021e 43F08003 		orr	r3, r3, #128
 1263 0222 25F82230 		strh	r3, [r5, r2, lsl #2]	@ movhi
 1264 0226 9FE7     		b	.L89
 1265              	.L106:
 1266 0228 0023     		movs	r3, #0
 1267 022a 8B61     		str	r3, [r1, #24]
 1268 022c 1346     		mov	r3, r2
 1269 022e F2E6     		b	.L107
 1270              	.L109:
 1271 0230 3E2B     		cmp	r3, #62
 1272 0232 09D8     		bhi	.L111
 1273 0234 5C08     		lsrs	r4, r3, #1
 1274 0236 13F0010F 		tst	r3, #1
 1275 023a 00D0     		beq	.L112
 1276 023c 0134     		adds	r4, r4, #1
 1277              	.L112:
 1278 023e A402     		lsls	r4, r4, #10
 1279 0240 A4B2     		uxth	r4, r4
 1280 0242 A2F80C44 		strh	r4, [r2, #1036]	@ movhi
 1281 0246 05E7     		b	.L110
 1282              	.L111:
 1283 0248 5C09     		lsrs	r4, r3, #5
 1284 024a 13F01F0F 		tst	r3, #31
 1285 024e 00D1     		bne	.L113
 1286 0250 013C     		subs	r4, r4, #1
 1287              	.L113:
 1288 0252 6FEAC464 		mvn	r4, r4, lsl #27
 1289 0256 6FEA5444 		mvn	r4, r4, lsr #17
 1290 025a A4B2     		uxth	r4, r4
 1291 025c A2F80C44 		strh	r4, [r2, #1036]	@ movhi
 1292 0260 F8E6     		b	.L110
 1293              	.L108:
 1294 0262 C4B9     		cbnz	r4, .L114
 1295 0264 B0F85020 		ldrh	r2, [r0, #80]
 1296 0268 92B2     		uxth	r2, r2
 1297 026a 0244     		add	r2, r2, r0
 1298 026c 0C78     		ldrb	r4, [r1]	@ zero_extendqisi2
 1299 026e 02EB0412 		add	r2, r2, r4, lsl #4
 1300 0272 6BBB     		cbnz	r3, .L115
 1301 0274 B2F80444 		ldrh	r4, [r2, #1028]
 1302 0278 A4B2     		uxth	r4, r4
 1303 027a 24F4F844 		bic	r4, r4, #31744
 1304 027e A4B2     		uxth	r4, r4
 1305 0280 A2F80444 		strh	r4, [r2, #1028]	@ movhi
 1306 0284 B2F80444 		ldrh	r4, [r2, #1028]
 1307 0288 6FEA4444 		mvn	r4, r4, lsl #17
 1308 028c 6FEA5444 		mvn	r4, r4, lsr #17
 1309 0290 A4B2     		uxth	r4, r4
 1310 0292 A2F80444 		strh	r4, [r2, #1028]	@ movhi
 1311              	.L114:
ARM GAS  /tmp/cc7GOLLV.s 			page 23


 1312 0296 4A78     		ldrb	r2, [r1, #1]	@ zero_extendqisi2
 1313 0298 002A     		cmp	r2, #0
 1314 029a 4BD1     		bne	.L119
 1315 029c B0F85020 		ldrh	r2, [r0, #80]
 1316 02a0 92B2     		uxth	r2, r2
 1317 02a2 0244     		add	r2, r2, r0
 1318 02a4 0C78     		ldrb	r4, [r1]	@ zero_extendqisi2
 1319 02a6 02EB0412 		add	r2, r2, r4, lsl #4
 1320 02aa 53BB     		cbnz	r3, .L120
 1321 02ac B2F80C34 		ldrh	r3, [r2, #1036]
 1322 02b0 9BB2     		uxth	r3, r3
 1323 02b2 23F4F843 		bic	r3, r3, #31744
 1324 02b6 9BB2     		uxth	r3, r3
 1325 02b8 A2F80C34 		strh	r3, [r2, #1036]	@ movhi
 1326 02bc B2F80C34 		ldrh	r3, [r2, #1036]
 1327 02c0 6FEA4343 		mvn	r3, r3, lsl #17
 1328 02c4 6FEA5343 		mvn	r3, r3, lsr #17
 1329 02c8 9BB2     		uxth	r3, r3
 1330 02ca A2F80C34 		strh	r3, [r2, #1036]	@ movhi
 1331 02ce C1E6     		b	.L110
 1332              	.L115:
 1333 02d0 3E2B     		cmp	r3, #62
 1334 02d2 09D8     		bhi	.L116
 1335 02d4 5C08     		lsrs	r4, r3, #1
 1336 02d6 13F0010F 		tst	r3, #1
 1337 02da 00D0     		beq	.L117
 1338 02dc 0134     		adds	r4, r4, #1
 1339              	.L117:
 1340 02de A402     		lsls	r4, r4, #10
 1341 02e0 A4B2     		uxth	r4, r4
 1342 02e2 A2F80444 		strh	r4, [r2, #1028]	@ movhi
 1343 02e6 D6E7     		b	.L114
 1344              	.L116:
 1345 02e8 5C09     		lsrs	r4, r3, #5
 1346 02ea 13F01F0F 		tst	r3, #31
 1347 02ee 00D1     		bne	.L118
 1348 02f0 013C     		subs	r4, r4, #1
 1349              	.L118:
 1350 02f2 6FEAC464 		mvn	r4, r4, lsl #27
 1351 02f6 6FEA5444 		mvn	r4, r4, lsr #17
 1352 02fa A4B2     		uxth	r4, r4
 1353 02fc A2F80444 		strh	r4, [r2, #1028]	@ movhi
 1354 0300 C9E7     		b	.L114
 1355              	.L120:
 1356 0302 3E2B     		cmp	r3, #62
 1357 0304 09D8     		bhi	.L121
 1358 0306 5C08     		lsrs	r4, r3, #1
 1359 0308 13F0010F 		tst	r3, #1
 1360 030c 00D0     		beq	.L122
 1361 030e 0134     		adds	r4, r4, #1
 1362              	.L122:
 1363 0310 A402     		lsls	r4, r4, #10
 1364 0312 A4B2     		uxth	r4, r4
 1365 0314 A2F80C44 		strh	r4, [r2, #1036]	@ movhi
 1366 0318 9CE6     		b	.L110
 1367              	.L121:
 1368 031a 5C09     		lsrs	r4, r3, #5
ARM GAS  /tmp/cc7GOLLV.s 			page 24


 1369 031c 13F01F0F 		tst	r3, #31
 1370 0320 00D1     		bne	.L123
 1371 0322 013C     		subs	r4, r4, #1
 1372              	.L123:
 1373 0324 6FEAC463 		mvn	r3, r4, lsl #27
 1374 0328 6FEA5343 		mvn	r3, r3, lsr #17
 1375 032c 9BB2     		uxth	r3, r3
 1376 032e A2F80C34 		strh	r3, [r2, #1036]	@ movhi
 1377 0332 8FE6     		b	.L110
 1378              	.L119:
 1379 0334 012A     		cmp	r2, #1
 1380 0336 7FF48DAE 		bne	.L110
 1381 033a B0F85020 		ldrh	r2, [r0, #80]
 1382 033e 92B2     		uxth	r2, r2
 1383 0340 0244     		add	r2, r2, r0
 1384 0342 0C78     		ldrb	r4, [r1]	@ zero_extendqisi2
 1385 0344 02EB0412 		add	r2, r2, r4, lsl #4
 1386 0348 9BB2     		uxth	r3, r3
 1387 034a A2F80C34 		strh	r3, [r2, #1036]	@ movhi
 1388 034e 81E6     		b	.L110
 1390              		.section	.text.USB_ReadPMA,"ax",%progbits
 1391              		.align	1
 1392              		.global	USB_ReadPMA
 1393              		.syntax unified
 1394              		.thumb
 1395              		.thumb_func
 1396              		.fpu softvfp
 1398              	USB_ReadPMA:
 1399              		@ args = 0, pretend = 0, frame = 0
 1400              		@ frame_needed = 0, uses_anonymous_args = 0
 1401              		@ link register save eliminated.
 1402 0000 30B4     		push	{r4, r5}
 1403 0002 5D08     		lsrs	r5, r3, #1
 1404 0004 00EB4202 		add	r2, r0, r2, lsl #1
 1405 0008 02F58062 		add	r2, r2, #1024
 1406 000c 07E0     		b	.L128
 1407              	.L129:
 1408 000e 32F8044B 		ldrh	r4, [r2], #4
 1409 0012 A4B2     		uxth	r4, r4
 1410 0014 0C70     		strb	r4, [r1]
 1411 0016 240A     		lsrs	r4, r4, #8
 1412 0018 4C70     		strb	r4, [r1, #1]
 1413 001a 0231     		adds	r1, r1, #2
 1414 001c 013D     		subs	r5, r5, #1
 1415              	.L128:
 1416 001e 002D     		cmp	r5, #0
 1417 0020 F5D1     		bne	.L129
 1418 0022 13F0010F 		tst	r3, #1
 1419 0026 01D0     		beq	.L127
 1420 0028 1388     		ldrh	r3, [r2]
 1421 002a 0B70     		strb	r3, [r1]
 1422              	.L127:
 1423 002c 30BC     		pop	{r4, r5}
 1424 002e 7047     		bx	lr
 1426              		.ident	"GCC: (15:6.3.1+svn253039-1build1) 6.3.1 20170620"
ARM GAS  /tmp/cc7GOLLV.s 			page 25

