ARM GAS  /tmp/ccOy30UJ.s 			page 1


   1              		.syntax unified
   2              		.cpu cortex-m3
   3              		.fpu softvfp
   4              		.eabi_attribute 20, 1
   5              		.eabi_attribute 21, 1
   6              		.eabi_attribute 23, 3
   7              		.eabi_attribute 24, 1
   8              		.eabi_attribute 25, 1
   9              		.eabi_attribute 26, 1
  10              		.eabi_attribute 30, 4
  11              		.eabi_attribute 34, 1
  12              		.eabi_attribute 18, 4
  13              		.thumb
  14              		.file	"stm32f1xx_hal_pcd_ex.c"
  15              		.section	.text.HAL_PCDEx_PMAConfig,"ax",%progbits
  16              		.align	1
  17              		.global	HAL_PCDEx_PMAConfig
  18              		.thumb
  19              		.thumb_func
  21              	HAL_PCDEx_PMAConfig:
  22              		@ args = 0, pretend = 0, frame = 0
  23              		@ frame_needed = 0, uses_anonymous_args = 0
  24              		@ link register save eliminated.
  25 0000 11F0800F 		tst	r1, #128
  26 0004 1BBF     		ittet	ne
  27 0006 01F00701 		andne	r1, r1, #7
  28 000a 00EB4110 		addne	r0, r0, r1, lsl #5
  29 000e 00EB4110 		addeq	r0, r0, r1, lsl #5
  30 0012 2830     		addne	r0, r0, #40
  31 0014 08BF     		it	eq
  32 0016 00F59470 		addeq	r0, r0, #296
  33 001a 12B9     		cbnz	r2, .L4
  34 001c 0273     		strb	r2, [r0, #12]
  35 001e C380     		strh	r3, [r0, #6]	@ movhi
  36 0020 04E0     		b	.L5
  37              	.L4:
  38 0022 0122     		movs	r2, #1
  39 0024 0381     		strh	r3, [r0, #8]	@ movhi
  40 0026 1B0C     		lsrs	r3, r3, #16
  41 0028 0273     		strb	r2, [r0, #12]
  42 002a 4381     		strh	r3, [r0, #10]	@ movhi
  43              	.L5:
  44 002c 0020     		movs	r0, #0
  45 002e 7047     		bx	lr
  47              		.section	.text.HAL_PCDEx_SetConnectionState,"ax",%progbits
  48              		.align	1
  49              		.weak	HAL_PCDEx_SetConnectionState
  50              		.thumb
  51              		.thumb_func
  53              	HAL_PCDEx_SetConnectionState:
  54              		@ args = 0, pretend = 0, frame = 0
  55              		@ frame_needed = 0, uses_anonymous_args = 0
  56              		@ link register save eliminated.
  57 0000 7047     		bx	lr
  59              		.section	.text.HAL_PCDEx_LPM_Callback,"ax",%progbits
  60              		.align	1
  61              		.weak	HAL_PCDEx_LPM_Callback
ARM GAS  /tmp/ccOy30UJ.s 			page 2


  62              		.thumb
  63              		.thumb_func
  65              	HAL_PCDEx_LPM_Callback:
  66              		@ args = 0, pretend = 0, frame = 0
  67              		@ frame_needed = 0, uses_anonymous_args = 0
  68              		@ link register save eliminated.
  69 0000 7047     		bx	lr
  71              		.section	.text.HAL_PCDEx_BCD_Callback,"ax",%progbits
  72              		.align	1
  73              		.weak	HAL_PCDEx_BCD_Callback
  74              		.thumb
  75              		.thumb_func
  77              	HAL_PCDEx_BCD_Callback:
  78              		@ args = 0, pretend = 0, frame = 0
  79              		@ frame_needed = 0, uses_anonymous_args = 0
  80              		@ link register save eliminated.
  81 0000 7047     		bx	lr
  83              		.ident	"GCC: (15:4.9.3+svn231177-1) 4.9.3 20150529 (prerelease)"
ARM GAS  /tmp/ccOy30UJ.s 			page 3


DEFINED SYMBOLS
                            *ABS*:0000000000000000 stm32f1xx_hal_pcd_ex.c
     /tmp/ccOy30UJ.s:16     .text.HAL_PCDEx_PMAConfig:0000000000000000 $t
     /tmp/ccOy30UJ.s:21     .text.HAL_PCDEx_PMAConfig:0000000000000000 HAL_PCDEx_PMAConfig
     /tmp/ccOy30UJ.s:48     .text.HAL_PCDEx_SetConnectionState:0000000000000000 $t
     /tmp/ccOy30UJ.s:53     .text.HAL_PCDEx_SetConnectionState:0000000000000000 HAL_PCDEx_SetConnectionState
     /tmp/ccOy30UJ.s:60     .text.HAL_PCDEx_LPM_Callback:0000000000000000 $t
     /tmp/ccOy30UJ.s:65     .text.HAL_PCDEx_LPM_Callback:0000000000000000 HAL_PCDEx_LPM_Callback
     /tmp/ccOy30UJ.s:72     .text.HAL_PCDEx_BCD_Callback:0000000000000000 $t
     /tmp/ccOy30UJ.s:77     .text.HAL_PCDEx_BCD_Callback:0000000000000000 HAL_PCDEx_BCD_Callback

NO UNDEFINED SYMBOLS
