ARM GAS  /tmp/cckUmVAP.s 			page 1


   1              		.syntax unified
   2              		.cpu cortex-m3
   3              		.fpu softvfp
   4              		.eabi_attribute 20, 1
   5              		.eabi_attribute 21, 1
   6              		.eabi_attribute 23, 3
   7              		.eabi_attribute 24, 1
   8              		.eabi_attribute 25, 1
   9              		.eabi_attribute 26, 1
  10              		.eabi_attribute 30, 1
  11              		.eabi_attribute 34, 1
  12              		.eabi_attribute 18, 4
  13              		.thumb
  14              		.file	"stm32f1xx_hal_dma.c"
  15              		.section	.text.DMA_SetConfig,"ax",%progbits
  16              		.align	2
  17              		.thumb
  18              		.thumb_func
  20              	DMA_SetConfig:
  21              		@ args = 0, pretend = 0, frame = 0
  22              		@ frame_needed = 0, uses_anonymous_args = 0
  23              		@ link register save eliminated.
  24 0000 70B4     		push	{r4, r5, r6}
  25 0002 C56B     		ldr	r5, [r0, #60]
  26 0004 066C     		ldr	r6, [r0, #64]
  27 0006 0124     		movs	r4, #1
  28 0008 B440     		lsls	r4, r4, r6
  29 000a 6C60     		str	r4, [r5, #4]
  30 000c 0468     		ldr	r4, [r0]
  31 000e 6360     		str	r3, [r4, #4]
  32 0010 4368     		ldr	r3, [r0, #4]
  33 0012 102B     		cmp	r3, #16
  34 0014 04D1     		bne	.L2
  35 0016 0368     		ldr	r3, [r0]
  36 0018 9A60     		str	r2, [r3, #8]
  37 001a 0368     		ldr	r3, [r0]
  38 001c D960     		str	r1, [r3, #12]
  39 001e 03E0     		b	.L1
  40              	.L2:
  41 0020 0368     		ldr	r3, [r0]
  42 0022 9960     		str	r1, [r3, #8]
  43 0024 0368     		ldr	r3, [r0]
  44 0026 DA60     		str	r2, [r3, #12]
  45              	.L1:
  46 0028 70BC     		pop	{r4, r5, r6}
  47 002a 7047     		bx	lr
  49              		.section	.text.HAL_DMA_Init,"ax",%progbits
  50              		.align	2
  51              		.global	HAL_DMA_Init
  52              		.thumb
  53              		.thumb_func
  55              	HAL_DMA_Init:
  56              		@ args = 0, pretend = 0, frame = 0
  57              		@ frame_needed = 0, uses_anonymous_args = 0
  58              		@ link register save eliminated.
  59 0000 58B3     		cbz	r0, .L7
  60 0002 10B4     		push	{r4}
ARM GAS  /tmp/cckUmVAP.s 			page 2


  61 0004 0346     		mov	r3, r0
  62 0006 0168     		ldr	r1, [r0]
  63 0008 164A     		ldr	r2, .L10
  64 000a 0A44     		add	r2, r2, r1
  65 000c 1648     		ldr	r0, .L10+4
  66 000e A0FB0202 		umull	r0, r2, r0, r2
  67 0012 1209     		lsrs	r2, r2, #4
  68 0014 9200     		lsls	r2, r2, #2
  69 0016 1A64     		str	r2, [r3, #64]
  70 0018 144A     		ldr	r2, .L10+8
  71 001a DA63     		str	r2, [r3, #60]
  72 001c 0222     		movs	r2, #2
  73 001e 83F82120 		strb	r2, [r3, #33]
  74 0022 0A68     		ldr	r2, [r1]
  75 0024 22F47F52 		bic	r2, r2, #16320
  76 0028 22F03002 		bic	r2, r2, #48
  77 002c 5C68     		ldr	r4, [r3, #4]
  78 002e 9868     		ldr	r0, [r3, #8]
  79 0030 0443     		orrs	r4, r4, r0
  80 0032 D868     		ldr	r0, [r3, #12]
  81 0034 0443     		orrs	r4, r4, r0
  82 0036 1869     		ldr	r0, [r3, #16]
  83 0038 0443     		orrs	r4, r4, r0
  84 003a 5869     		ldr	r0, [r3, #20]
  85 003c 0443     		orrs	r4, r4, r0
  86 003e 9869     		ldr	r0, [r3, #24]
  87 0040 0443     		orrs	r4, r4, r0
  88 0042 D869     		ldr	r0, [r3, #28]
  89 0044 2043     		orrs	r0, r0, r4
  90 0046 0243     		orrs	r2, r2, r0
  91 0048 0A60     		str	r2, [r1]
  92 004a 0020     		movs	r0, #0
  93 004c 9863     		str	r0, [r3, #56]
  94 004e 0122     		movs	r2, #1
  95 0050 83F82120 		strb	r2, [r3, #33]
  96 0054 83F82000 		strb	r0, [r3, #32]
  97 0058 01E0     		b	.L6
  98              	.L7:
  99 005a 0120     		movs	r0, #1
 100 005c 7047     		bx	lr
 101              	.L6:
 102 005e 5DF8044B 		ldr	r4, [sp], #4
 103 0062 7047     		bx	lr
 104              	.L11:
 105              		.align	2
 106              	.L10:
 107 0064 F8FFFDBF 		.word	-1073872904
 108 0068 CDCCCCCC 		.word	-858993459
 109 006c 00000240 		.word	1073872896
 111              		.section	.text.HAL_DMA_DeInit,"ax",%progbits
 112              		.align	2
 113              		.global	HAL_DMA_DeInit
 114              		.thumb
 115              		.thumb_func
 117              	HAL_DMA_DeInit:
 118              		@ args = 0, pretend = 0, frame = 0
 119              		@ frame_needed = 0, uses_anonymous_args = 0
ARM GAS  /tmp/cckUmVAP.s 			page 3


 120              		@ link register save eliminated.
 121 0000 40B3     		cbz	r0, .L14
 122 0002 10B4     		push	{r4}
 123 0004 0346     		mov	r3, r0
 124 0006 0168     		ldr	r1, [r0]
 125 0008 0A68     		ldr	r2, [r1]
 126 000a 22F00102 		bic	r2, r2, #1
 127 000e 0A60     		str	r2, [r1]
 128 0010 0268     		ldr	r2, [r0]
 129 0012 0020     		movs	r0, #0
 130 0014 1060     		str	r0, [r2]
 131 0016 1A68     		ldr	r2, [r3]
 132 0018 5060     		str	r0, [r2, #4]
 133 001a 1A68     		ldr	r2, [r3]
 134 001c 9060     		str	r0, [r2, #8]
 135 001e 1A68     		ldr	r2, [r3]
 136 0020 D060     		str	r0, [r2, #12]
 137 0022 1968     		ldr	r1, [r3]
 138 0024 0E4A     		ldr	r2, .L17
 139 0026 0A44     		add	r2, r2, r1
 140 0028 0E49     		ldr	r1, .L17+4
 141 002a A1FB0212 		umull	r1, r2, r1, r2
 142 002e 1209     		lsrs	r2, r2, #4
 143 0030 9200     		lsls	r2, r2, #2
 144 0032 1A64     		str	r2, [r3, #64]
 145 0034 0C4C     		ldr	r4, .L17+8
 146 0036 DC63     		str	r4, [r3, #60]
 147 0038 0121     		movs	r1, #1
 148 003a 01FA02F2 		lsl	r2, r1, r2
 149 003e 6260     		str	r2, [r4, #4]
 150 0040 9862     		str	r0, [r3, #40]
 151 0042 D862     		str	r0, [r3, #44]
 152 0044 1863     		str	r0, [r3, #48]
 153 0046 5863     		str	r0, [r3, #52]
 154 0048 9863     		str	r0, [r3, #56]
 155 004a 83F82100 		strb	r0, [r3, #33]
 156 004e 83F82000 		strb	r0, [r3, #32]
 157 0052 01E0     		b	.L13
 158              	.L14:
 159 0054 0120     		movs	r0, #1
 160 0056 7047     		bx	lr
 161              	.L13:
 162 0058 5DF8044B 		ldr	r4, [sp], #4
 163 005c 7047     		bx	lr
 164              	.L18:
 165 005e 00BF     		.align	2
 166              	.L17:
 167 0060 F8FFFDBF 		.word	-1073872904
 168 0064 CDCCCCCC 		.word	-858993459
 169 0068 00000240 		.word	1073872896
 171              		.section	.text.HAL_DMA_Start,"ax",%progbits
 172              		.align	2
 173              		.global	HAL_DMA_Start
 174              		.thumb
 175              		.thumb_func
 177              	HAL_DMA_Start:
 178              		@ args = 0, pretend = 0, frame = 0
ARM GAS  /tmp/cckUmVAP.s 			page 4


 179              		@ frame_needed = 0, uses_anonymous_args = 0
 180 0000 70B5     		push	{r4, r5, r6, lr}
 181 0002 90F82040 		ldrb	r4, [r0, #32]	@ zero_extendqisi2
 182 0006 012C     		cmp	r4, #1
 183 0008 20D0     		beq	.L23
 184 000a 0124     		movs	r4, #1
 185 000c 80F82040 		strb	r4, [r0, #32]
 186 0010 90F82140 		ldrb	r4, [r0, #33]	@ zero_extendqisi2
 187 0014 012C     		cmp	r4, #1
 188 0016 14D1     		bne	.L21
 189 0018 0446     		mov	r4, r0
 190 001a 0220     		movs	r0, #2
 191 001c 84F82100 		strb	r0, [r4, #33]
 192 0020 0025     		movs	r5, #0
 193 0022 A563     		str	r5, [r4, #56]
 194 0024 2668     		ldr	r6, [r4]
 195 0026 3068     		ldr	r0, [r6]
 196 0028 20F00100 		bic	r0, r0, #1
 197 002c 3060     		str	r0, [r6]
 198 002e 2046     		mov	r0, r4
 199 0030 FFF7FEFF 		bl	DMA_SetConfig
 200 0034 2268     		ldr	r2, [r4]
 201 0036 1368     		ldr	r3, [r2]
 202 0038 43F00103 		orr	r3, r3, #1
 203 003c 1360     		str	r3, [r2]
 204 003e 2846     		mov	r0, r5
 205 0040 70BD     		pop	{r4, r5, r6, pc}
 206              	.L21:
 207 0042 0023     		movs	r3, #0
 208 0044 80F82030 		strb	r3, [r0, #32]
 209 0048 0220     		movs	r0, #2
 210 004a 70BD     		pop	{r4, r5, r6, pc}
 211              	.L23:
 212 004c 0220     		movs	r0, #2
 213 004e 70BD     		pop	{r4, r5, r6, pc}
 215              		.section	.text.HAL_DMA_Start_IT,"ax",%progbits
 216              		.align	2
 217              		.global	HAL_DMA_Start_IT
 218              		.thumb
 219              		.thumb_func
 221              	HAL_DMA_Start_IT:
 222              		@ args = 0, pretend = 0, frame = 0
 223              		@ frame_needed = 0, uses_anonymous_args = 0
 224 0000 38B5     		push	{r3, r4, r5, lr}
 225 0002 90F82040 		ldrb	r4, [r0, #32]	@ zero_extendqisi2
 226 0006 012C     		cmp	r4, #1
 227 0008 32D0     		beq	.L31
 228 000a 0124     		movs	r4, #1
 229 000c 80F82040 		strb	r4, [r0, #32]
 230 0010 90F82140 		ldrb	r4, [r0, #33]	@ zero_extendqisi2
 231 0014 012C     		cmp	r4, #1
 232 0016 26D1     		bne	.L27
 233 0018 0446     		mov	r4, r0
 234 001a 0220     		movs	r0, #2
 235 001c 84F82100 		strb	r0, [r4, #33]
 236 0020 0020     		movs	r0, #0
 237 0022 A063     		str	r0, [r4, #56]
ARM GAS  /tmp/cckUmVAP.s 			page 5


 238 0024 2568     		ldr	r5, [r4]
 239 0026 2868     		ldr	r0, [r5]
 240 0028 20F00100 		bic	r0, r0, #1
 241 002c 2860     		str	r0, [r5]
 242 002e 2046     		mov	r0, r4
 243 0030 FFF7FEFF 		bl	DMA_SetConfig
 244 0034 E36A     		ldr	r3, [r4, #44]
 245 0036 2BB1     		cbz	r3, .L28
 246 0038 2268     		ldr	r2, [r4]
 247 003a 1368     		ldr	r3, [r2]
 248 003c 43F00E03 		orr	r3, r3, #14
 249 0040 1360     		str	r3, [r2]
 250 0042 09E0     		b	.L29
 251              	.L28:
 252 0044 2268     		ldr	r2, [r4]
 253 0046 1368     		ldr	r3, [r2]
 254 0048 23F00403 		bic	r3, r3, #4
 255 004c 1360     		str	r3, [r2]
 256 004e 2268     		ldr	r2, [r4]
 257 0050 1368     		ldr	r3, [r2]
 258 0052 43F00A03 		orr	r3, r3, #10
 259 0056 1360     		str	r3, [r2]
 260              	.L29:
 261 0058 2268     		ldr	r2, [r4]
 262 005a 1368     		ldr	r3, [r2]
 263 005c 43F00103 		orr	r3, r3, #1
 264 0060 1360     		str	r3, [r2]
 265 0062 0020     		movs	r0, #0
 266 0064 38BD     		pop	{r3, r4, r5, pc}
 267              	.L27:
 268 0066 0023     		movs	r3, #0
 269 0068 80F82030 		strb	r3, [r0, #32]
 270 006c 0220     		movs	r0, #2
 271 006e 38BD     		pop	{r3, r4, r5, pc}
 272              	.L31:
 273 0070 0220     		movs	r0, #2
 274 0072 38BD     		pop	{r3, r4, r5, pc}
 276              		.section	.text.HAL_DMA_Abort,"ax",%progbits
 277              		.align	2
 278              		.global	HAL_DMA_Abort
 279              		.thumb
 280              		.thumb_func
 282              	HAL_DMA_Abort:
 283              		@ args = 0, pretend = 0, frame = 0
 284              		@ frame_needed = 0, uses_anonymous_args = 0
 285              		@ link register save eliminated.
 286 0000 90F82130 		ldrb	r3, [r0, #33]	@ zero_extendqisi2
 287 0004 022B     		cmp	r3, #2
 288 0006 06D0     		beq	.L34
 289 0008 0423     		movs	r3, #4
 290 000a 8363     		str	r3, [r0, #56]
 291 000c 0023     		movs	r3, #0
 292 000e 80F82030 		strb	r3, [r0, #32]
 293 0012 0120     		movs	r0, #1
 294 0014 7047     		bx	lr
 295              	.L34:
 296 0016 0268     		ldr	r2, [r0]
ARM GAS  /tmp/cckUmVAP.s 			page 6


 297 0018 1368     		ldr	r3, [r2]
 298 001a 23F00E03 		bic	r3, r3, #14
 299 001e 1360     		str	r3, [r2]
 300 0020 0268     		ldr	r2, [r0]
 301 0022 1368     		ldr	r3, [r2]
 302 0024 23F00103 		bic	r3, r3, #1
 303 0028 1360     		str	r3, [r2]
 304 002a C26B     		ldr	r2, [r0, #60]
 305 002c 016C     		ldr	r1, [r0, #64]
 306 002e 0123     		movs	r3, #1
 307 0030 03FA01F1 		lsl	r1, r3, r1
 308 0034 5160     		str	r1, [r2, #4]
 309 0036 80F82130 		strb	r3, [r0, #33]
 310 003a 0023     		movs	r3, #0
 311 003c 80F82030 		strb	r3, [r0, #32]
 312 0040 1846     		mov	r0, r3
 313 0042 7047     		bx	lr
 315              		.section	.text.HAL_DMA_Abort_IT,"ax",%progbits
 316              		.align	2
 317              		.global	HAL_DMA_Abort_IT
 318              		.thumb
 319              		.thumb_func
 321              	HAL_DMA_Abort_IT:
 322              		@ args = 0, pretend = 0, frame = 0
 323              		@ frame_needed = 0, uses_anonymous_args = 0
 324 0000 08B5     		push	{r3, lr}
 325 0002 90F82130 		ldrb	r3, [r0, #33]	@ zero_extendqisi2
 326 0006 022B     		cmp	r3, #2
 327 0008 03D0     		beq	.L37
 328 000a 0423     		movs	r3, #4
 329 000c 8363     		str	r3, [r0, #56]
 330 000e 0120     		movs	r0, #1
 331 0010 08BD     		pop	{r3, pc}
 332              	.L37:
 333 0012 0268     		ldr	r2, [r0]
 334 0014 1368     		ldr	r3, [r2]
 335 0016 23F00E03 		bic	r3, r3, #14
 336 001a 1360     		str	r3, [r2]
 337 001c 0268     		ldr	r2, [r0]
 338 001e 1368     		ldr	r3, [r2]
 339 0020 23F00103 		bic	r3, r3, #1
 340 0024 1360     		str	r3, [r2]
 341 0026 0368     		ldr	r3, [r0]
 342 0028 194A     		ldr	r2, .L53
 343 002a 9342     		cmp	r3, r2
 344 002c 1FD0     		beq	.L45
 345 002e 1432     		adds	r2, r2, #20
 346 0030 9342     		cmp	r3, r2
 347 0032 1AD0     		beq	.L46
 348 0034 1432     		adds	r2, r2, #20
 349 0036 9342     		cmp	r3, r2
 350 0038 14D0     		beq	.L47
 351 003a 1432     		adds	r2, r2, #20
 352 003c 9342     		cmp	r3, r2
 353 003e 0ED0     		beq	.L48
 354 0040 1432     		adds	r2, r2, #20
 355 0042 9342     		cmp	r3, r2
ARM GAS  /tmp/cckUmVAP.s 			page 7


 356 0044 08D0     		beq	.L49
 357 0046 1432     		adds	r2, r2, #20
 358 0048 9342     		cmp	r3, r2
 359 004a 02D1     		bne	.L50
 360 004c 4FF48012 		mov	r2, #1048576
 361 0050 0EE0     		b	.L39
 362              	.L50:
 363 0052 4FF08072 		mov	r2, #16777216
 364 0056 0BE0     		b	.L39
 365              	.L49:
 366 0058 4FF48032 		mov	r2, #65536
 367 005c 08E0     		b	.L39
 368              	.L48:
 369 005e 4FF48052 		mov	r2, #4096
 370 0062 05E0     		b	.L39
 371              	.L47:
 372 0064 4FF48072 		mov	r2, #256
 373 0068 02E0     		b	.L39
 374              	.L46:
 375 006a 1022     		movs	r2, #16
 376 006c 00E0     		b	.L39
 377              	.L45:
 378 006e 0122     		movs	r2, #1
 379              	.L39:
 380 0070 084B     		ldr	r3, .L53+4
 381 0072 5A60     		str	r2, [r3, #4]
 382 0074 0123     		movs	r3, #1
 383 0076 80F82130 		strb	r3, [r0, #33]
 384 007a 0023     		movs	r3, #0
 385 007c 80F82030 		strb	r3, [r0, #32]
 386 0080 436B     		ldr	r3, [r0, #52]
 387 0082 13B1     		cbz	r3, .L51
 388 0084 9847     		blx	r3
 389 0086 0020     		movs	r0, #0
 390 0088 08BD     		pop	{r3, pc}
 391              	.L51:
 392 008a 0020     		movs	r0, #0
 393 008c 08BD     		pop	{r3, pc}
 394              	.L54:
 395 008e 00BF     		.align	2
 396              	.L53:
 397 0090 08000240 		.word	1073872904
 398 0094 00000240 		.word	1073872896
 400              		.section	.text.HAL_DMA_PollForTransfer,"ax",%progbits
 401              		.align	2
 402              		.global	HAL_DMA_PollForTransfer
 403              		.thumb
 404              		.thumb_func
 406              	HAL_DMA_PollForTransfer:
 407              		@ args = 0, pretend = 0, frame = 0
 408              		@ frame_needed = 0, uses_anonymous_args = 0
 409 0000 90F82130 		ldrb	r3, [r0, #33]	@ zero_extendqisi2
 410 0004 022B     		cmp	r3, #2
 411 0006 06D0     		beq	.L56
 412 0008 0423     		movs	r3, #4
 413 000a 8363     		str	r3, [r0, #56]
 414 000c 0023     		movs	r3, #0
ARM GAS  /tmp/cckUmVAP.s 			page 8


 415 000e 80F82030 		strb	r3, [r0, #32]
 416 0012 0120     		movs	r0, #1
 417 0014 7047     		bx	lr
 418              	.L56:
 419 0016 2DE9F041 		push	{r4, r5, r6, r7, r8, lr}
 420 001a 0368     		ldr	r3, [r0]
 421 001c 1C68     		ldr	r4, [r3]
 422 001e 14F0200F 		tst	r4, #32
 423 0022 05D0     		beq	.L58
 424 0024 4FF48073 		mov	r3, #256
 425 0028 8363     		str	r3, [r0, #56]
 426 002a 0120     		movs	r0, #1
 427 002c BDE8F081 		pop	{r4, r5, r6, r7, r8, pc}
 428              	.L58:
 429 0030 21BB     		cbnz	r1, .L59
 430 0032 7D4C     		ldr	r4, .L129
 431 0034 A342     		cmp	r3, r4
 432 0036 1FD0     		beq	.L98
 433 0038 1434     		adds	r4, r4, #20
 434 003a A342     		cmp	r3, r4
 435 003c 1AD0     		beq	.L99
 436 003e 1434     		adds	r4, r4, #20
 437 0040 A342     		cmp	r3, r4
 438 0042 14D0     		beq	.L100
 439 0044 1434     		adds	r4, r4, #20
 440 0046 A342     		cmp	r3, r4
 441 0048 0ED0     		beq	.L101
 442 004a 1434     		adds	r4, r4, #20
 443 004c A342     		cmp	r3, r4
 444 004e 08D0     		beq	.L102
 445 0050 1434     		adds	r4, r4, #20
 446 0052 A342     		cmp	r3, r4
 447 0054 02D1     		bne	.L103
 448 0056 4FF40016 		mov	r6, #2097152
 449 005a 33E0     		b	.L66
 450              	.L103:
 451 005c 4FF00076 		mov	r6, #33554432
 452 0060 30E0     		b	.L66
 453              	.L102:
 454 0062 4FF40036 		mov	r6, #131072
 455 0066 2DE0     		b	.L66
 456              	.L101:
 457 0068 4FF40056 		mov	r6, #8192
 458 006c 2AE0     		b	.L66
 459              	.L100:
 460 006e 4FF40076 		mov	r6, #512
 461 0072 27E0     		b	.L66
 462              	.L99:
 463 0074 2026     		movs	r6, #32
 464 0076 25E0     		b	.L66
 465              	.L98:
 466 0078 0226     		movs	r6, #2
 467 007a 23E0     		b	.L66
 468              	.L59:
 469 007c 6A4C     		ldr	r4, .L129
 470 007e A342     		cmp	r3, r4
 471 0080 1FD0     		beq	.L104
ARM GAS  /tmp/cckUmVAP.s 			page 9


 472 0082 1434     		adds	r4, r4, #20
 473 0084 A342     		cmp	r3, r4
 474 0086 1AD0     		beq	.L105
 475 0088 1434     		adds	r4, r4, #20
 476 008a A342     		cmp	r3, r4
 477 008c 14D0     		beq	.L106
 478 008e 1434     		adds	r4, r4, #20
 479 0090 A342     		cmp	r3, r4
 480 0092 0ED0     		beq	.L107
 481 0094 1434     		adds	r4, r4, #20
 482 0096 A342     		cmp	r3, r4
 483 0098 08D0     		beq	.L108
 484 009a 1434     		adds	r4, r4, #20
 485 009c A342     		cmp	r3, r4
 486 009e 02D1     		bne	.L109
 487 00a0 4FF48006 		mov	r6, #4194304
 488 00a4 0EE0     		b	.L66
 489              	.L109:
 490 00a6 4FF08066 		mov	r6, #67108864
 491 00aa 0BE0     		b	.L66
 492              	.L108:
 493 00ac 4FF48026 		mov	r6, #262144
 494 00b0 08E0     		b	.L66
 495              	.L107:
 496 00b2 4FF48046 		mov	r6, #16384
 497 00b6 05E0     		b	.L66
 498              	.L106:
 499 00b8 4FF48066 		mov	r6, #1024
 500 00bc 02E0     		b	.L66
 501              	.L105:
 502 00be 4026     		movs	r6, #64
 503 00c0 00E0     		b	.L66
 504              	.L104:
 505 00c2 0426     		movs	r6, #4
 506              	.L66:
 507 00c4 1546     		mov	r5, r2
 508 00c6 0F46     		mov	r7, r1
 509 00c8 0446     		mov	r4, r0
 510 00ca FFF7FEFF 		bl	HAL_GetTick
 511 00ce 8046     		mov	r8, r0
 512 00d0 4EE0     		b	.L81
 513              	.L83:
 514 00d2 564B     		ldr	r3, .L129+4
 515 00d4 1A68     		ldr	r2, [r3]
 516 00d6 2368     		ldr	r3, [r4]
 517 00d8 5349     		ldr	r1, .L129
 518 00da 8B42     		cmp	r3, r1
 519 00dc 1FD0     		beq	.L110
 520 00de 1431     		adds	r1, r1, #20
 521 00e0 8B42     		cmp	r3, r1
 522 00e2 1AD0     		beq	.L111
 523 00e4 1431     		adds	r1, r1, #20
 524 00e6 8B42     		cmp	r3, r1
 525 00e8 14D0     		beq	.L112
 526 00ea 1431     		adds	r1, r1, #20
 527 00ec 8B42     		cmp	r3, r1
 528 00ee 0ED0     		beq	.L113
ARM GAS  /tmp/cckUmVAP.s 			page 10


 529 00f0 1431     		adds	r1, r1, #20
 530 00f2 8B42     		cmp	r3, r1
 531 00f4 08D0     		beq	.L114
 532 00f6 1431     		adds	r1, r1, #20
 533 00f8 8B42     		cmp	r3, r1
 534 00fa 02D1     		bne	.L115
 535 00fc 4FF40003 		mov	r3, #8388608
 536 0100 0EE0     		b	.L74
 537              	.L115:
 538 0102 4FF00063 		mov	r3, #134217728
 539 0106 0BE0     		b	.L74
 540              	.L114:
 541 0108 4FF40023 		mov	r3, #524288
 542 010c 08E0     		b	.L74
 543              	.L113:
 544 010e 4FF40043 		mov	r3, #32768
 545 0112 05E0     		b	.L74
 546              	.L112:
 547 0114 4FF40063 		mov	r3, #2048
 548 0118 02E0     		b	.L74
 549              	.L111:
 550 011a 8023     		movs	r3, #128
 551 011c 00E0     		b	.L74
 552              	.L110:
 553 011e 0823     		movs	r3, #8
 554              	.L74:
 555 0120 1A42     		tst	r2, r3
 556 0122 0FD0     		beq	.L80
 557 0124 E36B     		ldr	r3, [r4, #60]
 558 0126 226C     		ldr	r2, [r4, #64]
 559 0128 0120     		movs	r0, #1
 560 012a 00FA02F2 		lsl	r2, r0, r2
 561 012e 5A60     		str	r2, [r3, #4]
 562 0130 A36B     		ldr	r3, [r4, #56]
 563 0132 0343     		orrs	r3, r3, r0
 564 0134 A363     		str	r3, [r4, #56]
 565 0136 84F82100 		strb	r0, [r4, #33]
 566 013a 0023     		movs	r3, #0
 567 013c 84F82030 		strb	r3, [r4, #32]
 568 0140 BDE8F081 		pop	{r4, r5, r6, r7, r8, pc}
 569              	.L80:
 570 0144 B5F1FF3F 		cmp	r5, #-1
 571 0148 12D0     		beq	.L81
 572 014a 2DB1     		cbz	r5, .L82
 573 014c FFF7FEFF 		bl	HAL_GetTick
 574 0150 C8EB0000 		rsb	r0, r8, r0
 575 0154 A842     		cmp	r0, r5
 576 0156 0BD9     		bls	.L81
 577              	.L82:
 578 0158 A36B     		ldr	r3, [r4, #56]
 579 015a 43F02003 		orr	r3, r3, #32
 580 015e A363     		str	r3, [r4, #56]
 581 0160 0120     		movs	r0, #1
 582 0162 84F82100 		strb	r0, [r4, #33]
 583 0166 0023     		movs	r3, #0
 584 0168 84F82030 		strb	r3, [r4, #32]
 585 016c BDE8F081 		pop	{r4, r5, r6, r7, r8, pc}
ARM GAS  /tmp/cckUmVAP.s 			page 11


 586              	.L81:
 587 0170 2E4B     		ldr	r3, .L129+4
 588 0172 1B68     		ldr	r3, [r3]
 589 0174 3342     		tst	r3, r6
 590 0176 ACD0     		beq	.L83
 591 0178 57BB     		cbnz	r7, .L84
 592 017a 2368     		ldr	r3, [r4]
 593 017c 2A4A     		ldr	r2, .L129
 594 017e 9342     		cmp	r3, r2
 595 0180 1FD0     		beq	.L116
 596 0182 1432     		adds	r2, r2, #20
 597 0184 9342     		cmp	r3, r2
 598 0186 1AD0     		beq	.L117
 599 0188 1432     		adds	r2, r2, #20
 600 018a 9342     		cmp	r3, r2
 601 018c 14D0     		beq	.L118
 602 018e 1432     		adds	r2, r2, #20
 603 0190 9342     		cmp	r3, r2
 604 0192 0ED0     		beq	.L119
 605 0194 1432     		adds	r2, r2, #20
 606 0196 9342     		cmp	r3, r2
 607 0198 08D0     		beq	.L120
 608 019a 1432     		adds	r2, r2, #20
 609 019c 9342     		cmp	r3, r2
 610 019e 02D1     		bne	.L121
 611 01a0 4FF40012 		mov	r2, #2097152
 612 01a4 0EE0     		b	.L85
 613              	.L121:
 614 01a6 4FF00072 		mov	r2, #33554432
 615 01aa 0BE0     		b	.L85
 616              	.L120:
 617 01ac 4FF40032 		mov	r2, #131072
 618 01b0 08E0     		b	.L85
 619              	.L119:
 620 01b2 4FF40052 		mov	r2, #8192
 621 01b6 05E0     		b	.L85
 622              	.L118:
 623 01b8 4FF40072 		mov	r2, #512
 624 01bc 02E0     		b	.L85
 625              	.L117:
 626 01be 2022     		movs	r2, #32
 627 01c0 00E0     		b	.L85
 628              	.L116:
 629 01c2 0222     		movs	r2, #2
 630              	.L85:
 631 01c4 194B     		ldr	r3, .L129+4
 632 01c6 5A60     		str	r2, [r3, #4]
 633 01c8 0123     		movs	r3, #1
 634 01ca 84F82130 		strb	r3, [r4, #33]
 635 01ce 26E0     		b	.L91
 636              	.L84:
 637 01d0 2368     		ldr	r3, [r4]
 638 01d2 154A     		ldr	r2, .L129
 639 01d4 9342     		cmp	r3, r2
 640 01d6 1FD0     		beq	.L122
 641 01d8 1432     		adds	r2, r2, #20
 642 01da 9342     		cmp	r3, r2
ARM GAS  /tmp/cckUmVAP.s 			page 12


 643 01dc 1AD0     		beq	.L123
 644 01de 1432     		adds	r2, r2, #20
 645 01e0 9342     		cmp	r3, r2
 646 01e2 14D0     		beq	.L124
 647 01e4 1432     		adds	r2, r2, #20
 648 01e6 9342     		cmp	r3, r2
 649 01e8 0ED0     		beq	.L125
 650 01ea 1432     		adds	r2, r2, #20
 651 01ec 9342     		cmp	r3, r2
 652 01ee 08D0     		beq	.L126
 653 01f0 1432     		adds	r2, r2, #20
 654 01f2 9342     		cmp	r3, r2
 655 01f4 02D1     		bne	.L127
 656 01f6 4FF48002 		mov	r2, #4194304
 657 01fa 0EE0     		b	.L92
 658              	.L127:
 659 01fc 4FF08062 		mov	r2, #67108864
 660 0200 0BE0     		b	.L92
 661              	.L126:
 662 0202 4FF48022 		mov	r2, #262144
 663 0206 08E0     		b	.L92
 664              	.L125:
 665 0208 4FF48042 		mov	r2, #16384
 666 020c 05E0     		b	.L92
 667              	.L124:
 668 020e 4FF48062 		mov	r2, #1024
 669 0212 02E0     		b	.L92
 670              	.L123:
 671 0214 4022     		movs	r2, #64
 672 0216 00E0     		b	.L92
 673              	.L122:
 674 0218 0422     		movs	r2, #4
 675              	.L92:
 676 021a 044B     		ldr	r3, .L129+4
 677 021c 5A60     		str	r2, [r3, #4]
 678              	.L91:
 679 021e 0020     		movs	r0, #0
 680 0220 84F82000 		strb	r0, [r4, #32]
 681 0224 BDE8F081 		pop	{r4, r5, r6, r7, r8, pc}
 682              	.L130:
 683              		.align	2
 684              	.L129:
 685 0228 08000240 		.word	1073872904
 686 022c 00000240 		.word	1073872896
 688              		.section	.text.HAL_DMA_IRQHandler,"ax",%progbits
 689              		.align	2
 690              		.global	HAL_DMA_IRQHandler
 691              		.thumb
 692              		.thumb_func
 694              	HAL_DMA_IRQHandler:
 695              		@ args = 0, pretend = 0, frame = 0
 696              		@ frame_needed = 0, uses_anonymous_args = 0
 697 0000 38B5     		push	{r3, r4, r5, lr}
 698 0002 C36B     		ldr	r3, [r0, #60]
 699 0004 1A68     		ldr	r2, [r3]
 700 0006 0468     		ldr	r4, [r0]
 701 0008 2568     		ldr	r5, [r4]
ARM GAS  /tmp/cckUmVAP.s 			page 13


 702 000a 016C     		ldr	r1, [r0, #64]
 703 000c 0423     		movs	r3, #4
 704 000e 8B40     		lsls	r3, r3, r1
 705 0010 1342     		tst	r3, r2
 706 0012 36D0     		beq	.L132
 707 0014 15F0040F 		tst	r5, #4
 708 0018 33D0     		beq	.L132
 709 001a 2368     		ldr	r3, [r4]
 710 001c 13F0200F 		tst	r3, #32
 711 0020 03D1     		bne	.L133
 712 0022 2368     		ldr	r3, [r4]
 713 0024 23F00403 		bic	r3, r3, #4
 714 0028 2360     		str	r3, [r4]
 715              	.L133:
 716 002a 0368     		ldr	r3, [r0]
 717 002c 424A     		ldr	r2, .L162
 718 002e 9342     		cmp	r3, r2
 719 0030 1FD0     		beq	.L149
 720 0032 1432     		adds	r2, r2, #20
 721 0034 9342     		cmp	r3, r2
 722 0036 1AD0     		beq	.L150
 723 0038 1432     		adds	r2, r2, #20
 724 003a 9342     		cmp	r3, r2
 725 003c 14D0     		beq	.L151
 726 003e 1432     		adds	r2, r2, #20
 727 0040 9342     		cmp	r3, r2
 728 0042 0ED0     		beq	.L152
 729 0044 1432     		adds	r2, r2, #20
 730 0046 9342     		cmp	r3, r2
 731 0048 08D0     		beq	.L153
 732 004a 1432     		adds	r2, r2, #20
 733 004c 9342     		cmp	r3, r2
 734 004e 02D1     		bne	.L154
 735 0050 4FF48002 		mov	r2, #4194304
 736 0054 0EE0     		b	.L134
 737              	.L154:
 738 0056 4FF08062 		mov	r2, #67108864
 739 005a 0BE0     		b	.L134
 740              	.L153:
 741 005c 4FF48022 		mov	r2, #262144
 742 0060 08E0     		b	.L134
 743              	.L152:
 744 0062 4FF48042 		mov	r2, #16384
 745 0066 05E0     		b	.L134
 746              	.L151:
 747 0068 4FF48062 		mov	r2, #1024
 748 006c 02E0     		b	.L134
 749              	.L150:
 750 006e 4022     		movs	r2, #64
 751 0070 00E0     		b	.L134
 752              	.L149:
 753 0072 0422     		movs	r2, #4
 754              	.L134:
 755 0074 314B     		ldr	r3, .L162+4
 756 0076 5A60     		str	r2, [r3, #4]
 757 0078 C36A     		ldr	r3, [r0, #44]
 758 007a 002B     		cmp	r3, #0
ARM GAS  /tmp/cckUmVAP.s 			page 14


 759 007c 5BD0     		beq	.L131
 760 007e 9847     		blx	r3
 761 0080 38BD     		pop	{r3, r4, r5, pc}
 762              	.L132:
 763 0082 0223     		movs	r3, #2
 764 0084 8B40     		lsls	r3, r3, r1
 765 0086 1342     		tst	r3, r2
 766 0088 3BD0     		beq	.L141
 767 008a 15F0020F 		tst	r5, #2
 768 008e 38D0     		beq	.L141
 769 0090 2368     		ldr	r3, [r4]
 770 0092 13F0200F 		tst	r3, #32
 771 0096 06D1     		bne	.L142
 772 0098 2368     		ldr	r3, [r4]
 773 009a 23F00A03 		bic	r3, r3, #10
 774 009e 2360     		str	r3, [r4]
 775 00a0 0123     		movs	r3, #1
 776 00a2 80F82130 		strb	r3, [r0, #33]
 777              	.L142:
 778 00a6 0368     		ldr	r3, [r0]
 779 00a8 234A     		ldr	r2, .L162
 780 00aa 9342     		cmp	r3, r2
 781 00ac 1FD0     		beq	.L155
 782 00ae 1432     		adds	r2, r2, #20
 783 00b0 9342     		cmp	r3, r2
 784 00b2 1AD0     		beq	.L156
 785 00b4 1432     		adds	r2, r2, #20
 786 00b6 9342     		cmp	r3, r2
 787 00b8 14D0     		beq	.L157
 788 00ba 1432     		adds	r2, r2, #20
 789 00bc 9342     		cmp	r3, r2
 790 00be 0ED0     		beq	.L158
 791 00c0 1432     		adds	r2, r2, #20
 792 00c2 9342     		cmp	r3, r2
 793 00c4 08D0     		beq	.L159
 794 00c6 1432     		adds	r2, r2, #20
 795 00c8 9342     		cmp	r3, r2
 796 00ca 02D1     		bne	.L160
 797 00cc 4FF40012 		mov	r2, #2097152
 798 00d0 0EE0     		b	.L143
 799              	.L160:
 800 00d2 4FF00072 		mov	r2, #33554432
 801 00d6 0BE0     		b	.L143
 802              	.L159:
 803 00d8 4FF40032 		mov	r2, #131072
 804 00dc 08E0     		b	.L143
 805              	.L158:
 806 00de 4FF40052 		mov	r2, #8192
 807 00e2 05E0     		b	.L143
 808              	.L157:
 809 00e4 4FF40072 		mov	r2, #512
 810 00e8 02E0     		b	.L143
 811              	.L156:
 812 00ea 2022     		movs	r2, #32
 813 00ec 00E0     		b	.L143
 814              	.L155:
 815 00ee 0222     		movs	r2, #2
ARM GAS  /tmp/cckUmVAP.s 			page 15


 816              	.L143:
 817 00f0 124B     		ldr	r3, .L162+4
 818 00f2 5A60     		str	r2, [r3, #4]
 819 00f4 0023     		movs	r3, #0
 820 00f6 80F82030 		strb	r3, [r0, #32]
 821 00fa 836A     		ldr	r3, [r0, #40]
 822 00fc DBB1     		cbz	r3, .L131
 823 00fe 9847     		blx	r3
 824 0100 38BD     		pop	{r3, r4, r5, pc}
 825              	.L141:
 826 0102 0823     		movs	r3, #8
 827 0104 8B40     		lsls	r3, r3, r1
 828 0106 1342     		tst	r3, r2
 829 0108 15D0     		beq	.L131
 830 010a 15F0080F 		tst	r5, #8
 831 010e 12D0     		beq	.L131
 832 0110 2368     		ldr	r3, [r4]
 833 0112 23F00E03 		bic	r3, r3, #14
 834 0116 2360     		str	r3, [r4]
 835 0118 C26B     		ldr	r2, [r0, #60]
 836 011a 016C     		ldr	r1, [r0, #64]
 837 011c 0123     		movs	r3, #1
 838 011e 03FA01F1 		lsl	r1, r3, r1
 839 0122 5160     		str	r1, [r2, #4]
 840 0124 8363     		str	r3, [r0, #56]
 841 0126 80F82130 		strb	r3, [r0, #33]
 842 012a 0023     		movs	r3, #0
 843 012c 80F82030 		strb	r3, [r0, #32]
 844 0130 036B     		ldr	r3, [r0, #48]
 845 0132 03B1     		cbz	r3, .L131
 846 0134 9847     		blx	r3
 847              	.L131:
 848 0136 38BD     		pop	{r3, r4, r5, pc}
 849              	.L163:
 850              		.align	2
 851              	.L162:
 852 0138 08000240 		.word	1073872904
 853 013c 00000240 		.word	1073872896
 855              		.section	.text.HAL_DMA_RegisterCallback,"ax",%progbits
 856              		.align	2
 857              		.global	HAL_DMA_RegisterCallback
 858              		.thumb
 859              		.thumb_func
 861              	HAL_DMA_RegisterCallback:
 862              		@ args = 0, pretend = 0, frame = 0
 863              		@ frame_needed = 0, uses_anonymous_args = 0
 864              		@ link register save eliminated.
 865 0000 90F82030 		ldrb	r3, [r0, #32]	@ zero_extendqisi2
 866 0004 012B     		cmp	r3, #1
 867 0006 20D0     		beq	.L172
 868 0008 0123     		movs	r3, #1
 869 000a 80F82030 		strb	r3, [r0, #32]
 870 000e 90F82130 		ldrb	r3, [r0, #33]	@ zero_extendqisi2
 871 0012 012B     		cmp	r3, #1
 872 0014 11D1     		bne	.L173
 873 0016 0329     		cmp	r1, #3
 874 0018 11D8     		bhi	.L174
ARM GAS  /tmp/cckUmVAP.s 			page 16


 875 001a DFE801F0 		tbb	[pc, r1]
 876              	.L168:
 877 001e 02       		.byte	(.L167-.L168)/2
 878 001f 05       		.byte	(.L169-.L168)/2
 879 0020 08       		.byte	(.L170-.L168)/2
 880 0021 0B       		.byte	(.L171-.L168)/2
 881              		.p2align 1
 882              	.L167:
 883 0022 8262     		str	r2, [r0, #40]
 884 0024 0023     		movs	r3, #0
 885 0026 0BE0     		b	.L166
 886              	.L169:
 887 0028 C262     		str	r2, [r0, #44]
 888 002a 0023     		movs	r3, #0
 889 002c 08E0     		b	.L166
 890              	.L170:
 891 002e 0263     		str	r2, [r0, #48]
 892 0030 0023     		movs	r3, #0
 893 0032 05E0     		b	.L166
 894              	.L171:
 895 0034 4263     		str	r2, [r0, #52]
 896 0036 0023     		movs	r3, #0
 897 0038 02E0     		b	.L166
 898              	.L173:
 899 003a 0123     		movs	r3, #1
 900 003c 00E0     		b	.L166
 901              	.L174:
 902 003e 0123     		movs	r3, #1
 903              	.L166:
 904 0040 0022     		movs	r2, #0
 905 0042 80F82020 		strb	r2, [r0, #32]
 906 0046 1846     		mov	r0, r3
 907 0048 7047     		bx	lr
 908              	.L172:
 909 004a 0220     		movs	r0, #2
 910 004c 7047     		bx	lr
 912 004e 00BF     		.section	.text.HAL_DMA_UnRegisterCallback,"ax",%progbits
 913              		.align	2
 914              		.global	HAL_DMA_UnRegisterCallback
 915              		.thumb
 916              		.thumb_func
 918              	HAL_DMA_UnRegisterCallback:
 919              		@ args = 0, pretend = 0, frame = 0
 920              		@ frame_needed = 0, uses_anonymous_args = 0
 921              		@ link register save eliminated.
 922 0000 90F82030 		ldrb	r3, [r0, #32]	@ zero_extendqisi2
 923 0004 012B     		cmp	r3, #1
 924 0006 27D0     		beq	.L184
 925 0008 0123     		movs	r3, #1
 926 000a 80F82030 		strb	r3, [r0, #32]
 927 000e 90F82130 		ldrb	r3, [r0, #33]	@ zero_extendqisi2
 928 0012 012B     		cmp	r3, #1
 929 0014 18D1     		bne	.L185
 930 0016 0429     		cmp	r1, #4
 931 0018 18D8     		bhi	.L186
 932 001a DFE801F0 		tbb	[pc, r1]
 933              	.L179:
ARM GAS  /tmp/cckUmVAP.s 			page 17


 934 001e 03       		.byte	(.L178-.L179)/2
 935 001f 06       		.byte	(.L180-.L179)/2
 936 0020 09       		.byte	(.L181-.L179)/2
 937 0021 0C       		.byte	(.L182-.L179)/2
 938 0022 0F       		.byte	(.L183-.L179)/2
 939 0023 00       		.p2align 1
 940              	.L178:
 941 0024 0023     		movs	r3, #0
 942 0026 8362     		str	r3, [r0, #40]
 943 0028 11E0     		b	.L177
 944              	.L180:
 945 002a 0023     		movs	r3, #0
 946 002c C362     		str	r3, [r0, #44]
 947 002e 0EE0     		b	.L177
 948              	.L181:
 949 0030 0023     		movs	r3, #0
 950 0032 0363     		str	r3, [r0, #48]
 951 0034 0BE0     		b	.L177
 952              	.L182:
 953 0036 0023     		movs	r3, #0
 954 0038 4363     		str	r3, [r0, #52]
 955 003a 08E0     		b	.L177
 956              	.L183:
 957 003c 0023     		movs	r3, #0
 958 003e 8362     		str	r3, [r0, #40]
 959 0040 C362     		str	r3, [r0, #44]
 960 0042 0363     		str	r3, [r0, #48]
 961 0044 4363     		str	r3, [r0, #52]
 962 0046 02E0     		b	.L177
 963              	.L185:
 964 0048 0123     		movs	r3, #1
 965 004a 00E0     		b	.L177
 966              	.L186:
 967 004c 0123     		movs	r3, #1
 968              	.L177:
 969 004e 0022     		movs	r2, #0
 970 0050 80F82020 		strb	r2, [r0, #32]
 971 0054 1846     		mov	r0, r3
 972 0056 7047     		bx	lr
 973              	.L184:
 974 0058 0220     		movs	r0, #2
 975 005a 7047     		bx	lr
 977              		.section	.text.HAL_DMA_GetState,"ax",%progbits
 978              		.align	2
 979              		.global	HAL_DMA_GetState
 980              		.thumb
 981              		.thumb_func
 983              	HAL_DMA_GetState:
 984              		@ args = 0, pretend = 0, frame = 0
 985              		@ frame_needed = 0, uses_anonymous_args = 0
 986              		@ link register save eliminated.
 987 0000 90F82100 		ldrb	r0, [r0, #33]	@ zero_extendqisi2
 988 0004 7047     		bx	lr
 990 0006 00BF     		.section	.text.HAL_DMA_GetError,"ax",%progbits
 991              		.align	2
 992              		.global	HAL_DMA_GetError
 993              		.thumb
ARM GAS  /tmp/cckUmVAP.s 			page 18


 994              		.thumb_func
 996              	HAL_DMA_GetError:
 997              		@ args = 0, pretend = 0, frame = 0
 998              		@ frame_needed = 0, uses_anonymous_args = 0
 999              		@ link register save eliminated.
 1000 0000 806B     		ldr	r0, [r0, #56]
 1001 0002 7047     		bx	lr
 1003              		.ident	"GCC: (15:4.9.3+svn231177-1) 4.9.3 20150529 (prerelease)"
ARM GAS  /tmp/cckUmVAP.s 			page 19

