ARM GAS  /tmp/ccHubou1.s 			page 1


   1              		.cpu cortex-m3
   2              		.eabi_attribute 20, 1	@ Tag_ABI_FP_denormal
   3              		.eabi_attribute 21, 1	@ Tag_ABI_FP_exceptions
   4              		.eabi_attribute 23, 3	@ Tag_ABI_FP_number_model
   5              		.eabi_attribute 24, 1	@ Tag_ABI_align8_needed
   6              		.eabi_attribute 25, 1	@ Tag_ABI_align8_preserved
   7              		.eabi_attribute 26, 1	@ Tag_ABI_enum_size
   8              		.eabi_attribute 30, 4	@ Tag_ABI_optimization_goals
   9              		.eabi_attribute 34, 1	@ Tag_CPU_unaligned_access
  10              		.eabi_attribute 18, 4	@ Tag_ABI_PCS_wchar_t
  11              		.file	"stm32f1xx_hal_adc_ex.c"
  12              	@ GNU C11 (15:6.3.1+svn253039-1build1) version 6.3.1 20170620 (arm-none-eabi)
  13              	@	compiled by GNU C version 7.2.0, GMP version 6.1.2, MPFR version 4.0.1-rc1, MPC version 1.1.0, is
  14              	@ warning: MPFR header version 4.0.1-rc1 differs from library version 4.0.1.
  15              	@ GGC heuristics: --param ggc-min-expand=100 --param ggc-min-heapsize=131072
  16              	@ options passed:  -I ./inc -I ./inc/Legacy -I ../cmsisstm32f1xx/inc
  17              	@ -I ../cmsiscore/inc -imultilib thumb/v7-m -D__USES_INITFINI__
  18              	@ -D STM32F103x6 -D RUN_FROM_FLASH=1 -D __c src/stm32f1xx_hal_adc_ex.c
  19              	@ -mcpu=cortex-m3 -mthumb -auxbase-strip bin/stm32f1xx_hal_adc_ex.o -g
  20              	@ -gdwarf-2 -Os -Wall -fomit-frame-pointer -fverbose-asm
  21              	@ options enabled:  -faggressive-loop-optimizations -falign-jumps
  22              	@ -falign-labels -falign-loops -fauto-inc-dec -fbranch-count-reg
  23              	@ -fcaller-saves -fchkp-check-incomplete-type -fchkp-check-read
  24              	@ -fchkp-check-write -fchkp-instrument-calls -fchkp-narrow-bounds
  25              	@ -fchkp-optimize -fchkp-store-bounds -fchkp-use-static-bounds
  26              	@ -fchkp-use-static-const-bounds -fchkp-use-wrappers
  27              	@ -fcombine-stack-adjustments -fcommon -fcompare-elim -fcprop-registers
  28              	@ -fcrossjumping -fcse-follow-jumps -fdefer-pop
  29              	@ -fdelete-null-pointer-checks -fdevirtualize -fdevirtualize-speculatively
  30              	@ -fdwarf2-cfi-asm -fearly-inlining -feliminate-unused-debug-types
  31              	@ -fexpensive-optimizations -fforward-propagate -ffunction-cse -fgcse
  32              	@ -fgcse-lm -fgnu-runtime -fgnu-unique -fguess-branch-probability
  33              	@ -fhoist-adjacent-loads -fident -fif-conversion -fif-conversion2
  34              	@ -findirect-inlining -finline -finline-atomics -finline-functions
  35              	@ -finline-functions-called-once -finline-small-functions -fipa-cp
  36              	@ -fipa-cp-alignment -fipa-icf -fipa-icf-functions -fipa-icf-variables
  37              	@ -fipa-profile -fipa-pure-const -fipa-ra -fipa-reference -fipa-sra
  38              	@ -fira-hoist-pressure -fira-share-save-slots -fira-share-spill-slots
  39              	@ -fisolate-erroneous-paths-dereference -fivopts -fkeep-static-consts
  40              	@ -fleading-underscore -flifetime-dse -flra-remat -flto-odr-type-merging
  41              	@ -fmath-errno -fmerge-constants -fmerge-debug-strings
  42              	@ -fmove-loop-invariants -fomit-frame-pointer -foptimize-sibling-calls
  43              	@ -fpartial-inlining -fpeephole -fpeephole2 -fplt -fprefetch-loop-arrays
  44              	@ -freg-struct-return -freorder-blocks -freorder-functions
  45              	@ -frerun-cse-after-loop -fsched-critical-path-heuristic
  46              	@ -fsched-dep-count-heuristic -fsched-group-heuristic -fsched-interblock
  47              	@ -fsched-last-insn-heuristic -fsched-pressure -fsched-rank-heuristic
  48              	@ -fsched-spec -fsched-spec-insn-heuristic -fsched-stalled-insns-dep
  49              	@ -fschedule-insns2 -fsection-anchors -fsemantic-interposition
  50              	@ -fshow-column -fsigned-zeros -fsplit-ivs-in-unroller -fsplit-wide-types
  51              	@ -fssa-backprop -fssa-phiopt -fstdarg-opt -fstrict-aliasing
  52              	@ -fstrict-overflow -fstrict-volatile-bitfields -fsync-libcalls
  53              	@ -fthread-jumps -ftoplevel-reorder -ftrapping-math -ftree-bit-ccp
  54              	@ -ftree-builtin-call-dce -ftree-ccp -ftree-ch -ftree-coalesce-vars
  55              	@ -ftree-copy-prop -ftree-cselim -ftree-dce -ftree-dominator-opts
  56              	@ -ftree-dse -ftree-forwprop -ftree-fre -ftree-loop-if-convert
  57              	@ -ftree-loop-im -ftree-loop-ivcanon -ftree-loop-optimize
ARM GAS  /tmp/ccHubou1.s 			page 2


  58              	@ -ftree-parallelize-loops= -ftree-phiprop -ftree-pre -ftree-pta
  59              	@ -ftree-reassoc -ftree-scev-cprop -ftree-sink -ftree-slsr -ftree-sra
  60              	@ -ftree-switch-conversion -ftree-tail-merge -ftree-ter -ftree-vrp
  61              	@ -funit-at-a-time -fvar-tracking -fvar-tracking-assignments -fverbose-asm
  62              	@ -fzero-initialized-in-bss -masm-syntax-unified -mfix-cortex-m3-ldrd
  63              	@ -mlittle-endian -mpic-data-is-text-relative -msched-prolog -mthumb
  64              	@ -munaligned-access -mvectorize-with-neon-quad
  65              	
  66              		.text
  67              	.Ltext0:
  68              		.cfi_sections	.debug_frame
  69              		.align	1
  70              		.global	HAL_ADCEx_Calibration_Start
  71              		.syntax unified
  72              		.thumb
  73              		.thumb_func
  74              		.fpu softvfp
  75              		.type	HAL_ADCEx_Calibration_Start, %function
  76              	HAL_ADCEx_Calibration_Start:
  77              	.LFB65:
  78              		.file 1 "src/stm32f1xx_hal_adc_ex.c"
   1:src/stm32f1xx_hal_adc_ex.c **** /**
   2:src/stm32f1xx_hal_adc_ex.c ****   ******************************************************************************
   3:src/stm32f1xx_hal_adc_ex.c ****   * @file    stm32f1xx_hal_adc_ex.c
   4:src/stm32f1xx_hal_adc_ex.c ****   * @author  MCD Application Team
   5:src/stm32f1xx_hal_adc_ex.c ****   * @brief   This file provides firmware functions to manage the following 
   6:src/stm32f1xx_hal_adc_ex.c ****   *          functionalities of the Analog to Digital Convertor (ADC)
   7:src/stm32f1xx_hal_adc_ex.c ****   *          peripheral:
   8:src/stm32f1xx_hal_adc_ex.c ****   *           + Operation functions
   9:src/stm32f1xx_hal_adc_ex.c ****   *             ++ Start, stop, get result of conversions of injected
  10:src/stm32f1xx_hal_adc_ex.c ****   *                group, using 2 possible modes: polling, interruption.
  11:src/stm32f1xx_hal_adc_ex.c ****   *             ++ Multimode feature (available on devices with 2 ADCs or more)
  12:src/stm32f1xx_hal_adc_ex.c ****   *             ++ Calibration (ADC automatic self-calibration)
  13:src/stm32f1xx_hal_adc_ex.c ****   *           + Control functions
  14:src/stm32f1xx_hal_adc_ex.c ****   *             ++ Channels configuration on injected group
  15:src/stm32f1xx_hal_adc_ex.c ****   *          Other functions (generic functions) are available in file 
  16:src/stm32f1xx_hal_adc_ex.c ****   *          "stm32f1xx_hal_adc.c".
  17:src/stm32f1xx_hal_adc_ex.c ****   *
  18:src/stm32f1xx_hal_adc_ex.c ****   @verbatim
  19:src/stm32f1xx_hal_adc_ex.c ****   [..] 
  20:src/stm32f1xx_hal_adc_ex.c ****   (@) Sections "ADC peripheral features" and "How to use this driver" are
  21:src/stm32f1xx_hal_adc_ex.c ****       available in file of generic functions "stm32f1xx_hal_adc.c".
  22:src/stm32f1xx_hal_adc_ex.c ****   [..]
  23:src/stm32f1xx_hal_adc_ex.c ****   @endverbatim
  24:src/stm32f1xx_hal_adc_ex.c ****   ******************************************************************************
  25:src/stm32f1xx_hal_adc_ex.c ****   * @attention
  26:src/stm32f1xx_hal_adc_ex.c ****   *
  27:src/stm32f1xx_hal_adc_ex.c ****   * <h2><center>&copy; Copyright (c) 2016 STMicroelectronics.
  28:src/stm32f1xx_hal_adc_ex.c ****   * All rights reserved.</center></h2>
  29:src/stm32f1xx_hal_adc_ex.c ****   *
  30:src/stm32f1xx_hal_adc_ex.c ****   * This software component is licensed by ST under BSD 3-Clause license,
  31:src/stm32f1xx_hal_adc_ex.c ****   * the "License"; You may not use this file except in compliance with the
  32:src/stm32f1xx_hal_adc_ex.c ****   * License. You may obtain a copy of the License at:
  33:src/stm32f1xx_hal_adc_ex.c ****   *                        opensource.org/licenses/BSD-3-Clause
  34:src/stm32f1xx_hal_adc_ex.c ****   *
  35:src/stm32f1xx_hal_adc_ex.c ****   ******************************************************************************
  36:src/stm32f1xx_hal_adc_ex.c ****   */
ARM GAS  /tmp/ccHubou1.s 			page 3


  37:src/stm32f1xx_hal_adc_ex.c **** 
  38:src/stm32f1xx_hal_adc_ex.c **** /* Includes ------------------------------------------------------------------*/
  39:src/stm32f1xx_hal_adc_ex.c **** #include "stm32f1xx_hal.h"
  40:src/stm32f1xx_hal_adc_ex.c **** 
  41:src/stm32f1xx_hal_adc_ex.c **** /** @addtogroup STM32F1xx_HAL_Driver
  42:src/stm32f1xx_hal_adc_ex.c ****   * @{
  43:src/stm32f1xx_hal_adc_ex.c ****   */
  44:src/stm32f1xx_hal_adc_ex.c **** 
  45:src/stm32f1xx_hal_adc_ex.c **** /** @defgroup ADCEx ADCEx
  46:src/stm32f1xx_hal_adc_ex.c ****   * @brief ADC Extension HAL module driver
  47:src/stm32f1xx_hal_adc_ex.c ****   * @{
  48:src/stm32f1xx_hal_adc_ex.c ****   */
  49:src/stm32f1xx_hal_adc_ex.c **** 
  50:src/stm32f1xx_hal_adc_ex.c **** #ifdef HAL_ADC_MODULE_ENABLED
  51:src/stm32f1xx_hal_adc_ex.c **** 
  52:src/stm32f1xx_hal_adc_ex.c **** /* Private typedef -----------------------------------------------------------*/
  53:src/stm32f1xx_hal_adc_ex.c **** /* Private define ------------------------------------------------------------*/
  54:src/stm32f1xx_hal_adc_ex.c **** /** @defgroup ADCEx_Private_Constants ADCEx Private Constants
  55:src/stm32f1xx_hal_adc_ex.c ****   * @{
  56:src/stm32f1xx_hal_adc_ex.c ****   */
  57:src/stm32f1xx_hal_adc_ex.c **** 
  58:src/stm32f1xx_hal_adc_ex.c ****   /* Delay for ADC calibration:                                               */
  59:src/stm32f1xx_hal_adc_ex.c ****   /* Hardware prerequisite before starting a calibration: the ADC must have   */
  60:src/stm32f1xx_hal_adc_ex.c ****   /* been in power-on state for at least two ADC clock cycles.                */
  61:src/stm32f1xx_hal_adc_ex.c ****   /* Unit: ADC clock cycles                                                   */
  62:src/stm32f1xx_hal_adc_ex.c ****   #define ADC_PRECALIBRATION_DELAY_ADCCLOCKCYCLES       2U
  63:src/stm32f1xx_hal_adc_ex.c **** 
  64:src/stm32f1xx_hal_adc_ex.c ****   /* Timeout value for ADC calibration                                        */
  65:src/stm32f1xx_hal_adc_ex.c ****   /* Value defined to be higher than worst cases: low clocks freq,            */
  66:src/stm32f1xx_hal_adc_ex.c ****   /* maximum prescaler.                                                       */
  67:src/stm32f1xx_hal_adc_ex.c ****   /* Ex of profile low frequency : Clock source at 0.1 MHz, ADC clock         */
  68:src/stm32f1xx_hal_adc_ex.c ****   /* prescaler 4, sampling time 12.5 ADC clock cycles, resolution 12 bits.    */
  69:src/stm32f1xx_hal_adc_ex.c ****   /* Unit: ms                                                                 */
  70:src/stm32f1xx_hal_adc_ex.c ****   #define ADC_CALIBRATION_TIMEOUT          10U
  71:src/stm32f1xx_hal_adc_ex.c **** 
  72:src/stm32f1xx_hal_adc_ex.c ****   /* Delay for temperature sensor stabilization time.                         */
  73:src/stm32f1xx_hal_adc_ex.c ****   /* Maximum delay is 10us (refer to device datasheet, parameter tSTART).     */
  74:src/stm32f1xx_hal_adc_ex.c ****   /* Unit: us                                                                 */
  75:src/stm32f1xx_hal_adc_ex.c ****   #define ADC_TEMPSENSOR_DELAY_US         10U
  76:src/stm32f1xx_hal_adc_ex.c **** 
  77:src/stm32f1xx_hal_adc_ex.c **** /**
  78:src/stm32f1xx_hal_adc_ex.c ****   * @}
  79:src/stm32f1xx_hal_adc_ex.c ****   */
  80:src/stm32f1xx_hal_adc_ex.c **** 
  81:src/stm32f1xx_hal_adc_ex.c **** /* Private macro -------------------------------------------------------------*/
  82:src/stm32f1xx_hal_adc_ex.c **** /* Private variables ---------------------------------------------------------*/
  83:src/stm32f1xx_hal_adc_ex.c **** /* Private function prototypes -----------------------------------------------*/
  84:src/stm32f1xx_hal_adc_ex.c **** /* Private functions ---------------------------------------------------------*/
  85:src/stm32f1xx_hal_adc_ex.c **** 
  86:src/stm32f1xx_hal_adc_ex.c **** /** @defgroup ADCEx_Exported_Functions ADCEx Exported Functions
  87:src/stm32f1xx_hal_adc_ex.c ****   * @{
  88:src/stm32f1xx_hal_adc_ex.c ****   */
  89:src/stm32f1xx_hal_adc_ex.c **** 
  90:src/stm32f1xx_hal_adc_ex.c **** /** @defgroup ADCEx_Exported_Functions_Group1 Extended Extended IO operation functions
  91:src/stm32f1xx_hal_adc_ex.c ****  *  @brief    Extended Extended Input and Output operation functions
  92:src/stm32f1xx_hal_adc_ex.c ****  *
  93:src/stm32f1xx_hal_adc_ex.c **** @verbatim    
ARM GAS  /tmp/ccHubou1.s 			page 4


  94:src/stm32f1xx_hal_adc_ex.c ****  ===============================================================================
  95:src/stm32f1xx_hal_adc_ex.c ****                       ##### IO operation functions #####
  96:src/stm32f1xx_hal_adc_ex.c ****  ===============================================================================
  97:src/stm32f1xx_hal_adc_ex.c ****     [..]  This section provides functions allowing to:
  98:src/stm32f1xx_hal_adc_ex.c ****       (+) Start conversion of injected group.
  99:src/stm32f1xx_hal_adc_ex.c ****       (+) Stop conversion of injected group.
 100:src/stm32f1xx_hal_adc_ex.c ****       (+) Poll for conversion complete on injected group.
 101:src/stm32f1xx_hal_adc_ex.c ****       (+) Get result of injected channel conversion.
 102:src/stm32f1xx_hal_adc_ex.c ****       (+) Start conversion of injected group and enable interruptions.
 103:src/stm32f1xx_hal_adc_ex.c ****       (+) Stop conversion of injected group and disable interruptions.
 104:src/stm32f1xx_hal_adc_ex.c **** 
 105:src/stm32f1xx_hal_adc_ex.c ****       (+) Start multimode and enable DMA transfer.
 106:src/stm32f1xx_hal_adc_ex.c ****       (+) Stop multimode and disable ADC DMA transfer.
 107:src/stm32f1xx_hal_adc_ex.c ****       (+) Get result of multimode conversion.
 108:src/stm32f1xx_hal_adc_ex.c **** 
 109:src/stm32f1xx_hal_adc_ex.c ****       (+) Perform the ADC self-calibration for single or differential ending.
 110:src/stm32f1xx_hal_adc_ex.c ****       (+) Get calibration factors for single or differential ending.
 111:src/stm32f1xx_hal_adc_ex.c ****       (+) Set calibration factors for single or differential ending.
 112:src/stm32f1xx_hal_adc_ex.c ****       
 113:src/stm32f1xx_hal_adc_ex.c **** @endverbatim
 114:src/stm32f1xx_hal_adc_ex.c ****   * @{
 115:src/stm32f1xx_hal_adc_ex.c ****   */
 116:src/stm32f1xx_hal_adc_ex.c **** 
 117:src/stm32f1xx_hal_adc_ex.c **** /**
 118:src/stm32f1xx_hal_adc_ex.c ****   * @brief  Perform an ADC automatic self-calibration
 119:src/stm32f1xx_hal_adc_ex.c ****   *         Calibration prerequisite: ADC must be disabled (execute this
 120:src/stm32f1xx_hal_adc_ex.c ****   *         function before HAL_ADC_Start() or after HAL_ADC_Stop() ).
 121:src/stm32f1xx_hal_adc_ex.c ****   *         During calibration process, ADC is enabled. ADC is let enabled at
 122:src/stm32f1xx_hal_adc_ex.c ****   *         the completion of this function.
 123:src/stm32f1xx_hal_adc_ex.c ****   * @param  hadc: ADC handle
 124:src/stm32f1xx_hal_adc_ex.c ****   * @retval HAL status
 125:src/stm32f1xx_hal_adc_ex.c ****   */
 126:src/stm32f1xx_hal_adc_ex.c **** HAL_StatusTypeDef HAL_ADCEx_Calibration_Start(ADC_HandleTypeDef* hadc)
 127:src/stm32f1xx_hal_adc_ex.c **** {
  79              		.loc 1 127 0
  80              		.cfi_startproc
  81              		@ args = 0, pretend = 0, frame = 8
  82              		@ frame_needed = 0, uses_anonymous_args = 0
  83              	.LVL0:
 128:src/stm32f1xx_hal_adc_ex.c ****   HAL_StatusTypeDef tmp_hal_status = HAL_OK;
 129:src/stm32f1xx_hal_adc_ex.c ****   uint32_t tickstart;
 130:src/stm32f1xx_hal_adc_ex.c ****   __IO uint32_t wait_loop_index = 0U;
  84              		.loc 1 130 0
  85 0000 0023     		movs	r3, #0	@ tmp149,
 127:src/stm32f1xx_hal_adc_ex.c ****   HAL_StatusTypeDef tmp_hal_status = HAL_OK;
  86              		.loc 1 127 0
  87 0002 73B5     		push	{r0, r1, r4, r5, r6, lr}	@
  88              	.LCFI0:
  89              		.cfi_def_cfa_offset 24
  90              		.cfi_offset 4, -16
  91              		.cfi_offset 5, -12
  92              		.cfi_offset 6, -8
  93              		.cfi_offset 14, -4
  94              		.loc 1 130 0
  95 0004 0193     		str	r3, [sp, #4]	@ tmp149, wait_loop_index
 131:src/stm32f1xx_hal_adc_ex.c ****   
 132:src/stm32f1xx_hal_adc_ex.c ****   /* Check the parameters */
ARM GAS  /tmp/ccHubou1.s 			page 5


 133:src/stm32f1xx_hal_adc_ex.c ****   assert_param(IS_ADC_ALL_INSTANCE(hadc->Instance));
 134:src/stm32f1xx_hal_adc_ex.c **** 
 135:src/stm32f1xx_hal_adc_ex.c ****   /* Process locked */
 136:src/stm32f1xx_hal_adc_ex.c ****   __HAL_LOCK(hadc);
  96              		.loc 1 136 0
  97 0006 90F82430 		ldrb	r3, [r0, #36]	@ zero_extendqisi2	@ hadc_9(D)->Lock, hadc_9(D)->Lock
 127:src/stm32f1xx_hal_adc_ex.c ****   HAL_StatusTypeDef tmp_hal_status = HAL_OK;
  98              		.loc 1 127 0
  99 000a 0446     		mov	r4, r0	@ hadc, hadc
 100              		.loc 1 136 0
 101 000c 012B     		cmp	r3, #1	@ hadc_9(D)->Lock,
 102 000e 5AD0     		beq	.L10	@,
 103              		.loc 1 136 0 is_stmt 0 discriminator 2
 104 0010 0123     		movs	r3, #1	@ tmp151,
 105 0012 80F82430 		strb	r3, [r0, #36]	@ tmp151, hadc_9(D)->Lock
 137:src/stm32f1xx_hal_adc_ex.c ****     
 138:src/stm32f1xx_hal_adc_ex.c ****   /* 1. Calibration prerequisite:                                             */
 139:src/stm32f1xx_hal_adc_ex.c ****   /*    - ADC must be disabled for at least two ADC clock cycles in disable   */
 140:src/stm32f1xx_hal_adc_ex.c ****   /*      mode before ADC enable                                              */
 141:src/stm32f1xx_hal_adc_ex.c ****   /* Stop potential conversion on going, on regular and injected groups       */
 142:src/stm32f1xx_hal_adc_ex.c ****   /* Disable ADC peripheral */
 143:src/stm32f1xx_hal_adc_ex.c ****   tmp_hal_status = ADC_ConversionStop_Disable(hadc);
 106              		.loc 1 143 0 is_stmt 1 discriminator 2
 107 0016 FFF7FEFF 		bl	ADC_ConversionStop_Disable	@
 108              	.LVL1:
 144:src/stm32f1xx_hal_adc_ex.c ****   
 145:src/stm32f1xx_hal_adc_ex.c ****   /* Check if ADC is effectively disabled */
 146:src/stm32f1xx_hal_adc_ex.c ****   if (tmp_hal_status == HAL_OK)
 109              		.loc 1 146 0 discriminator 2
 110 001a 0546     		mov	r5, r0	@ <retval>,
 111 001c 0028     		cmp	r0, #0	@ <retval>
 112 001e 32D1     		bne	.L3	@
 147:src/stm32f1xx_hal_adc_ex.c ****   {
 148:src/stm32f1xx_hal_adc_ex.c ****     /* Set ADC state */
 149:src/stm32f1xx_hal_adc_ex.c ****     ADC_STATE_CLR_SET(hadc->State,
 113              		.loc 1 149 0
 114 0020 A36A     		ldr	r3, [r4, #40]	@ _14, hadc_9(D)->State
 150:src/stm32f1xx_hal_adc_ex.c ****                       HAL_ADC_STATE_REG_BUSY | HAL_ADC_STATE_INJ_BUSY,
 151:src/stm32f1xx_hal_adc_ex.c ****                       HAL_ADC_STATE_BUSY_INTERNAL);
 152:src/stm32f1xx_hal_adc_ex.c ****     
 153:src/stm32f1xx_hal_adc_ex.c ****     /* Hardware prerequisite: delay before starting the calibration.          */
 154:src/stm32f1xx_hal_adc_ex.c ****     /*  - Computation of CPU clock cycles corresponding to ADC clock cycles.  */
 155:src/stm32f1xx_hal_adc_ex.c ****     /*  - Wait for the expected ADC clock cycles delay */
 156:src/stm32f1xx_hal_adc_ex.c ****     wait_loop_index = ((SystemCoreClock
 157:src/stm32f1xx_hal_adc_ex.c ****                         / HAL_RCCEx_GetPeriphCLKFreq(RCC_PERIPHCLK_ADC))
 115              		.loc 1 157 0
 116 0022 0220     		movs	r0, #2	@,
 117              	.LVL2:
 149:src/stm32f1xx_hal_adc_ex.c ****                       HAL_ADC_STATE_REG_BUSY | HAL_ADC_STATE_INJ_BUSY,
 118              		.loc 1 149 0
 119 0024 23F48853 		bic	r3, r3, #4352	@ tmp154, _14,
 120 0028 23F00203 		bic	r3, r3, #2	@ tmp154, tmp154,
 121 002c 43F00203 		orr	r3, r3, #2	@ _16, tmp154,
 122 0030 A362     		str	r3, [r4, #40]	@ _16, hadc_9(D)->State
 123              		.loc 1 157 0
 124 0032 264B     		ldr	r3, .L14	@ tmp156,
 125 0034 1E68     		ldr	r6, [r3]	@ SystemCoreClock.0_18, SystemCoreClock
ARM GAS  /tmp/ccHubou1.s 			page 6


 126 0036 FFF7FEFF 		bl	HAL_RCCEx_GetPeriphCLKFreq	@
 127              	.LVL3:
 128 003a B6FBF0F0 		udiv	r0, r6, r0	@ tmp158, SystemCoreClock.0_18,
 158:src/stm32f1xx_hal_adc_ex.c ****                        * ADC_PRECALIBRATION_DELAY_ADCCLOCKCYCLES        );
 129              		.loc 1 158 0
 130 003e 4000     		lsls	r0, r0, #1	@ wait_loop_index.1_22, tmp158,
 156:src/stm32f1xx_hal_adc_ex.c ****                         / HAL_RCCEx_GetPeriphCLKFreq(RCC_PERIPHCLK_ADC))
 131              		.loc 1 156 0
 132 0040 0190     		str	r0, [sp, #4]	@ wait_loop_index.1_22, wait_loop_index
 133              	.L4:
 159:src/stm32f1xx_hal_adc_ex.c **** 
 160:src/stm32f1xx_hal_adc_ex.c ****     while(wait_loop_index != 0U)
 134              		.loc 1 160 0
 135 0042 019B     		ldr	r3, [sp, #4]	@ wait_loop_index.4_24, wait_loop_index
 136 0044 1BBB     		cbnz	r3, .L5	@ wait_loop_index.4_24,
 161:src/stm32f1xx_hal_adc_ex.c ****     {
 162:src/stm32f1xx_hal_adc_ex.c ****       wait_loop_index--;
 163:src/stm32f1xx_hal_adc_ex.c ****     }
 164:src/stm32f1xx_hal_adc_ex.c ****     
 165:src/stm32f1xx_hal_adc_ex.c ****     /* 2. Enable the ADC peripheral */
 166:src/stm32f1xx_hal_adc_ex.c ****     ADC_Enable(hadc);
 137              		.loc 1 166 0
 138 0046 2046     		mov	r0, r4	@, hadc
 139 0048 FFF7FEFF 		bl	ADC_Enable	@
 140              	.LVL4:
 167:src/stm32f1xx_hal_adc_ex.c ****     
 168:src/stm32f1xx_hal_adc_ex.c ****     /* 3. Resets ADC calibration registers */  
 169:src/stm32f1xx_hal_adc_ex.c ****     SET_BIT(hadc->Instance->CR2, ADC_CR2_RSTCAL);
 141              		.loc 1 169 0
 142 004c 2268     		ldr	r2, [r4]	@ _29, hadc_9(D)->Instance
 143 004e 9368     		ldr	r3, [r2, #8]	@ _30, _29->CR2
 144 0050 43F00803 		orr	r3, r3, #8	@ _31, _30,
 145 0054 9360     		str	r3, [r2, #8]	@ _31, _29->CR2
 170:src/stm32f1xx_hal_adc_ex.c ****     
 171:src/stm32f1xx_hal_adc_ex.c ****     tickstart = HAL_GetTick();  
 146              		.loc 1 171 0
 147 0056 FFF7FEFF 		bl	HAL_GetTick	@
 148              	.LVL5:
 149 005a 0646     		mov	r6, r0	@ tickstart,
 150              	.LVL6:
 151              	.L6:
 172:src/stm32f1xx_hal_adc_ex.c **** 
 173:src/stm32f1xx_hal_adc_ex.c ****     /* Wait for calibration reset completion */
 174:src/stm32f1xx_hal_adc_ex.c ****     while(HAL_IS_BIT_SET(hadc->Instance->CR2, ADC_CR2_RSTCAL))
 152              		.loc 1 174 0
 153 005c 2368     		ldr	r3, [r4]	@ _35, hadc_9(D)->Instance
 154 005e 9A68     		ldr	r2, [r3, #8]	@ _36, _35->CR2
 155 0060 1207     		lsls	r2, r2, #28	@, _36,
 156 0062 18D4     		bmi	.L7	@,
 175:src/stm32f1xx_hal_adc_ex.c ****     {
 176:src/stm32f1xx_hal_adc_ex.c ****       if((HAL_GetTick() - tickstart) > ADC_CALIBRATION_TIMEOUT)
 177:src/stm32f1xx_hal_adc_ex.c ****       {
 178:src/stm32f1xx_hal_adc_ex.c ****         /* Update ADC state machine to error */
 179:src/stm32f1xx_hal_adc_ex.c ****         ADC_STATE_CLR_SET(hadc->State,
 180:src/stm32f1xx_hal_adc_ex.c ****                           HAL_ADC_STATE_BUSY_INTERNAL,
 181:src/stm32f1xx_hal_adc_ex.c ****                           HAL_ADC_STATE_ERROR_INTERNAL);
 182:src/stm32f1xx_hal_adc_ex.c ****         
ARM GAS  /tmp/ccHubou1.s 			page 7


 183:src/stm32f1xx_hal_adc_ex.c ****         /* Process unlocked */
 184:src/stm32f1xx_hal_adc_ex.c ****         __HAL_UNLOCK(hadc);
 185:src/stm32f1xx_hal_adc_ex.c ****         
 186:src/stm32f1xx_hal_adc_ex.c ****         return HAL_ERROR;
 187:src/stm32f1xx_hal_adc_ex.c ****       }
 188:src/stm32f1xx_hal_adc_ex.c ****     }
 189:src/stm32f1xx_hal_adc_ex.c ****     
 190:src/stm32f1xx_hal_adc_ex.c ****     
 191:src/stm32f1xx_hal_adc_ex.c ****     /* 4. Start ADC calibration */
 192:src/stm32f1xx_hal_adc_ex.c ****     SET_BIT(hadc->Instance->CR2, ADC_CR2_CAL);
 157              		.loc 1 192 0
 158 0064 9A68     		ldr	r2, [r3, #8]	@ _46, _35->CR2
 159 0066 42F00402 		orr	r2, r2, #4	@ _47, _46,
 160 006a 9A60     		str	r2, [r3, #8]	@ _47, _35->CR2
 193:src/stm32f1xx_hal_adc_ex.c ****     
 194:src/stm32f1xx_hal_adc_ex.c ****     tickstart = HAL_GetTick();  
 161              		.loc 1 194 0
 162 006c FFF7FEFF 		bl	HAL_GetTick	@
 163              	.LVL7:
 164 0070 0646     		mov	r6, r0	@ tickstart,
 165              	.LVL8:
 166              	.L8:
 195:src/stm32f1xx_hal_adc_ex.c **** 
 196:src/stm32f1xx_hal_adc_ex.c ****     /* Wait for calibration completion */
 197:src/stm32f1xx_hal_adc_ex.c ****     while(HAL_IS_BIT_SET(hadc->Instance->CR2, ADC_CR2_CAL))
 167              		.loc 1 197 0
 168 0072 2368     		ldr	r3, [r4]	@ _51, hadc_9(D)->Instance
 169 0074 9B68     		ldr	r3, [r3, #8]	@ _52, _51->CR2
 170 0076 5B07     		lsls	r3, r3, #29	@, _52,
 171 0078 1FD4     		bmi	.L9	@,
 198:src/stm32f1xx_hal_adc_ex.c ****     {
 199:src/stm32f1xx_hal_adc_ex.c ****       if((HAL_GetTick() - tickstart) > ADC_CALIBRATION_TIMEOUT)
 200:src/stm32f1xx_hal_adc_ex.c ****       {
 201:src/stm32f1xx_hal_adc_ex.c ****         /* Update ADC state machine to error */
 202:src/stm32f1xx_hal_adc_ex.c ****         ADC_STATE_CLR_SET(hadc->State,
 203:src/stm32f1xx_hal_adc_ex.c ****                           HAL_ADC_STATE_BUSY_INTERNAL,
 204:src/stm32f1xx_hal_adc_ex.c ****                           HAL_ADC_STATE_ERROR_INTERNAL);
 205:src/stm32f1xx_hal_adc_ex.c ****         
 206:src/stm32f1xx_hal_adc_ex.c ****         /* Process unlocked */
 207:src/stm32f1xx_hal_adc_ex.c ****         __HAL_UNLOCK(hadc);
 208:src/stm32f1xx_hal_adc_ex.c ****         
 209:src/stm32f1xx_hal_adc_ex.c ****         return HAL_ERROR;
 210:src/stm32f1xx_hal_adc_ex.c ****       }
 211:src/stm32f1xx_hal_adc_ex.c ****     }
 212:src/stm32f1xx_hal_adc_ex.c ****     
 213:src/stm32f1xx_hal_adc_ex.c ****     /* Set ADC state */
 214:src/stm32f1xx_hal_adc_ex.c ****     ADC_STATE_CLR_SET(hadc->State,
 172              		.loc 1 214 0
 173 007a A36A     		ldr	r3, [r4, #40]	@ _62, hadc_9(D)->State
 174 007c 23F00303 		bic	r3, r3, #3	@ tmp169, _62,
 175 0080 43F00103 		orr	r3, r3, #1	@ _64, tmp169,
 176 0084 A362     		str	r3, [r4, #40]	@ _64, hadc_9(D)->State
 177              	.LVL9:
 178              	.L3:
 215:src/stm32f1xx_hal_adc_ex.c ****                       HAL_ADC_STATE_BUSY_INTERNAL,
 216:src/stm32f1xx_hal_adc_ex.c ****                       HAL_ADC_STATE_READY);
 217:src/stm32f1xx_hal_adc_ex.c ****   }
ARM GAS  /tmp/ccHubou1.s 			page 8


 218:src/stm32f1xx_hal_adc_ex.c ****   
 219:src/stm32f1xx_hal_adc_ex.c ****   /* Process unlocked */
 220:src/stm32f1xx_hal_adc_ex.c ****   __HAL_UNLOCK(hadc);
 179              		.loc 1 220 0
 180 0086 0023     		movs	r3, #0	@ tmp170,
 181 0088 84F82430 		strb	r3, [r4, #36]	@ tmp170, hadc_9(D)->Lock
 221:src/stm32f1xx_hal_adc_ex.c ****   
 222:src/stm32f1xx_hal_adc_ex.c ****   /* Return function status */
 223:src/stm32f1xx_hal_adc_ex.c ****   return tmp_hal_status;
 182              		.loc 1 223 0
 183 008c 12E0     		b	.L2	@
 184              	.L5:
 162:src/stm32f1xx_hal_adc_ex.c ****     }
 185              		.loc 1 162 0
 186 008e 019B     		ldr	r3, [sp, #4]	@ wait_loop_index.2_25, wait_loop_index
 187 0090 013B     		subs	r3, r3, #1	@ wait_loop_index.3_26, wait_loop_index.2_25,
 188 0092 0193     		str	r3, [sp, #4]	@ wait_loop_index.3_26, wait_loop_index
 189 0094 D5E7     		b	.L4	@
 190              	.LVL10:
 191              	.L7:
 176:src/stm32f1xx_hal_adc_ex.c ****       {
 192              		.loc 1 176 0
 193 0096 FFF7FEFF 		bl	HAL_GetTick	@
 194              	.LVL11:
 195 009a 801B     		subs	r0, r0, r6	@ tmp159,, tickstart
 196 009c 0A28     		cmp	r0, #10	@ tmp159,
 197 009e DDD9     		bls	.L6	@,
 198              	.L13:
 202:src/stm32f1xx_hal_adc_ex.c ****                           HAL_ADC_STATE_BUSY_INTERNAL,
 199              		.loc 1 202 0
 200 00a0 A36A     		ldr	r3, [r4, #40]	@ _57,
 209:src/stm32f1xx_hal_adc_ex.c ****       }
 201              		.loc 1 209 0
 202 00a2 0125     		movs	r5, #1	@ <retval>,
 202:src/stm32f1xx_hal_adc_ex.c ****                           HAL_ADC_STATE_BUSY_INTERNAL,
 203              		.loc 1 202 0
 204 00a4 23F01203 		bic	r3, r3, #18	@ tmp165, _57,
 205 00a8 43F01003 		orr	r3, r3, #16	@ _59, tmp165,
 206 00ac A362     		str	r3, [r4, #40]	@ _59,
 207:src/stm32f1xx_hal_adc_ex.c ****         
 207              		.loc 1 207 0
 208 00ae 0023     		movs	r3, #0	@ tmp166,
 209 00b0 84F82430 		strb	r3, [r4, #36]	@ tmp166, hadc_9(D)->Lock
 210              	.LVL12:
 211              	.L2:
 224:src/stm32f1xx_hal_adc_ex.c **** }
 212              		.loc 1 224 0
 213 00b4 2846     		mov	r0, r5	@, <retval>
 214 00b6 02B0     		add	sp, sp, #8	@,,
 215              	.LCFI1:
 216              		.cfi_remember_state
 217              		.cfi_def_cfa_offset 16
 218              		@ sp needed	@
 219 00b8 70BD     		pop	{r4, r5, r6, pc}	@
 220              	.LVL13:
 221              	.L9:
 222              	.LCFI2:
ARM GAS  /tmp/ccHubou1.s 			page 9


 223              		.cfi_restore_state
 199:src/stm32f1xx_hal_adc_ex.c ****       {
 224              		.loc 1 199 0
 225 00ba FFF7FEFF 		bl	HAL_GetTick	@
 226              	.LVL14:
 227 00be 801B     		subs	r0, r0, r6	@ tmp164,, tickstart
 228 00c0 0A28     		cmp	r0, #10	@ tmp164,
 229 00c2 D6D9     		bls	.L8	@,
 230 00c4 ECE7     		b	.L13	@
 231              	.LVL15:
 232              	.L10:
 136:src/stm32f1xx_hal_adc_ex.c ****     
 233              		.loc 1 136 0
 234 00c6 0225     		movs	r5, #2	@ <retval>,
 235 00c8 F4E7     		b	.L2	@
 236              	.L15:
 237 00ca 00BF     		.align	2
 238              	.L14:
 239 00cc 00000000 		.word	SystemCoreClock
 240              		.cfi_endproc
 241              	.LFE65:
 242              		.size	HAL_ADCEx_Calibration_Start, .-HAL_ADCEx_Calibration_Start
 243              		.align	1
 244              		.global	HAL_ADCEx_InjectedStart
 245              		.syntax unified
 246              		.thumb
 247              		.thumb_func
 248              		.fpu softvfp
 249              		.type	HAL_ADCEx_InjectedStart, %function
 250              	HAL_ADCEx_InjectedStart:
 251              	.LFB66:
 225:src/stm32f1xx_hal_adc_ex.c **** 
 226:src/stm32f1xx_hal_adc_ex.c **** /**
 227:src/stm32f1xx_hal_adc_ex.c ****   * @brief  Enables ADC, starts conversion of injected group.
 228:src/stm32f1xx_hal_adc_ex.c ****   *         Interruptions enabled in this function: None.
 229:src/stm32f1xx_hal_adc_ex.c ****   * @param  hadc: ADC handle
 230:src/stm32f1xx_hal_adc_ex.c ****   * @retval HAL status
 231:src/stm32f1xx_hal_adc_ex.c ****   */
 232:src/stm32f1xx_hal_adc_ex.c **** HAL_StatusTypeDef HAL_ADCEx_InjectedStart(ADC_HandleTypeDef* hadc)
 233:src/stm32f1xx_hal_adc_ex.c **** {
 252              		.loc 1 233 0
 253              		.cfi_startproc
 254              		@ args = 0, pretend = 0, frame = 0
 255              		@ frame_needed = 0, uses_anonymous_args = 0
 256              	.LVL16:
 234:src/stm32f1xx_hal_adc_ex.c ****   HAL_StatusTypeDef tmp_hal_status = HAL_OK;
 235:src/stm32f1xx_hal_adc_ex.c ****   
 236:src/stm32f1xx_hal_adc_ex.c ****   /* Check the parameters */
 237:src/stm32f1xx_hal_adc_ex.c ****   assert_param(IS_ADC_ALL_INSTANCE(hadc->Instance));
 238:src/stm32f1xx_hal_adc_ex.c ****   
 239:src/stm32f1xx_hal_adc_ex.c ****   /* Process locked */
 240:src/stm32f1xx_hal_adc_ex.c ****   __HAL_LOCK(hadc);
 257              		.loc 1 240 0
 258 00d0 90F82430 		ldrb	r3, [r0, #36]	@ zero_extendqisi2	@ hadc_6(D)->Lock, hadc_6(D)->Lock
 233:src/stm32f1xx_hal_adc_ex.c ****   HAL_StatusTypeDef tmp_hal_status = HAL_OK;
 259              		.loc 1 233 0
 260 00d4 10B5     		push	{r4, lr}	@
ARM GAS  /tmp/ccHubou1.s 			page 10


 261              	.LCFI3:
 262              		.cfi_def_cfa_offset 8
 263              		.cfi_offset 4, -8
 264              		.cfi_offset 14, -4
 265              		.loc 1 240 0
 266 00d6 012B     		cmp	r3, #1	@ hadc_6(D)->Lock,
 233:src/stm32f1xx_hal_adc_ex.c ****   HAL_StatusTypeDef tmp_hal_status = HAL_OK;
 267              		.loc 1 233 0
 268 00d8 0446     		mov	r4, r0	@ hadc, hadc
 269              		.loc 1 240 0
 270 00da 4AD0     		beq	.L25	@,
 271              		.loc 1 240 0 is_stmt 0 discriminator 2
 272 00dc 0123     		movs	r3, #1	@ tmp136,
 273 00de 80F82430 		strb	r3, [r0, #36]	@ tmp136, hadc_6(D)->Lock
 241:src/stm32f1xx_hal_adc_ex.c ****     
 242:src/stm32f1xx_hal_adc_ex.c ****   /* Enable the ADC peripheral */
 243:src/stm32f1xx_hal_adc_ex.c ****   tmp_hal_status = ADC_Enable(hadc);
 274              		.loc 1 243 0 is_stmt 1 discriminator 2
 275 00e2 FFF7FEFF 		bl	ADC_Enable	@
 276              	.LVL17:
 244:src/stm32f1xx_hal_adc_ex.c ****   
 245:src/stm32f1xx_hal_adc_ex.c ****   /* Start conversion if ADC is effectively enabled */
 246:src/stm32f1xx_hal_adc_ex.c ****   if (tmp_hal_status == HAL_OK)
 277              		.loc 1 246 0 discriminator 2
 278 00e6 0028     		cmp	r0, #0	@ <retval>
 279 00e8 3FD1     		bne	.L18	@
 247:src/stm32f1xx_hal_adc_ex.c ****   {
 248:src/stm32f1xx_hal_adc_ex.c ****     /* Set ADC state                                                          */
 249:src/stm32f1xx_hal_adc_ex.c ****     /* - Clear state bitfield related to injected group conversion results    */
 250:src/stm32f1xx_hal_adc_ex.c ****     /* - Set state bitfield related to injected operation                     */
 251:src/stm32f1xx_hal_adc_ex.c ****     ADC_STATE_CLR_SET(hadc->State,
 280              		.loc 1 251 0
 281 00ea A36A     		ldr	r3, [r4, #40]	@ _11, hadc_6(D)->State
 252:src/stm32f1xx_hal_adc_ex.c ****                       HAL_ADC_STATE_READY | HAL_ADC_STATE_INJ_EOC,
 253:src/stm32f1xx_hal_adc_ex.c ****                       HAL_ADC_STATE_INJ_BUSY);
 254:src/stm32f1xx_hal_adc_ex.c ****     
 255:src/stm32f1xx_hal_adc_ex.c ****     /* Case of independent mode or multimode (for devices with several ADCs): */
 256:src/stm32f1xx_hal_adc_ex.c ****     /* Set multimode state.                                                   */
 257:src/stm32f1xx_hal_adc_ex.c ****     if (ADC_NONMULTIMODE_OR_MULTIMODEMASTER(hadc))
 282              		.loc 1 257 0
 283 00ec 224A     		ldr	r2, .L28	@ tmp141,
 251:src/stm32f1xx_hal_adc_ex.c ****                       HAL_ADC_STATE_READY | HAL_ADC_STATE_INJ_EOC,
 284              		.loc 1 251 0
 285 00ee 23F44053 		bic	r3, r3, #12288	@ tmp139, _11,
 286 00f2 23F00103 		bic	r3, r3, #1	@ tmp139, tmp139,
 287 00f6 43F48053 		orr	r3, r3, #4096	@ _13, tmp139,
 288 00fa A362     		str	r3, [r4, #40]	@ _13, hadc_6(D)->State
 289              		.loc 1 257 0
 290 00fc 2368     		ldr	r3, [r4]	@ _15, hadc_6(D)->Instance
 291 00fe 9342     		cmp	r3, r2	@ _15, tmp141
 292 0100 05D1     		bne	.L19	@,
 293              		.loc 1 257 0 is_stmt 0 discriminator 1
 294 0102 A2F58062 		sub	r2, r2, #1024	@ tmp142, tmp142,
 295 0106 5268     		ldr	r2, [r2, #4]	@ _16, MEM[(struct ADC_TypeDef *)1073816576B].CR1
 296 0108 12F4702F 		tst	r2, #983040	@ _16,
 297 010c 25D1     		bne	.L20	@,
 298              	.L19:
ARM GAS  /tmp/ccHubou1.s 			page 11


 258:src/stm32f1xx_hal_adc_ex.c ****     {
 259:src/stm32f1xx_hal_adc_ex.c ****       CLEAR_BIT(hadc->State, HAL_ADC_STATE_MULTIMODE_SLAVE);
 299              		.loc 1 259 0 is_stmt 1
 300 010e A26A     		ldr	r2, [r4, #40]	@ _21,
 301 0110 22F48012 		bic	r2, r2, #1048576	@ _22, _21,
 302              	.L26:
 260:src/stm32f1xx_hal_adc_ex.c ****     }
 261:src/stm32f1xx_hal_adc_ex.c ****     else
 262:src/stm32f1xx_hal_adc_ex.c ****     {
 263:src/stm32f1xx_hal_adc_ex.c ****       SET_BIT(hadc->State, HAL_ADC_STATE_MULTIMODE_SLAVE);
 303              		.loc 1 263 0
 304 0114 A262     		str	r2, [r4, #40]	@ _19,
 264:src/stm32f1xx_hal_adc_ex.c ****     }
 265:src/stm32f1xx_hal_adc_ex.c ****     
 266:src/stm32f1xx_hal_adc_ex.c ****     /* Check if a regular conversion is ongoing */
 267:src/stm32f1xx_hal_adc_ex.c ****     /* Note: On this device, there is no ADC error code fields related to     */
 268:src/stm32f1xx_hal_adc_ex.c ****     /*       conversions on group injected only. In case of conversion on     */
 269:src/stm32f1xx_hal_adc_ex.c ****     /*       going on group regular, no error code is reset.                  */
 270:src/stm32f1xx_hal_adc_ex.c ****     if (HAL_IS_BIT_CLR(hadc->State, HAL_ADC_STATE_REG_BUSY))
 305              		.loc 1 270 0
 306 0116 A26A     		ldr	r2, [r4, #40]	@ _24, hadc_6(D)->State
 307 0118 12F48072 		ands	r2, r2, #256	@ tmp144, _24,
 271:src/stm32f1xx_hal_adc_ex.c ****     {
 272:src/stm32f1xx_hal_adc_ex.c ****       /* Reset ADC all error code fields */
 273:src/stm32f1xx_hal_adc_ex.c ****       ADC_CLEAR_ERRORCODE(hadc);
 308              		.loc 1 273 0
 309 011c 08BF     		it	eq
 310 011e E262     		streq	r2, [r4, #44]	@ tmp144, hadc_6(D)->ErrorCode
 274:src/stm32f1xx_hal_adc_ex.c ****     }
 275:src/stm32f1xx_hal_adc_ex.c ****     
 276:src/stm32f1xx_hal_adc_ex.c ****     /* Process unlocked */
 277:src/stm32f1xx_hal_adc_ex.c ****     /* Unlock before starting ADC conversions: in case of potential           */
 278:src/stm32f1xx_hal_adc_ex.c ****     /* interruption, to let the process to ADC IRQ Handler.                   */
 279:src/stm32f1xx_hal_adc_ex.c ****     __HAL_UNLOCK(hadc);
 311              		.loc 1 279 0
 312 0120 0022     		movs	r2, #0	@ tmp146,
 313 0122 84F82420 		strb	r2, [r4, #36]	@ tmp146, hadc_6(D)->Lock
 280:src/stm32f1xx_hal_adc_ex.c ****     
 281:src/stm32f1xx_hal_adc_ex.c ****     /* Clear injected group conversion flag */
 282:src/stm32f1xx_hal_adc_ex.c ****     /* (To ensure of no unknown state from potential previous ADC operations) */
 283:src/stm32f1xx_hal_adc_ex.c ****     __HAL_ADC_CLEAR_FLAG(hadc, ADC_FLAG_JEOC);
 314              		.loc 1 283 0
 315 0126 6FF00402 		mvn	r2, #4	@ tmp148,
 316 012a 1A60     		str	r2, [r3]	@ tmp148, _15->SR
 284:src/stm32f1xx_hal_adc_ex.c ****         
 285:src/stm32f1xx_hal_adc_ex.c ****     /* Enable conversion of injected group.                                   */
 286:src/stm32f1xx_hal_adc_ex.c ****     /* If software start has been selected, conversion starts immediately.    */
 287:src/stm32f1xx_hal_adc_ex.c ****     /* If external trigger has been selected, conversion will start at next   */
 288:src/stm32f1xx_hal_adc_ex.c ****     /* trigger event.                                                         */
 289:src/stm32f1xx_hal_adc_ex.c ****     /* If automatic injected conversion is enabled, conversion will start     */
 290:src/stm32f1xx_hal_adc_ex.c ****     /* after next regular group conversion.                                   */
 291:src/stm32f1xx_hal_adc_ex.c ****     /* Case of multimode enabled (for devices with several ADCs): if ADC is   */
 292:src/stm32f1xx_hal_adc_ex.c ****     /* slave, ADC is enabled only (conversion is not started). If ADC is      */
 293:src/stm32f1xx_hal_adc_ex.c ****     /* master, ADC is enabled and conversion is started.                      */
 294:src/stm32f1xx_hal_adc_ex.c ****     if (HAL_IS_BIT_CLR(hadc->Instance->CR1, ADC_CR1_JAUTO))
 317              		.loc 1 294 0
 318 012c 5A68     		ldr	r2, [r3, #4]	@ _29, _15->CR1
ARM GAS  /tmp/ccHubou1.s 			page 12


 319 012e 5205     		lsls	r2, r2, #21	@, _29,
 320 0130 20D4     		bmi	.L17	@,
 295:src/stm32f1xx_hal_adc_ex.c ****     {
 296:src/stm32f1xx_hal_adc_ex.c ****       if (ADC_IS_SOFTWARE_START_INJECTED(hadc)     &&
 321              		.loc 1 296 0
 322 0132 9A68     		ldr	r2, [r3, #8]	@ _31, _15->CR2
 323 0134 02F4E042 		and	r2, r2, #28672	@ tmp150, _31,
 324 0138 B2F5E04F 		cmp	r2, #28672	@ tmp150,
 325 013c 11D1     		bne	.L23	@,
 326              		.loc 1 296 0 is_stmt 0 discriminator 1
 327 013e 0E4A     		ldr	r2, .L28	@ tmp151,
 328 0140 9342     		cmp	r3, r2	@ _15, tmp151
 329 0142 05D1     		bne	.L24	@,
 297:src/stm32f1xx_hal_adc_ex.c ****           ADC_NONMULTIMODE_OR_MULTIMODEMASTER(hadc)  )
 330              		.loc 1 297 0 is_stmt 1 discriminator 2
 331 0144 A2F58062 		sub	r2, r2, #1024	@ tmp152, tmp152,
 332 0148 5268     		ldr	r2, [r2, #4]	@ _33, MEM[(struct ADC_TypeDef *)1073816576B].CR1
 296:src/stm32f1xx_hal_adc_ex.c ****           ADC_NONMULTIMODE_OR_MULTIMODEMASTER(hadc)  )
 333              		.loc 1 296 0 discriminator 2
 334 014a 12F4702F 		tst	r2, #983040	@ _33,
 335 014e 08D1     		bne	.L23	@,
 336              	.L24:
 298:src/stm32f1xx_hal_adc_ex.c ****       {
 299:src/stm32f1xx_hal_adc_ex.c ****         /* Start ADC conversion on injected group with SW start */
 300:src/stm32f1xx_hal_adc_ex.c ****         SET_BIT(hadc->Instance->CR2, (ADC_CR2_JSWSTART | ADC_CR2_JEXTTRIG));
 337              		.loc 1 300 0
 338 0150 9A68     		ldr	r2, [r3, #8]	@ _35, _15->CR2
 339 0152 42F40212 		orr	r2, r2, #2129920	@ _36, _35,
 340              	.L27:
 301:src/stm32f1xx_hal_adc_ex.c ****       }
 302:src/stm32f1xx_hal_adc_ex.c ****       else
 303:src/stm32f1xx_hal_adc_ex.c ****       {
 304:src/stm32f1xx_hal_adc_ex.c ****         /* Start ADC conversion on injected group with external trigger */
 305:src/stm32f1xx_hal_adc_ex.c ****         SET_BIT(hadc->Instance->CR2, ADC_CR2_JEXTTRIG);
 341              		.loc 1 305 0
 342 0156 9A60     		str	r2, [r3, #8]	@ _39,
 343 0158 10BD     		pop	{r4, pc}	@
 344              	.LVL18:
 345              	.L20:
 263:src/stm32f1xx_hal_adc_ex.c ****     }
 346              		.loc 1 263 0
 347 015a A26A     		ldr	r2, [r4, #40]	@ _18,
 348 015c 42F48012 		orr	r2, r2, #1048576	@ _19, _18,
 349 0160 D8E7     		b	.L26	@
 350              	.L23:
 351              		.loc 1 305 0
 352 0162 9A68     		ldr	r2, [r3, #8]	@ _38, _15->CR2
 353 0164 42F40042 		orr	r2, r2, #32768	@ _39, _38,
 354 0168 F5E7     		b	.L27	@
 355              	.L18:
 306:src/stm32f1xx_hal_adc_ex.c ****       }
 307:src/stm32f1xx_hal_adc_ex.c ****     }
 308:src/stm32f1xx_hal_adc_ex.c ****   }
 309:src/stm32f1xx_hal_adc_ex.c ****   else
 310:src/stm32f1xx_hal_adc_ex.c ****   {
 311:src/stm32f1xx_hal_adc_ex.c ****     /* Process unlocked */
 312:src/stm32f1xx_hal_adc_ex.c ****     __HAL_UNLOCK(hadc);
ARM GAS  /tmp/ccHubou1.s 			page 13


 356              		.loc 1 312 0
 357 016a 0023     		movs	r3, #0	@ tmp154,
 358 016c 84F82430 		strb	r3, [r4, #36]	@ tmp154, hadc_6(D)->Lock
 359 0170 10BD     		pop	{r4, pc}	@
 360              	.LVL19:
 361              	.L25:
 240:src/stm32f1xx_hal_adc_ex.c ****     
 362              		.loc 1 240 0
 363 0172 0220     		movs	r0, #2	@ <retval>,
 364              	.LVL20:
 365              	.L17:
 313:src/stm32f1xx_hal_adc_ex.c ****   }
 314:src/stm32f1xx_hal_adc_ex.c ****   
 315:src/stm32f1xx_hal_adc_ex.c ****   /* Return function status */
 316:src/stm32f1xx_hal_adc_ex.c ****   return tmp_hal_status;
 317:src/stm32f1xx_hal_adc_ex.c **** }
 366              		.loc 1 317 0
 367 0174 10BD     		pop	{r4, pc}	@
 368              	.LVL21:
 369              	.L29:
 370 0176 00BF     		.align	2
 371              	.L28:
 372 0178 00280140 		.word	1073817600
 373              		.cfi_endproc
 374              	.LFE66:
 375              		.size	HAL_ADCEx_InjectedStart, .-HAL_ADCEx_InjectedStart
 376              		.align	1
 377              		.global	HAL_ADCEx_InjectedStop
 378              		.syntax unified
 379              		.thumb
 380              		.thumb_func
 381              		.fpu softvfp
 382              		.type	HAL_ADCEx_InjectedStop, %function
 383              	HAL_ADCEx_InjectedStop:
 384              	.LFB67:
 318:src/stm32f1xx_hal_adc_ex.c **** 
 319:src/stm32f1xx_hal_adc_ex.c **** /**
 320:src/stm32f1xx_hal_adc_ex.c ****   * @brief  Stop conversion of injected channels. Disable ADC peripheral if
 321:src/stm32f1xx_hal_adc_ex.c ****   *         no regular conversion is on going.
 322:src/stm32f1xx_hal_adc_ex.c ****   * @note   If ADC must be disabled and if conversion is on going on 
 323:src/stm32f1xx_hal_adc_ex.c ****   *         regular group, function HAL_ADC_Stop must be used to stop both
 324:src/stm32f1xx_hal_adc_ex.c ****   *         injected and regular groups, and disable the ADC.
 325:src/stm32f1xx_hal_adc_ex.c ****   * @note   If injected group mode auto-injection is enabled,
 326:src/stm32f1xx_hal_adc_ex.c ****   *         function HAL_ADC_Stop must be used.
 327:src/stm32f1xx_hal_adc_ex.c ****   * @note   In case of auto-injection mode, HAL_ADC_Stop must be used.
 328:src/stm32f1xx_hal_adc_ex.c ****   * @param  hadc: ADC handle
 329:src/stm32f1xx_hal_adc_ex.c ****   * @retval None
 330:src/stm32f1xx_hal_adc_ex.c ****   */
 331:src/stm32f1xx_hal_adc_ex.c **** HAL_StatusTypeDef HAL_ADCEx_InjectedStop(ADC_HandleTypeDef* hadc)
 332:src/stm32f1xx_hal_adc_ex.c **** {
 385              		.loc 1 332 0
 386              		.cfi_startproc
 387              		@ args = 0, pretend = 0, frame = 0
 388              		@ frame_needed = 0, uses_anonymous_args = 0
 389              	.LVL22:
 333:src/stm32f1xx_hal_adc_ex.c ****   HAL_StatusTypeDef tmp_hal_status = HAL_OK;
 334:src/stm32f1xx_hal_adc_ex.c ****   
ARM GAS  /tmp/ccHubou1.s 			page 14


 335:src/stm32f1xx_hal_adc_ex.c ****   /* Check the parameters */
 336:src/stm32f1xx_hal_adc_ex.c ****   assert_param(IS_ADC_ALL_INSTANCE(hadc->Instance));
 337:src/stm32f1xx_hal_adc_ex.c **** 
 338:src/stm32f1xx_hal_adc_ex.c ****   /* Process locked */
 339:src/stm32f1xx_hal_adc_ex.c ****   __HAL_LOCK(hadc);
 390              		.loc 1 339 0
 391 017c 90F82430 		ldrb	r3, [r0, #36]	@ zero_extendqisi2	@ hadc_6(D)->Lock, hadc_6(D)->Lock
 332:src/stm32f1xx_hal_adc_ex.c ****   HAL_StatusTypeDef tmp_hal_status = HAL_OK;
 392              		.loc 1 332 0
 393 0180 10B5     		push	{r4, lr}	@
 394              	.LCFI4:
 395              		.cfi_def_cfa_offset 8
 396              		.cfi_offset 4, -8
 397              		.cfi_offset 14, -4
 398              		.loc 1 339 0
 399 0182 012B     		cmp	r3, #1	@ hadc_6(D)->Lock,
 332:src/stm32f1xx_hal_adc_ex.c ****   HAL_StatusTypeDef tmp_hal_status = HAL_OK;
 400              		.loc 1 332 0
 401 0184 0446     		mov	r4, r0	@ hadc, hadc
 402              		.loc 1 339 0
 403 0186 1ED0     		beq	.L34	@,
 404              		.loc 1 339 0 is_stmt 0 discriminator 2
 405 0188 0123     		movs	r3, #1	@ tmp124,
 406 018a 80F82430 		strb	r3, [r0, #36]	@ tmp124, hadc_6(D)->Lock
 340:src/stm32f1xx_hal_adc_ex.c ****     
 341:src/stm32f1xx_hal_adc_ex.c ****   /* Stop potential conversion and disable ADC peripheral                     */
 342:src/stm32f1xx_hal_adc_ex.c ****   /* Conditioned to:                                                          */
 343:src/stm32f1xx_hal_adc_ex.c ****   /* - No conversion on the other group (regular group) is intended to        */
 344:src/stm32f1xx_hal_adc_ex.c ****   /*   continue (injected and regular groups stop conversion and ADC disable  */
 345:src/stm32f1xx_hal_adc_ex.c ****   /*   are common)                                                            */
 346:src/stm32f1xx_hal_adc_ex.c ****   /* - In case of auto-injection mode, HAL_ADC_Stop must be used.             */
 347:src/stm32f1xx_hal_adc_ex.c ****   if(((hadc->State & HAL_ADC_STATE_REG_BUSY) == RESET)  &&
 407              		.loc 1 347 0 is_stmt 1 discriminator 2
 408 018e 836A     		ldr	r3, [r0, #40]	@ _9, hadc_6(D)->State
 409 0190 DA05     		lsls	r2, r3, #23	@, _9,
 410 0192 12D4     		bmi	.L32	@,
 348:src/stm32f1xx_hal_adc_ex.c ****      HAL_IS_BIT_CLR(hadc->Instance->CR1, ADC_CR1_JAUTO)   )
 411              		.loc 1 348 0 discriminator 1
 412 0194 0368     		ldr	r3, [r0]	@ _11, hadc_6(D)->Instance
 413 0196 5B68     		ldr	r3, [r3, #4]	@ _12, _11->CR1
 347:src/stm32f1xx_hal_adc_ex.c ****      HAL_IS_BIT_CLR(hadc->Instance->CR1, ADC_CR1_JAUTO)   )
 414              		.loc 1 347 0 discriminator 1
 415 0198 5B05     		lsls	r3, r3, #21	@, _12,
 416 019a 0ED4     		bmi	.L32	@,
 349:src/stm32f1xx_hal_adc_ex.c ****   {
 350:src/stm32f1xx_hal_adc_ex.c ****     /* Stop potential conversion on going, on regular and injected groups */
 351:src/stm32f1xx_hal_adc_ex.c ****     /* Disable ADC peripheral */
 352:src/stm32f1xx_hal_adc_ex.c ****     tmp_hal_status = ADC_ConversionStop_Disable(hadc);
 417              		.loc 1 352 0
 418 019c FFF7FEFF 		bl	ADC_ConversionStop_Disable	@
 419              	.LVL23:
 353:src/stm32f1xx_hal_adc_ex.c ****     
 354:src/stm32f1xx_hal_adc_ex.c ****     /* Check if ADC is effectively disabled */
 355:src/stm32f1xx_hal_adc_ex.c ****     if (tmp_hal_status == HAL_OK)
 420              		.loc 1 355 0
 421 01a0 38B9     		cbnz	r0, .L33	@ <retval>,
 356:src/stm32f1xx_hal_adc_ex.c ****     {
ARM GAS  /tmp/ccHubou1.s 			page 15


 357:src/stm32f1xx_hal_adc_ex.c ****       /* Set ADC state */
 358:src/stm32f1xx_hal_adc_ex.c ****       ADC_STATE_CLR_SET(hadc->State,
 422              		.loc 1 358 0
 423 01a2 A36A     		ldr	r3, [r4, #40]	@ _16, hadc_6(D)->State
 424 01a4 23F48853 		bic	r3, r3, #4352	@ tmp129, _16,
 425 01a8 23F00103 		bic	r3, r3, #1	@ tmp129, tmp129,
 426 01ac 43F00103 		orr	r3, r3, #1	@ _18, tmp129,
 427 01b0 A362     		str	r3, [r4, #40]	@ _18, hadc_6(D)->State
 428              	.LVL24:
 429              	.L33:
 359:src/stm32f1xx_hal_adc_ex.c ****                         HAL_ADC_STATE_REG_BUSY | HAL_ADC_STATE_INJ_BUSY,
 360:src/stm32f1xx_hal_adc_ex.c ****                         HAL_ADC_STATE_READY);
 361:src/stm32f1xx_hal_adc_ex.c ****     }
 362:src/stm32f1xx_hal_adc_ex.c ****   }
 363:src/stm32f1xx_hal_adc_ex.c ****   else
 364:src/stm32f1xx_hal_adc_ex.c ****   {
 365:src/stm32f1xx_hal_adc_ex.c ****     /* Update ADC state machine to error */
 366:src/stm32f1xx_hal_adc_ex.c ****     SET_BIT(hadc->State, HAL_ADC_STATE_ERROR_CONFIG);
 367:src/stm32f1xx_hal_adc_ex.c ****       
 368:src/stm32f1xx_hal_adc_ex.c ****     tmp_hal_status = HAL_ERROR;
 369:src/stm32f1xx_hal_adc_ex.c ****   }
 370:src/stm32f1xx_hal_adc_ex.c ****   
 371:src/stm32f1xx_hal_adc_ex.c ****   /* Process unlocked */
 372:src/stm32f1xx_hal_adc_ex.c ****   __HAL_UNLOCK(hadc);
 430              		.loc 1 372 0
 431 01b2 0023     		movs	r3, #0	@ tmp131,
 432 01b4 84F82430 		strb	r3, [r4, #36]	@ tmp131, hadc_6(D)->Lock
 373:src/stm32f1xx_hal_adc_ex.c ****   
 374:src/stm32f1xx_hal_adc_ex.c ****   /* Return function status */
 375:src/stm32f1xx_hal_adc_ex.c ****   return tmp_hal_status;
 433              		.loc 1 375 0
 434 01b8 10BD     		pop	{r4, pc}	@
 435              	.LVL25:
 436              	.L32:
 366:src/stm32f1xx_hal_adc_ex.c ****       
 437              		.loc 1 366 0
 438 01ba A36A     		ldr	r3, [r4, #40]	@ _20, hadc_6(D)->State
 368:src/stm32f1xx_hal_adc_ex.c ****   }
 439              		.loc 1 368 0
 440 01bc 0120     		movs	r0, #1	@ <retval>,
 441              	.LVL26:
 366:src/stm32f1xx_hal_adc_ex.c ****       
 442              		.loc 1 366 0
 443 01be 43F02003 		orr	r3, r3, #32	@ _21, _20,
 444 01c2 A362     		str	r3, [r4, #40]	@ _21, hadc_6(D)->State
 445              	.LVL27:
 446 01c4 F5E7     		b	.L33	@
 447              	.LVL28:
 448              	.L34:
 339:src/stm32f1xx_hal_adc_ex.c ****     
 449              		.loc 1 339 0
 450 01c6 0220     		movs	r0, #2	@ <retval>,
 451              	.LVL29:
 376:src/stm32f1xx_hal_adc_ex.c **** }
 452              		.loc 1 376 0
 453 01c8 10BD     		pop	{r4, pc}	@
 454              		.cfi_endproc
ARM GAS  /tmp/ccHubou1.s 			page 16


 455              	.LFE67:
 456              		.size	HAL_ADCEx_InjectedStop, .-HAL_ADCEx_InjectedStop
 457              		.align	1
 458              		.global	HAL_ADCEx_InjectedPollForConversion
 459              		.syntax unified
 460              		.thumb
 461              		.thumb_func
 462              		.fpu softvfp
 463              		.type	HAL_ADCEx_InjectedPollForConversion, %function
 464              	HAL_ADCEx_InjectedPollForConversion:
 465              	.LFB68:
 377:src/stm32f1xx_hal_adc_ex.c **** 
 378:src/stm32f1xx_hal_adc_ex.c **** /**
 379:src/stm32f1xx_hal_adc_ex.c ****   * @brief  Wait for injected group conversion to be completed.
 380:src/stm32f1xx_hal_adc_ex.c ****   * @param  hadc: ADC handle
 381:src/stm32f1xx_hal_adc_ex.c ****   * @param  Timeout: Timeout value in millisecond.
 382:src/stm32f1xx_hal_adc_ex.c ****   * @retval HAL status
 383:src/stm32f1xx_hal_adc_ex.c ****   */
 384:src/stm32f1xx_hal_adc_ex.c **** HAL_StatusTypeDef HAL_ADCEx_InjectedPollForConversion(ADC_HandleTypeDef* hadc, uint32_t Timeout)
 385:src/stm32f1xx_hal_adc_ex.c **** {
 466              		.loc 1 385 0
 467              		.cfi_startproc
 468              		@ args = 0, pretend = 0, frame = 8
 469              		@ frame_needed = 0, uses_anonymous_args = 0
 470              	.LVL30:
 386:src/stm32f1xx_hal_adc_ex.c ****   uint32_t tickstart;
 387:src/stm32f1xx_hal_adc_ex.c **** 
 388:src/stm32f1xx_hal_adc_ex.c ****   /* Variables for polling in case of scan mode enabled and polling for each  */
 389:src/stm32f1xx_hal_adc_ex.c ****   /* conversion.                                                              */
 390:src/stm32f1xx_hal_adc_ex.c ****   __IO uint32_t Conversion_Timeout_CPU_cycles = 0U;
 471              		.loc 1 390 0
 472 01ca 0023     		movs	r3, #0	@ tmp169,
 385:src/stm32f1xx_hal_adc_ex.c ****   uint32_t tickstart;
 473              		.loc 1 385 0
 474 01cc F7B5     		push	{r0, r1, r2, r4, r5, r6, r7, lr}	@
 475              	.LCFI5:
 476              		.cfi_def_cfa_offset 32
 477              		.cfi_offset 4, -20
 478              		.cfi_offset 5, -16
 479              		.cfi_offset 6, -12
 480              		.cfi_offset 7, -8
 481              		.cfi_offset 14, -4
 385:src/stm32f1xx_hal_adc_ex.c ****   uint32_t tickstart;
 482              		.loc 1 385 0
 483 01ce 0446     		mov	r4, r0	@ hadc, hadc
 484              		.loc 1 390 0
 485 01d0 0193     		str	r3, [sp, #4]	@ tmp169, Conversion_Timeout_CPU_cycles
 486              	.LVL31:
 385:src/stm32f1xx_hal_adc_ex.c ****   uint32_t tickstart;
 487              		.loc 1 385 0
 488 01d2 0D46     		mov	r5, r1	@ Timeout, Timeout
 391:src/stm32f1xx_hal_adc_ex.c ****   uint32_t Conversion_Timeout_CPU_cycles_max = 0U;
 392:src/stm32f1xx_hal_adc_ex.c ****   
 393:src/stm32f1xx_hal_adc_ex.c ****   /* Check the parameters */
 394:src/stm32f1xx_hal_adc_ex.c ****   assert_param(IS_ADC_ALL_INSTANCE(hadc->Instance));
 395:src/stm32f1xx_hal_adc_ex.c **** 
 396:src/stm32f1xx_hal_adc_ex.c ****   /* Get timeout */
ARM GAS  /tmp/ccHubou1.s 			page 17


 397:src/stm32f1xx_hal_adc_ex.c ****   tickstart = HAL_GetTick();  
 489              		.loc 1 397 0
 490 01d4 FFF7FEFF 		bl	HAL_GetTick	@
 491              	.LVL32:
 398:src/stm32f1xx_hal_adc_ex.c ****      
 399:src/stm32f1xx_hal_adc_ex.c ****   /* Polling for end of conversion: differentiation if single/sequence        */
 400:src/stm32f1xx_hal_adc_ex.c ****   /* conversion.                                                              */
 401:src/stm32f1xx_hal_adc_ex.c ****   /* For injected group, flag JEOC is set only at the end of the sequence,    */
 402:src/stm32f1xx_hal_adc_ex.c ****   /* not for each conversion within the sequence.                             */
 403:src/stm32f1xx_hal_adc_ex.c ****   /*  - If single conversion for injected group (scan mode disabled or        */
 404:src/stm32f1xx_hal_adc_ex.c ****   /*    InjectedNbrOfConversion ==1), flag JEOC is used to determine the      */
 405:src/stm32f1xx_hal_adc_ex.c ****   /*    conversion completion.                                                */
 406:src/stm32f1xx_hal_adc_ex.c ****   /*  - If sequence conversion for injected group (scan mode enabled and      */
 407:src/stm32f1xx_hal_adc_ex.c ****   /*    InjectedNbrOfConversion >=2), flag JEOC is set only at the end of the */
 408:src/stm32f1xx_hal_adc_ex.c ****   /*    sequence.                                                             */
 409:src/stm32f1xx_hal_adc_ex.c ****   /*    To poll for each conversion, the maximum conversion time is computed  */
 410:src/stm32f1xx_hal_adc_ex.c ****   /*    from ADC conversion time (selected sampling time + conversion time of */
 411:src/stm32f1xx_hal_adc_ex.c ****   /*    12.5 ADC clock cycles) and APB2/ADC clock prescalers (depending on    */
 412:src/stm32f1xx_hal_adc_ex.c ****   /*    settings, conversion time range can be from 28 to 32256 CPU cycles).  */
 413:src/stm32f1xx_hal_adc_ex.c ****   /*    As flag JEOC is not set after each conversion, no timeout status can  */
 414:src/stm32f1xx_hal_adc_ex.c ****   /*    be set.                                                               */
 415:src/stm32f1xx_hal_adc_ex.c ****   if ((hadc->Instance->JSQR & ADC_JSQR_JL) == RESET)
 492              		.loc 1 415 0
 493 01d8 2368     		ldr	r3, [r4]	@ _17, hadc_16(D)->Instance
 397:src/stm32f1xx_hal_adc_ex.c ****      
 494              		.loc 1 397 0
 495 01da 0746     		mov	r7, r0	@ tickstart,
 496              	.LVL33:
 497              		.loc 1 415 0
 498 01dc 9B6B     		ldr	r3, [r3, #56]	@ _18, _17->JSQR
 499 01de 13F4401F 		tst	r3, #3145728	@ _18,
 500 01e2 3CD0     		beq	.L36	@,
 416:src/stm32f1xx_hal_adc_ex.c ****   {
 417:src/stm32f1xx_hal_adc_ex.c ****     /* Wait until End of Conversion flag is raised */
 418:src/stm32f1xx_hal_adc_ex.c ****     while(HAL_IS_BIT_CLR(hadc->Instance->SR, ADC_FLAG_JEOC))
 419:src/stm32f1xx_hal_adc_ex.c ****     {
 420:src/stm32f1xx_hal_adc_ex.c ****       /* Check if timeout is disabled (set to infinite wait) */
 421:src/stm32f1xx_hal_adc_ex.c ****       if(Timeout != HAL_MAX_DELAY)
 422:src/stm32f1xx_hal_adc_ex.c ****       {
 423:src/stm32f1xx_hal_adc_ex.c ****         if((Timeout == 0U) || ((HAL_GetTick() - tickstart ) > Timeout))
 424:src/stm32f1xx_hal_adc_ex.c ****         {
 425:src/stm32f1xx_hal_adc_ex.c ****           /* Update ADC state machine to timeout */
 426:src/stm32f1xx_hal_adc_ex.c ****           SET_BIT(hadc->State, HAL_ADC_STATE_TIMEOUT);
 427:src/stm32f1xx_hal_adc_ex.c ****           
 428:src/stm32f1xx_hal_adc_ex.c ****           /* Process unlocked */
 429:src/stm32f1xx_hal_adc_ex.c ****           __HAL_UNLOCK(hadc);
 430:src/stm32f1xx_hal_adc_ex.c ****           
 431:src/stm32f1xx_hal_adc_ex.c ****           return HAL_TIMEOUT;
 432:src/stm32f1xx_hal_adc_ex.c ****         }
 433:src/stm32f1xx_hal_adc_ex.c ****       }
 434:src/stm32f1xx_hal_adc_ex.c ****     }
 435:src/stm32f1xx_hal_adc_ex.c ****   }
 436:src/stm32f1xx_hal_adc_ex.c ****   else
 437:src/stm32f1xx_hal_adc_ex.c ****   {
 438:src/stm32f1xx_hal_adc_ex.c ****     /* Replace polling by wait for maximum conversion time */
 439:src/stm32f1xx_hal_adc_ex.c ****     /*  - Computation of CPU clock cycles corresponding to ADC clock cycles   */
 440:src/stm32f1xx_hal_adc_ex.c ****     /*    and ADC maximum conversion cycles on all channels.                  */
ARM GAS  /tmp/ccHubou1.s 			page 18


 441:src/stm32f1xx_hal_adc_ex.c ****     /*  - Wait for the expected ADC clock cycles delay                        */
 442:src/stm32f1xx_hal_adc_ex.c ****     Conversion_Timeout_CPU_cycles_max = ((SystemCoreClock
 443:src/stm32f1xx_hal_adc_ex.c ****                                           / HAL_RCCEx_GetPeriphCLKFreq(RCC_PERIPHCLK_ADC))
 501              		.loc 1 443 0
 502 01e4 404B     		ldr	r3, .L73	@ tmp177,
 503 01e6 0220     		movs	r0, #2	@,
 504              	.LVL34:
 505 01e8 1E68     		ldr	r6, [r3]	@ SystemCoreClock.5_31, SystemCoreClock
 506 01ea FFF7FEFF 		bl	HAL_RCCEx_GetPeriphCLKFreq	@
 507              	.LVL35:
 444:src/stm32f1xx_hal_adc_ex.c ****                                          * ADC_CONVCYCLES_MAX_RANGE(hadc)                 );
 508              		.loc 1 444 0
 509 01ee 2368     		ldr	r3, [r4]	@ _35, hadc_16(D)->Instance
 510 01f0 3E4A     		ldr	r2, .L73+4	@ tmp178,
 511 01f2 1969     		ldr	r1, [r3, #16]	@ _36, _35->SMPR2
 443:src/stm32f1xx_hal_adc_ex.c ****                                          * ADC_CONVCYCLES_MAX_RANGE(hadc)                 );
 512              		.loc 1 443 0
 513 01f4 B6FBF0F0 		udiv	r0, r6, r0	@ _34, SystemCoreClock.5_31,
 514              		.loc 1 444 0
 515 01f8 1142     		tst	r1, r2	@ _36, tmp178
 516 01fa 3D4A     		ldr	r2, .L73+8	@ tmp202,
 517 01fc 4ED1     		bne	.L45	@,
 518              		.loc 1 444 0 is_stmt 0 discriminator 1
 519 01fe DE68     		ldr	r6, [r3, #12]	@ _38, _35->SMPR1
 520 0200 3C49     		ldr	r1, .L73+12	@ tmp180,
 521 0202 0E42     		tst	r6, r1	@ _38, tmp180
 522 0204 4AD1     		bne	.L45	@,
 523              		.loc 1 444 0 discriminator 3
 524 0206 1969     		ldr	r1, [r3, #16]	@ _40,
 525 0208 1142     		tst	r1, r2	@ _40, tmp202
 526 020a 58D1     		bne	.L56	@,
 527              		.loc 1 444 0 discriminator 5
 528 020c DA68     		ldr	r2, [r3, #12]	@ _42, _35->SMPR1
 529 020e 3A4B     		ldr	r3, .L73+16	@ tmp184,
 530 0210 1A42     		tst	r2, r3	@ _42, tmp184
 531 0212 14BF     		ite	ne
 532 0214 2923     		movne	r3, #41	@ iftmp.6_2,
 533 0216 1423     		moveq	r3, #20	@ iftmp.6_2,
 534              	.L46:
 442:src/stm32f1xx_hal_adc_ex.c ****                                           / HAL_RCCEx_GetPeriphCLKFreq(RCC_PERIPHCLK_ADC))
 535              		.loc 1 442 0 is_stmt 1
 536 0218 00FB03F6 		mul	r6, r0, r3	@ Conversion_Timeout_CPU_cycles_max, _34, iftmp.6_2
 537              	.LVL36:
 538              	.L48:
 445:src/stm32f1xx_hal_adc_ex.c ****     
 446:src/stm32f1xx_hal_adc_ex.c ****     while(Conversion_Timeout_CPU_cycles < Conversion_Timeout_CPU_cycles_max)
 539              		.loc 1 446 0
 540 021c 019B     		ldr	r3, [sp, #4]	@ Conversion_Timeout_CPU_cycles.11_53, Conversion_Timeout_CPU_cycles
 541 021e 9E42     		cmp	r6, r3	@ Conversion_Timeout_CPU_cycles_max, Conversion_Timeout_CPU_cycles.11_53
 542 0220 21D9     		bls	.L53	@,
 447:src/stm32f1xx_hal_adc_ex.c ****     {
 448:src/stm32f1xx_hal_adc_ex.c ****       /* Check if timeout is disabled (set to infinite wait) */
 449:src/stm32f1xx_hal_adc_ex.c ****       if(Timeout != HAL_MAX_DELAY)
 543              		.loc 1 449 0
 544 0222 691C     		adds	r1, r5, #1	@, Timeout,
 545 0224 05D0     		beq	.L49	@,
 450:src/stm32f1xx_hal_adc_ex.c ****       {
ARM GAS  /tmp/ccHubou1.s 			page 19


 451:src/stm32f1xx_hal_adc_ex.c ****         if((Timeout == 0)||((HAL_GetTick() - tickstart ) > Timeout))
 546              		.loc 1 451 0
 547 0226 5DB1     		cbz	r5, .L51	@ Timeout,
 548              		.loc 1 451 0 is_stmt 0 discriminator 1
 549 0228 FFF7FEFF 		bl	HAL_GetTick	@
 550              	.LVL37:
 551 022c C01B     		subs	r0, r0, r7	@ tmp196,, tickstart
 552 022e 8542     		cmp	r5, r0	@ Timeout, tmp196
 553 0230 06D3     		bcc	.L51	@,
 554              	.L49:
 452:src/stm32f1xx_hal_adc_ex.c ****         {
 453:src/stm32f1xx_hal_adc_ex.c ****           /* Update ADC state machine to timeout */
 454:src/stm32f1xx_hal_adc_ex.c ****           SET_BIT(hadc->State, HAL_ADC_STATE_TIMEOUT);
 455:src/stm32f1xx_hal_adc_ex.c **** 
 456:src/stm32f1xx_hal_adc_ex.c ****           /* Process unlocked */
 457:src/stm32f1xx_hal_adc_ex.c ****           __HAL_UNLOCK(hadc);
 458:src/stm32f1xx_hal_adc_ex.c ****           
 459:src/stm32f1xx_hal_adc_ex.c ****           return HAL_TIMEOUT;
 460:src/stm32f1xx_hal_adc_ex.c ****         }
 461:src/stm32f1xx_hal_adc_ex.c ****       }
 462:src/stm32f1xx_hal_adc_ex.c ****       Conversion_Timeout_CPU_cycles ++;
 555              		.loc 1 462 0 is_stmt 1
 556 0232 019B     		ldr	r3, [sp, #4]	@ Conversion_Timeout_CPU_cycles.9_54, Conversion_Timeout_CPU_cycles
 557 0234 0133     		adds	r3, r3, #1	@ Conversion_Timeout_CPU_cycles.10_55, Conversion_Timeout_CPU_cycles.9_54,
 558 0236 0193     		str	r3, [sp, #4]	@ Conversion_Timeout_CPU_cycles.10_55, Conversion_Timeout_CPU_cycles
 559 0238 F0E7     		b	.L48	@
 560              	.LVL38:
 561              	.L42:
 421:src/stm32f1xx_hal_adc_ex.c ****       {
 562              		.loc 1 421 0
 563 023a 6E1C     		adds	r6, r5, #1	@, Timeout,
 564 023c 10D0     		beq	.L38	@,
 423:src/stm32f1xx_hal_adc_ex.c ****         {
 565              		.loc 1 423 0
 566 023e 4DB9     		cbnz	r5, .L39	@ Timeout,
 567              	.LVL39:
 568              	.L51:
 454:src/stm32f1xx_hal_adc_ex.c **** 
 569              		.loc 1 454 0
 570 0240 A36A     		ldr	r3, [r4, #40]	@ _60,
 459:src/stm32f1xx_hal_adc_ex.c ****         }
 571              		.loc 1 459 0
 572 0242 0320     		movs	r0, #3	@ <retval>,
 454:src/stm32f1xx_hal_adc_ex.c **** 
 573              		.loc 1 454 0
 574 0244 43F00403 		orr	r3, r3, #4	@ _61, _60,
 575 0248 A362     		str	r3, [r4, #40]	@ _61,
 457:src/stm32f1xx_hal_adc_ex.c ****           
 576              		.loc 1 457 0
 577 024a 0023     		movs	r3, #0	@ tmp194,
 578 024c 84F82430 		strb	r3, [r4, #36]	@ tmp194, hadc_16(D)->Lock
 579              	.L40:
 463:src/stm32f1xx_hal_adc_ex.c ****     }
 464:src/stm32f1xx_hal_adc_ex.c ****   }
 465:src/stm32f1xx_hal_adc_ex.c **** 
 466:src/stm32f1xx_hal_adc_ex.c ****   /* Clear injected group conversion flag */
 467:src/stm32f1xx_hal_adc_ex.c ****   /* Note: On STM32F1 ADC, clear regular conversion flag raised               */
ARM GAS  /tmp/ccHubou1.s 			page 20


 468:src/stm32f1xx_hal_adc_ex.c ****   /* simultaneously.                                                          */
 469:src/stm32f1xx_hal_adc_ex.c ****   __HAL_ADC_CLEAR_FLAG(hadc, ADC_FLAG_JSTRT | ADC_FLAG_JEOC | ADC_FLAG_EOC);
 470:src/stm32f1xx_hal_adc_ex.c ****   
 471:src/stm32f1xx_hal_adc_ex.c ****   /* Update ADC state machine */
 472:src/stm32f1xx_hal_adc_ex.c ****   SET_BIT(hadc->State, HAL_ADC_STATE_INJ_EOC);
 473:src/stm32f1xx_hal_adc_ex.c ****   
 474:src/stm32f1xx_hal_adc_ex.c ****   /* Determine whether any further conversion upcoming on group injected      */
 475:src/stm32f1xx_hal_adc_ex.c ****   /* by external trigger or by automatic injected conversion                  */
 476:src/stm32f1xx_hal_adc_ex.c ****   /* from group regular.                                                      */
 477:src/stm32f1xx_hal_adc_ex.c ****   if(ADC_IS_SOFTWARE_START_INJECTED(hadc)                     || 
 478:src/stm32f1xx_hal_adc_ex.c ****      (HAL_IS_BIT_CLR(hadc->Instance->CR1, ADC_CR1_JAUTO) &&     
 479:src/stm32f1xx_hal_adc_ex.c ****      (ADC_IS_SOFTWARE_START_REGULAR(hadc)        &&
 480:src/stm32f1xx_hal_adc_ex.c ****       (hadc->Init.ContinuousConvMode == DISABLE)   )        )   )
 481:src/stm32f1xx_hal_adc_ex.c ****   {
 482:src/stm32f1xx_hal_adc_ex.c ****     /* Set ADC state */
 483:src/stm32f1xx_hal_adc_ex.c ****     CLEAR_BIT(hadc->State, HAL_ADC_STATE_INJ_BUSY);   
 484:src/stm32f1xx_hal_adc_ex.c ****     
 485:src/stm32f1xx_hal_adc_ex.c ****     if (HAL_IS_BIT_CLR(hadc->State, HAL_ADC_STATE_REG_BUSY))
 486:src/stm32f1xx_hal_adc_ex.c ****     {
 487:src/stm32f1xx_hal_adc_ex.c ****       SET_BIT(hadc->State, HAL_ADC_STATE_READY);
 488:src/stm32f1xx_hal_adc_ex.c ****     }
 489:src/stm32f1xx_hal_adc_ex.c ****   }
 490:src/stm32f1xx_hal_adc_ex.c ****   
 491:src/stm32f1xx_hal_adc_ex.c ****   /* Return ADC state */
 492:src/stm32f1xx_hal_adc_ex.c ****   return HAL_OK;
 493:src/stm32f1xx_hal_adc_ex.c **** }
 580              		.loc 1 493 0
 581 0250 03B0     		add	sp, sp, #12	@,,
 582              	.LCFI6:
 583              		.cfi_remember_state
 584              		.cfi_def_cfa_offset 20
 585              		@ sp needed	@
 586 0252 F0BD     		pop	{r4, r5, r6, r7, pc}	@
 587              	.LVL40:
 588              	.L39:
 589              	.LCFI7:
 590              		.cfi_restore_state
 423:src/stm32f1xx_hal_adc_ex.c ****         {
 591              		.loc 1 423 0 discriminator 1
 592 0254 FFF7FEFF 		bl	HAL_GetTick	@
 593              	.LVL41:
 594 0258 C01B     		subs	r0, r0, r7	@ tmp173,, tickstart
 595 025a 8542     		cmp	r5, r0	@ Timeout, tmp173
 596 025c F0D3     		bcc	.L51	@,
 597              	.L36:
 418:src/stm32f1xx_hal_adc_ex.c ****     {
 598              		.loc 1 418 0
 599 025e 2268     		ldr	r2, [r4]	@ _20, hadc_16(D)->Instance
 600              	.L38:
 601 0260 1368     		ldr	r3, [r2]	@ _21, _20->SR
 602 0262 5807     		lsls	r0, r3, #29	@, _21,
 603 0264 E9D5     		bpl	.L42	@,
 604              	.LVL42:
 605              	.L53:
 469:src/stm32f1xx_hal_adc_ex.c ****   
 606              		.loc 1 469 0
 607 0266 6FF00E02 		mvn	r2, #14	@ tmp175,
ARM GAS  /tmp/ccHubou1.s 			page 21


 608 026a 2368     		ldr	r3, [r4]	@ _64, hadc_16(D)->Instance
 609 026c 1A60     		str	r2, [r3]	@ tmp175, _64->SR
 472:src/stm32f1xx_hal_adc_ex.c ****   
 610              		.loc 1 472 0
 611 026e A26A     		ldr	r2, [r4, #40]	@ _66, hadc_16(D)->State
 612 0270 42F40052 		orr	r2, r2, #8192	@ _67, _66,
 613 0274 A262     		str	r2, [r4, #40]	@ _67, hadc_16(D)->State
 477:src/stm32f1xx_hal_adc_ex.c ****      (HAL_IS_BIT_CLR(hadc->Instance->CR1, ADC_CR1_JAUTO) &&     
 614              		.loc 1 477 0
 615 0276 9A68     		ldr	r2, [r3, #8]	@ _69, _64->CR2
 616 0278 02F4E042 		and	r2, r2, #28672	@ tmp176, _69,
 617 027c B2F5E04F 		cmp	r2, #28672	@ tmp176,
 618 0280 23D1     		bne	.L72	@,
 619              	.L43:
 483:src/stm32f1xx_hal_adc_ex.c ****     
 620              		.loc 1 483 0
 621 0282 A36A     		ldr	r3, [r4, #40]	@ _76, hadc_16(D)->State
 622 0284 23F48053 		bic	r3, r3, #4096	@ _77, _76,
 623 0288 A362     		str	r3, [r4, #40]	@ _77, hadc_16(D)->State
 485:src/stm32f1xx_hal_adc_ex.c ****     {
 624              		.loc 1 485 0
 625 028a A06A     		ldr	r0, [r4, #40]	@ _79, hadc_16(D)->State
 626 028c 10F48070 		ands	r0, r0, #256	@ tmp200, _79,
 627 0290 1ED1     		bne	.L55	@,
 487:src/stm32f1xx_hal_adc_ex.c ****     }
 628              		.loc 1 487 0
 629 0292 A36A     		ldr	r3, [r4, #40]	@ _81, hadc_16(D)->State
 630 0294 43F00103 		orr	r3, r3, #1	@ _82, _81,
 631 0298 A362     		str	r3, [r4, #40]	@ _82, hadc_16(D)->State
 632 029a D9E7     		b	.L40	@
 633              	.LVL43:
 634              	.L45:
 444:src/stm32f1xx_hal_adc_ex.c ****     
 635              		.loc 1 444 0 discriminator 4
 636 029c 1969     		ldr	r1, [r3, #16]	@ _44,
 637 029e 1142     		tst	r1, r2	@ _44, tmp202
 638 02a0 03D1     		bne	.L47	@,
 444:src/stm32f1xx_hal_adc_ex.c ****     
 639              		.loc 1 444 0 is_stmt 0 discriminator 11
 640 02a2 D968     		ldr	r1, [r3, #12]	@ _46, _35->SMPR1
 641 02a4 144A     		ldr	r2, .L73+16	@ tmp188,
 642 02a6 1142     		tst	r1, r2	@ _46, tmp188
 643 02a8 0BD0     		beq	.L58	@,
 644              	.L47:
 444:src/stm32f1xx_hal_adc_ex.c ****     
 645              		.loc 1 444 0 discriminator 14
 646 02aa 1969     		ldr	r1, [r3, #16]	@ _48, _35->SMPR2
 647 02ac 134A     		ldr	r2, .L73+20	@ tmp190,
 648 02ae 1142     		tst	r1, r2	@ _48, tmp190
 649 02b0 09D1     		bne	.L59	@,
 444:src/stm32f1xx_hal_adc_ex.c ****     
 650              		.loc 1 444 0 discriminator 15
 651 02b2 DB68     		ldr	r3, [r3, #12]	@ _50, _35->SMPR1
 652 02b4 1342     		tst	r3, r2	@ _50, tmp190
 653 02b6 14BF     		ite	ne
 654 02b8 FC23     		movne	r3, #252	@ iftmp.6_2,
 655 02ba 5423     		moveq	r3, #84	@ iftmp.6_2,
ARM GAS  /tmp/ccHubou1.s 			page 22


 656 02bc ACE7     		b	.L46	@
 657              	.L56:
 444:src/stm32f1xx_hal_adc_ex.c ****     
 658              		.loc 1 444 0
 659 02be 2923     		movs	r3, #41	@ iftmp.6_2,
 660 02c0 AAE7     		b	.L46	@
 661              	.L58:
 662 02c2 5423     		movs	r3, #84	@ iftmp.6_2,
 663 02c4 A8E7     		b	.L46	@
 664              	.L59:
 665 02c6 FC23     		movs	r3, #252	@ iftmp.6_2,
 666 02c8 A6E7     		b	.L46	@
 667              	.LVL44:
 668              	.L72:
 478:src/stm32f1xx_hal_adc_ex.c ****      (ADC_IS_SOFTWARE_START_REGULAR(hadc)        &&
 669              		.loc 1 478 0 is_stmt 1 discriminator 1
 670 02ca 5A68     		ldr	r2, [r3, #4]	@ _71, _64->CR1
 477:src/stm32f1xx_hal_adc_ex.c ****      (HAL_IS_BIT_CLR(hadc->Instance->CR1, ADC_CR1_JAUTO) &&     
 671              		.loc 1 477 0 discriminator 1
 672 02cc 5205     		lsls	r2, r2, #21	@, _71,
 673 02ce 01D5     		bpl	.L54	@,
 674              	.L55:
 492:src/stm32f1xx_hal_adc_ex.c **** }
 675              		.loc 1 492 0
 676 02d0 0020     		movs	r0, #0	@ <retval>,
 677 02d2 BDE7     		b	.L40	@
 678              	.L54:
 479:src/stm32f1xx_hal_adc_ex.c ****       (hadc->Init.ContinuousConvMode == DISABLE)   )        )   )
 679              		.loc 1 479 0
 680 02d4 9B68     		ldr	r3, [r3, #8]	@ _73, _64->CR2
 681 02d6 03F46023 		and	r3, r3, #917504	@ tmp198, _73,
 478:src/stm32f1xx_hal_adc_ex.c ****      (ADC_IS_SOFTWARE_START_REGULAR(hadc)        &&
 682              		.loc 1 478 0
 683 02da B3F5602F 		cmp	r3, #917504	@ tmp198,
 684 02de F7D1     		bne	.L55	@,
 479:src/stm32f1xx_hal_adc_ex.c ****       (hadc->Init.ContinuousConvMode == DISABLE)   )        )   )
 685              		.loc 1 479 0
 686 02e0 237B     		ldrb	r3, [r4, #12]	@ zero_extendqisi2	@ hadc_16(D)->Init.ContinuousConvMode, hadc_16(D)->Init.Cont
 687 02e2 002B     		cmp	r3, #0	@ hadc_16(D)->Init.ContinuousConvMode
 688 02e4 CDD0     		beq	.L43	@
 689 02e6 F3E7     		b	.L55	@
 690              	.L74:
 691              		.align	2
 692              	.L73:
 693 02e8 00000000 		.word	SystemCoreClock
 694 02ec 24499224 		.word	613566756
 695 02f0 92244912 		.word	306783378
 696 02f4 24499200 		.word	9586980
 697 02f8 92244900 		.word	4793490
 698 02fc 49922400 		.word	2396745
 699              		.cfi_endproc
 700              	.LFE68:
 701              		.size	HAL_ADCEx_InjectedPollForConversion, .-HAL_ADCEx_InjectedPollForConversion
 702              		.align	1
 703              		.global	HAL_ADCEx_InjectedStart_IT
 704              		.syntax unified
 705              		.thumb
ARM GAS  /tmp/ccHubou1.s 			page 23


 706              		.thumb_func
 707              		.fpu softvfp
 708              		.type	HAL_ADCEx_InjectedStart_IT, %function
 709              	HAL_ADCEx_InjectedStart_IT:
 710              	.LFB69:
 494:src/stm32f1xx_hal_adc_ex.c **** 
 495:src/stm32f1xx_hal_adc_ex.c **** /**
 496:src/stm32f1xx_hal_adc_ex.c ****   * @brief  Enables ADC, starts conversion of injected group with interruption.
 497:src/stm32f1xx_hal_adc_ex.c ****   *          - JEOC (end of conversion of injected group)
 498:src/stm32f1xx_hal_adc_ex.c ****   *         Each of these interruptions has its dedicated callback function.
 499:src/stm32f1xx_hal_adc_ex.c ****   * @param  hadc: ADC handle
 500:src/stm32f1xx_hal_adc_ex.c ****   * @retval HAL status.
 501:src/stm32f1xx_hal_adc_ex.c ****   */
 502:src/stm32f1xx_hal_adc_ex.c **** HAL_StatusTypeDef HAL_ADCEx_InjectedStart_IT(ADC_HandleTypeDef* hadc)
 503:src/stm32f1xx_hal_adc_ex.c **** {
 711              		.loc 1 503 0
 712              		.cfi_startproc
 713              		@ args = 0, pretend = 0, frame = 0
 714              		@ frame_needed = 0, uses_anonymous_args = 0
 715              	.LVL45:
 504:src/stm32f1xx_hal_adc_ex.c ****   HAL_StatusTypeDef tmp_hal_status = HAL_OK;
 505:src/stm32f1xx_hal_adc_ex.c ****   
 506:src/stm32f1xx_hal_adc_ex.c ****   /* Check the parameters */
 507:src/stm32f1xx_hal_adc_ex.c ****   assert_param(IS_ADC_ALL_INSTANCE(hadc->Instance));
 508:src/stm32f1xx_hal_adc_ex.c ****   
 509:src/stm32f1xx_hal_adc_ex.c ****   /* Process locked */
 510:src/stm32f1xx_hal_adc_ex.c ****   __HAL_LOCK(hadc);
 716              		.loc 1 510 0
 717 0300 90F82430 		ldrb	r3, [r0, #36]	@ zero_extendqisi2	@ hadc_6(D)->Lock, hadc_6(D)->Lock
 503:src/stm32f1xx_hal_adc_ex.c ****   HAL_StatusTypeDef tmp_hal_status = HAL_OK;
 718              		.loc 1 503 0
 719 0304 10B5     		push	{r4, lr}	@
 720              	.LCFI8:
 721              		.cfi_def_cfa_offset 8
 722              		.cfi_offset 4, -8
 723              		.cfi_offset 14, -4
 724              		.loc 1 510 0
 725 0306 012B     		cmp	r3, #1	@ hadc_6(D)->Lock,
 503:src/stm32f1xx_hal_adc_ex.c ****   HAL_StatusTypeDef tmp_hal_status = HAL_OK;
 726              		.loc 1 503 0
 727 0308 0446     		mov	r4, r0	@ hadc, hadc
 728              		.loc 1 510 0
 729 030a 4ED0     		beq	.L84	@,
 730              		.loc 1 510 0 is_stmt 0 discriminator 2
 731 030c 0123     		movs	r3, #1	@ tmp138,
 732 030e 80F82430 		strb	r3, [r0, #36]	@ tmp138, hadc_6(D)->Lock
 511:src/stm32f1xx_hal_adc_ex.c ****     
 512:src/stm32f1xx_hal_adc_ex.c ****   /* Enable the ADC peripheral */
 513:src/stm32f1xx_hal_adc_ex.c ****   tmp_hal_status = ADC_Enable(hadc);
 733              		.loc 1 513 0 is_stmt 1 discriminator 2
 734 0312 FFF7FEFF 		bl	ADC_Enable	@
 735              	.LVL46:
 514:src/stm32f1xx_hal_adc_ex.c ****   
 515:src/stm32f1xx_hal_adc_ex.c ****   /* Start conversion if ADC is effectively enabled */
 516:src/stm32f1xx_hal_adc_ex.c ****   if (tmp_hal_status == HAL_OK)
 736              		.loc 1 516 0 discriminator 2
 737 0316 0028     		cmp	r0, #0	@ <retval>
ARM GAS  /tmp/ccHubou1.s 			page 24


 738 0318 43D1     		bne	.L77	@
 517:src/stm32f1xx_hal_adc_ex.c ****   {
 518:src/stm32f1xx_hal_adc_ex.c ****     /* Set ADC state                                                          */
 519:src/stm32f1xx_hal_adc_ex.c ****     /* - Clear state bitfield related to injected group conversion results    */
 520:src/stm32f1xx_hal_adc_ex.c ****     /* - Set state bitfield related to injected operation                     */
 521:src/stm32f1xx_hal_adc_ex.c ****     ADC_STATE_CLR_SET(hadc->State,
 739              		.loc 1 521 0
 740 031a A36A     		ldr	r3, [r4, #40]	@ _11, hadc_6(D)->State
 522:src/stm32f1xx_hal_adc_ex.c ****                       HAL_ADC_STATE_READY | HAL_ADC_STATE_INJ_EOC,
 523:src/stm32f1xx_hal_adc_ex.c ****                       HAL_ADC_STATE_INJ_BUSY);
 524:src/stm32f1xx_hal_adc_ex.c ****     
 525:src/stm32f1xx_hal_adc_ex.c ****     /* Case of independent mode or multimode (for devices with several ADCs): */
 526:src/stm32f1xx_hal_adc_ex.c ****     /* Set multimode state.                                                   */
 527:src/stm32f1xx_hal_adc_ex.c ****     if (ADC_NONMULTIMODE_OR_MULTIMODEMASTER(hadc))
 741              		.loc 1 527 0
 742 031c 244A     		ldr	r2, .L87	@ tmp143,
 521:src/stm32f1xx_hal_adc_ex.c ****                       HAL_ADC_STATE_READY | HAL_ADC_STATE_INJ_EOC,
 743              		.loc 1 521 0
 744 031e 23F44053 		bic	r3, r3, #12288	@ tmp141, _11,
 745 0322 23F00103 		bic	r3, r3, #1	@ tmp141, tmp141,
 746 0326 43F48053 		orr	r3, r3, #4096	@ _13, tmp141,
 747 032a A362     		str	r3, [r4, #40]	@ _13, hadc_6(D)->State
 748              		.loc 1 527 0
 749 032c 2368     		ldr	r3, [r4]	@ _15, hadc_6(D)->Instance
 750 032e 9342     		cmp	r3, r2	@ _15, tmp143
 751 0330 05D1     		bne	.L78	@,
 752              		.loc 1 527 0 is_stmt 0 discriminator 1
 753 0332 A2F58062 		sub	r2, r2, #1024	@ tmp144, tmp144,
 754 0336 5268     		ldr	r2, [r2, #4]	@ _16, MEM[(struct ADC_TypeDef *)1073816576B].CR1
 755 0338 12F4702F 		tst	r2, #983040	@ _16,
 756 033c 29D1     		bne	.L79	@,
 757              	.L78:
 528:src/stm32f1xx_hal_adc_ex.c ****     {
 529:src/stm32f1xx_hal_adc_ex.c ****       CLEAR_BIT(hadc->State, HAL_ADC_STATE_MULTIMODE_SLAVE);
 758              		.loc 1 529 0 is_stmt 1
 759 033e A26A     		ldr	r2, [r4, #40]	@ _21,
 760 0340 22F48012 		bic	r2, r2, #1048576	@ _22, _21,
 761              	.L85:
 530:src/stm32f1xx_hal_adc_ex.c ****     }
 531:src/stm32f1xx_hal_adc_ex.c ****     else
 532:src/stm32f1xx_hal_adc_ex.c ****     {
 533:src/stm32f1xx_hal_adc_ex.c ****       SET_BIT(hadc->State, HAL_ADC_STATE_MULTIMODE_SLAVE);
 762              		.loc 1 533 0
 763 0344 A262     		str	r2, [r4, #40]	@ _19,
 534:src/stm32f1xx_hal_adc_ex.c ****     }
 535:src/stm32f1xx_hal_adc_ex.c ****     
 536:src/stm32f1xx_hal_adc_ex.c ****     /* Check if a regular conversion is ongoing */
 537:src/stm32f1xx_hal_adc_ex.c ****     /* Note: On this device, there is no ADC error code fields related to     */
 538:src/stm32f1xx_hal_adc_ex.c ****     /*       conversions on group injected only. In case of conversion on     */
 539:src/stm32f1xx_hal_adc_ex.c ****     /*       going on group regular, no error code is reset.                  */
 540:src/stm32f1xx_hal_adc_ex.c ****     if (HAL_IS_BIT_CLR(hadc->State, HAL_ADC_STATE_REG_BUSY))
 764              		.loc 1 540 0
 765 0346 A26A     		ldr	r2, [r4, #40]	@ _24, hadc_6(D)->State
 766 0348 12F48072 		ands	r2, r2, #256	@ tmp146, _24,
 541:src/stm32f1xx_hal_adc_ex.c ****     {
 542:src/stm32f1xx_hal_adc_ex.c ****       /* Reset ADC all error code fields */
 543:src/stm32f1xx_hal_adc_ex.c ****       ADC_CLEAR_ERRORCODE(hadc);
ARM GAS  /tmp/ccHubou1.s 			page 25


 767              		.loc 1 543 0
 768 034c 08BF     		it	eq
 769 034e E262     		streq	r2, [r4, #44]	@ tmp146, hadc_6(D)->ErrorCode
 544:src/stm32f1xx_hal_adc_ex.c ****     }
 545:src/stm32f1xx_hal_adc_ex.c ****     
 546:src/stm32f1xx_hal_adc_ex.c ****     /* Process unlocked */
 547:src/stm32f1xx_hal_adc_ex.c ****     /* Unlock before starting ADC conversions: in case of potential           */
 548:src/stm32f1xx_hal_adc_ex.c ****     /* interruption, to let the process to ADC IRQ Handler.                   */
 549:src/stm32f1xx_hal_adc_ex.c ****     __HAL_UNLOCK(hadc);
 770              		.loc 1 549 0
 771 0350 0022     		movs	r2, #0	@ tmp148,
 772 0352 84F82420 		strb	r2, [r4, #36]	@ tmp148, hadc_6(D)->Lock
 550:src/stm32f1xx_hal_adc_ex.c ****     
 551:src/stm32f1xx_hal_adc_ex.c ****     /* Clear injected group conversion flag */
 552:src/stm32f1xx_hal_adc_ex.c ****     /* (To ensure of no unknown state from potential previous ADC operations) */
 553:src/stm32f1xx_hal_adc_ex.c ****     __HAL_ADC_CLEAR_FLAG(hadc, ADC_FLAG_JEOC);
 773              		.loc 1 553 0
 774 0356 6FF00402 		mvn	r2, #4	@ tmp150,
 775 035a 1A60     		str	r2, [r3]	@ tmp150, _15->SR
 554:src/stm32f1xx_hal_adc_ex.c ****     
 555:src/stm32f1xx_hal_adc_ex.c ****     /* Enable end of conversion interrupt for injected channels */
 556:src/stm32f1xx_hal_adc_ex.c ****     __HAL_ADC_ENABLE_IT(hadc, ADC_IT_JEOC);
 776              		.loc 1 556 0
 777 035c 5A68     		ldr	r2, [r3, #4]	@ _29, _15->CR1
 778 035e 42F08002 		orr	r2, r2, #128	@ _30, _29,
 779 0362 5A60     		str	r2, [r3, #4]	@ _30, _15->CR1
 557:src/stm32f1xx_hal_adc_ex.c ****     
 558:src/stm32f1xx_hal_adc_ex.c ****     /* Start conversion of injected group if software start has been selected */
 559:src/stm32f1xx_hal_adc_ex.c ****     /* and if automatic injected conversion is disabled.                      */
 560:src/stm32f1xx_hal_adc_ex.c ****     /* If external trigger has been selected, conversion will start at next   */
 561:src/stm32f1xx_hal_adc_ex.c ****     /* trigger event.                                                         */
 562:src/stm32f1xx_hal_adc_ex.c ****     /* If automatic injected conversion is enabled, conversion will start     */
 563:src/stm32f1xx_hal_adc_ex.c ****     /* after next regular group conversion.                                   */
 564:src/stm32f1xx_hal_adc_ex.c ****     if (HAL_IS_BIT_CLR(hadc->Instance->CR1, ADC_CR1_JAUTO))
 780              		.loc 1 564 0
 781 0364 5A68     		ldr	r2, [r3, #4]	@ _32, _15->CR1
 782 0366 5205     		lsls	r2, r2, #21	@, _32,
 783 0368 20D4     		bmi	.L76	@,
 565:src/stm32f1xx_hal_adc_ex.c ****     {
 566:src/stm32f1xx_hal_adc_ex.c ****       if (ADC_IS_SOFTWARE_START_INJECTED(hadc)     &&
 784              		.loc 1 566 0
 785 036a 9A68     		ldr	r2, [r3, #8]	@ _34, _15->CR2
 786 036c 02F4E042 		and	r2, r2, #28672	@ tmp152, _34,
 787 0370 B2F5E04F 		cmp	r2, #28672	@ tmp152,
 788 0374 11D1     		bne	.L82	@,
 789              		.loc 1 566 0 is_stmt 0 discriminator 1
 790 0376 0E4A     		ldr	r2, .L87	@ tmp153,
 791 0378 9342     		cmp	r3, r2	@ _15, tmp153
 792 037a 05D1     		bne	.L83	@,
 567:src/stm32f1xx_hal_adc_ex.c ****           ADC_NONMULTIMODE_OR_MULTIMODEMASTER(hadc)  )
 793              		.loc 1 567 0 is_stmt 1 discriminator 2
 794 037c A2F58062 		sub	r2, r2, #1024	@ tmp154, tmp154,
 795 0380 5268     		ldr	r2, [r2, #4]	@ _36, MEM[(struct ADC_TypeDef *)1073816576B].CR1
 566:src/stm32f1xx_hal_adc_ex.c ****           ADC_NONMULTIMODE_OR_MULTIMODEMASTER(hadc)  )
 796              		.loc 1 566 0 discriminator 2
 797 0382 12F4702F 		tst	r2, #983040	@ _36,
 798 0386 08D1     		bne	.L82	@,
ARM GAS  /tmp/ccHubou1.s 			page 26


 799              	.L83:
 568:src/stm32f1xx_hal_adc_ex.c ****       {
 569:src/stm32f1xx_hal_adc_ex.c ****         /* Start ADC conversion on injected group with SW start */
 570:src/stm32f1xx_hal_adc_ex.c ****         SET_BIT(hadc->Instance->CR2, (ADC_CR2_JSWSTART | ADC_CR2_JEXTTRIG));
 800              		.loc 1 570 0
 801 0388 9A68     		ldr	r2, [r3, #8]	@ _38, _15->CR2
 802 038a 42F40212 		orr	r2, r2, #2129920	@ _39, _38,
 803              	.L86:
 571:src/stm32f1xx_hal_adc_ex.c ****       }
 572:src/stm32f1xx_hal_adc_ex.c ****       else
 573:src/stm32f1xx_hal_adc_ex.c ****       {
 574:src/stm32f1xx_hal_adc_ex.c ****         /* Start ADC conversion on injected group with external trigger */
 575:src/stm32f1xx_hal_adc_ex.c ****         SET_BIT(hadc->Instance->CR2, ADC_CR2_JEXTTRIG);
 804              		.loc 1 575 0
 805 038e 9A60     		str	r2, [r3, #8]	@ _42,
 806 0390 10BD     		pop	{r4, pc}	@
 807              	.LVL47:
 808              	.L79:
 533:src/stm32f1xx_hal_adc_ex.c ****     }
 809              		.loc 1 533 0
 810 0392 A26A     		ldr	r2, [r4, #40]	@ _18,
 811 0394 42F48012 		orr	r2, r2, #1048576	@ _19, _18,
 812 0398 D4E7     		b	.L85	@
 813              	.L82:
 814              		.loc 1 575 0
 815 039a 9A68     		ldr	r2, [r3, #8]	@ _41, _15->CR2
 816 039c 42F40042 		orr	r2, r2, #32768	@ _42, _41,
 817 03a0 F5E7     		b	.L86	@
 818              	.L77:
 576:src/stm32f1xx_hal_adc_ex.c ****       }
 577:src/stm32f1xx_hal_adc_ex.c ****     }
 578:src/stm32f1xx_hal_adc_ex.c ****   }
 579:src/stm32f1xx_hal_adc_ex.c ****   else
 580:src/stm32f1xx_hal_adc_ex.c ****   {
 581:src/stm32f1xx_hal_adc_ex.c ****     /* Process unlocked */
 582:src/stm32f1xx_hal_adc_ex.c ****     __HAL_UNLOCK(hadc);
 819              		.loc 1 582 0
 820 03a2 0023     		movs	r3, #0	@ tmp156,
 821 03a4 84F82430 		strb	r3, [r4, #36]	@ tmp156, hadc_6(D)->Lock
 822 03a8 10BD     		pop	{r4, pc}	@
 823              	.LVL48:
 824              	.L84:
 510:src/stm32f1xx_hal_adc_ex.c ****     
 825              		.loc 1 510 0
 826 03aa 0220     		movs	r0, #2	@ <retval>,
 827              	.LVL49:
 828              	.L76:
 583:src/stm32f1xx_hal_adc_ex.c ****   }
 584:src/stm32f1xx_hal_adc_ex.c ****   
 585:src/stm32f1xx_hal_adc_ex.c ****   /* Return function status */
 586:src/stm32f1xx_hal_adc_ex.c ****   return tmp_hal_status;
 587:src/stm32f1xx_hal_adc_ex.c **** }
 829              		.loc 1 587 0
 830 03ac 10BD     		pop	{r4, pc}	@
 831              	.LVL50:
 832              	.L88:
 833 03ae 00BF     		.align	2
ARM GAS  /tmp/ccHubou1.s 			page 27


 834              	.L87:
 835 03b0 00280140 		.word	1073817600
 836              		.cfi_endproc
 837              	.LFE69:
 838              		.size	HAL_ADCEx_InjectedStart_IT, .-HAL_ADCEx_InjectedStart_IT
 839              		.align	1
 840              		.global	HAL_ADCEx_InjectedStop_IT
 841              		.syntax unified
 842              		.thumb
 843              		.thumb_func
 844              		.fpu softvfp
 845              		.type	HAL_ADCEx_InjectedStop_IT, %function
 846              	HAL_ADCEx_InjectedStop_IT:
 847              	.LFB70:
 588:src/stm32f1xx_hal_adc_ex.c **** 
 589:src/stm32f1xx_hal_adc_ex.c **** /**
 590:src/stm32f1xx_hal_adc_ex.c ****   * @brief  Stop conversion of injected channels, disable interruption of 
 591:src/stm32f1xx_hal_adc_ex.c ****   *         end-of-conversion. Disable ADC peripheral if no regular conversion
 592:src/stm32f1xx_hal_adc_ex.c ****   *         is on going.
 593:src/stm32f1xx_hal_adc_ex.c ****   * @note   If ADC must be disabled and if conversion is on going on 
 594:src/stm32f1xx_hal_adc_ex.c ****   *         regular group, function HAL_ADC_Stop must be used to stop both
 595:src/stm32f1xx_hal_adc_ex.c ****   *         injected and regular groups, and disable the ADC.
 596:src/stm32f1xx_hal_adc_ex.c ****   * @note   If injected group mode auto-injection is enabled,
 597:src/stm32f1xx_hal_adc_ex.c ****   *         function HAL_ADC_Stop must be used.
 598:src/stm32f1xx_hal_adc_ex.c ****   * @param  hadc: ADC handle
 599:src/stm32f1xx_hal_adc_ex.c ****   * @retval None
 600:src/stm32f1xx_hal_adc_ex.c ****   */
 601:src/stm32f1xx_hal_adc_ex.c **** HAL_StatusTypeDef HAL_ADCEx_InjectedStop_IT(ADC_HandleTypeDef* hadc)
 602:src/stm32f1xx_hal_adc_ex.c **** {
 848              		.loc 1 602 0
 849              		.cfi_startproc
 850              		@ args = 0, pretend = 0, frame = 0
 851              		@ frame_needed = 0, uses_anonymous_args = 0
 852              	.LVL51:
 603:src/stm32f1xx_hal_adc_ex.c ****   HAL_StatusTypeDef tmp_hal_status = HAL_OK;
 604:src/stm32f1xx_hal_adc_ex.c ****   
 605:src/stm32f1xx_hal_adc_ex.c ****   /* Check the parameters */
 606:src/stm32f1xx_hal_adc_ex.c ****   assert_param(IS_ADC_ALL_INSTANCE(hadc->Instance));
 607:src/stm32f1xx_hal_adc_ex.c **** 
 608:src/stm32f1xx_hal_adc_ex.c ****   /* Process locked */
 609:src/stm32f1xx_hal_adc_ex.c ****   __HAL_LOCK(hadc);
 853              		.loc 1 609 0
 854 03b4 90F82430 		ldrb	r3, [r0, #36]	@ zero_extendqisi2	@ hadc_6(D)->Lock, hadc_6(D)->Lock
 602:src/stm32f1xx_hal_adc_ex.c ****   HAL_StatusTypeDef tmp_hal_status = HAL_OK;
 855              		.loc 1 602 0
 856 03b8 10B5     		push	{r4, lr}	@
 857              	.LCFI9:
 858              		.cfi_def_cfa_offset 8
 859              		.cfi_offset 4, -8
 860              		.cfi_offset 14, -4
 861              		.loc 1 609 0
 862 03ba 012B     		cmp	r3, #1	@ hadc_6(D)->Lock,
 602:src/stm32f1xx_hal_adc_ex.c ****   HAL_StatusTypeDef tmp_hal_status = HAL_OK;
 863              		.loc 1 602 0
 864 03bc 0446     		mov	r4, r0	@ hadc, hadc
 865              		.loc 1 609 0
 866 03be 23D0     		beq	.L93	@,
ARM GAS  /tmp/ccHubou1.s 			page 28


 867              		.loc 1 609 0 is_stmt 0 discriminator 2
 868 03c0 0123     		movs	r3, #1	@ tmp127,
 869 03c2 80F82430 		strb	r3, [r0, #36]	@ tmp127, hadc_6(D)->Lock
 610:src/stm32f1xx_hal_adc_ex.c ****     
 611:src/stm32f1xx_hal_adc_ex.c ****   /* Stop potential conversion and disable ADC peripheral                     */
 612:src/stm32f1xx_hal_adc_ex.c ****   /* Conditioned to:                                                          */
 613:src/stm32f1xx_hal_adc_ex.c ****   /* - No conversion on the other group (regular group) is intended to        */
 614:src/stm32f1xx_hal_adc_ex.c ****   /*   continue (injected and regular groups stop conversion and ADC disable  */
 615:src/stm32f1xx_hal_adc_ex.c ****   /*   are common)                                                            */
 616:src/stm32f1xx_hal_adc_ex.c ****   /* - In case of auto-injection mode, HAL_ADC_Stop must be used.             */ 
 617:src/stm32f1xx_hal_adc_ex.c ****   if(((hadc->State & HAL_ADC_STATE_REG_BUSY) == RESET)  &&
 870              		.loc 1 617 0 is_stmt 1 discriminator 2
 871 03c6 836A     		ldr	r3, [r0, #40]	@ _9, hadc_6(D)->State
 872 03c8 DA05     		lsls	r2, r3, #23	@, _9,
 873 03ca 17D4     		bmi	.L91	@,
 618:src/stm32f1xx_hal_adc_ex.c ****      HAL_IS_BIT_CLR(hadc->Instance->CR1, ADC_CR1_JAUTO)   )
 874              		.loc 1 618 0 discriminator 1
 875 03cc 0368     		ldr	r3, [r0]	@ _11, hadc_6(D)->Instance
 876 03ce 5B68     		ldr	r3, [r3, #4]	@ _12, _11->CR1
 617:src/stm32f1xx_hal_adc_ex.c ****      HAL_IS_BIT_CLR(hadc->Instance->CR1, ADC_CR1_JAUTO)   )
 877              		.loc 1 617 0 discriminator 1
 878 03d0 5B05     		lsls	r3, r3, #21	@, _12,
 879 03d2 13D4     		bmi	.L91	@,
 619:src/stm32f1xx_hal_adc_ex.c ****   {
 620:src/stm32f1xx_hal_adc_ex.c ****     /* Stop potential conversion on going, on regular and injected groups */
 621:src/stm32f1xx_hal_adc_ex.c ****     /* Disable ADC peripheral */
 622:src/stm32f1xx_hal_adc_ex.c ****     tmp_hal_status = ADC_ConversionStop_Disable(hadc);
 880              		.loc 1 622 0
 881 03d4 FFF7FEFF 		bl	ADC_ConversionStop_Disable	@
 882              	.LVL52:
 623:src/stm32f1xx_hal_adc_ex.c ****     
 624:src/stm32f1xx_hal_adc_ex.c ****     /* Check if ADC is effectively disabled */
 625:src/stm32f1xx_hal_adc_ex.c ****     if (tmp_hal_status == HAL_OK)
 883              		.loc 1 625 0
 884 03d8 60B9     		cbnz	r0, .L92	@ <retval>,
 626:src/stm32f1xx_hal_adc_ex.c ****     {
 627:src/stm32f1xx_hal_adc_ex.c ****       /* Disable ADC end of conversion interrupt for injected channels */
 628:src/stm32f1xx_hal_adc_ex.c ****       __HAL_ADC_DISABLE_IT(hadc, ADC_IT_JEOC);
 885              		.loc 1 628 0
 886 03da 2268     		ldr	r2, [r4]	@ _16, hadc_6(D)->Instance
 887 03dc 5368     		ldr	r3, [r2, #4]	@ _17, _16->CR1
 888 03de 23F08003 		bic	r3, r3, #128	@ _18, _17,
 889 03e2 5360     		str	r3, [r2, #4]	@ _18, _16->CR1
 629:src/stm32f1xx_hal_adc_ex.c ****       
 630:src/stm32f1xx_hal_adc_ex.c ****       /* Set ADC state */
 631:src/stm32f1xx_hal_adc_ex.c ****       ADC_STATE_CLR_SET(hadc->State,
 890              		.loc 1 631 0
 891 03e4 A36A     		ldr	r3, [r4, #40]	@ _20, hadc_6(D)->State
 892 03e6 23F48853 		bic	r3, r3, #4352	@ tmp132, _20,
 893 03ea 23F00103 		bic	r3, r3, #1	@ tmp132, tmp132,
 894 03ee 43F00103 		orr	r3, r3, #1	@ _22, tmp132,
 895 03f2 A362     		str	r3, [r4, #40]	@ _22, hadc_6(D)->State
 896              	.LVL53:
 897              	.L92:
 632:src/stm32f1xx_hal_adc_ex.c ****                         HAL_ADC_STATE_REG_BUSY | HAL_ADC_STATE_INJ_BUSY,
 633:src/stm32f1xx_hal_adc_ex.c ****                         HAL_ADC_STATE_READY);
 634:src/stm32f1xx_hal_adc_ex.c ****     }
ARM GAS  /tmp/ccHubou1.s 			page 29


 635:src/stm32f1xx_hal_adc_ex.c ****   }
 636:src/stm32f1xx_hal_adc_ex.c ****   else
 637:src/stm32f1xx_hal_adc_ex.c ****   {
 638:src/stm32f1xx_hal_adc_ex.c ****     /* Update ADC state machine to error */
 639:src/stm32f1xx_hal_adc_ex.c ****     SET_BIT(hadc->State, HAL_ADC_STATE_ERROR_CONFIG);
 640:src/stm32f1xx_hal_adc_ex.c ****       
 641:src/stm32f1xx_hal_adc_ex.c ****     tmp_hal_status = HAL_ERROR;
 642:src/stm32f1xx_hal_adc_ex.c ****   }
 643:src/stm32f1xx_hal_adc_ex.c ****   
 644:src/stm32f1xx_hal_adc_ex.c ****   /* Process unlocked */
 645:src/stm32f1xx_hal_adc_ex.c ****   __HAL_UNLOCK(hadc);
 898              		.loc 1 645 0
 899 03f4 0023     		movs	r3, #0	@ tmp134,
 900 03f6 84F82430 		strb	r3, [r4, #36]	@ tmp134, hadc_6(D)->Lock
 646:src/stm32f1xx_hal_adc_ex.c ****   
 647:src/stm32f1xx_hal_adc_ex.c ****   /* Return function status */
 648:src/stm32f1xx_hal_adc_ex.c ****   return tmp_hal_status;
 901              		.loc 1 648 0
 902 03fa 10BD     		pop	{r4, pc}	@
 903              	.LVL54:
 904              	.L91:
 639:src/stm32f1xx_hal_adc_ex.c ****       
 905              		.loc 1 639 0
 906 03fc A36A     		ldr	r3, [r4, #40]	@ _24, hadc_6(D)->State
 641:src/stm32f1xx_hal_adc_ex.c ****   }
 907              		.loc 1 641 0
 908 03fe 0120     		movs	r0, #1	@ <retval>,
 909              	.LVL55:
 639:src/stm32f1xx_hal_adc_ex.c ****       
 910              		.loc 1 639 0
 911 0400 43F02003 		orr	r3, r3, #32	@ _25, _24,
 912 0404 A362     		str	r3, [r4, #40]	@ _25, hadc_6(D)->State
 913              	.LVL56:
 914 0406 F5E7     		b	.L92	@
 915              	.LVL57:
 916              	.L93:
 609:src/stm32f1xx_hal_adc_ex.c ****     
 917              		.loc 1 609 0
 918 0408 0220     		movs	r0, #2	@ <retval>,
 919              	.LVL58:
 649:src/stm32f1xx_hal_adc_ex.c **** }
 920              		.loc 1 649 0
 921 040a 10BD     		pop	{r4, pc}	@
 922              		.cfi_endproc
 923              	.LFE70:
 924              		.size	HAL_ADCEx_InjectedStop_IT, .-HAL_ADCEx_InjectedStop_IT
 925              		.align	1
 926              		.global	HAL_ADCEx_MultiModeStart_DMA
 927              		.syntax unified
 928              		.thumb
 929              		.thumb_func
 930              		.fpu softvfp
 931              		.type	HAL_ADCEx_MultiModeStart_DMA, %function
 932              	HAL_ADCEx_MultiModeStart_DMA:
 933              	.LFB71:
 650:src/stm32f1xx_hal_adc_ex.c **** 
 651:src/stm32f1xx_hal_adc_ex.c **** #if defined (STM32F103x6) || defined (STM32F103xB) || defined (STM32F105xC) || defined (STM32F107xC
ARM GAS  /tmp/ccHubou1.s 			page 30


 652:src/stm32f1xx_hal_adc_ex.c **** /**
 653:src/stm32f1xx_hal_adc_ex.c ****   * @brief  Enables ADC, starts conversion of regular group and transfers result
 654:src/stm32f1xx_hal_adc_ex.c ****   *         through DMA.
 655:src/stm32f1xx_hal_adc_ex.c ****   *         Multimode must have been previously configured using 
 656:src/stm32f1xx_hal_adc_ex.c ****   *         HAL_ADCEx_MultiModeConfigChannel() function.
 657:src/stm32f1xx_hal_adc_ex.c ****   *         Interruptions enabled in this function:
 658:src/stm32f1xx_hal_adc_ex.c ****   *          - DMA transfer complete
 659:src/stm32f1xx_hal_adc_ex.c ****   *          - DMA half transfer
 660:src/stm32f1xx_hal_adc_ex.c ****   *         Each of these interruptions has its dedicated callback function.
 661:src/stm32f1xx_hal_adc_ex.c ****   * @note:  On STM32F1 devices, ADC slave regular group must be configured 
 662:src/stm32f1xx_hal_adc_ex.c ****   *         with conversion trigger ADC_SOFTWARE_START.
 663:src/stm32f1xx_hal_adc_ex.c ****   * @note:  ADC slave can be enabled preliminarily using single-mode  
 664:src/stm32f1xx_hal_adc_ex.c ****   *         HAL_ADC_Start() function.
 665:src/stm32f1xx_hal_adc_ex.c ****   * @param  hadc: ADC handle of ADC master (handle of ADC slave must not be used)
 666:src/stm32f1xx_hal_adc_ex.c ****   * @param  pData: The destination Buffer address.
 667:src/stm32f1xx_hal_adc_ex.c ****   * @param  Length: The length of data to be transferred from ADC peripheral to memory.
 668:src/stm32f1xx_hal_adc_ex.c ****   * @retval None
 669:src/stm32f1xx_hal_adc_ex.c ****   */
 670:src/stm32f1xx_hal_adc_ex.c **** HAL_StatusTypeDef HAL_ADCEx_MultiModeStart_DMA(ADC_HandleTypeDef* hadc, uint32_t* pData, uint32_t L
 671:src/stm32f1xx_hal_adc_ex.c **** {
 934              		.loc 1 671 0
 935              		.cfi_startproc
 936              		@ args = 0, pretend = 0, frame = 48
 937              		@ frame_needed = 0, uses_anonymous_args = 0
 938              	.LVL59:
 939 040c F0B5     		push	{r4, r5, r6, r7, lr}	@
 940              	.LCFI10:
 941              		.cfi_def_cfa_offset 20
 942              		.cfi_offset 4, -20
 943              		.cfi_offset 5, -16
 944              		.cfi_offset 6, -12
 945              		.cfi_offset 7, -8
 946              		.cfi_offset 14, -4
 672:src/stm32f1xx_hal_adc_ex.c ****   HAL_StatusTypeDef tmp_hal_status = HAL_OK;
 673:src/stm32f1xx_hal_adc_ex.c ****   ADC_HandleTypeDef tmphadcSlave;
 674:src/stm32f1xx_hal_adc_ex.c **** 
 675:src/stm32f1xx_hal_adc_ex.c ****   /* Check the parameters */
 676:src/stm32f1xx_hal_adc_ex.c ****   assert_param(IS_ADC_MULTIMODE_MASTER_INSTANCE(hadc->Instance));
 677:src/stm32f1xx_hal_adc_ex.c ****   assert_param(IS_FUNCTIONAL_STATE(hadc->Init.ContinuousConvMode));
 678:src/stm32f1xx_hal_adc_ex.c ****   
 679:src/stm32f1xx_hal_adc_ex.c ****   /* Process locked */
 680:src/stm32f1xx_hal_adc_ex.c ****   __HAL_LOCK(hadc);
 947              		.loc 1 680 0
 948 040e 90F82430 		ldrb	r3, [r0, #36]	@ zero_extendqisi2	@ hadc_7(D)->Lock, hadc_7(D)->Lock
 671:src/stm32f1xx_hal_adc_ex.c ****   HAL_StatusTypeDef tmp_hal_status = HAL_OK;
 949              		.loc 1 671 0
 950 0412 8DB0     		sub	sp, sp, #52	@,,
 951              	.LCFI11:
 952              		.cfi_def_cfa_offset 72
 953              		.loc 1 680 0
 954 0414 012B     		cmp	r3, #1	@ hadc_7(D)->Lock,
 671:src/stm32f1xx_hal_adc_ex.c ****   HAL_StatusTypeDef tmp_hal_status = HAL_OK;
 955              		.loc 1 671 0
 956 0416 0446     		mov	r4, r0	@ hadc, hadc
 957 0418 0E46     		mov	r6, r1	@ pData, pData
 958 041a 1746     		mov	r7, r2	@ Length, Length
 959              		.loc 1 680 0
ARM GAS  /tmp/ccHubou1.s 			page 31


 960 041c 58D0     		beq	.L100	@,
 961              		.loc 1 680 0 is_stmt 0 discriminator 2
 962 041e 0125     		movs	r5, #1	@ tmp142,
 681:src/stm32f1xx_hal_adc_ex.c **** 
 682:src/stm32f1xx_hal_adc_ex.c ****   /* Set a temporary handle of the ADC slave associated to the ADC master     */
 683:src/stm32f1xx_hal_adc_ex.c ****   ADC_MULTI_SLAVE(hadc, &tmphadcSlave);
 963              		.loc 1 683 0 is_stmt 1 discriminator 2
 964 0420 2C4B     		ldr	r3, .L105	@ tmp144,
 680:src/stm32f1xx_hal_adc_ex.c **** 
 965              		.loc 1 680 0 discriminator 2
 966 0422 80F82450 		strb	r5, [r0, #36]	@ tmp142, hadc_7(D)->Lock
 967              		.loc 1 683 0 discriminator 2
 968 0426 0093     		str	r3, [sp]	@ tmp144, tmphadcSlave.Instance
 684:src/stm32f1xx_hal_adc_ex.c ****   
 685:src/stm32f1xx_hal_adc_ex.c ****   /* On STM32F1 devices, ADC slave regular group must be configured with      */
 686:src/stm32f1xx_hal_adc_ex.c ****   /* conversion trigger ADC_SOFTWARE_START.                                   */
 687:src/stm32f1xx_hal_adc_ex.c ****   /* Note: External trigger of ADC slave must be enabled, it is already done  */
 688:src/stm32f1xx_hal_adc_ex.c ****   /*       into function "HAL_ADC_Init()".                                    */
 689:src/stm32f1xx_hal_adc_ex.c ****   if(!ADC_IS_SOFTWARE_START_REGULAR(&tmphadcSlave))  
 969              		.loc 1 689 0 discriminator 2
 970 0428 9B68     		ldr	r3, [r3, #8]	@ _11, MEM[(struct ADC_TypeDef *)1073817600B].CR2
 971 042a 03F46023 		and	r3, r3, #917504	@ tmp146, _11,
 972 042e B3F5602F 		cmp	r3, #917504	@ tmp146,
 973 0432 07D0     		beq	.L96	@,
 690:src/stm32f1xx_hal_adc_ex.c ****   {
 691:src/stm32f1xx_hal_adc_ex.c ****     /* Update ADC state machine to error */
 692:src/stm32f1xx_hal_adc_ex.c ****     SET_BIT(hadc->State, HAL_ADC_STATE_ERROR_CONFIG);
 974              		.loc 1 692 0
 975 0434 836A     		ldr	r3, [r0, #40]	@ _13, hadc_7(D)->State
 976 0436 43F02003 		orr	r3, r3, #32	@ _14, _13,
 977 043a 8362     		str	r3, [r0, #40]	@ _14, hadc_7(D)->State
 978              	.LVL60:
 979              	.L97:
 693:src/stm32f1xx_hal_adc_ex.c ****     
 694:src/stm32f1xx_hal_adc_ex.c ****     /* Process unlocked */
 695:src/stm32f1xx_hal_adc_ex.c ****     __HAL_UNLOCK(hadc);
 696:src/stm32f1xx_hal_adc_ex.c ****     
 697:src/stm32f1xx_hal_adc_ex.c ****     return HAL_ERROR;
 698:src/stm32f1xx_hal_adc_ex.c ****   }
 699:src/stm32f1xx_hal_adc_ex.c ****   
 700:src/stm32f1xx_hal_adc_ex.c ****   /* Enable the ADC peripherals: master and slave (in case if not already     */
 701:src/stm32f1xx_hal_adc_ex.c ****   /* enabled previously)                                                      */
 702:src/stm32f1xx_hal_adc_ex.c ****   tmp_hal_status = ADC_Enable(hadc);
 703:src/stm32f1xx_hal_adc_ex.c ****   if (tmp_hal_status == HAL_OK)
 704:src/stm32f1xx_hal_adc_ex.c ****   {
 705:src/stm32f1xx_hal_adc_ex.c ****     tmp_hal_status = ADC_Enable(&tmphadcSlave);
 706:src/stm32f1xx_hal_adc_ex.c ****   }
 707:src/stm32f1xx_hal_adc_ex.c ****   
 708:src/stm32f1xx_hal_adc_ex.c ****   /* Start conversion if all ADCs of multimode are effectively enabled */
 709:src/stm32f1xx_hal_adc_ex.c ****   if (tmp_hal_status == HAL_OK)
 710:src/stm32f1xx_hal_adc_ex.c ****   {
 711:src/stm32f1xx_hal_adc_ex.c ****     /* Set ADC state (ADC master)                                             */
 712:src/stm32f1xx_hal_adc_ex.c ****     /* - Clear state bitfield related to regular group conversion results     */
 713:src/stm32f1xx_hal_adc_ex.c ****     /* - Set state bitfield related to regular operation                      */
 714:src/stm32f1xx_hal_adc_ex.c ****     ADC_STATE_CLR_SET(hadc->State,
 715:src/stm32f1xx_hal_adc_ex.c ****                       HAL_ADC_STATE_READY | HAL_ADC_STATE_REG_EOC | HAL_ADC_STATE_MULTIMODE_SLAVE,
 716:src/stm32f1xx_hal_adc_ex.c ****                       HAL_ADC_STATE_REG_BUSY);
ARM GAS  /tmp/ccHubou1.s 			page 32


 717:src/stm32f1xx_hal_adc_ex.c ****       
 718:src/stm32f1xx_hal_adc_ex.c ****     /* If conversions on group regular are also triggering group injected,    */
 719:src/stm32f1xx_hal_adc_ex.c ****     /* update ADC state.                                                      */
 720:src/stm32f1xx_hal_adc_ex.c ****     if (READ_BIT(hadc->Instance->CR1, ADC_CR1_JAUTO) != RESET)
 721:src/stm32f1xx_hal_adc_ex.c ****     {
 722:src/stm32f1xx_hal_adc_ex.c ****       ADC_STATE_CLR_SET(hadc->State, HAL_ADC_STATE_INJ_EOC, HAL_ADC_STATE_INJ_BUSY);  
 723:src/stm32f1xx_hal_adc_ex.c ****     }
 724:src/stm32f1xx_hal_adc_ex.c ****     
 725:src/stm32f1xx_hal_adc_ex.c ****     /* Process unlocked */
 726:src/stm32f1xx_hal_adc_ex.c ****     /* Unlock before starting ADC conversions: in case of potential           */
 727:src/stm32f1xx_hal_adc_ex.c ****     /* interruption, to let the process to ADC IRQ Handler.                   */
 728:src/stm32f1xx_hal_adc_ex.c ****     __HAL_UNLOCK(hadc);
 729:src/stm32f1xx_hal_adc_ex.c ****     
 730:src/stm32f1xx_hal_adc_ex.c ****     /* Set ADC error code to none */
 731:src/stm32f1xx_hal_adc_ex.c ****     ADC_CLEAR_ERRORCODE(hadc);
 732:src/stm32f1xx_hal_adc_ex.c ****     
 733:src/stm32f1xx_hal_adc_ex.c ****     
 734:src/stm32f1xx_hal_adc_ex.c ****     /* Set the DMA transfer complete callback */
 735:src/stm32f1xx_hal_adc_ex.c ****     hadc->DMA_Handle->XferCpltCallback = ADC_DMAConvCplt;
 736:src/stm32f1xx_hal_adc_ex.c ****        
 737:src/stm32f1xx_hal_adc_ex.c ****     /* Set the DMA half transfer complete callback */
 738:src/stm32f1xx_hal_adc_ex.c ****     hadc->DMA_Handle->XferHalfCpltCallback = ADC_DMAHalfConvCplt;
 739:src/stm32f1xx_hal_adc_ex.c ****     
 740:src/stm32f1xx_hal_adc_ex.c ****     /* Set the DMA error callback */
 741:src/stm32f1xx_hal_adc_ex.c ****     hadc->DMA_Handle->XferErrorCallback = ADC_DMAError;
 742:src/stm32f1xx_hal_adc_ex.c **** 
 743:src/stm32f1xx_hal_adc_ex.c ****     
 744:src/stm32f1xx_hal_adc_ex.c ****     /* Manage ADC and DMA start: ADC overrun interruption, DMA start, ADC     */
 745:src/stm32f1xx_hal_adc_ex.c ****     /* start (in case of SW start):                                           */
 746:src/stm32f1xx_hal_adc_ex.c ****     
 747:src/stm32f1xx_hal_adc_ex.c ****     /* Clear regular group conversion flag and overrun flag */
 748:src/stm32f1xx_hal_adc_ex.c ****     /* (To ensure of no unknown state from potential previous ADC operations) */
 749:src/stm32f1xx_hal_adc_ex.c ****     __HAL_ADC_CLEAR_FLAG(hadc, ADC_FLAG_EOC);
 750:src/stm32f1xx_hal_adc_ex.c ****     
 751:src/stm32f1xx_hal_adc_ex.c ****     /* Enable ADC DMA mode of ADC master */
 752:src/stm32f1xx_hal_adc_ex.c ****     SET_BIT(hadc->Instance->CR2, ADC_CR2_DMA);
 753:src/stm32f1xx_hal_adc_ex.c ****     
 754:src/stm32f1xx_hal_adc_ex.c ****     /* Start the DMA channel */
 755:src/stm32f1xx_hal_adc_ex.c ****     HAL_DMA_Start_IT(hadc->DMA_Handle, (uint32_t)&hadc->Instance->DR, (uint32_t)pData, Length);
 756:src/stm32f1xx_hal_adc_ex.c ****     
 757:src/stm32f1xx_hal_adc_ex.c ****     /* Start conversion of regular group if software start has been selected. */
 758:src/stm32f1xx_hal_adc_ex.c ****     /* If external trigger has been selected, conversion will start at next   */
 759:src/stm32f1xx_hal_adc_ex.c ****     /* trigger event.                                                         */
 760:src/stm32f1xx_hal_adc_ex.c ****     /* Note: Alternate trigger for single conversion could be to force an     */
 761:src/stm32f1xx_hal_adc_ex.c ****     /*       additional set of bit ADON "hadc->Instance->CR2 |= ADC_CR2_ADON;"*/
 762:src/stm32f1xx_hal_adc_ex.c ****     if (ADC_IS_SOFTWARE_START_REGULAR(hadc))
 763:src/stm32f1xx_hal_adc_ex.c ****     {
 764:src/stm32f1xx_hal_adc_ex.c ****       /* Start ADC conversion on regular group with SW start */
 765:src/stm32f1xx_hal_adc_ex.c ****       SET_BIT(hadc->Instance->CR2, (ADC_CR2_SWSTART | ADC_CR2_EXTTRIG));
 766:src/stm32f1xx_hal_adc_ex.c ****     }
 767:src/stm32f1xx_hal_adc_ex.c ****     else
 768:src/stm32f1xx_hal_adc_ex.c ****     {
 769:src/stm32f1xx_hal_adc_ex.c ****       /* Start ADC conversion on regular group with external trigger */
 770:src/stm32f1xx_hal_adc_ex.c ****       SET_BIT(hadc->Instance->CR2, ADC_CR2_EXTTRIG);
 771:src/stm32f1xx_hal_adc_ex.c ****     }
 772:src/stm32f1xx_hal_adc_ex.c ****   }
 773:src/stm32f1xx_hal_adc_ex.c ****   else
ARM GAS  /tmp/ccHubou1.s 			page 33


 774:src/stm32f1xx_hal_adc_ex.c ****   {
 775:src/stm32f1xx_hal_adc_ex.c ****     /* Process unlocked */
 776:src/stm32f1xx_hal_adc_ex.c ****     __HAL_UNLOCK(hadc);
 980              		.loc 1 776 0
 981 043c 0023     		movs	r3, #0	@ tmp165,
 982 043e 84F82430 		strb	r3, [r4, #36]	@ tmp165, hadc_7(D)->Lock
 983 0442 42E0     		b	.L95	@
 984              	.LVL61:
 985              	.L96:
 702:src/stm32f1xx_hal_adc_ex.c ****   if (tmp_hal_status == HAL_OK)
 986              		.loc 1 702 0
 987 0444 FFF7FEFF 		bl	ADC_Enable	@
 988              	.LVL62:
 703:src/stm32f1xx_hal_adc_ex.c ****   {
 989              		.loc 1 703 0
 990 0448 0546     		mov	r5, r0	@ <retval>,
 991 044a 0028     		cmp	r0, #0	@ <retval>
 992 044c F6D1     		bne	.L97	@
 705:src/stm32f1xx_hal_adc_ex.c ****   }
 993              		.loc 1 705 0
 994 044e 6846     		mov	r0, sp	@,
 995              	.LVL63:
 996 0450 FFF7FEFF 		bl	ADC_Enable	@
 997              	.LVL64:
 709:src/stm32f1xx_hal_adc_ex.c ****   {
 998              		.loc 1 709 0
 999 0454 0546     		mov	r5, r0	@ <retval>,
 1000 0456 0028     		cmp	r0, #0	@ <retval>
 1001 0458 F0D1     		bne	.L97	@
 714:src/stm32f1xx_hal_adc_ex.c ****                       HAL_ADC_STATE_READY | HAL_ADC_STATE_REG_EOC | HAL_ADC_STATE_MULTIMODE_SLAVE,
 1002              		.loc 1 714 0
 1003 045a A26A     		ldr	r2, [r4, #40]	@ _21, hadc_7(D)->State
 1004 045c 1E4B     		ldr	r3, .L105+4	@ tmp153,
 720:src/stm32f1xx_hal_adc_ex.c ****     {
 1005              		.loc 1 720 0
 1006 045e 2168     		ldr	r1, [r4]	@ _25, hadc_7(D)->Instance
 714:src/stm32f1xx_hal_adc_ex.c ****                       HAL_ADC_STATE_READY | HAL_ADC_STATE_REG_EOC | HAL_ADC_STATE_MULTIMODE_SLAVE,
 1007              		.loc 1 714 0
 1008 0460 1340     		ands	r3, r3, r2	@, tmp153, tmp153, _21
 1009 0462 43F48073 		orr	r3, r3, #256	@ _23, tmp153,
 1010 0466 A362     		str	r3, [r4, #40]	@ _23, hadc_7(D)->State
 720:src/stm32f1xx_hal_adc_ex.c ****     {
 1011              		.loc 1 720 0
 1012 0468 4B68     		ldr	r3, [r1, #4]	@ _26, _25->CR1
 735:src/stm32f1xx_hal_adc_ex.c ****        
 1013              		.loc 1 735 0
 1014 046a 206A     		ldr	r0, [r4, #32]	@ _34, hadc_7(D)->DMA_Handle
 1015              	.LVL65:
 720:src/stm32f1xx_hal_adc_ex.c ****     {
 1016              		.loc 1 720 0
 1017 046c 5B05     		lsls	r3, r3, #21	@, _26,
 722:src/stm32f1xx_hal_adc_ex.c ****     }
 1018              		.loc 1 722 0
 1019 046e 48BF     		it	mi
 1020 0470 A36A     		ldrmi	r3, [r4, #40]	@ _28, hadc_7(D)->State
 755:src/stm32f1xx_hal_adc_ex.c ****     
 1021              		.loc 1 755 0
ARM GAS  /tmp/ccHubou1.s 			page 34


 1022 0472 3246     		mov	r2, r6	@, pData
 722:src/stm32f1xx_hal_adc_ex.c ****     }
 1023              		.loc 1 722 0
 1024 0474 42BF     		ittt	mi
 1025 0476 23F44053 		bicmi	r3, r3, #12288	@ tmp155, _28,
 1026 047a 43F48053 		orrmi	r3, r3, #4096	@ _30, tmp155,
 1027 047e A362     		strmi	r3, [r4, #40]	@ _30, hadc_7(D)->State
 728:src/stm32f1xx_hal_adc_ex.c ****     
 1028              		.loc 1 728 0
 1029 0480 0023     		movs	r3, #0	@ tmp156,
 731:src/stm32f1xx_hal_adc_ex.c ****     
 1030              		.loc 1 731 0
 1031 0482 E362     		str	r3, [r4, #44]	@ tmp156, hadc_7(D)->ErrorCode
 728:src/stm32f1xx_hal_adc_ex.c ****     
 1032              		.loc 1 728 0
 1033 0484 84F82430 		strb	r3, [r4, #36]	@ tmp156, hadc_7(D)->Lock
 735:src/stm32f1xx_hal_adc_ex.c ****        
 1034              		.loc 1 735 0
 1035 0488 144B     		ldr	r3, .L105+8	@ tmp159,
 755:src/stm32f1xx_hal_adc_ex.c ****     
 1036              		.loc 1 755 0
 1037 048a 4C31     		adds	r1, r1, #76	@, _25,
 735:src/stm32f1xx_hal_adc_ex.c ****        
 1038              		.loc 1 735 0
 1039 048c 8362     		str	r3, [r0, #40]	@ tmp159, _34->XferCpltCallback
 738:src/stm32f1xx_hal_adc_ex.c ****     
 1040              		.loc 1 738 0
 1041 048e 144B     		ldr	r3, .L105+12	@ tmp160,
 1042 0490 C362     		str	r3, [r0, #44]	@ tmp160, _34->XferHalfCpltCallback
 741:src/stm32f1xx_hal_adc_ex.c **** 
 1043              		.loc 1 741 0
 1044 0492 144B     		ldr	r3, .L105+16	@ tmp161,
 1045 0494 0363     		str	r3, [r0, #48]	@ tmp161, _34->XferErrorCallback
 749:src/stm32f1xx_hal_adc_ex.c ****     
 1046              		.loc 1 749 0
 1047 0496 6FF00203 		mvn	r3, #2	@ tmp162,
 1048 049a 41F84C3C 		str	r3, [r1, #-76]	@ tmp162, _25->SR
 752:src/stm32f1xx_hal_adc_ex.c ****     
 1049              		.loc 1 752 0
 1050 049e 51F8443C 		ldr	r3, [r1, #-68]	@ _39, _25->CR2
 1051 04a2 43F48073 		orr	r3, r3, #256	@ _40, _39,
 1052 04a6 41F8443C 		str	r3, [r1, #-68]	@ _40, _25->CR2
 755:src/stm32f1xx_hal_adc_ex.c ****     
 1053              		.loc 1 755 0
 1054 04aa 3B46     		mov	r3, r7	@, Length
 1055 04ac FFF7FEFF 		bl	HAL_DMA_Start_IT	@
 1056              	.LVL66:
 762:src/stm32f1xx_hal_adc_ex.c ****     {
 1057              		.loc 1 762 0
 1058 04b0 2368     		ldr	r3, [r4]	@ _48, hadc_7(D)->Instance
 1059 04b2 9A68     		ldr	r2, [r3, #8]	@ _49, _48->CR2
 1060 04b4 02F46022 		and	r2, r2, #917504	@ tmp164, _49,
 1061 04b8 B2F5602F 		cmp	r2, #917504	@ tmp164,
 765:src/stm32f1xx_hal_adc_ex.c ****     }
 1062              		.loc 1 765 0
 1063 04bc 9A68     		ldr	r2, [r3, #8]	@ _54,
 1064 04be 0CBF     		ite	eq
ARM GAS  /tmp/ccHubou1.s 			page 35


 1065 04c0 42F4A002 		orreq	r2, r2, #5242880	@ _55, _54,
 770:src/stm32f1xx_hal_adc_ex.c ****     }
 1066              		.loc 1 770 0
 1067 04c4 42F48012 		orrne	r2, r2, #1048576	@ _52, _51,
 1068 04c8 9A60     		str	r2, [r3, #8]	@ _52,
 1069              	.L95:
 777:src/stm32f1xx_hal_adc_ex.c ****   }
 778:src/stm32f1xx_hal_adc_ex.c ****   
 779:src/stm32f1xx_hal_adc_ex.c ****   /* Return function status */
 780:src/stm32f1xx_hal_adc_ex.c ****   return tmp_hal_status;
 781:src/stm32f1xx_hal_adc_ex.c **** }
 1070              		.loc 1 781 0
 1071 04ca 2846     		mov	r0, r5	@, <retval>
 1072 04cc 0DB0     		add	sp, sp, #52	@,,
 1073              	.LCFI12:
 1074              		.cfi_remember_state
 1075              		.cfi_def_cfa_offset 20
 1076              		@ sp needed	@
 1077 04ce F0BD     		pop	{r4, r5, r6, r7, pc}	@
 1078              	.LVL67:
 1079              	.L100:
 1080              	.LCFI13:
 1081              		.cfi_restore_state
 680:src/stm32f1xx_hal_adc_ex.c **** 
 1082              		.loc 1 680 0
 1083 04d0 0225     		movs	r5, #2	@ <retval>,
 1084 04d2 FAE7     		b	.L95	@
 1085              	.L106:
 1086              		.align	2
 1087              	.L105:
 1088 04d4 00280140 		.word	1073817600
 1089 04d8 FEFCEFFF 		.word	-1049346
 1090 04dc 00000000 		.word	ADC_DMAConvCplt
 1091 04e0 00000000 		.word	ADC_DMAHalfConvCplt
 1092 04e4 00000000 		.word	ADC_DMAError
 1093              		.cfi_endproc
 1094              	.LFE71:
 1095              		.size	HAL_ADCEx_MultiModeStart_DMA, .-HAL_ADCEx_MultiModeStart_DMA
 1096              		.align	1
 1097              		.global	HAL_ADCEx_MultiModeStop_DMA
 1098              		.syntax unified
 1099              		.thumb
 1100              		.thumb_func
 1101              		.fpu softvfp
 1102              		.type	HAL_ADCEx_MultiModeStop_DMA, %function
 1103              	HAL_ADCEx_MultiModeStop_DMA:
 1104              	.LFB72:
 782:src/stm32f1xx_hal_adc_ex.c **** 
 783:src/stm32f1xx_hal_adc_ex.c **** /**
 784:src/stm32f1xx_hal_adc_ex.c ****   * @brief  Stop ADC conversion of regular group (and injected channels in 
 785:src/stm32f1xx_hal_adc_ex.c ****   *         case of auto_injection mode), disable ADC DMA transfer, disable 
 786:src/stm32f1xx_hal_adc_ex.c ****   *         ADC peripheral.
 787:src/stm32f1xx_hal_adc_ex.c ****   * @note   Multimode is kept enabled after this function. To disable multimode 
 788:src/stm32f1xx_hal_adc_ex.c ****   *         (set with HAL_ADCEx_MultiModeConfigChannel(), ADC must be 
 789:src/stm32f1xx_hal_adc_ex.c ****   *         reinitialized using HAL_ADC_Init() or HAL_ADC_ReInit().
 790:src/stm32f1xx_hal_adc_ex.c ****   * @note   In case of DMA configured in circular mode, function 
 791:src/stm32f1xx_hal_adc_ex.c ****   *         HAL_ADC_Stop_DMA must be called after this function with handle of
ARM GAS  /tmp/ccHubou1.s 			page 36


 792:src/stm32f1xx_hal_adc_ex.c ****   *         ADC slave, to properly disable the DMA channel.
 793:src/stm32f1xx_hal_adc_ex.c ****   * @param  hadc: ADC handle of ADC master (handle of ADC slave must not be used)
 794:src/stm32f1xx_hal_adc_ex.c ****   * @retval None
 795:src/stm32f1xx_hal_adc_ex.c ****   */
 796:src/stm32f1xx_hal_adc_ex.c **** HAL_StatusTypeDef HAL_ADCEx_MultiModeStop_DMA(ADC_HandleTypeDef* hadc)
 797:src/stm32f1xx_hal_adc_ex.c **** {
 1105              		.loc 1 797 0
 1106              		.cfi_startproc
 1107              		@ args = 0, pretend = 0, frame = 48
 1108              		@ frame_needed = 0, uses_anonymous_args = 0
 1109              	.LVL68:
 1110 04e8 70B5     		push	{r4, r5, r6, lr}	@
 1111              	.LCFI14:
 1112              		.cfi_def_cfa_offset 16
 1113              		.cfi_offset 4, -16
 1114              		.cfi_offset 5, -12
 1115              		.cfi_offset 6, -8
 1116              		.cfi_offset 14, -4
 798:src/stm32f1xx_hal_adc_ex.c ****   HAL_StatusTypeDef tmp_hal_status = HAL_OK;
 799:src/stm32f1xx_hal_adc_ex.c ****   ADC_HandleTypeDef tmphadcSlave;
 800:src/stm32f1xx_hal_adc_ex.c ****   
 801:src/stm32f1xx_hal_adc_ex.c ****   /* Check the parameters */
 802:src/stm32f1xx_hal_adc_ex.c ****   assert_param(IS_ADC_MULTIMODE_MASTER_INSTANCE(hadc->Instance));
 803:src/stm32f1xx_hal_adc_ex.c ****   
 804:src/stm32f1xx_hal_adc_ex.c ****   /* Process locked */
 805:src/stm32f1xx_hal_adc_ex.c ****   __HAL_LOCK(hadc);
 1117              		.loc 1 805 0
 1118 04ea 90F82430 		ldrb	r3, [r0, #36]	@ zero_extendqisi2	@ hadc_6(D)->Lock, hadc_6(D)->Lock
 797:src/stm32f1xx_hal_adc_ex.c ****   HAL_StatusTypeDef tmp_hal_status = HAL_OK;
 1119              		.loc 1 797 0
 1120 04ee 8CB0     		sub	sp, sp, #48	@,,
 1121              	.LCFI15:
 1122              		.cfi_def_cfa_offset 64
 1123              		.loc 1 805 0
 1124 04f0 012B     		cmp	r3, #1	@ hadc_6(D)->Lock,
 797:src/stm32f1xx_hal_adc_ex.c ****   HAL_StatusTypeDef tmp_hal_status = HAL_OK;
 1125              		.loc 1 797 0
 1126 04f2 0446     		mov	r4, r0	@ hadc, hadc
 1127              		.loc 1 805 0
 1128 04f4 30D0     		beq	.L111	@,
 1129              		.loc 1 805 0 is_stmt 0 discriminator 2
 1130 04f6 0126     		movs	r6, #1	@ tmp126,
 1131 04f8 80F82460 		strb	r6, [r0, #36]	@ tmp126, hadc_6(D)->Lock
 806:src/stm32f1xx_hal_adc_ex.c ****   
 807:src/stm32f1xx_hal_adc_ex.c ****  
 808:src/stm32f1xx_hal_adc_ex.c ****   /* Stop potential conversion on going, on regular and injected groups */
 809:src/stm32f1xx_hal_adc_ex.c ****   /* Disable ADC master peripheral */
 810:src/stm32f1xx_hal_adc_ex.c ****   tmp_hal_status = ADC_ConversionStop_Disable(hadc);
 1132              		.loc 1 810 0 is_stmt 1 discriminator 2
 1133 04fc FFF7FEFF 		bl	ADC_ConversionStop_Disable	@
 1134              	.LVL69:
 811:src/stm32f1xx_hal_adc_ex.c ****   
 812:src/stm32f1xx_hal_adc_ex.c ****   /* Check if ADC is effectively disabled */
 813:src/stm32f1xx_hal_adc_ex.c ****   if(tmp_hal_status == HAL_OK)
 1135              		.loc 1 813 0 discriminator 2
 1136 0500 0546     		mov	r5, r0	@ <retval>,
 1137 0502 28BB     		cbnz	r0, .L109	@ <retval>,
ARM GAS  /tmp/ccHubou1.s 			page 37


 814:src/stm32f1xx_hal_adc_ex.c ****   {
 815:src/stm32f1xx_hal_adc_ex.c ****     /* Set a temporary handle of the ADC slave associated to the ADC master   */
 816:src/stm32f1xx_hal_adc_ex.c ****     ADC_MULTI_SLAVE(hadc, &tmphadcSlave);
 1138              		.loc 1 816 0
 1139 0504 154B     		ldr	r3, .L112	@ tmp129,
 1140 0506 0CA8     		add	r0, sp, #48	@ tmp130,,
 1141              	.LVL70:
 1142 0508 40F8303D 		str	r3, [r0, #-48]!	@ tmp129, tmphadcSlave.Instance
 817:src/stm32f1xx_hal_adc_ex.c **** 
 818:src/stm32f1xx_hal_adc_ex.c ****     /* Disable ADC slave peripheral */
 819:src/stm32f1xx_hal_adc_ex.c ****     tmp_hal_status = ADC_ConversionStop_Disable(&tmphadcSlave);
 1143              		.loc 1 819 0
 1144 050c FFF7FEFF 		bl	ADC_ConversionStop_Disable	@
 1145              	.LVL71:
 820:src/stm32f1xx_hal_adc_ex.c **** 
 821:src/stm32f1xx_hal_adc_ex.c ****     /* Check if ADC is effectively disabled */
 822:src/stm32f1xx_hal_adc_ex.c ****     if(tmp_hal_status != HAL_OK)
 1146              		.loc 1 822 0
 1147 0510 48B1     		cbz	r0, .L110	@,
 823:src/stm32f1xx_hal_adc_ex.c ****     {
 824:src/stm32f1xx_hal_adc_ex.c ****       /* Update ADC state machine to error */
 825:src/stm32f1xx_hal_adc_ex.c ****       SET_BIT(hadc->State, HAL_ADC_STATE_ERROR_INTERNAL);
 826:src/stm32f1xx_hal_adc_ex.c **** 
 827:src/stm32f1xx_hal_adc_ex.c ****       /* Process unlocked */
 828:src/stm32f1xx_hal_adc_ex.c ****       __HAL_UNLOCK(hadc);
 1148              		.loc 1 828 0
 1149 0512 84F82450 		strb	r5, [r4, #36]	@ <retval>, hadc_6(D)->Lock
 829:src/stm32f1xx_hal_adc_ex.c **** 
 830:src/stm32f1xx_hal_adc_ex.c ****       return HAL_ERROR;
 1150              		.loc 1 830 0
 1151 0516 3546     		mov	r5, r6	@ <retval>, tmp126
 825:src/stm32f1xx_hal_adc_ex.c **** 
 1152              		.loc 1 825 0
 1153 0518 A36A     		ldr	r3, [r4, #40]	@ _14, hadc_6(D)->State
 1154 051a 43F01003 		orr	r3, r3, #16	@ _15, _14,
 1155 051e A362     		str	r3, [r4, #40]	@ _15, hadc_6(D)->State
 1156              	.LVL72:
 1157              	.L108:
 831:src/stm32f1xx_hal_adc_ex.c ****     }
 832:src/stm32f1xx_hal_adc_ex.c **** 
 833:src/stm32f1xx_hal_adc_ex.c ****     /* Disable ADC DMA mode */
 834:src/stm32f1xx_hal_adc_ex.c ****     CLEAR_BIT(hadc->Instance->CR2, ADC_CR2_DMA);
 835:src/stm32f1xx_hal_adc_ex.c ****     
 836:src/stm32f1xx_hal_adc_ex.c ****     /* Reset configuration of ADC DMA continuous request for dual mode */
 837:src/stm32f1xx_hal_adc_ex.c ****     CLEAR_BIT(hadc->Instance->CR1, ADC_CR1_DUALMOD);
 838:src/stm32f1xx_hal_adc_ex.c ****         
 839:src/stm32f1xx_hal_adc_ex.c ****     /* Disable the DMA channel (in case of DMA in circular mode or stop while */
 840:src/stm32f1xx_hal_adc_ex.c ****     /* while DMA transfer is on going)                                        */
 841:src/stm32f1xx_hal_adc_ex.c ****     tmp_hal_status = HAL_DMA_Abort(hadc->DMA_Handle);
 842:src/stm32f1xx_hal_adc_ex.c **** 
 843:src/stm32f1xx_hal_adc_ex.c ****     /* Change ADC state (ADC master) */
 844:src/stm32f1xx_hal_adc_ex.c ****     ADC_STATE_CLR_SET(hadc->State,
 845:src/stm32f1xx_hal_adc_ex.c ****                       HAL_ADC_STATE_REG_BUSY | HAL_ADC_STATE_INJ_BUSY,
 846:src/stm32f1xx_hal_adc_ex.c ****                       HAL_ADC_STATE_READY);
 847:src/stm32f1xx_hal_adc_ex.c ****   }
 848:src/stm32f1xx_hal_adc_ex.c ****   
 849:src/stm32f1xx_hal_adc_ex.c ****   /* Process unlocked */
ARM GAS  /tmp/ccHubou1.s 			page 38


 850:src/stm32f1xx_hal_adc_ex.c ****   __HAL_UNLOCK(hadc);
 851:src/stm32f1xx_hal_adc_ex.c ****   
 852:src/stm32f1xx_hal_adc_ex.c ****   /* Return function status */
 853:src/stm32f1xx_hal_adc_ex.c ****   return tmp_hal_status;
 854:src/stm32f1xx_hal_adc_ex.c **** }
 1158              		.loc 1 854 0
 1159 0520 2846     		mov	r0, r5	@, <retval>
 1160 0522 0CB0     		add	sp, sp, #48	@,,
 1161              	.LCFI16:
 1162              		.cfi_remember_state
 1163              		.cfi_def_cfa_offset 16
 1164              		@ sp needed	@
 1165 0524 70BD     		pop	{r4, r5, r6, pc}	@
 1166              	.LVL73:
 1167              	.L110:
 1168              	.LCFI17:
 1169              		.cfi_restore_state
 834:src/stm32f1xx_hal_adc_ex.c ****     
 1170              		.loc 1 834 0
 1171 0526 2368     		ldr	r3, [r4]	@ _18, hadc_6(D)->Instance
 841:src/stm32f1xx_hal_adc_ex.c **** 
 1172              		.loc 1 841 0
 1173 0528 206A     		ldr	r0, [r4, #32]	@, hadc_6(D)->DMA_Handle
 1174              	.LVL74:
 834:src/stm32f1xx_hal_adc_ex.c ****     
 1175              		.loc 1 834 0
 1176 052a 9A68     		ldr	r2, [r3, #8]	@ _19, _18->CR2
 1177 052c 22F48072 		bic	r2, r2, #256	@ _20, _19,
 1178 0530 9A60     		str	r2, [r3, #8]	@ _20, _18->CR2
 837:src/stm32f1xx_hal_adc_ex.c ****         
 1179              		.loc 1 837 0
 1180 0532 5A68     		ldr	r2, [r3, #4]	@ _22, _18->CR1
 1181 0534 22F47022 		bic	r2, r2, #983040	@ _23, _22,
 1182 0538 5A60     		str	r2, [r3, #4]	@ _23, _18->CR1
 841:src/stm32f1xx_hal_adc_ex.c **** 
 1183              		.loc 1 841 0
 1184 053a FFF7FEFF 		bl	HAL_DMA_Abort	@
 1185              	.LVL75:
 1186 053e 0546     		mov	r5, r0	@ <retval>,
 1187              	.LVL76:
 844:src/stm32f1xx_hal_adc_ex.c ****                       HAL_ADC_STATE_REG_BUSY | HAL_ADC_STATE_INJ_BUSY,
 1188              		.loc 1 844 0
 1189 0540 A36A     		ldr	r3, [r4, #40]	@ _28, hadc_6(D)->State
 1190 0542 23F48853 		bic	r3, r3, #4352	@ tmp135, _28,
 1191 0546 23F00103 		bic	r3, r3, #1	@ tmp135, tmp135,
 1192 054a 43F00103 		orr	r3, r3, #1	@ _30, tmp135,
 1193 054e A362     		str	r3, [r4, #40]	@ _30, hadc_6(D)->State
 1194              	.LVL77:
 1195              	.L109:
 850:src/stm32f1xx_hal_adc_ex.c ****   
 1196              		.loc 1 850 0
 1197 0550 0023     		movs	r3, #0	@ tmp137,
 1198 0552 84F82430 		strb	r3, [r4, #36]	@ tmp137, hadc_6(D)->Lock
 853:src/stm32f1xx_hal_adc_ex.c **** }
 1199              		.loc 1 853 0
 1200 0556 E3E7     		b	.L108	@
 1201              	.LVL78:
ARM GAS  /tmp/ccHubou1.s 			page 39


 1202              	.L111:
 805:src/stm32f1xx_hal_adc_ex.c ****   
 1203              		.loc 1 805 0
 1204 0558 0225     		movs	r5, #2	@ <retval>,
 1205 055a E1E7     		b	.L108	@
 1206              	.L113:
 1207              		.align	2
 1208              	.L112:
 1209 055c 00280140 		.word	1073817600
 1210              		.cfi_endproc
 1211              	.LFE72:
 1212              		.size	HAL_ADCEx_MultiModeStop_DMA, .-HAL_ADCEx_MultiModeStop_DMA
 1213              		.align	1
 1214              		.global	HAL_ADCEx_InjectedGetValue
 1215              		.syntax unified
 1216              		.thumb
 1217              		.thumb_func
 1218              		.fpu softvfp
 1219              		.type	HAL_ADCEx_InjectedGetValue, %function
 1220              	HAL_ADCEx_InjectedGetValue:
 1221              	.LFB73:
 855:src/stm32f1xx_hal_adc_ex.c **** #endif /* defined STM32F103x6 || defined STM32F103xB || defined STM32F105xC || defined STM32F107xC 
 856:src/stm32f1xx_hal_adc_ex.c **** 
 857:src/stm32f1xx_hal_adc_ex.c **** /**
 858:src/stm32f1xx_hal_adc_ex.c ****   * @brief  Get ADC injected group conversion result.
 859:src/stm32f1xx_hal_adc_ex.c ****   * @note   Reading register JDRx automatically clears ADC flag JEOC
 860:src/stm32f1xx_hal_adc_ex.c ****   *         (ADC group injected end of unitary conversion).
 861:src/stm32f1xx_hal_adc_ex.c ****   * @note   This function does not clear ADC flag JEOS 
 862:src/stm32f1xx_hal_adc_ex.c ****   *         (ADC group injected end of sequence conversion)
 863:src/stm32f1xx_hal_adc_ex.c ****   *         Occurrence of flag JEOS rising:
 864:src/stm32f1xx_hal_adc_ex.c ****   *          - If sequencer is composed of 1 rank, flag JEOS is equivalent
 865:src/stm32f1xx_hal_adc_ex.c ****   *            to flag JEOC.
 866:src/stm32f1xx_hal_adc_ex.c ****   *          - If sequencer is composed of several ranks, during the scan
 867:src/stm32f1xx_hal_adc_ex.c ****   *            sequence flag JEOC only is raised, at the end of the scan sequence
 868:src/stm32f1xx_hal_adc_ex.c ****   *            both flags JEOC and EOS are raised.
 869:src/stm32f1xx_hal_adc_ex.c ****   *         Flag JEOS must not be cleared by this function because
 870:src/stm32f1xx_hal_adc_ex.c ****   *         it would not be compliant with low power features
 871:src/stm32f1xx_hal_adc_ex.c ****   *         (feature low power auto-wait, not available on all STM32 families).
 872:src/stm32f1xx_hal_adc_ex.c ****   *         To clear this flag, either use function: 
 873:src/stm32f1xx_hal_adc_ex.c ****   *         in programming model IT: @ref HAL_ADC_IRQHandler(), in programming
 874:src/stm32f1xx_hal_adc_ex.c ****   *         model polling: @ref HAL_ADCEx_InjectedPollForConversion() 
 875:src/stm32f1xx_hal_adc_ex.c ****   *         or @ref __HAL_ADC_CLEAR_FLAG(&hadc, ADC_FLAG_JEOS).
 876:src/stm32f1xx_hal_adc_ex.c ****   * @param  hadc: ADC handle
 877:src/stm32f1xx_hal_adc_ex.c ****   * @param  InjectedRank: the converted ADC injected rank.
 878:src/stm32f1xx_hal_adc_ex.c ****   *          This parameter can be one of the following values:
 879:src/stm32f1xx_hal_adc_ex.c ****   *            @arg ADC_INJECTED_RANK_1: Injected Channel1 selected
 880:src/stm32f1xx_hal_adc_ex.c ****   *            @arg ADC_INJECTED_RANK_2: Injected Channel2 selected
 881:src/stm32f1xx_hal_adc_ex.c ****   *            @arg ADC_INJECTED_RANK_3: Injected Channel3 selected
 882:src/stm32f1xx_hal_adc_ex.c ****   *            @arg ADC_INJECTED_RANK_4: Injected Channel4 selected
 883:src/stm32f1xx_hal_adc_ex.c ****   * @retval ADC group injected conversion data
 884:src/stm32f1xx_hal_adc_ex.c ****   */
 885:src/stm32f1xx_hal_adc_ex.c **** uint32_t HAL_ADCEx_InjectedGetValue(ADC_HandleTypeDef* hadc, uint32_t InjectedRank)
 886:src/stm32f1xx_hal_adc_ex.c **** {
 1222              		.loc 1 886 0
 1223              		.cfi_startproc
 1224              		@ args = 0, pretend = 0, frame = 0
 1225              		@ frame_needed = 0, uses_anonymous_args = 0
ARM GAS  /tmp/ccHubou1.s 			page 40


 1226              		@ link register save eliminated.
 1227              	.LVL79:
 887:src/stm32f1xx_hal_adc_ex.c ****   uint32_t tmp_jdr = 0U;
 888:src/stm32f1xx_hal_adc_ex.c ****   
 889:src/stm32f1xx_hal_adc_ex.c ****   /* Check the parameters */
 890:src/stm32f1xx_hal_adc_ex.c ****   assert_param(IS_ADC_ALL_INSTANCE(hadc->Instance));
 891:src/stm32f1xx_hal_adc_ex.c ****   assert_param(IS_ADC_INJECTED_RANK(InjectedRank));
 892:src/stm32f1xx_hal_adc_ex.c ****   
 893:src/stm32f1xx_hal_adc_ex.c ****   /* Get ADC converted value */ 
 894:src/stm32f1xx_hal_adc_ex.c ****   switch(InjectedRank)
 1228              		.loc 1 894 0
 1229 0560 0329     		cmp	r1, #3	@ InjectedRank,
 1230 0562 0368     		ldr	r3, [r0]	@ _7, hadc_4(D)->Instance
 1231 0564 07D0     		beq	.L116	@,
 1232 0566 0429     		cmp	r1, #4	@ InjectedRank,
 1233 0568 03D0     		beq	.L117	@,
 1234 056a 0229     		cmp	r1, #2	@ InjectedRank,
 1235 056c 05D1     		bne	.L120	@,
 895:src/stm32f1xx_hal_adc_ex.c ****   {  
 896:src/stm32f1xx_hal_adc_ex.c ****     case ADC_INJECTED_RANK_4: 
 897:src/stm32f1xx_hal_adc_ex.c ****       tmp_jdr = hadc->Instance->JDR4;
 898:src/stm32f1xx_hal_adc_ex.c ****       break;
 899:src/stm32f1xx_hal_adc_ex.c ****     case ADC_INJECTED_RANK_3: 
 900:src/stm32f1xx_hal_adc_ex.c ****       tmp_jdr = hadc->Instance->JDR3;
 901:src/stm32f1xx_hal_adc_ex.c ****       break;
 902:src/stm32f1xx_hal_adc_ex.c ****     case ADC_INJECTED_RANK_2: 
 903:src/stm32f1xx_hal_adc_ex.c ****       tmp_jdr = hadc->Instance->JDR2;
 1236              		.loc 1 903 0
 1237 056e 186C     		ldr	r0, [r3, #64]	@ <retval>, _9->JDR2
 1238              	.LVL80:
 904:src/stm32f1xx_hal_adc_ex.c ****       break;
 1239              		.loc 1 904 0
 1240 0570 7047     		bx	lr	@
 1241              	.LVL81:
 1242              	.L117:
 897:src/stm32f1xx_hal_adc_ex.c ****       break;
 1243              		.loc 1 897 0
 1244 0572 986C     		ldr	r0, [r3, #72]	@ <retval>, _5->JDR4
 1245              	.LVL82:
 898:src/stm32f1xx_hal_adc_ex.c ****     case ADC_INJECTED_RANK_3: 
 1246              		.loc 1 898 0
 1247 0574 7047     		bx	lr	@
 1248              	.LVL83:
 1249              	.L116:
 900:src/stm32f1xx_hal_adc_ex.c ****       break;
 1250              		.loc 1 900 0
 1251 0576 586C     		ldr	r0, [r3, #68]	@ <retval>, _7->JDR3
 1252              	.LVL84:
 901:src/stm32f1xx_hal_adc_ex.c ****     case ADC_INJECTED_RANK_2: 
 1253              		.loc 1 901 0
 1254 0578 7047     		bx	lr	@
 1255              	.LVL85:
 1256              	.L120:
 905:src/stm32f1xx_hal_adc_ex.c ****     case ADC_INJECTED_RANK_1:
 906:src/stm32f1xx_hal_adc_ex.c ****     default:
 907:src/stm32f1xx_hal_adc_ex.c ****       tmp_jdr = hadc->Instance->JDR1;
 1257              		.loc 1 907 0
ARM GAS  /tmp/ccHubou1.s 			page 41


 1258 057a D86B     		ldr	r0, [r3, #60]	@ <retval>, _11->JDR1
 1259              	.LVL86:
 908:src/stm32f1xx_hal_adc_ex.c ****       break;
 909:src/stm32f1xx_hal_adc_ex.c ****   }
 910:src/stm32f1xx_hal_adc_ex.c ****   
 911:src/stm32f1xx_hal_adc_ex.c ****   /* Return ADC converted value */ 
 912:src/stm32f1xx_hal_adc_ex.c ****   return tmp_jdr;
 913:src/stm32f1xx_hal_adc_ex.c **** }
 1260              		.loc 1 913 0
 1261 057c 7047     		bx	lr	@
 1262              		.cfi_endproc
 1263              	.LFE73:
 1264              		.size	HAL_ADCEx_InjectedGetValue, .-HAL_ADCEx_InjectedGetValue
 1265              		.align	1
 1266              		.global	HAL_ADCEx_MultiModeGetValue
 1267              		.syntax unified
 1268              		.thumb
 1269              		.thumb_func
 1270              		.fpu softvfp
 1271              		.type	HAL_ADCEx_MultiModeGetValue, %function
 1272              	HAL_ADCEx_MultiModeGetValue:
 1273              	.LFB74:
 914:src/stm32f1xx_hal_adc_ex.c **** 
 915:src/stm32f1xx_hal_adc_ex.c **** #if defined (STM32F103x6) || defined (STM32F103xB) || defined (STM32F105xC) || defined (STM32F107xC
 916:src/stm32f1xx_hal_adc_ex.c **** /**
 917:src/stm32f1xx_hal_adc_ex.c ****   * @brief  Returns the last ADC Master&Slave regular conversions results data
 918:src/stm32f1xx_hal_adc_ex.c ****   *         in the selected multi mode.
 919:src/stm32f1xx_hal_adc_ex.c ****   * @param  hadc: ADC handle of ADC master (handle of ADC slave must not be used)
 920:src/stm32f1xx_hal_adc_ex.c ****   * @retval The converted data value.
 921:src/stm32f1xx_hal_adc_ex.c ****   */
 922:src/stm32f1xx_hal_adc_ex.c **** uint32_t HAL_ADCEx_MultiModeGetValue(ADC_HandleTypeDef* hadc)
 923:src/stm32f1xx_hal_adc_ex.c **** {
 1274              		.loc 1 923 0
 1275              		.cfi_startproc
 1276              		@ args = 0, pretend = 0, frame = 0
 1277              		@ frame_needed = 0, uses_anonymous_args = 0
 1278              		@ link register save eliminated.
 1279              	.LVL87:
 924:src/stm32f1xx_hal_adc_ex.c ****   uint32_t tmpDR = 0U;
 925:src/stm32f1xx_hal_adc_ex.c ****   
 926:src/stm32f1xx_hal_adc_ex.c ****   /* Check the parameters */
 927:src/stm32f1xx_hal_adc_ex.c ****   assert_param(IS_ADC_MULTIMODE_MASTER_INSTANCE(hadc->Instance));
 928:src/stm32f1xx_hal_adc_ex.c ****   
 929:src/stm32f1xx_hal_adc_ex.c ****   /* Check the parameters */
 930:src/stm32f1xx_hal_adc_ex.c ****   assert_param(IS_ADC_ALL_INSTANCE(hadc->Instance));
 931:src/stm32f1xx_hal_adc_ex.c **** 
 932:src/stm32f1xx_hal_adc_ex.c ****   /* Note: EOC flag is not cleared here by software because automatically     */
 933:src/stm32f1xx_hal_adc_ex.c ****   /*       cleared by hardware when reading register DR.                      */
 934:src/stm32f1xx_hal_adc_ex.c ****   
 935:src/stm32f1xx_hal_adc_ex.c ****   /* On STM32F1 devices, ADC1 data register DR contains ADC2 conversions      */
 936:src/stm32f1xx_hal_adc_ex.c ****   /* only if ADC1 DMA mode is enabled.                                        */
 937:src/stm32f1xx_hal_adc_ex.c ****   tmpDR = hadc->Instance->DR;
 1280              		.loc 1 937 0
 1281 057e 0368     		ldr	r3, [r0]	@ _4, hadc_3(D)->Instance
 1282 0580 D86C     		ldr	r0, [r3, #76]	@ <retval>, _4->DR
 1283              	.LVL88:
 938:src/stm32f1xx_hal_adc_ex.c **** 
ARM GAS  /tmp/ccHubou1.s 			page 42


 939:src/stm32f1xx_hal_adc_ex.c ****   if (HAL_IS_BIT_CLR(ADC1->CR2, ADC_CR2_DMA))
 1284              		.loc 1 939 0
 1285 0582 044B     		ldr	r3, .L123	@ tmp117,
 1286 0584 9B68     		ldr	r3, [r3, #8]	@ _6, MEM[(struct ADC_TypeDef *)1073816576B].CR2
 1287 0586 DB05     		lsls	r3, r3, #23	@, _6,
 940:src/stm32f1xx_hal_adc_ex.c ****   {
 941:src/stm32f1xx_hal_adc_ex.c ****     tmpDR |= (ADC2->DR << 16U);
 1288              		.loc 1 941 0
 1289 0588 5EBF     		ittt	pl
 1290 058a 034B     		ldrpl	r3, .L123+4	@ tmp119,
 1291 058c DB6C     		ldrpl	r3, [r3, #76]	@ _8, MEM[(struct ADC_TypeDef *)1073817600B].DR
 1292 058e 40EA0340 		orrpl	r0, r0, r3, lsl #16	@ <retval>, <retval>, _8,
 1293              	.LVL89:
 942:src/stm32f1xx_hal_adc_ex.c ****   }
 943:src/stm32f1xx_hal_adc_ex.c ****     
 944:src/stm32f1xx_hal_adc_ex.c ****   /* Return ADC converted value */ 
 945:src/stm32f1xx_hal_adc_ex.c ****   return tmpDR;
 946:src/stm32f1xx_hal_adc_ex.c **** }
 1294              		.loc 1 946 0
 1295 0592 7047     		bx	lr	@
 1296              	.L124:
 1297              		.align	2
 1298              	.L123:
 1299 0594 00240140 		.word	1073816576
 1300 0598 00280140 		.word	1073817600
 1301              		.cfi_endproc
 1302              	.LFE74:
 1303              		.size	HAL_ADCEx_MultiModeGetValue, .-HAL_ADCEx_MultiModeGetValue
 1304              		.align	1
 1305              		.weak	HAL_ADCEx_InjectedConvCpltCallback
 1306              		.syntax unified
 1307              		.thumb
 1308              		.thumb_func
 1309              		.fpu softvfp
 1310              		.type	HAL_ADCEx_InjectedConvCpltCallback, %function
 1311              	HAL_ADCEx_InjectedConvCpltCallback:
 1312              	.LFB75:
 947:src/stm32f1xx_hal_adc_ex.c **** #endif /* defined STM32F103x6 || defined STM32F103xB || defined STM32F105xC || defined STM32F107xC 
 948:src/stm32f1xx_hal_adc_ex.c **** 
 949:src/stm32f1xx_hal_adc_ex.c **** /**
 950:src/stm32f1xx_hal_adc_ex.c ****   * @brief  Injected conversion complete callback in non blocking mode 
 951:src/stm32f1xx_hal_adc_ex.c ****   * @param  hadc: ADC handle
 952:src/stm32f1xx_hal_adc_ex.c ****   * @retval None
 953:src/stm32f1xx_hal_adc_ex.c ****   */
 954:src/stm32f1xx_hal_adc_ex.c **** __weak void HAL_ADCEx_InjectedConvCpltCallback(ADC_HandleTypeDef* hadc)
 955:src/stm32f1xx_hal_adc_ex.c **** {
 1313              		.loc 1 955 0
 1314              		.cfi_startproc
 1315              		@ args = 0, pretend = 0, frame = 0
 1316              		@ frame_needed = 0, uses_anonymous_args = 0
 1317              		@ link register save eliminated.
 1318              	.LVL90:
 1319 059c 7047     		bx	lr	@
 1320              		.cfi_endproc
 1321              	.LFE75:
 1322              		.size	HAL_ADCEx_InjectedConvCpltCallback, .-HAL_ADCEx_InjectedConvCpltCallback
 1323              		.align	1
ARM GAS  /tmp/ccHubou1.s 			page 43


 1324              		.global	HAL_ADCEx_InjectedConfigChannel
 1325              		.syntax unified
 1326              		.thumb
 1327              		.thumb_func
 1328              		.fpu softvfp
 1329              		.type	HAL_ADCEx_InjectedConfigChannel, %function
 1330              	HAL_ADCEx_InjectedConfigChannel:
 1331              	.LFB76:
 956:src/stm32f1xx_hal_adc_ex.c ****   /* Prevent unused argument(s) compilation warning */
 957:src/stm32f1xx_hal_adc_ex.c ****   UNUSED(hadc);
 958:src/stm32f1xx_hal_adc_ex.c ****   /* NOTE : This function Should not be modified, when the callback is needed,
 959:src/stm32f1xx_hal_adc_ex.c ****             the HAL_ADCEx_InjectedConvCpltCallback could be implemented in the user file
 960:src/stm32f1xx_hal_adc_ex.c ****   */
 961:src/stm32f1xx_hal_adc_ex.c **** }
 962:src/stm32f1xx_hal_adc_ex.c **** 
 963:src/stm32f1xx_hal_adc_ex.c **** /**
 964:src/stm32f1xx_hal_adc_ex.c ****   * @}
 965:src/stm32f1xx_hal_adc_ex.c ****   */
 966:src/stm32f1xx_hal_adc_ex.c **** 
 967:src/stm32f1xx_hal_adc_ex.c **** /** @defgroup ADCEx_Exported_Functions_Group2 Extended Peripheral Control functions
 968:src/stm32f1xx_hal_adc_ex.c ****   * @brief    Extended Peripheral Control functions
 969:src/stm32f1xx_hal_adc_ex.c ****   *
 970:src/stm32f1xx_hal_adc_ex.c **** @verbatim   
 971:src/stm32f1xx_hal_adc_ex.c ****  ===============================================================================
 972:src/stm32f1xx_hal_adc_ex.c ****              ##### Peripheral Control functions #####
 973:src/stm32f1xx_hal_adc_ex.c ****  ===============================================================================  
 974:src/stm32f1xx_hal_adc_ex.c ****     [..]  This section provides functions allowing to:
 975:src/stm32f1xx_hal_adc_ex.c ****       (+) Configure channels on injected group
 976:src/stm32f1xx_hal_adc_ex.c ****       (+) Configure multimode
 977:src/stm32f1xx_hal_adc_ex.c **** 
 978:src/stm32f1xx_hal_adc_ex.c **** @endverbatim
 979:src/stm32f1xx_hal_adc_ex.c ****   * @{
 980:src/stm32f1xx_hal_adc_ex.c ****   */
 981:src/stm32f1xx_hal_adc_ex.c **** 
 982:src/stm32f1xx_hal_adc_ex.c **** /**
 983:src/stm32f1xx_hal_adc_ex.c ****   * @brief  Configures the ADC injected group and the selected channel to be
 984:src/stm32f1xx_hal_adc_ex.c ****   *         linked to the injected group.
 985:src/stm32f1xx_hal_adc_ex.c ****   * @note   Possibility to update parameters on the fly:
 986:src/stm32f1xx_hal_adc_ex.c ****   *         This function initializes injected group, following calls to this 
 987:src/stm32f1xx_hal_adc_ex.c ****   *         function can be used to reconfigure some parameters of structure
 988:src/stm32f1xx_hal_adc_ex.c ****   *         "ADC_InjectionConfTypeDef" on the fly, without reseting the ADC.
 989:src/stm32f1xx_hal_adc_ex.c ****   *         The setting of these parameters is conditioned to ADC state: 
 990:src/stm32f1xx_hal_adc_ex.c ****   *         this function must be called when ADC is not under conversion.
 991:src/stm32f1xx_hal_adc_ex.c ****   * @param  hadc: ADC handle
 992:src/stm32f1xx_hal_adc_ex.c ****   * @param  sConfigInjected: Structure of ADC injected group and ADC channel for
 993:src/stm32f1xx_hal_adc_ex.c ****   *         injected group.
 994:src/stm32f1xx_hal_adc_ex.c ****   * @retval None
 995:src/stm32f1xx_hal_adc_ex.c ****   */
 996:src/stm32f1xx_hal_adc_ex.c **** HAL_StatusTypeDef HAL_ADCEx_InjectedConfigChannel(ADC_HandleTypeDef* hadc, ADC_InjectionConfTypeDef
 997:src/stm32f1xx_hal_adc_ex.c **** {
 1332              		.loc 1 997 0
 1333              		.cfi_startproc
 1334              		@ args = 0, pretend = 0, frame = 8
 1335              		@ frame_needed = 0, uses_anonymous_args = 0
 1336              	.LVL91:
 1337              		.loc 1 997 0
 1338 059e F7B5     		push	{r0, r1, r2, r4, r5, r6, r7, lr}	@
ARM GAS  /tmp/ccHubou1.s 			page 44


 1339              	.LCFI18:
 1340              		.cfi_def_cfa_offset 32
 1341              		.cfi_offset 4, -20
 1342              		.cfi_offset 5, -16
 1343              		.cfi_offset 6, -12
 1344              		.cfi_offset 7, -8
 1345              		.cfi_offset 14, -4
 1346              		.loc 1 997 0
 1347 05a0 0246     		mov	r2, r0	@ hadc, hadc
 998:src/stm32f1xx_hal_adc_ex.c ****   HAL_StatusTypeDef tmp_hal_status = HAL_OK;
 999:src/stm32f1xx_hal_adc_ex.c ****   __IO uint32_t wait_loop_index = 0U;
 1348              		.loc 1 999 0
 1349 05a2 0020     		movs	r0, #0	@ tmp218,
 1350              	.LVL92:
1000:src/stm32f1xx_hal_adc_ex.c ****   
1001:src/stm32f1xx_hal_adc_ex.c ****   /* Check the parameters */
1002:src/stm32f1xx_hal_adc_ex.c ****   assert_param(IS_ADC_ALL_INSTANCE(hadc->Instance));
1003:src/stm32f1xx_hal_adc_ex.c ****   assert_param(IS_ADC_CHANNEL(sConfigInjected->InjectedChannel));
1004:src/stm32f1xx_hal_adc_ex.c ****   assert_param(IS_ADC_SAMPLE_TIME(sConfigInjected->InjectedSamplingTime));
1005:src/stm32f1xx_hal_adc_ex.c ****   assert_param(IS_FUNCTIONAL_STATE(sConfigInjected->AutoInjectedConv));
1006:src/stm32f1xx_hal_adc_ex.c ****   assert_param(IS_ADC_EXTTRIGINJEC(sConfigInjected->ExternalTrigInjecConv));
1007:src/stm32f1xx_hal_adc_ex.c ****   assert_param(IS_ADC_RANGE(sConfigInjected->InjectedOffset));
1008:src/stm32f1xx_hal_adc_ex.c ****   
1009:src/stm32f1xx_hal_adc_ex.c ****   if(hadc->Init.ScanConvMode != ADC_SCAN_DISABLE)
1010:src/stm32f1xx_hal_adc_ex.c ****   {
1011:src/stm32f1xx_hal_adc_ex.c ****     assert_param(IS_ADC_INJECTED_RANK(sConfigInjected->InjectedRank));
1012:src/stm32f1xx_hal_adc_ex.c ****     assert_param(IS_ADC_INJECTED_NB_CONV(sConfigInjected->InjectedNbrOfConversion));
1013:src/stm32f1xx_hal_adc_ex.c ****     assert_param(IS_FUNCTIONAL_STATE(sConfigInjected->InjectedDiscontinuousConvMode));
1014:src/stm32f1xx_hal_adc_ex.c ****   }
1015:src/stm32f1xx_hal_adc_ex.c ****   
1016:src/stm32f1xx_hal_adc_ex.c ****   /* Process locked */
1017:src/stm32f1xx_hal_adc_ex.c ****   __HAL_LOCK(hadc);
 1351              		.loc 1 1017 0
 1352 05a4 92F82430 		ldrb	r3, [r2, #36]	@ zero_extendqisi2	@ hadc_18(D)->Lock, hadc_18(D)->Lock
 999:src/stm32f1xx_hal_adc_ex.c ****   
 1353              		.loc 1 999 0
 1354 05a8 0190     		str	r0, [sp, #4]	@ tmp218, wait_loop_index
 1355              		.loc 1 1017 0
 1356 05aa 012B     		cmp	r3, #1	@ hadc_18(D)->Lock,
 1357 05ac 00F0D880 		beq	.L149	@,
 1358              		.loc 1 1017 0 is_stmt 0 discriminator 2
 1359 05b0 0127     		movs	r7, #1	@ tmp220,
1009:src/stm32f1xx_hal_adc_ex.c ****   {
 1360              		.loc 1 1009 0 is_stmt 1 discriminator 2
 1361 05b2 D2F808E0 		ldr	lr, [r2, #8]	@ _19, hadc_18(D)->Init.ScanConvMode
 1362              		.loc 1 1017 0 discriminator 2
 1363 05b6 82F82470 		strb	r7, [r2, #36]	@ tmp220, hadc_18(D)->Lock
 1364 05ba 4E68     		ldr	r6, [r1, #4]	@ _34, sConfigInjected_22(D)->InjectedRank
 1365 05bc 1368     		ldr	r3, [r2]	@ _62, hadc_18(D)->Instance
 1366 05be 0D68     		ldr	r5, [r1]	@ sConfigInjected_22(D)->InjectedChannel, sConfigInjected_22(D)->InjectedChannel
1018:src/stm32f1xx_hal_adc_ex.c ****   
1019:src/stm32f1xx_hal_adc_ex.c ****   /* Configuration of injected group sequencer:                               */
1020:src/stm32f1xx_hal_adc_ex.c ****   /* - if scan mode is disabled, injected channels sequence length is set to  */
1021:src/stm32f1xx_hal_adc_ex.c ****   /*   0x00: 1 channel converted (channel on regular rank 1)                  */
1022:src/stm32f1xx_hal_adc_ex.c ****   /*   Parameter "InjectedNbrOfConversion" is discarded.                      */
1023:src/stm32f1xx_hal_adc_ex.c ****   /*   Note: Scan mode is present by hardware on this device and, if          */
1024:src/stm32f1xx_hal_adc_ex.c ****   /*   disabled, discards automatically nb of conversions. Anyway, nb of      */
ARM GAS  /tmp/ccHubou1.s 			page 45


1025:src/stm32f1xx_hal_adc_ex.c ****   /*   conversions is forced to 0x00 for alignment over all STM32 devices.    */
1026:src/stm32f1xx_hal_adc_ex.c ****   /* - if scan mode is enabled, injected channels sequence length is set to   */
1027:src/stm32f1xx_hal_adc_ex.c ****   /*   parameter "InjectedNbrOfConversion".                                   */
1028:src/stm32f1xx_hal_adc_ex.c ****   if (hadc->Init.ScanConvMode == ADC_SCAN_DISABLE)
 1367              		.loc 1 1028 0 discriminator 2
 1368 05c0 BEF1000F 		cmp	lr, #0	@ _19
 1369 05c4 7BD1     		bne	.L128	@
1029:src/stm32f1xx_hal_adc_ex.c ****   {
1030:src/stm32f1xx_hal_adc_ex.c ****     if (sConfigInjected->InjectedRank == ADC_INJECTED_RANK_1)
 1370              		.loc 1 1030 0
 1371 05c6 BE42     		cmp	r6, r7	@ _34,
 1372 05c8 73D1     		bne	.L129	@,
 998:src/stm32f1xx_hal_adc_ex.c ****   __IO uint32_t wait_loop_index = 0U;
 1373              		.loc 1 998 0
 1374 05ca 7046     		mov	r0, lr	@ <retval>, _19
1031:src/stm32f1xx_hal_adc_ex.c ****     {
1032:src/stm32f1xx_hal_adc_ex.c ****       /* Clear the old SQx bits for all injected ranks */
1033:src/stm32f1xx_hal_adc_ex.c ****       MODIFY_REG(hadc->Instance->JSQR                             ,
 1375              		.loc 1 1033 0
 1376 05cc 9C6B     		ldr	r4, [r3, #56]	@ _28, _27->JSQR
 1377 05ce A40D     		lsrs	r4, r4, #22	@ tmp225, _28,
 1378 05d0 A405     		lsls	r4, r4, #22	@ tmp225, tmp225,
 1379 05d2 44EAC534 		orr	r4, r4, r5, lsl #15	@ _32, tmp225, sConfigInjected_22(D)->InjectedChannel,
 1380 05d6 9C63     		str	r4, [r3, #56]	@ _32, _27->JSQR
 1381              	.LVL93:
 1382              	.L130:
1034:src/stm32f1xx_hal_adc_ex.c ****                  ADC_JSQR_JL   |
1035:src/stm32f1xx_hal_adc_ex.c ****                  ADC_JSQR_JSQ4 |
1036:src/stm32f1xx_hal_adc_ex.c ****                  ADC_JSQR_JSQ3 |
1037:src/stm32f1xx_hal_adc_ex.c ****                  ADC_JSQR_JSQ2 |
1038:src/stm32f1xx_hal_adc_ex.c ****                  ADC_JSQR_JSQ1                                    ,
1039:src/stm32f1xx_hal_adc_ex.c ****                  ADC_JSQR_RK_JL(sConfigInjected->InjectedChannel,
1040:src/stm32f1xx_hal_adc_ex.c ****                                   ADC_INJECTED_RANK_1,
1041:src/stm32f1xx_hal_adc_ex.c ****                                   0x01U));
1042:src/stm32f1xx_hal_adc_ex.c ****     }
1043:src/stm32f1xx_hal_adc_ex.c ****     /* If another injected rank than rank1 was intended to be set, and could  */
1044:src/stm32f1xx_hal_adc_ex.c ****     /* not due to ScanConvMode disabled, error is reported.                   */
1045:src/stm32f1xx_hal_adc_ex.c ****     else
1046:src/stm32f1xx_hal_adc_ex.c ****     {
1047:src/stm32f1xx_hal_adc_ex.c ****       /* Update ADC state machine to error */
1048:src/stm32f1xx_hal_adc_ex.c ****       SET_BIT(hadc->State, HAL_ADC_STATE_ERROR_CONFIG);
1049:src/stm32f1xx_hal_adc_ex.c ****       
1050:src/stm32f1xx_hal_adc_ex.c ****       tmp_hal_status = HAL_ERROR;
1051:src/stm32f1xx_hal_adc_ex.c ****     }
1052:src/stm32f1xx_hal_adc_ex.c ****   }
1053:src/stm32f1xx_hal_adc_ex.c ****   else
1054:src/stm32f1xx_hal_adc_ex.c ****   {
1055:src/stm32f1xx_hal_adc_ex.c ****     /* Since injected channels rank conv. order depends on total number of   */
1056:src/stm32f1xx_hal_adc_ex.c ****     /* injected conversions, selected rank must be below or equal to total   */
1057:src/stm32f1xx_hal_adc_ex.c ****     /* number of injected conversions to be updated.                         */
1058:src/stm32f1xx_hal_adc_ex.c ****     if (sConfigInjected->InjectedRank <= sConfigInjected->InjectedNbrOfConversion)
1059:src/stm32f1xx_hal_adc_ex.c ****     {
1060:src/stm32f1xx_hal_adc_ex.c ****       /* Clear the old SQx bits for the selected rank */
1061:src/stm32f1xx_hal_adc_ex.c ****       /* Set the SQx bits for the selected rank */
1062:src/stm32f1xx_hal_adc_ex.c ****       MODIFY_REG(hadc->Instance->JSQR                                         ,
1063:src/stm32f1xx_hal_adc_ex.c ****                  
1064:src/stm32f1xx_hal_adc_ex.c ****                  ADC_JSQR_JL                                               |
ARM GAS  /tmp/ccHubou1.s 			page 46


1065:src/stm32f1xx_hal_adc_ex.c ****                  ADC_JSQR_RK_JL(ADC_JSQR_JSQ1,                         
1066:src/stm32f1xx_hal_adc_ex.c ****                                   sConfigInjected->InjectedRank,         
1067:src/stm32f1xx_hal_adc_ex.c ****                                   sConfigInjected->InjectedNbrOfConversion)   ,
1068:src/stm32f1xx_hal_adc_ex.c ****                  
1069:src/stm32f1xx_hal_adc_ex.c ****                  ADC_JSQR_JL_SHIFT(sConfigInjected->InjectedNbrOfConversion) |
1070:src/stm32f1xx_hal_adc_ex.c ****                  ADC_JSQR_RK_JL(sConfigInjected->InjectedChannel,      
1071:src/stm32f1xx_hal_adc_ex.c ****                                   sConfigInjected->InjectedRank,         
1072:src/stm32f1xx_hal_adc_ex.c ****                                   sConfigInjected->InjectedNbrOfConversion)    );
1073:src/stm32f1xx_hal_adc_ex.c ****     }
1074:src/stm32f1xx_hal_adc_ex.c ****     else
1075:src/stm32f1xx_hal_adc_ex.c ****     {
1076:src/stm32f1xx_hal_adc_ex.c ****       /* Clear the old SQx bits for the selected rank */
1077:src/stm32f1xx_hal_adc_ex.c ****       MODIFY_REG(hadc->Instance->JSQR                                       ,
1078:src/stm32f1xx_hal_adc_ex.c ****                  
1079:src/stm32f1xx_hal_adc_ex.c ****                  ADC_JSQR_JL                                               |
1080:src/stm32f1xx_hal_adc_ex.c ****                  ADC_JSQR_RK_JL(ADC_JSQR_JSQ1,                         
1081:src/stm32f1xx_hal_adc_ex.c ****                                   sConfigInjected->InjectedRank,         
1082:src/stm32f1xx_hal_adc_ex.c ****                                   sConfigInjected->InjectedNbrOfConversion) ,
1083:src/stm32f1xx_hal_adc_ex.c ****                  
1084:src/stm32f1xx_hal_adc_ex.c ****                  0x00000000U);
1085:src/stm32f1xx_hal_adc_ex.c ****     }
1086:src/stm32f1xx_hal_adc_ex.c ****   } 
1087:src/stm32f1xx_hal_adc_ex.c ****     
1088:src/stm32f1xx_hal_adc_ex.c ****   /* Configuration of injected group                                          */
1089:src/stm32f1xx_hal_adc_ex.c ****   /* Parameters update conditioned to ADC state:                              */
1090:src/stm32f1xx_hal_adc_ex.c ****   /* Parameters that can be updated only when ADC is disabled:                */
1091:src/stm32f1xx_hal_adc_ex.c ****   /*  - external trigger to start conversion                                  */
1092:src/stm32f1xx_hal_adc_ex.c ****   /* Parameters update not conditioned to ADC state:                          */
1093:src/stm32f1xx_hal_adc_ex.c ****   /*  - Automatic injected conversion                                         */
1094:src/stm32f1xx_hal_adc_ex.c ****   /*  - Injected discontinuous mode                                           */
1095:src/stm32f1xx_hal_adc_ex.c ****   /* Note: In case of ADC already enabled, caution to not launch an unwanted  */
1096:src/stm32f1xx_hal_adc_ex.c ****   /*       conversion while modifying register CR2 by writing 1 to bit ADON.  */
1097:src/stm32f1xx_hal_adc_ex.c ****   if (ADC_IS_ENABLE(hadc) == RESET)
 1383              		.loc 1 1097 0
 1384 05d8 9C68     		ldr	r4, [r3, #8]	@ _63, _62->CR2
 1385 05da E407     		lsls	r4, r4, #31	@, _63,
 1386 05dc 07D4     		bmi	.L132	@,
1098:src/stm32f1xx_hal_adc_ex.c ****   {    
1099:src/stm32f1xx_hal_adc_ex.c ****     MODIFY_REG(hadc->Instance->CR2                                           ,
 1387              		.loc 1 1099 0
 1388 05de 9C68     		ldr	r4, [r3, #8]	@ _65, _62->CR2
 1389 05e0 8F69     		ldr	r7, [r1, #24]	@ sConfigInjected_22(D)->ExternalTrigInjecConv, sConfigInjected_22(D)->ExternalT
 1390 05e2 24F4E044 		bic	r4, r4, #28672	@ tmp251, _65,
 1391 05e6 24F00104 		bic	r4, r4, #1	@ tmp251, tmp251,
 1392 05ea 3C43     		orrs	r4, r4, r7	@, _68, tmp251, sConfigInjected_22(D)->ExternalTrigInjecConv
 1393 05ec 9C60     		str	r4, [r3, #8]	@ _68, _62->CR2
 1394              	.L132:
1100:src/stm32f1xx_hal_adc_ex.c ****                ADC_CR2_JEXTSEL |
1101:src/stm32f1xx_hal_adc_ex.c ****                ADC_CR2_ADON                                                  ,
1102:src/stm32f1xx_hal_adc_ex.c ****                ADC_CFGR_JEXTSEL(hadc, sConfigInjected->ExternalTrigInjecConv) );
1103:src/stm32f1xx_hal_adc_ex.c ****   }
1104:src/stm32f1xx_hal_adc_ex.c ****   
1105:src/stm32f1xx_hal_adc_ex.c ****   
1106:src/stm32f1xx_hal_adc_ex.c ****   /* Configuration of injected group                                          */
1107:src/stm32f1xx_hal_adc_ex.c ****   /*  - Automatic injected conversion                                         */
1108:src/stm32f1xx_hal_adc_ex.c ****   /*  - Injected discontinuous mode                                           */
1109:src/stm32f1xx_hal_adc_ex.c ****   
ARM GAS  /tmp/ccHubou1.s 			page 47


1110:src/stm32f1xx_hal_adc_ex.c ****     /* Automatic injected conversion can be enabled if injected group         */
1111:src/stm32f1xx_hal_adc_ex.c ****     /* external triggers are disabled.                                        */
1112:src/stm32f1xx_hal_adc_ex.c ****     if (sConfigInjected->AutoInjectedConv == ENABLE)
 1395              		.loc 1 1112 0
 1396 05ee 4C7D     		ldrb	r4, [r1, #21]	@ zero_extendqisi2	@ _70, sConfigInjected_22(D)->AutoInjectedConv
 1397 05f0 012C     		cmp	r4, #1	@ _70,
 1398 05f2 0DD1     		bne	.L133	@,
1113:src/stm32f1xx_hal_adc_ex.c ****     {
1114:src/stm32f1xx_hal_adc_ex.c ****       if (sConfigInjected->ExternalTrigInjecConv == ADC_INJECTED_SOFTWARE_START)
 1399              		.loc 1 1114 0
 1400 05f4 8F69     		ldr	r7, [r1, #24]	@ sConfigInjected_22(D)->ExternalTrigInjecConv, sConfigInjected_22(D)->ExternalT
 1401 05f6 B7F5E04F 		cmp	r7, #28672	@ sConfigInjected_22(D)->ExternalTrigInjecConv,
1115:src/stm32f1xx_hal_adc_ex.c ****       {
1116:src/stm32f1xx_hal_adc_ex.c ****         SET_BIT(hadc->Instance->CR1, ADC_CR1_JAUTO);
1117:src/stm32f1xx_hal_adc_ex.c ****       }
1118:src/stm32f1xx_hal_adc_ex.c ****       else
1119:src/stm32f1xx_hal_adc_ex.c ****       {
1120:src/stm32f1xx_hal_adc_ex.c ****         /* Update ADC state machine to error */
1121:src/stm32f1xx_hal_adc_ex.c ****         SET_BIT(hadc->State, HAL_ADC_STATE_ERROR_CONFIG);
 1402              		.loc 1 1121 0
 1403 05fa 17BF     		itett	ne
 1404 05fc 906A     		ldrne	r0, [r2, #40]	@ _75, hadc_18(D)->State
 1405              	.LVL94:
1116:src/stm32f1xx_hal_adc_ex.c ****       }
 1406              		.loc 1 1116 0
 1407 05fe 5F68     		ldreq	r7, [r3, #4]	@ _72, _62->CR1
 1408              		.loc 1 1121 0
 1409 0600 40F02000 		orrne	r0, r0, #32	@ _76, _75,
 1410 0604 9062     		strne	r0, [r2, #40]	@ _76, hadc_18(D)->State
 1411              	.LVL95:
1122:src/stm32f1xx_hal_adc_ex.c ****         
1123:src/stm32f1xx_hal_adc_ex.c ****         tmp_hal_status = HAL_ERROR;
 1412              		.loc 1 1123 0
 1413 0606 12BF     		itee	ne
 1414 0608 2046     		movne	r0, r4	@ <retval>, _70
1116:src/stm32f1xx_hal_adc_ex.c ****       }
 1415              		.loc 1 1116 0
 1416 060a 47F48067 		orreq	r7, r7, #1024	@ _73, _72,
 1417 060e 5F60     		streq	r7, [r3, #4]	@ _73, _62->CR1
 1418              	.LVL96:
 1419              	.L133:
1124:src/stm32f1xx_hal_adc_ex.c ****       }
1125:src/stm32f1xx_hal_adc_ex.c ****     }
1126:src/stm32f1xx_hal_adc_ex.c ****     
1127:src/stm32f1xx_hal_adc_ex.c ****     /* Injected discontinuous can be enabled only if auto-injected mode is    */
1128:src/stm32f1xx_hal_adc_ex.c ****     /* disabled.                                                              */  
1129:src/stm32f1xx_hal_adc_ex.c ****     if (sConfigInjected->InjectedDiscontinuousConvMode == ENABLE)
 1420              		.loc 1 1129 0
 1421 0610 0F7D     		ldrb	r7, [r1, #20]	@ zero_extendqisi2	@ sConfigInjected_22(D)->InjectedDiscontinuousConvMode, sCon
 1422 0612 012F     		cmp	r7, #1	@ sConfigInjected_22(D)->InjectedDiscontinuousConvMode,
 1423 0614 05D1     		bne	.L135	@,
1130:src/stm32f1xx_hal_adc_ex.c ****     {
1131:src/stm32f1xx_hal_adc_ex.c ****       if (sConfigInjected->AutoInjectedConv == DISABLE)
 1424              		.loc 1 1131 0
 1425 0616 002C     		cmp	r4, #0	@ _70
 1426 0618 74D1     		bne	.L136	@
1132:src/stm32f1xx_hal_adc_ex.c ****       {
ARM GAS  /tmp/ccHubou1.s 			page 48


1133:src/stm32f1xx_hal_adc_ex.c ****         SET_BIT(hadc->Instance->CR1, ADC_CR1_JDISCEN);
 1427              		.loc 1 1133 0
 1428 061a 5C68     		ldr	r4, [r3, #4]	@ _79, _62->CR1
 1429 061c 44F48054 		orr	r4, r4, #4096	@ _80, _79,
 1430 0620 5C60     		str	r4, [r3, #4]	@ _80, _62->CR1
 1431              	.LVL97:
 1432              	.L135:
1134:src/stm32f1xx_hal_adc_ex.c ****       } 
1135:src/stm32f1xx_hal_adc_ex.c ****       else
1136:src/stm32f1xx_hal_adc_ex.c ****       {
1137:src/stm32f1xx_hal_adc_ex.c ****         /* Update ADC state machine to error */
1138:src/stm32f1xx_hal_adc_ex.c ****         SET_BIT(hadc->State, HAL_ADC_STATE_ERROR_CONFIG);
1139:src/stm32f1xx_hal_adc_ex.c ****         
1140:src/stm32f1xx_hal_adc_ex.c ****         tmp_hal_status = HAL_ERROR;
1141:src/stm32f1xx_hal_adc_ex.c ****       }
1142:src/stm32f1xx_hal_adc_ex.c ****     }
1143:src/stm32f1xx_hal_adc_ex.c **** 
1144:src/stm32f1xx_hal_adc_ex.c **** 
1145:src/stm32f1xx_hal_adc_ex.c ****   /* InjectedChannel sampling time configuration */
1146:src/stm32f1xx_hal_adc_ex.c ****   /* For channels 10 to 17 */
1147:src/stm32f1xx_hal_adc_ex.c ****   if (sConfigInjected->InjectedChannel >= ADC_CHANNEL_10)
 1433              		.loc 1 1147 0
 1434 0622 092D     		cmp	r5, #9	@ sConfigInjected_22(D)->InjectedChannel,
 1435 0624 4FEA4504 		lsl	r4, r5, #1	@ tmp305, sConfigInjected_22(D)->InjectedChannel,
 1436 0628 D1F808E0 		ldr	lr, [r1, #8]	@ sConfigInjected_22(D)->InjectedSamplingTime, sConfigInjected_22(D)->InjectedSam
 1437 062c 70D9     		bls	.L137	@,
1148:src/stm32f1xx_hal_adc_ex.c ****   {
1149:src/stm32f1xx_hal_adc_ex.c ****     MODIFY_REG(hadc->Instance->SMPR1                                                             ,
 1438              		.loc 1 1149 0
 1439 062e 4FF0070C 		mov	ip, #7	@ tmp260,
 1440 0632 2C44     		add	r4, r4, r5	@ tmp258, sConfigInjected_22(D)->InjectedChannel
 1441 0634 DF68     		ldr	r7, [r3, #12]	@ _86, _62->SMPR1
 1442 0636 1E3C     		subs	r4, r4, #30	@ _88, tmp258,
 1443 0638 0CFA04FC 		lsl	ip, ip, r4	@ tmp259, tmp260, _88
 1444 063c 27EA0C07 		bic	r7, r7, ip	@ tmp262, _86, tmp259
 1445 0640 0EFA04F4 		lsl	r4, lr, r4	@ tmp263, sConfigInjected_22(D)->InjectedSamplingTime, _88
 1446 0644 3C43     		orrs	r4, r4, r7	@, _94, tmp263, tmp262
 1447 0646 DC60     		str	r4, [r3, #12]	@ _94, _62->SMPR1
 1448              	.L138:
1150:src/stm32f1xx_hal_adc_ex.c ****                ADC_SMPR1(ADC_SMPR1_SMP10, sConfigInjected->InjectedChannel)                      ,
1151:src/stm32f1xx_hal_adc_ex.c ****                ADC_SMPR1(sConfigInjected->InjectedSamplingTime, sConfigInjected->InjectedChannel) )
1152:src/stm32f1xx_hal_adc_ex.c ****   }
1153:src/stm32f1xx_hal_adc_ex.c ****   else /* For channels 0 to 9 */
1154:src/stm32f1xx_hal_adc_ex.c ****   {
1155:src/stm32f1xx_hal_adc_ex.c ****     MODIFY_REG(hadc->Instance->SMPR2                                                             ,
1156:src/stm32f1xx_hal_adc_ex.c ****                ADC_SMPR2(ADC_SMPR2_SMP0, sConfigInjected->InjectedChannel)                       ,
1157:src/stm32f1xx_hal_adc_ex.c ****                ADC_SMPR2(sConfigInjected->InjectedSamplingTime, sConfigInjected->InjectedChannel) )
1158:src/stm32f1xx_hal_adc_ex.c ****   }
1159:src/stm32f1xx_hal_adc_ex.c ****   
1160:src/stm32f1xx_hal_adc_ex.c ****   /* If ADC1 InjectedChannel_16 or InjectedChannel_17 is selected, enable Temperature sensor  */
1161:src/stm32f1xx_hal_adc_ex.c ****   /* and VREFINT measurement path.                                            */
1162:src/stm32f1xx_hal_adc_ex.c ****   if ((sConfigInjected->InjectedChannel == ADC_CHANNEL_TEMPSENSOR) ||
 1449              		.loc 1 1162 0
 1450 0648 A5F11004 		sub	r4, r5, #16	@ _105, sConfigInjected_22(D)->InjectedChannel,
 1451 064c 012C     		cmp	r4, #1	@ _105,
1163:src/stm32f1xx_hal_adc_ex.c ****       (sConfigInjected->InjectedChannel == ADC_CHANNEL_VREFINT)      )
1164:src/stm32f1xx_hal_adc_ex.c ****   {
ARM GAS  /tmp/ccHubou1.s 			page 49


1165:src/stm32f1xx_hal_adc_ex.c ****     SET_BIT(hadc->Instance->CR2, ADC_CR2_TSVREFE);
 1452              		.loc 1 1165 0
 1453 064e 98BF     		it	ls
 1454 0650 9F68     		ldrls	r7, [r3, #8]	@ _106, _62->CR2
 1455 0652 DFF81CE1 		ldr	lr, .L153+12	@ tmp307,
 1456 0656 9CBF     		itt	ls
 1457 0658 47F40007 		orrls	r7, r7, #8388608	@ _107, _106,
 1458 065c 9F60     		strls	r7, [r3, #8]	@ _107, _62->CR2
1166:src/stm32f1xx_hal_adc_ex.c ****   }
1167:src/stm32f1xx_hal_adc_ex.c ****   
1168:src/stm32f1xx_hal_adc_ex.c ****   
1169:src/stm32f1xx_hal_adc_ex.c ****   /* Configure the offset: offset enable/disable, InjectedChannel, offset value */
1170:src/stm32f1xx_hal_adc_ex.c ****   switch(sConfigInjected->InjectedRank)
 1459              		.loc 1 1170 0
 1460 065e 022E     		cmp	r6, #2	@ _34,
 1461 0660 CF68     		ldr	r7, [r1, #12]	@ sConfigInjected_22(D)->InjectedOffset, sConfigInjected_22(D)->InjectedOffset
 1462 0662 62D0     		beq	.L141	@,
 1463 0664 032E     		cmp	r6, #3	@ _34,
 1464 0666 66D0     		beq	.L142	@,
 1465 0668 012E     		cmp	r6, #1	@ _34,
 1466 066a 6AD1     		bne	.L150	@,
1171:src/stm32f1xx_hal_adc_ex.c ****   {
1172:src/stm32f1xx_hal_adc_ex.c ****     case 1:
1173:src/stm32f1xx_hal_adc_ex.c ****       /* Set injected channel 1 offset */
1174:src/stm32f1xx_hal_adc_ex.c ****       MODIFY_REG(hadc->Instance->JOFR1,
 1467              		.loc 1 1174 0
 1468 066c 5969     		ldr	r1, [r3, #20]	@ _110, _62->JOFR1
 1469              	.LVL98:
 1470 066e 01EA0E01 		and	r1, r1, lr	@ tmp275, _110, tmp307
 1471 0672 3943     		orrs	r1, r1, r7	@, _113, tmp275, sConfigInjected_22(D)->InjectedOffset
 1472 0674 5961     		str	r1, [r3, #20]	@ _113, _62->JOFR1
 1473              	.L144:
1175:src/stm32f1xx_hal_adc_ex.c ****                  ADC_JOFR1_JOFFSET1,
1176:src/stm32f1xx_hal_adc_ex.c ****                  sConfigInjected->InjectedOffset);
1177:src/stm32f1xx_hal_adc_ex.c ****       break;
1178:src/stm32f1xx_hal_adc_ex.c ****     case 2:
1179:src/stm32f1xx_hal_adc_ex.c ****       /* Set injected channel 2 offset */
1180:src/stm32f1xx_hal_adc_ex.c ****       MODIFY_REG(hadc->Instance->JOFR2,
1181:src/stm32f1xx_hal_adc_ex.c ****                  ADC_JOFR2_JOFFSET2,
1182:src/stm32f1xx_hal_adc_ex.c ****                  sConfigInjected->InjectedOffset);
1183:src/stm32f1xx_hal_adc_ex.c ****       break;
1184:src/stm32f1xx_hal_adc_ex.c ****     case 3:
1185:src/stm32f1xx_hal_adc_ex.c ****       /* Set injected channel 3 offset */
1186:src/stm32f1xx_hal_adc_ex.c ****       MODIFY_REG(hadc->Instance->JOFR3,
1187:src/stm32f1xx_hal_adc_ex.c ****                  ADC_JOFR3_JOFFSET3,
1188:src/stm32f1xx_hal_adc_ex.c ****                  sConfigInjected->InjectedOffset);
1189:src/stm32f1xx_hal_adc_ex.c ****       break;
1190:src/stm32f1xx_hal_adc_ex.c ****     case 4:
1191:src/stm32f1xx_hal_adc_ex.c ****     default:
1192:src/stm32f1xx_hal_adc_ex.c ****       MODIFY_REG(hadc->Instance->JOFR4,
1193:src/stm32f1xx_hal_adc_ex.c ****                  ADC_JOFR4_JOFFSET4,
1194:src/stm32f1xx_hal_adc_ex.c ****                  sConfigInjected->InjectedOffset);
1195:src/stm32f1xx_hal_adc_ex.c ****       break;
1196:src/stm32f1xx_hal_adc_ex.c ****   }
1197:src/stm32f1xx_hal_adc_ex.c ****   
1198:src/stm32f1xx_hal_adc_ex.c ****   /* If ADC1 Channel_16 or Channel_17 is selected, enable Temperature sensor  */
1199:src/stm32f1xx_hal_adc_ex.c ****   /* and VREFINT measurement path.                                            */
ARM GAS  /tmp/ccHubou1.s 			page 50


1200:src/stm32f1xx_hal_adc_ex.c ****   if ((sConfigInjected->InjectedChannel == ADC_CHANNEL_TEMPSENSOR) ||
 1474              		.loc 1 1200 0
 1475 0676 012C     		cmp	r4, #1	@ _105,
 1476 0678 16D8     		bhi	.L145	@,
1201:src/stm32f1xx_hal_adc_ex.c ****       (sConfigInjected->InjectedChannel == ADC_CHANNEL_VREFINT)      )
1202:src/stm32f1xx_hal_adc_ex.c ****   {
1203:src/stm32f1xx_hal_adc_ex.c ****     /* For STM32F1 devices with several ADC: Only ADC1 can access internal    */
1204:src/stm32f1xx_hal_adc_ex.c ****     /* measurement channels (VrefInt/TempSensor). If these channels are       */
1205:src/stm32f1xx_hal_adc_ex.c ****     /* intended to be set on other ADC instances, an error is reported.       */
1206:src/stm32f1xx_hal_adc_ex.c ****     if (hadc->Instance == ADC1)
 1477              		.loc 1 1206 0
 1478 067a 3A49     		ldr	r1, .L153	@ tmp287,
 1479 067c 8B42     		cmp	r3, r1	@ _62, tmp287
 1480 067e 69D1     		bne	.L146	@,
1207:src/stm32f1xx_hal_adc_ex.c ****     {
1208:src/stm32f1xx_hal_adc_ex.c ****       if (READ_BIT(hadc->Instance->CR2, ADC_CR2_TSVREFE) == RESET)
 1481              		.loc 1 1208 0
 1482 0680 9968     		ldr	r1, [r3, #8]	@ _130, MEM[(struct ADC_TypeDef *)1073816576B].CR2
 1483 0682 0902     		lsls	r1, r1, #8	@, _130,
 1484 0684 10D4     		bmi	.L145	@,
1209:src/stm32f1xx_hal_adc_ex.c ****       {
1210:src/stm32f1xx_hal_adc_ex.c ****         SET_BIT(hadc->Instance->CR2, ADC_CR2_TSVREFE);
 1485              		.loc 1 1210 0
 1486 0686 9968     		ldr	r1, [r3, #8]	@ _132, MEM[(struct ADC_TypeDef *)1073816576B].CR2
1211:src/stm32f1xx_hal_adc_ex.c ****         
1212:src/stm32f1xx_hal_adc_ex.c ****         if ((sConfigInjected->InjectedChannel == ADC_CHANNEL_TEMPSENSOR))
 1487              		.loc 1 1212 0
 1488 0688 102D     		cmp	r5, #16	@ sConfigInjected_22(D)->InjectedChannel,
1210:src/stm32f1xx_hal_adc_ex.c ****         
 1489              		.loc 1 1210 0
 1490 068a 41F40001 		orr	r1, r1, #8388608	@ _133, _132,
 1491 068e 9960     		str	r1, [r3, #8]	@ _133, MEM[(struct ADC_TypeDef *)1073816576B].CR2
 1492              		.loc 1 1212 0
 1493 0690 0AD1     		bne	.L145	@,
1213:src/stm32f1xx_hal_adc_ex.c ****         {
1214:src/stm32f1xx_hal_adc_ex.c ****           /* Delay for temperature sensor stabilization time */
1215:src/stm32f1xx_hal_adc_ex.c ****           /* Compute number of CPU cycles to wait for */
1216:src/stm32f1xx_hal_adc_ex.c ****           wait_loop_index = (ADC_TEMPSENSOR_DELAY_US * (SystemCoreClock / 1000000U));
 1494              		.loc 1 1216 0
 1495 0692 354B     		ldr	r3, .L153+4	@ tmp292,
 1496 0694 3549     		ldr	r1, .L153+8	@ tmp296,
 1497 0696 1B68     		ldr	r3, [r3]	@ SystemCoreClock, SystemCoreClock
 1498 0698 B3FBF1F1 		udiv	r1, r3, r1	@ tmp295, SystemCoreClock, tmp296
 1499 069c 0A23     		movs	r3, #10	@ tmp297,
 1500 069e 4B43     		muls	r3, r1, r3	@ wait_loop_index.14_137, tmp295
 1501              	.L152:
1217:src/stm32f1xx_hal_adc_ex.c ****           while(wait_loop_index != 0U)
1218:src/stm32f1xx_hal_adc_ex.c ****           {
1219:src/stm32f1xx_hal_adc_ex.c ****             wait_loop_index--;
 1502              		.loc 1 1219 0
 1503 06a0 0193     		str	r3, [sp, #4]	@ wait_loop_index.16_141, wait_loop_index
1217:src/stm32f1xx_hal_adc_ex.c ****           while(wait_loop_index != 0U)
 1504              		.loc 1 1217 0
 1505 06a2 019B     		ldr	r3, [sp, #4]	@ wait_loop_index.17_139, wait_loop_index
 1506 06a4 002B     		cmp	r3, #0	@ wait_loop_index.17_139
 1507 06a6 52D1     		bne	.L148	@
 1508              	.LVL99:
ARM GAS  /tmp/ccHubou1.s 			page 51


 1509              	.L145:
1220:src/stm32f1xx_hal_adc_ex.c ****           }
1221:src/stm32f1xx_hal_adc_ex.c ****         }
1222:src/stm32f1xx_hal_adc_ex.c ****       }
1223:src/stm32f1xx_hal_adc_ex.c ****     }
1224:src/stm32f1xx_hal_adc_ex.c ****     else
1225:src/stm32f1xx_hal_adc_ex.c ****     {
1226:src/stm32f1xx_hal_adc_ex.c ****       /* Update ADC state machine to error */
1227:src/stm32f1xx_hal_adc_ex.c ****       SET_BIT(hadc->State, HAL_ADC_STATE_ERROR_CONFIG);
1228:src/stm32f1xx_hal_adc_ex.c ****       
1229:src/stm32f1xx_hal_adc_ex.c ****       tmp_hal_status = HAL_ERROR;
1230:src/stm32f1xx_hal_adc_ex.c ****     }
1231:src/stm32f1xx_hal_adc_ex.c ****   }
1232:src/stm32f1xx_hal_adc_ex.c ****   
1233:src/stm32f1xx_hal_adc_ex.c ****   /* Process unlocked */
1234:src/stm32f1xx_hal_adc_ex.c ****   __HAL_UNLOCK(hadc);
 1510              		.loc 1 1234 0
 1511 06a8 0023     		movs	r3, #0	@ tmp298,
 1512 06aa 82F82430 		strb	r3, [r2, #36]	@ tmp298, hadc_18(D)->Lock
 1513              	.LVL100:
 1514              	.L127:
1235:src/stm32f1xx_hal_adc_ex.c ****   
1236:src/stm32f1xx_hal_adc_ex.c ****   /* Return function status */
1237:src/stm32f1xx_hal_adc_ex.c ****   return tmp_hal_status;
1238:src/stm32f1xx_hal_adc_ex.c **** }
 1515              		.loc 1 1238 0
 1516 06ae 03B0     		add	sp, sp, #12	@,,
 1517              	.LCFI19:
 1518              		.cfi_remember_state
 1519              		.cfi_def_cfa_offset 20
 1520              		@ sp needed	@
 1521 06b0 F0BD     		pop	{r4, r5, r6, r7, pc}	@
 1522              	.LVL101:
 1523              	.L129:
 1524              	.LCFI20:
 1525              		.cfi_restore_state
1048:src/stm32f1xx_hal_adc_ex.c ****       
 1526              		.loc 1 1048 0
 1527 06b2 946A     		ldr	r4, [r2, #40]	@ _24, hadc_18(D)->State
1050:src/stm32f1xx_hal_adc_ex.c ****     }
 1528              		.loc 1 1050 0
 1529 06b4 3846     		mov	r0, r7	@ <retval>, tmp220
1048:src/stm32f1xx_hal_adc_ex.c ****       
 1530              		.loc 1 1048 0
 1531 06b6 44F02004 		orr	r4, r4, #32	@ _25, _24,
 1532 06ba 9462     		str	r4, [r2, #40]	@ _25, hadc_18(D)->State
 1533              	.LVL102:
 1534 06bc 8CE7     		b	.L130	@
 1535              	.LVL103:
 1536              	.L128:
1058:src/stm32f1xx_hal_adc_ex.c ****     {
 1537              		.loc 1 1058 0
 1538 06be 0F69     		ldr	r7, [r1, #16]	@ _35, sConfigInjected_22(D)->InjectedNbrOfConversion
1062:src/stm32f1xx_hal_adc_ex.c ****                  
 1539              		.loc 1 1062 0
 1540 06c0 D3F838E0 		ldr	lr, [r3, #56]	@ _37,
 1541 06c4 F41B     		subs	r4, r6, r7	@ tmp304, _34, _35
ARM GAS  /tmp/ccHubou1.s 			page 52


 1542 06c6 04EB8404 		add	r4, r4, r4, lsl #2	@ tmp230, tmp304, tmp304,
1058:src/stm32f1xx_hal_adc_ex.c ****     {
 1543              		.loc 1 1058 0
 1544 06ca BE42     		cmp	r6, r7	@ _34, _35
1062:src/stm32f1xx_hal_adc_ex.c ****                  
 1545              		.loc 1 1062 0
 1546 06cc 04F10F04 		add	r4, r4, #15	@ _40, tmp230,
1058:src/stm32f1xx_hal_adc_ex.c ****     {
 1547              		.loc 1 1058 0
 1548 06d0 10D8     		bhi	.L131	@,
1062:src/stm32f1xx_hal_adc_ex.c ****                  
 1549              		.loc 1 1062 0
 1550 06d2 07F1FF3C 		add	ip, r7, #-1	@ tmp231, _35,
 1551 06d6 05FA04F7 		lsl	r7, r5, r4	@ tmp233, sConfigInjected_22(D)->InjectedChannel, _40
 1552 06da 47EA0C57 		orr	r7, r7, ip, lsl #20	@ tmp235, tmp233, tmp231,
 1553 06de 4FF01F0C 		mov	ip, #31	@ tmp237,
 1554 06e2 0CFA04F4 		lsl	r4, ip, r4	@ tmp236, tmp237, _40
 1555 06e6 44F44014 		orr	r4, r4, #3145728	@ tmp238, tmp236,
 1556 06ea 2EEA0404 		bic	r4, lr, r4	@ tmp240, _37, tmp238
 1557 06ee 3C43     		orrs	r4, r4, r7	@, _50, tmp240, tmp235
 1558              	.L151:
1077:src/stm32f1xx_hal_adc_ex.c ****                  
 1559              		.loc 1 1077 0
 1560 06f0 9C63     		str	r4, [r3, #56]	@ _60,
 1561 06f2 71E7     		b	.L130	@
 1562              	.L131:
 1563 06f4 1F27     		movs	r7, #31	@ tmp247,
 1564 06f6 07FA04F4 		lsl	r4, r7, r4	@ tmp246, tmp247, tmp245
 1565 06fa 44F44014 		orr	r4, r4, #3145728	@ tmp248, tmp246,
 1566 06fe 2EEA0404 		bic	r4, lr, r4	@ _60, _53, tmp248
 1567 0702 F5E7     		b	.L151	@
 1568              	.LVL104:
 1569              	.L136:
1138:src/stm32f1xx_hal_adc_ex.c ****         
 1570              		.loc 1 1138 0
 1571 0704 906A     		ldr	r0, [r2, #40]	@ _82, hadc_18(D)->State
 1572              	.LVL105:
 1573 0706 40F02000 		orr	r0, r0, #32	@ _83, _82,
 1574 070a 9062     		str	r0, [r2, #40]	@ _83, hadc_18(D)->State
 1575              	.LVL106:
1140:src/stm32f1xx_hal_adc_ex.c ****       }
 1576              		.loc 1 1140 0
 1577 070c 3846     		mov	r0, r7	@ <retval>, sConfigInjected_22(D)->InjectedDiscontinuousConvMode
 1578 070e 88E7     		b	.L135	@
 1579              	.LVL107:
 1580              	.L137:
1155:src/stm32f1xx_hal_adc_ex.c ****                ADC_SMPR2(ADC_SMPR2_SMP0, sConfigInjected->InjectedChannel)                       ,
 1581              		.loc 1 1155 0
 1582 0710 4FF0070C 		mov	ip, #7	@ tmp269,
 1583 0714 1F69     		ldr	r7, [r3, #16]	@ _96, _62->SMPR2
 1584 0716 2C44     		add	r4, r4, r5	@ tmp267, sConfigInjected_22(D)->InjectedChannel
 1585 0718 0CFA04FC 		lsl	ip, ip, r4	@ tmp268, tmp269, tmp267
 1586 071c 27EA0C07 		bic	r7, r7, ip	@ tmp271, _96, tmp268
 1587 0720 0EFA04F4 		lsl	r4, lr, r4	@ tmp272, sConfigInjected_22(D)->InjectedSamplingTime, tmp267
 1588 0724 3C43     		orrs	r4, r4, r7	@, _103, tmp272, tmp271
 1589 0726 1C61     		str	r4, [r3, #16]	@ _103, _62->SMPR2
 1590 0728 8EE7     		b	.L138	@
ARM GAS  /tmp/ccHubou1.s 			page 53


 1591              	.L141:
1180:src/stm32f1xx_hal_adc_ex.c ****                  ADC_JOFR2_JOFFSET2,
 1592              		.loc 1 1180 0
 1593 072a 9969     		ldr	r1, [r3, #24]	@ _115, _62->JOFR2
 1594              	.LVL108:
 1595 072c 01EA0E01 		and	r1, r1, lr	@ tmp278, _115, tmp307
 1596 0730 3943     		orrs	r1, r1, r7	@, _118, tmp278, sConfigInjected_22(D)->InjectedOffset
 1597 0732 9961     		str	r1, [r3, #24]	@ _118, _62->JOFR2
1183:src/stm32f1xx_hal_adc_ex.c ****     case 3:
 1598              		.loc 1 1183 0
 1599 0734 9FE7     		b	.L144	@
 1600              	.LVL109:
 1601              	.L142:
1186:src/stm32f1xx_hal_adc_ex.c ****                  ADC_JOFR3_JOFFSET3,
 1602              		.loc 1 1186 0
 1603 0736 D969     		ldr	r1, [r3, #28]	@ _120, _62->JOFR3
 1604              	.LVL110:
 1605 0738 01EA0E01 		and	r1, r1, lr	@ tmp281, _120, tmp307
 1606 073c 3943     		orrs	r1, r1, r7	@, _123, tmp281, sConfigInjected_22(D)->InjectedOffset
 1607 073e D961     		str	r1, [r3, #28]	@ _123, _62->JOFR3
1189:src/stm32f1xx_hal_adc_ex.c ****     case 4:
 1608              		.loc 1 1189 0
 1609 0740 99E7     		b	.L144	@
 1610              	.LVL111:
 1611              	.L150:
1192:src/stm32f1xx_hal_adc_ex.c ****                  ADC_JOFR4_JOFFSET4,
 1612              		.loc 1 1192 0
 1613 0742 196A     		ldr	r1, [r3, #32]	@ _125, _62->JOFR4
 1614              	.LVL112:
 1615 0744 01EA0E01 		and	r1, r1, lr	@ tmp284, _125, tmp307
 1616 0748 3943     		orrs	r1, r1, r7	@, _128, tmp284, sConfigInjected_22(D)->InjectedOffset
 1617 074a 1962     		str	r1, [r3, #32]	@ _128, _62->JOFR4
1195:src/stm32f1xx_hal_adc_ex.c ****   }
 1618              		.loc 1 1195 0
 1619 074c 93E7     		b	.L144	@
 1620              	.L148:
1219:src/stm32f1xx_hal_adc_ex.c ****           }
 1621              		.loc 1 1219 0
 1622 074e 019B     		ldr	r3, [sp, #4]	@ wait_loop_index.15_140, wait_loop_index
 1623 0750 013B     		subs	r3, r3, #1	@ wait_loop_index.16_141, wait_loop_index.15_140,
 1624 0752 A5E7     		b	.L152	@
 1625              	.L146:
1227:src/stm32f1xx_hal_adc_ex.c ****       
 1626              		.loc 1 1227 0
 1627 0754 936A     		ldr	r3, [r2, #40]	@ _143, hadc_18(D)->State
1229:src/stm32f1xx_hal_adc_ex.c ****     }
 1628              		.loc 1 1229 0
 1629 0756 0120     		movs	r0, #1	@ <retval>,
 1630              	.LVL113:
1227:src/stm32f1xx_hal_adc_ex.c ****       
 1631              		.loc 1 1227 0
 1632 0758 43F02003 		orr	r3, r3, #32	@ _144, _143,
 1633 075c 9362     		str	r3, [r2, #40]	@ _144, hadc_18(D)->State
 1634              	.LVL114:
 1635 075e A3E7     		b	.L145	@
 1636              	.LVL115:
 1637              	.L149:
ARM GAS  /tmp/ccHubou1.s 			page 54


1017:src/stm32f1xx_hal_adc_ex.c ****   
 1638              		.loc 1 1017 0
 1639 0760 0220     		movs	r0, #2	@ <retval>,
 1640 0762 A4E7     		b	.L127	@
 1641              	.L154:
 1642              		.align	2
 1643              	.L153:
 1644 0764 00240140 		.word	1073816576
 1645 0768 00000000 		.word	SystemCoreClock
 1646 076c 40420F00 		.word	1000000
 1647 0770 00F0FFFF 		.word	-4096
 1648              		.cfi_endproc
 1649              	.LFE76:
 1650              		.size	HAL_ADCEx_InjectedConfigChannel, .-HAL_ADCEx_InjectedConfigChannel
 1651              		.align	1
 1652              		.global	HAL_ADCEx_MultiModeConfigChannel
 1653              		.syntax unified
 1654              		.thumb
 1655              		.thumb_func
 1656              		.fpu softvfp
 1657              		.type	HAL_ADCEx_MultiModeConfigChannel, %function
 1658              	HAL_ADCEx_MultiModeConfigChannel:
 1659              	.LFB77:
1239:src/stm32f1xx_hal_adc_ex.c **** 
1240:src/stm32f1xx_hal_adc_ex.c **** #if defined (STM32F103x6) || defined (STM32F103xB) || defined (STM32F105xC) || defined (STM32F107xC
1241:src/stm32f1xx_hal_adc_ex.c **** /**
1242:src/stm32f1xx_hal_adc_ex.c ****   * @brief  Enable ADC multimode and configure multimode parameters
1243:src/stm32f1xx_hal_adc_ex.c ****   * @note   Possibility to update parameters on the fly:
1244:src/stm32f1xx_hal_adc_ex.c ****   *         This function initializes multimode parameters, following  
1245:src/stm32f1xx_hal_adc_ex.c ****   *         calls to this function can be used to reconfigure some parameters 
1246:src/stm32f1xx_hal_adc_ex.c ****   *         of structure "ADC_MultiModeTypeDef" on the fly, without reseting 
1247:src/stm32f1xx_hal_adc_ex.c ****   *         the ADCs (both ADCs of the common group).
1248:src/stm32f1xx_hal_adc_ex.c ****   *         The setting of these parameters is conditioned to ADC state.
1249:src/stm32f1xx_hal_adc_ex.c ****   *         For parameters constraints, see comments of structure 
1250:src/stm32f1xx_hal_adc_ex.c ****   *         "ADC_MultiModeTypeDef".
1251:src/stm32f1xx_hal_adc_ex.c ****   * @note   To change back configuration from multimode to single mode, ADC must
1252:src/stm32f1xx_hal_adc_ex.c ****   *         be reset (using function HAL_ADC_Init() ).
1253:src/stm32f1xx_hal_adc_ex.c ****   * @param  hadc: ADC handle
1254:src/stm32f1xx_hal_adc_ex.c ****   * @param  multimode: Structure of ADC multimode configuration
1255:src/stm32f1xx_hal_adc_ex.c ****   * @retval HAL status
1256:src/stm32f1xx_hal_adc_ex.c ****   */
1257:src/stm32f1xx_hal_adc_ex.c **** HAL_StatusTypeDef HAL_ADCEx_MultiModeConfigChannel(ADC_HandleTypeDef* hadc, ADC_MultiModeTypeDef* m
1258:src/stm32f1xx_hal_adc_ex.c **** {
 1660              		.loc 1 1258 0
 1661              		.cfi_startproc
 1662              		@ args = 0, pretend = 0, frame = 0
 1663              		@ frame_needed = 0, uses_anonymous_args = 0
 1664              	.LVL116:
1259:src/stm32f1xx_hal_adc_ex.c ****   HAL_StatusTypeDef tmp_hal_status = HAL_OK;
1260:src/stm32f1xx_hal_adc_ex.c ****   ADC_HandleTypeDef tmphadcSlave;
1261:src/stm32f1xx_hal_adc_ex.c ****   
1262:src/stm32f1xx_hal_adc_ex.c ****   /* Check the parameters */
1263:src/stm32f1xx_hal_adc_ex.c ****   assert_param(IS_ADC_MULTIMODE_MASTER_INSTANCE(hadc->Instance));
1264:src/stm32f1xx_hal_adc_ex.c ****   assert_param(IS_ADC_MODE(multimode->Mode));
1265:src/stm32f1xx_hal_adc_ex.c ****   
1266:src/stm32f1xx_hal_adc_ex.c ****   /* Process locked */
1267:src/stm32f1xx_hal_adc_ex.c ****   __HAL_LOCK(hadc);
ARM GAS  /tmp/ccHubou1.s 			page 55


 1665              		.loc 1 1267 0
 1666 0774 90F82430 		ldrb	r3, [r0, #36]	@ zero_extendqisi2	@ hadc_6(D)->Lock, hadc_6(D)->Lock
1258:src/stm32f1xx_hal_adc_ex.c ****   HAL_StatusTypeDef tmp_hal_status = HAL_OK;
 1667              		.loc 1 1258 0
 1668 0778 10B5     		push	{r4, lr}	@
 1669              	.LCFI21:
 1670              		.cfi_def_cfa_offset 8
 1671              		.cfi_offset 4, -8
 1672              		.cfi_offset 14, -4
 1673              		.loc 1 1267 0
 1674 077a 012B     		cmp	r3, #1	@ hadc_6(D)->Lock,
1258:src/stm32f1xx_hal_adc_ex.c ****   HAL_StatusTypeDef tmp_hal_status = HAL_OK;
 1675              		.loc 1 1258 0
 1676 077c 0246     		mov	r2, r0	@ hadc, hadc
 1677              		.loc 1 1267 0
 1678 077e 1FD0     		beq	.L159	@,
 1679              		.loc 1 1267 0 is_stmt 0 discriminator 2
 1680 0780 0123     		movs	r3, #1	@ tmp126,
1268:src/stm32f1xx_hal_adc_ex.c ****   
1269:src/stm32f1xx_hal_adc_ex.c ****   /* Set a temporary handle of the ADC slave associated to the ADC master     */
1270:src/stm32f1xx_hal_adc_ex.c ****   ADC_MULTI_SLAVE(hadc, &tmphadcSlave);
1271:src/stm32f1xx_hal_adc_ex.c ****   
1272:src/stm32f1xx_hal_adc_ex.c ****   /* Parameters update conditioned to ADC state:                              */
1273:src/stm32f1xx_hal_adc_ex.c ****   /* Parameters that can be updated when ADC is disabled or enabled without   */
1274:src/stm32f1xx_hal_adc_ex.c ****   /* conversion on going on regular group:                                    */
1275:src/stm32f1xx_hal_adc_ex.c ****   /*  - ADC master and ADC slave DMA configuration                            */
1276:src/stm32f1xx_hal_adc_ex.c ****   /* Parameters that can be updated only when ADC is disabled:                */
1277:src/stm32f1xx_hal_adc_ex.c ****   /*  - Multimode mode selection                                              */
1278:src/stm32f1xx_hal_adc_ex.c ****   /* To optimize code, all multimode settings can be set when both ADCs of    */
1279:src/stm32f1xx_hal_adc_ex.c ****   /* the common group are in state: disabled.                                 */
1280:src/stm32f1xx_hal_adc_ex.c ****   if ((ADC_IS_ENABLE(hadc) == RESET)                     &&
 1681              		.loc 1 1280 0 is_stmt 1 discriminator 2
 1682 0782 0468     		ldr	r4, [r0]	@ _9, hadc_6(D)->Instance
1267:src/stm32f1xx_hal_adc_ex.c ****   
 1683              		.loc 1 1267 0 discriminator 2
 1684 0784 80F82430 		strb	r3, [r0, #36]	@ tmp126, hadc_6(D)->Lock
 1685              		.loc 1 1280 0 discriminator 2
 1686 0788 A368     		ldr	r3, [r4, #8]	@ _10, _9->CR2
 1687 078a DB07     		lsls	r3, r3, #31	@, _10,
 1688 078c 12D4     		bmi	.L157	@,
1281:src/stm32f1xx_hal_adc_ex.c ****       (ADC_IS_ENABLE(&tmphadcSlave) == RESET)            &&
 1689              		.loc 1 1281 0 discriminator 1
 1690 078e 0D4B     		ldr	r3, .L160	@ tmp129,
 1691 0790 9B68     		ldr	r3, [r3, #8]	@ _12, MEM[(struct ADC_TypeDef *)1073817600B].CR2
1280:src/stm32f1xx_hal_adc_ex.c ****       (ADC_IS_ENABLE(&tmphadcSlave) == RESET)            &&
 1692              		.loc 1 1280 0 discriminator 1
 1693 0792 13F00103 		ands	r3, r3, #1	@ tmp130, _12,
 1694 0796 0DD1     		bne	.L157	@,
 1695              		.loc 1 1281 0
 1696 0798 0B48     		ldr	r0, .L160+4	@ tmp131,
 1697              	.LVL117:
 1698 079a 8442     		cmp	r4, r0	@ _9, tmp131
 1699 079c 0AD1     		bne	.L157	@,
1282:src/stm32f1xx_hal_adc_ex.c ****       (IS_ADC_MULTIMODE_MASTER_INSTANCE(hadc->Instance))   )
1283:src/stm32f1xx_hal_adc_ex.c ****   {
1284:src/stm32f1xx_hal_adc_ex.c ****     MODIFY_REG(hadc->Instance->CR1,
 1700              		.loc 1 1284 0
ARM GAS  /tmp/ccHubou1.s 			page 56


 1701 079e 6068     		ldr	r0, [r4, #4]	@ _14, MEM[(struct ADC_TypeDef *)1073816576B].CR1
 1702 07a0 0968     		ldr	r1, [r1]	@ multimode_16(D)->Mode, multimode_16(D)->Mode
 1703              	.LVL118:
 1704 07a2 20F47020 		bic	r0, r0, #983040	@ tmp133, _14,
 1705 07a6 0143     		orrs	r1, r1, r0	@, _18, multimode_16(D)->Mode, tmp133
1259:src/stm32f1xx_hal_adc_ex.c ****   ADC_HandleTypeDef tmphadcSlave;
 1706              		.loc 1 1259 0
 1707 07a8 1846     		mov	r0, r3	@ <retval>, tmp130
 1708              		.loc 1 1284 0
 1709 07aa 6160     		str	r1, [r4, #4]	@ _18, MEM[(struct ADC_TypeDef *)1073816576B].CR1
 1710              	.LVL119:
 1711              	.L158:
1285:src/stm32f1xx_hal_adc_ex.c ****                ADC_CR1_DUALMOD    ,
1286:src/stm32f1xx_hal_adc_ex.c ****                multimode->Mode     );
1287:src/stm32f1xx_hal_adc_ex.c ****   }
1288:src/stm32f1xx_hal_adc_ex.c ****   /* If one of the ADC sharing the same common group is enabled, no update    */
1289:src/stm32f1xx_hal_adc_ex.c ****   /* could be done on neither of the multimode structure parameters.          */
1290:src/stm32f1xx_hal_adc_ex.c ****   else
1291:src/stm32f1xx_hal_adc_ex.c ****   {
1292:src/stm32f1xx_hal_adc_ex.c ****     /* Update ADC state machine to error */
1293:src/stm32f1xx_hal_adc_ex.c ****     SET_BIT(hadc->State, HAL_ADC_STATE_ERROR_CONFIG);
1294:src/stm32f1xx_hal_adc_ex.c ****     
1295:src/stm32f1xx_hal_adc_ex.c ****     tmp_hal_status = HAL_ERROR;
1296:src/stm32f1xx_hal_adc_ex.c ****   }
1297:src/stm32f1xx_hal_adc_ex.c ****     
1298:src/stm32f1xx_hal_adc_ex.c ****     
1299:src/stm32f1xx_hal_adc_ex.c ****   /* Process unlocked */
1300:src/stm32f1xx_hal_adc_ex.c ****   __HAL_UNLOCK(hadc);
 1712              		.loc 1 1300 0
 1713 07ac 0023     		movs	r3, #0	@ tmp136,
 1714 07ae 82F82430 		strb	r3, [r2, #36]	@ tmp136, hadc_6(D)->Lock
1301:src/stm32f1xx_hal_adc_ex.c ****   
1302:src/stm32f1xx_hal_adc_ex.c ****   /* Return function status */
1303:src/stm32f1xx_hal_adc_ex.c ****   return tmp_hal_status;
 1715              		.loc 1 1303 0
 1716 07b2 10BD     		pop	{r4, pc}	@
 1717              	.LVL120:
 1718              	.L157:
1293:src/stm32f1xx_hal_adc_ex.c ****     
 1719              		.loc 1 1293 0
 1720 07b4 936A     		ldr	r3, [r2, #40]	@ _20, hadc_6(D)->State
1295:src/stm32f1xx_hal_adc_ex.c ****   }
 1721              		.loc 1 1295 0
 1722 07b6 0120     		movs	r0, #1	@ <retval>,
1293:src/stm32f1xx_hal_adc_ex.c ****     
 1723              		.loc 1 1293 0
 1724 07b8 43F02003 		orr	r3, r3, #32	@ _21, _20,
 1725 07bc 9362     		str	r3, [r2, #40]	@ _21, hadc_6(D)->State
 1726              	.LVL121:
 1727 07be F5E7     		b	.L158	@
 1728              	.LVL122:
 1729              	.L159:
1267:src/stm32f1xx_hal_adc_ex.c ****   
 1730              		.loc 1 1267 0
 1731 07c0 0220     		movs	r0, #2	@ <retval>,
 1732              	.LVL123:
1304:src/stm32f1xx_hal_adc_ex.c **** } 
ARM GAS  /tmp/ccHubou1.s 			page 57


 1733              		.loc 1 1304 0
 1734 07c2 10BD     		pop	{r4, pc}	@
 1735              	.L161:
 1736              		.align	2
 1737              	.L160:
 1738 07c4 00280140 		.word	1073817600
 1739 07c8 00240140 		.word	1073816576
 1740              		.cfi_endproc
 1741              	.LFE77:
 1742              		.size	HAL_ADCEx_MultiModeConfigChannel, .-HAL_ADCEx_MultiModeConfigChannel
 1743              	.Letext0:
 1744              		.file 2 "/usr/include/newlib/machine/_default_types.h"
 1745              		.file 3 "/usr/include/newlib/sys/_stdint.h"
 1746              		.file 4 "../cmsiscore/inc/core_cm3.h"
 1747              		.file 5 "../cmsisstm32f1xx/inc/system_stm32f1xx.h"
 1748              		.file 6 "../cmsisstm32f1xx/inc/stm32f103x6.h"
 1749              		.file 7 "../cmsisstm32f1xx/inc/stm32f1xx.h"
 1750              		.file 8 "./inc/stm32f1xx_hal_def.h"
 1751              		.file 9 "./inc/stm32f1xx_hal_dma.h"
 1752              		.file 10 "./inc/stm32f1xx_hal_adc.h"
 1753              		.file 11 "./inc/stm32f1xx_hal_adc_ex.h"
 1754              		.file 12 "./inc/stm32f1xx_hal.h"
 1755              		.file 13 "./inc/stm32f1xx_hal_rcc_ex.h"