ARM GAS  /tmp/ccAUnyVA.s 			page 1


   1              		.cpu cortex-m3
   2              		.eabi_attribute 20, 1	@ Tag_ABI_FP_denormal
   3              		.eabi_attribute 21, 1	@ Tag_ABI_FP_exceptions
   4              		.eabi_attribute 23, 3	@ Tag_ABI_FP_number_model
   5              		.eabi_attribute 24, 1	@ Tag_ABI_align8_needed
   6              		.eabi_attribute 25, 1	@ Tag_ABI_align8_preserved
   7              		.eabi_attribute 26, 1	@ Tag_ABI_enum_size
   8              		.eabi_attribute 30, 4	@ Tag_ABI_optimization_goals
   9              		.eabi_attribute 34, 1	@ Tag_CPU_unaligned_access
  10              		.eabi_attribute 18, 4	@ Tag_ABI_PCS_wchar_t
  11              		.file	"stm32f1xx_hal_pcd_ex.c"
  12              	@ GNU C11 (15:6.3.1+svn253039-1build1) version 6.3.1 20170620 (arm-none-eabi)
  13              	@	compiled by GNU C version 7.2.0, GMP version 6.1.2, MPFR version 4.0.1-rc1, MPC version 1.1.0, is
  14              	@ warning: MPFR header version 4.0.1-rc1 differs from library version 4.0.1.
  15              	@ GGC heuristics: --param ggc-min-expand=100 --param ggc-min-heapsize=131072
  16              	@ options passed:  -I ./inc -I ./inc/Legacy -I ../cmsisstm32f1xx/inc
  17              	@ -I ../cmsiscore/inc -imultilib thumb/v7-m -D__USES_INITFINI__
  18              	@ -D STM32F103x6 -D RUN_FROM_FLASH=1 -D __c src/stm32f1xx_hal_pcd_ex.c
  19              	@ -mcpu=cortex-m3 -mthumb -auxbase-strip bin/stm32f1xx_hal_pcd_ex.o -g
  20              	@ -gdwarf-2 -Os -Wall -fomit-frame-pointer -fverbose-asm
  21              	@ options enabled:  -faggressive-loop-optimizations -falign-jumps
  22              	@ -falign-labels -falign-loops -fauto-inc-dec -fbranch-count-reg
  23              	@ -fcaller-saves -fchkp-check-incomplete-type -fchkp-check-read
  24              	@ -fchkp-check-write -fchkp-instrument-calls -fchkp-narrow-bounds
  25              	@ -fchkp-optimize -fchkp-store-bounds -fchkp-use-static-bounds
  26              	@ -fchkp-use-static-const-bounds -fchkp-use-wrappers
  27              	@ -fcombine-stack-adjustments -fcommon -fcompare-elim -fcprop-registers
  28              	@ -fcrossjumping -fcse-follow-jumps -fdefer-pop
  29              	@ -fdelete-null-pointer-checks -fdevirtualize -fdevirtualize-speculatively
  30              	@ -fdwarf2-cfi-asm -fearly-inlining -feliminate-unused-debug-types
  31              	@ -fexpensive-optimizations -fforward-propagate -ffunction-cse -fgcse
  32              	@ -fgcse-lm -fgnu-runtime -fgnu-unique -fguess-branch-probability
  33              	@ -fhoist-adjacent-loads -fident -fif-conversion -fif-conversion2
  34              	@ -findirect-inlining -finline -finline-atomics -finline-functions
  35              	@ -finline-functions-called-once -finline-small-functions -fipa-cp
  36              	@ -fipa-cp-alignment -fipa-icf -fipa-icf-functions -fipa-icf-variables
  37              	@ -fipa-profile -fipa-pure-const -fipa-ra -fipa-reference -fipa-sra
  38              	@ -fira-hoist-pressure -fira-share-save-slots -fira-share-spill-slots
  39              	@ -fisolate-erroneous-paths-dereference -fivopts -fkeep-static-consts
  40              	@ -fleading-underscore -flifetime-dse -flra-remat -flto-odr-type-merging
  41              	@ -fmath-errno -fmerge-constants -fmerge-debug-strings
  42              	@ -fmove-loop-invariants -fomit-frame-pointer -foptimize-sibling-calls
  43              	@ -fpartial-inlining -fpeephole -fpeephole2 -fplt -fprefetch-loop-arrays
  44              	@ -freg-struct-return -freorder-blocks -freorder-functions
  45              	@ -frerun-cse-after-loop -fsched-critical-path-heuristic
  46              	@ -fsched-dep-count-heuristic -fsched-group-heuristic -fsched-interblock
  47              	@ -fsched-last-insn-heuristic -fsched-pressure -fsched-rank-heuristic
  48              	@ -fsched-spec -fsched-spec-insn-heuristic -fsched-stalled-insns-dep
  49              	@ -fschedule-insns2 -fsection-anchors -fsemantic-interposition
  50              	@ -fshow-column -fsigned-zeros -fsplit-ivs-in-unroller -fsplit-wide-types
  51              	@ -fssa-backprop -fssa-phiopt -fstdarg-opt -fstrict-aliasing
  52              	@ -fstrict-overflow -fstrict-volatile-bitfields -fsync-libcalls
  53              	@ -fthread-jumps -ftoplevel-reorder -ftrapping-math -ftree-bit-ccp
  54              	@ -ftree-builtin-call-dce -ftree-ccp -ftree-ch -ftree-coalesce-vars
  55              	@ -ftree-copy-prop -ftree-cselim -ftree-dce -ftree-dominator-opts
  56              	@ -ftree-dse -ftree-forwprop -ftree-fre -ftree-loop-if-convert
  57              	@ -ftree-loop-im -ftree-loop-ivcanon -ftree-loop-optimize
ARM GAS  /tmp/ccAUnyVA.s 			page 2


  58              	@ -ftree-parallelize-loops= -ftree-phiprop -ftree-pre -ftree-pta
  59              	@ -ftree-reassoc -ftree-scev-cprop -ftree-sink -ftree-slsr -ftree-sra
  60              	@ -ftree-switch-conversion -ftree-tail-merge -ftree-ter -ftree-vrp
  61              	@ -funit-at-a-time -fvar-tracking -fvar-tracking-assignments -fverbose-asm
  62              	@ -fzero-initialized-in-bss -masm-syntax-unified -mfix-cortex-m3-ldrd
  63              	@ -mlittle-endian -mpic-data-is-text-relative -msched-prolog -mthumb
  64              	@ -munaligned-access -mvectorize-with-neon-quad
  65              	
  66              		.text
  67              	.Ltext0:
  68              		.cfi_sections	.debug_frame
  69              		.align	1
  70              		.global	HAL_PCDEx_PMAConfig
  71              		.syntax unified
  72              		.thumb
  73              		.thumb_func
  74              		.fpu softvfp
  75              		.type	HAL_PCDEx_PMAConfig, %function
  76              	HAL_PCDEx_PMAConfig:
  77              	.LFB65:
  78              		.file 1 "src/stm32f1xx_hal_pcd_ex.c"
   1:src/stm32f1xx_hal_pcd_ex.c **** /**
   2:src/stm32f1xx_hal_pcd_ex.c ****   ******************************************************************************
   3:src/stm32f1xx_hal_pcd_ex.c ****   * @file    stm32f1xx_hal_pcd_ex.c
   4:src/stm32f1xx_hal_pcd_ex.c ****   * @author  MCD Application Team
   5:src/stm32f1xx_hal_pcd_ex.c ****   * @brief   PCD Extended HAL module driver.
   6:src/stm32f1xx_hal_pcd_ex.c ****   *          This file provides firmware functions to manage the following
   7:src/stm32f1xx_hal_pcd_ex.c ****   *          functionalities of the USB Peripheral Controller:
   8:src/stm32f1xx_hal_pcd_ex.c ****   *           + Extended features functions
   9:src/stm32f1xx_hal_pcd_ex.c ****   *
  10:src/stm32f1xx_hal_pcd_ex.c ****   ******************************************************************************
  11:src/stm32f1xx_hal_pcd_ex.c ****   * @attention
  12:src/stm32f1xx_hal_pcd_ex.c ****   *
  13:src/stm32f1xx_hal_pcd_ex.c ****   * <h2><center>&copy; Copyright (c) 2016 STMicroelectronics.
  14:src/stm32f1xx_hal_pcd_ex.c ****   * All rights reserved.</center></h2>
  15:src/stm32f1xx_hal_pcd_ex.c ****   *
  16:src/stm32f1xx_hal_pcd_ex.c ****   * This software component is licensed by ST under BSD 3-Clause license,
  17:src/stm32f1xx_hal_pcd_ex.c ****   * the "License"; You may not use this file except in compliance with the
  18:src/stm32f1xx_hal_pcd_ex.c ****   * License. You may obtain a copy of the License at:
  19:src/stm32f1xx_hal_pcd_ex.c ****   *                        opensource.org/licenses/BSD-3-Clause
  20:src/stm32f1xx_hal_pcd_ex.c ****   *
  21:src/stm32f1xx_hal_pcd_ex.c ****   ******************************************************************************
  22:src/stm32f1xx_hal_pcd_ex.c ****   */
  23:src/stm32f1xx_hal_pcd_ex.c **** 
  24:src/stm32f1xx_hal_pcd_ex.c **** /* Includes ------------------------------------------------------------------*/
  25:src/stm32f1xx_hal_pcd_ex.c **** #include "stm32f1xx_hal.h"
  26:src/stm32f1xx_hal_pcd_ex.c **** 
  27:src/stm32f1xx_hal_pcd_ex.c **** /** @addtogroup STM32F1xx_HAL_Driver
  28:src/stm32f1xx_hal_pcd_ex.c ****   * @{
  29:src/stm32f1xx_hal_pcd_ex.c ****   */
  30:src/stm32f1xx_hal_pcd_ex.c **** 
  31:src/stm32f1xx_hal_pcd_ex.c **** /** @defgroup PCDEx PCDEx
  32:src/stm32f1xx_hal_pcd_ex.c ****   * @brief PCD Extended HAL module driver
  33:src/stm32f1xx_hal_pcd_ex.c ****   * @{
  34:src/stm32f1xx_hal_pcd_ex.c ****   */
  35:src/stm32f1xx_hal_pcd_ex.c **** 
  36:src/stm32f1xx_hal_pcd_ex.c **** #ifdef HAL_PCD_MODULE_ENABLED
ARM GAS  /tmp/ccAUnyVA.s 			page 3


  37:src/stm32f1xx_hal_pcd_ex.c **** 
  38:src/stm32f1xx_hal_pcd_ex.c **** #if defined (USB) || defined (USB_OTG_FS)
  39:src/stm32f1xx_hal_pcd_ex.c **** /* Private types -------------------------------------------------------------*/
  40:src/stm32f1xx_hal_pcd_ex.c **** /* Private variables ---------------------------------------------------------*/
  41:src/stm32f1xx_hal_pcd_ex.c **** /* Private constants ---------------------------------------------------------*/
  42:src/stm32f1xx_hal_pcd_ex.c **** /* Private macros ------------------------------------------------------------*/
  43:src/stm32f1xx_hal_pcd_ex.c **** /* Private functions ---------------------------------------------------------*/
  44:src/stm32f1xx_hal_pcd_ex.c **** /* Exported functions --------------------------------------------------------*/
  45:src/stm32f1xx_hal_pcd_ex.c **** 
  46:src/stm32f1xx_hal_pcd_ex.c **** /** @defgroup PCDEx_Exported_Functions PCDEx Exported Functions
  47:src/stm32f1xx_hal_pcd_ex.c ****   * @{
  48:src/stm32f1xx_hal_pcd_ex.c ****   */
  49:src/stm32f1xx_hal_pcd_ex.c **** 
  50:src/stm32f1xx_hal_pcd_ex.c **** /** @defgroup PCDEx_Exported_Functions_Group1 Peripheral Control functions
  51:src/stm32f1xx_hal_pcd_ex.c ****   * @brief    PCDEx control functions
  52:src/stm32f1xx_hal_pcd_ex.c ****  *
  53:src/stm32f1xx_hal_pcd_ex.c **** @verbatim
  54:src/stm32f1xx_hal_pcd_ex.c ****  ===============================================================================
  55:src/stm32f1xx_hal_pcd_ex.c ****                  ##### Extended features functions #####
  56:src/stm32f1xx_hal_pcd_ex.c ****  ===============================================================================
  57:src/stm32f1xx_hal_pcd_ex.c ****     [..]  This section provides functions allowing to:
  58:src/stm32f1xx_hal_pcd_ex.c ****       (+) Update FIFO configuration
  59:src/stm32f1xx_hal_pcd_ex.c **** 
  60:src/stm32f1xx_hal_pcd_ex.c **** @endverbatim
  61:src/stm32f1xx_hal_pcd_ex.c ****   * @{
  62:src/stm32f1xx_hal_pcd_ex.c ****   */
  63:src/stm32f1xx_hal_pcd_ex.c **** #if defined (USB_OTG_FS)
  64:src/stm32f1xx_hal_pcd_ex.c **** /**
  65:src/stm32f1xx_hal_pcd_ex.c ****   * @brief  Set Tx FIFO
  66:src/stm32f1xx_hal_pcd_ex.c ****   * @param  hpcd PCD handle
  67:src/stm32f1xx_hal_pcd_ex.c ****   * @param  fifo The number of Tx fifo
  68:src/stm32f1xx_hal_pcd_ex.c ****   * @param  size Fifo size
  69:src/stm32f1xx_hal_pcd_ex.c ****   * @retval HAL status
  70:src/stm32f1xx_hal_pcd_ex.c ****   */
  71:src/stm32f1xx_hal_pcd_ex.c **** HAL_StatusTypeDef HAL_PCDEx_SetTxFiFo(PCD_HandleTypeDef *hpcd, uint8_t fifo, uint16_t size)
  72:src/stm32f1xx_hal_pcd_ex.c **** {
  73:src/stm32f1xx_hal_pcd_ex.c ****   uint8_t i;
  74:src/stm32f1xx_hal_pcd_ex.c ****   uint32_t Tx_Offset;
  75:src/stm32f1xx_hal_pcd_ex.c **** 
  76:src/stm32f1xx_hal_pcd_ex.c ****   /*  TXn min size = 16 words. (n  : Transmit FIFO index)
  77:src/stm32f1xx_hal_pcd_ex.c ****       When a TxFIFO is not used, the Configuration should be as follows:
  78:src/stm32f1xx_hal_pcd_ex.c ****           case 1 :  n > m    and Txn is not used    (n,m  : Transmit FIFO indexes)
  79:src/stm32f1xx_hal_pcd_ex.c ****          --> Txm can use the space allocated for Txn.
  80:src/stm32f1xx_hal_pcd_ex.c ****          case2  :  n < m    and Txn is not used    (n,m  : Transmit FIFO indexes)
  81:src/stm32f1xx_hal_pcd_ex.c ****          --> Txn should be configured with the minimum space of 16 words
  82:src/stm32f1xx_hal_pcd_ex.c ****      The FIFO is used optimally when used TxFIFOs are allocated in the top
  83:src/stm32f1xx_hal_pcd_ex.c ****          of the FIFO.Ex: use EP1 and EP2 as IN instead of EP1 and EP3 as IN ones.
  84:src/stm32f1xx_hal_pcd_ex.c ****      When DMA is used 3n * FIFO locations should be reserved for internal DMA registers */
  85:src/stm32f1xx_hal_pcd_ex.c **** 
  86:src/stm32f1xx_hal_pcd_ex.c ****   Tx_Offset = hpcd->Instance->GRXFSIZ;
  87:src/stm32f1xx_hal_pcd_ex.c **** 
  88:src/stm32f1xx_hal_pcd_ex.c ****   if (fifo == 0U)
  89:src/stm32f1xx_hal_pcd_ex.c ****   {
  90:src/stm32f1xx_hal_pcd_ex.c ****     hpcd->Instance->DIEPTXF0_HNPTXFSIZ = ((uint32_t)size << 16) | Tx_Offset;
  91:src/stm32f1xx_hal_pcd_ex.c ****   }
  92:src/stm32f1xx_hal_pcd_ex.c ****   else
  93:src/stm32f1xx_hal_pcd_ex.c ****   {
ARM GAS  /tmp/ccAUnyVA.s 			page 4


  94:src/stm32f1xx_hal_pcd_ex.c ****     Tx_Offset += (hpcd->Instance->DIEPTXF0_HNPTXFSIZ) >> 16;
  95:src/stm32f1xx_hal_pcd_ex.c ****     for (i = 0U; i < (fifo - 1U); i++)
  96:src/stm32f1xx_hal_pcd_ex.c ****     {
  97:src/stm32f1xx_hal_pcd_ex.c ****       Tx_Offset += (hpcd->Instance->DIEPTXF[i] >> 16);
  98:src/stm32f1xx_hal_pcd_ex.c ****     }
  99:src/stm32f1xx_hal_pcd_ex.c **** 
 100:src/stm32f1xx_hal_pcd_ex.c ****     /* Multiply Tx_Size by 2 to get higher performance */
 101:src/stm32f1xx_hal_pcd_ex.c ****     hpcd->Instance->DIEPTXF[fifo - 1U] = ((uint32_t)size << 16) | Tx_Offset;
 102:src/stm32f1xx_hal_pcd_ex.c ****   }
 103:src/stm32f1xx_hal_pcd_ex.c **** 
 104:src/stm32f1xx_hal_pcd_ex.c ****   return HAL_OK;
 105:src/stm32f1xx_hal_pcd_ex.c **** }
 106:src/stm32f1xx_hal_pcd_ex.c **** 
 107:src/stm32f1xx_hal_pcd_ex.c **** /**
 108:src/stm32f1xx_hal_pcd_ex.c ****   * @brief  Set Rx FIFO
 109:src/stm32f1xx_hal_pcd_ex.c ****   * @param  hpcd PCD handle
 110:src/stm32f1xx_hal_pcd_ex.c ****   * @param  size Size of Rx fifo
 111:src/stm32f1xx_hal_pcd_ex.c ****   * @retval HAL status
 112:src/stm32f1xx_hal_pcd_ex.c ****   */
 113:src/stm32f1xx_hal_pcd_ex.c **** HAL_StatusTypeDef HAL_PCDEx_SetRxFiFo(PCD_HandleTypeDef *hpcd, uint16_t size)
 114:src/stm32f1xx_hal_pcd_ex.c **** {
 115:src/stm32f1xx_hal_pcd_ex.c ****   hpcd->Instance->GRXFSIZ = size;
 116:src/stm32f1xx_hal_pcd_ex.c **** 
 117:src/stm32f1xx_hal_pcd_ex.c ****   return HAL_OK;
 118:src/stm32f1xx_hal_pcd_ex.c **** }
 119:src/stm32f1xx_hal_pcd_ex.c **** #endif /* defined (USB_OTG_FS) */
 120:src/stm32f1xx_hal_pcd_ex.c **** #if defined (USB)
 121:src/stm32f1xx_hal_pcd_ex.c **** /**
 122:src/stm32f1xx_hal_pcd_ex.c ****   * @brief  Configure PMA for EP
 123:src/stm32f1xx_hal_pcd_ex.c ****   * @param  hpcd  Device instance
 124:src/stm32f1xx_hal_pcd_ex.c ****   * @param  ep_addr endpoint address
 125:src/stm32f1xx_hal_pcd_ex.c ****   * @param  ep_kind endpoint Kind
 126:src/stm32f1xx_hal_pcd_ex.c ****   *                  USB_SNG_BUF: Single Buffer used
 127:src/stm32f1xx_hal_pcd_ex.c ****   *                  USB_DBL_BUF: Double Buffer used
 128:src/stm32f1xx_hal_pcd_ex.c ****   * @param  pmaadress: EP address in The PMA: In case of single buffer endpoint
 129:src/stm32f1xx_hal_pcd_ex.c ****   *                   this parameter is 16-bit value providing the address
 130:src/stm32f1xx_hal_pcd_ex.c ****   *                   in PMA allocated to endpoint.
 131:src/stm32f1xx_hal_pcd_ex.c ****   *                   In case of double buffer endpoint this parameter
 132:src/stm32f1xx_hal_pcd_ex.c ****   *                   is a 32-bit value providing the endpoint buffer 0 address
 133:src/stm32f1xx_hal_pcd_ex.c ****   *                   in the LSB part of 32-bit value and endpoint buffer 1 address
 134:src/stm32f1xx_hal_pcd_ex.c ****   *                   in the MSB part of 32-bit value.
 135:src/stm32f1xx_hal_pcd_ex.c ****   * @retval HAL status
 136:src/stm32f1xx_hal_pcd_ex.c ****   */
 137:src/stm32f1xx_hal_pcd_ex.c **** 
 138:src/stm32f1xx_hal_pcd_ex.c **** HAL_StatusTypeDef  HAL_PCDEx_PMAConfig(PCD_HandleTypeDef *hpcd,
 139:src/stm32f1xx_hal_pcd_ex.c ****                                        uint16_t ep_addr,
 140:src/stm32f1xx_hal_pcd_ex.c ****                                        uint16_t ep_kind,
 141:src/stm32f1xx_hal_pcd_ex.c ****                                        uint32_t pmaadress)
 142:src/stm32f1xx_hal_pcd_ex.c **** {
  79              		.loc 1 142 0
  80              		.cfi_startproc
  81              		@ args = 0, pretend = 0, frame = 0
  82              		@ frame_needed = 0, uses_anonymous_args = 0
  83              		@ link register save eliminated.
  84              	.LVL0:
 143:src/stm32f1xx_hal_pcd_ex.c ****   PCD_EPTypeDef *ep;
 144:src/stm32f1xx_hal_pcd_ex.c **** 
ARM GAS  /tmp/ccAUnyVA.s 			page 5


 145:src/stm32f1xx_hal_pcd_ex.c ****   /* initialize ep structure*/
 146:src/stm32f1xx_hal_pcd_ex.c ****   if ((0x80U & ep_addr) == 0x80U)
  85              		.loc 1 146 0
  86 0000 11F0800F 		tst	r1, #128	@ ep_addr,
 147:src/stm32f1xx_hal_pcd_ex.c ****   {
 148:src/stm32f1xx_hal_pcd_ex.c ****     ep = &hpcd->IN_ep[ep_addr & EP_ADDR_MSK];
  87              		.loc 1 148 0
  88 0004 1BBF     		ittet	ne
  89 0006 01F00701 		andne	r1, r1, #7	@ tmp132, ep_addr,
  90              	.LVL1:
  91 000a 00EB4110 		addne	r0, r0, r1, lsl #5	@ tmp134, hpcd, tmp132,
  92              	.LVL2:
 149:src/stm32f1xx_hal_pcd_ex.c ****   }
 150:src/stm32f1xx_hal_pcd_ex.c ****   else
 151:src/stm32f1xx_hal_pcd_ex.c ****   {
 152:src/stm32f1xx_hal_pcd_ex.c ****     ep = &hpcd->OUT_ep[ep_addr];
  93              		.loc 1 152 0
  94 000e 00EB4110 		addeq	r0, r0, r1, lsl #5	@ tmp136, hpcd, ep_addr,
 148:src/stm32f1xx_hal_pcd_ex.c ****   }
  95              		.loc 1 148 0
  96 0012 2830     		addne	r0, r0, #40	@ ep, tmp134,
  97              		.loc 1 152 0
  98 0014 08BF     		it	eq
  99 0016 00F59470 		addeq	r0, r0, #296	@ ep, tmp136,
 100              	.LVL3:
 153:src/stm32f1xx_hal_pcd_ex.c ****   }
 154:src/stm32f1xx_hal_pcd_ex.c **** 
 155:src/stm32f1xx_hal_pcd_ex.c ****   /* Here we check if the endpoint is single or double Buffer*/
 156:src/stm32f1xx_hal_pcd_ex.c ****   if (ep_kind == PCD_SNG_BUF)
 101              		.loc 1 156 0
 102 001a 1AB9     		cbnz	r2, .L4	@ ep_kind,
 157:src/stm32f1xx_hal_pcd_ex.c ****   {
 158:src/stm32f1xx_hal_pcd_ex.c ****     /* Single Buffer */
 159:src/stm32f1xx_hal_pcd_ex.c ****     ep->doublebuffer = 0U;
 103              		.loc 1 159 0
 104 001c 0273     		strb	r2, [r0, #12]	@ ep_kind, ep_1->doublebuffer
 160:src/stm32f1xx_hal_pcd_ex.c ****     /* Configure the PMA */
 161:src/stm32f1xx_hal_pcd_ex.c ****     ep->pmaadress = (uint16_t)pmaadress;
 105              		.loc 1 161 0
 106 001e C380     		strh	r3, [r0, #6]	@ movhi	@ pmaadress, ep_1->pmaadress
 107              	.LVL4:
 108              	.L5:
 162:src/stm32f1xx_hal_pcd_ex.c ****   }
 163:src/stm32f1xx_hal_pcd_ex.c ****   else /* USB_DBL_BUF */
 164:src/stm32f1xx_hal_pcd_ex.c ****   {
 165:src/stm32f1xx_hal_pcd_ex.c ****     /* Double Buffer Endpoint */
 166:src/stm32f1xx_hal_pcd_ex.c ****     ep->doublebuffer = 1U;
 167:src/stm32f1xx_hal_pcd_ex.c ****     /* Configure the PMA */
 168:src/stm32f1xx_hal_pcd_ex.c ****     ep->pmaaddr0 = (uint16_t)(pmaadress & 0xFFFFU);
 169:src/stm32f1xx_hal_pcd_ex.c ****     ep->pmaaddr1 = (uint16_t)((pmaadress & 0xFFFF0000U) >> 16);
 170:src/stm32f1xx_hal_pcd_ex.c ****   }
 171:src/stm32f1xx_hal_pcd_ex.c **** 
 172:src/stm32f1xx_hal_pcd_ex.c ****   return HAL_OK;
 173:src/stm32f1xx_hal_pcd_ex.c **** }
 109              		.loc 1 173 0
 110 0020 0020     		movs	r0, #0	@,
 111              	.LVL5:
ARM GAS  /tmp/ccAUnyVA.s 			page 6


 112 0022 7047     		bx	lr	@
 113              	.LVL6:
 114              	.L4:
 166:src/stm32f1xx_hal_pcd_ex.c ****     /* Configure the PMA */
 115              		.loc 1 166 0
 116 0024 0122     		movs	r2, #1	@ tmp140,
 117              	.LVL7:
 168:src/stm32f1xx_hal_pcd_ex.c ****     ep->pmaaddr1 = (uint16_t)((pmaadress & 0xFFFF0000U) >> 16);
 118              		.loc 1 168 0
 119 0026 0381     		strh	r3, [r0, #8]	@ movhi	@ pmaadress, ep_1->pmaaddr0
 169:src/stm32f1xx_hal_pcd_ex.c ****   }
 120              		.loc 1 169 0
 121 0028 1B0C     		lsrs	r3, r3, #16	@ tmp143, pmaadress,
 122              	.LVL8:
 166:src/stm32f1xx_hal_pcd_ex.c ****     /* Configure the PMA */
 123              		.loc 1 166 0
 124 002a 0273     		strb	r2, [r0, #12]	@ tmp140, ep_1->doublebuffer
 169:src/stm32f1xx_hal_pcd_ex.c ****   }
 125              		.loc 1 169 0
 126 002c 4381     		strh	r3, [r0, #10]	@ movhi	@ tmp143, ep_1->pmaaddr1
 127 002e F7E7     		b	.L5	@
 128              		.cfi_endproc
 129              	.LFE65:
 130              		.size	HAL_PCDEx_PMAConfig, .-HAL_PCDEx_PMAConfig
 131              		.align	1
 132              		.weak	HAL_PCDEx_SetConnectionState
 133              		.syntax unified
 134              		.thumb
 135              		.thumb_func
 136              		.fpu softvfp
 137              		.type	HAL_PCDEx_SetConnectionState, %function
 138              	HAL_PCDEx_SetConnectionState:
 139              	.LFB72:
 140              		.cfi_startproc
 141              		@ args = 0, pretend = 0, frame = 0
 142              		@ frame_needed = 0, uses_anonymous_args = 0
 143              		@ link register save eliminated.
 144 0030 7047     		bx	lr	@
 145              		.cfi_endproc
 146              	.LFE72:
 147              		.size	HAL_PCDEx_SetConnectionState, .-HAL_PCDEx_SetConnectionState
 148              		.align	1
 149              		.weak	HAL_PCDEx_LPM_Callback
 150              		.syntax unified
 151              		.thumb
 152              		.thumb_func
 153              		.fpu softvfp
 154              		.type	HAL_PCDEx_LPM_Callback, %function
 155              	HAL_PCDEx_LPM_Callback:
 156              	.LFB70:
 157              		.cfi_startproc
 158              		@ args = 0, pretend = 0, frame = 0
 159              		@ frame_needed = 0, uses_anonymous_args = 0
 160              		@ link register save eliminated.
 161 0032 7047     		bx	lr	@
 162              		.cfi_endproc
 163              	.LFE70:
ARM GAS  /tmp/ccAUnyVA.s 			page 7


 164              		.size	HAL_PCDEx_LPM_Callback, .-HAL_PCDEx_LPM_Callback
 165              		.align	1
 166              		.weak	HAL_PCDEx_BCD_Callback
 167              		.syntax unified
 168              		.thumb
 169              		.thumb_func
 170              		.fpu softvfp
 171              		.type	HAL_PCDEx_BCD_Callback, %function
 172              	HAL_PCDEx_BCD_Callback:
 173              	.LFB68:
 174:src/stm32f1xx_hal_pcd_ex.c **** 
 175:src/stm32f1xx_hal_pcd_ex.c **** /**
 176:src/stm32f1xx_hal_pcd_ex.c ****   * @brief  Software Device Connection,
 177:src/stm32f1xx_hal_pcd_ex.c ****   *         this function is not required by USB OTG FS peripheral, it is used
 178:src/stm32f1xx_hal_pcd_ex.c ****   *         only by USB Device FS peripheral.
 179:src/stm32f1xx_hal_pcd_ex.c ****   * @param  hpcd: PCD handle
 180:src/stm32f1xx_hal_pcd_ex.c ****   * @param  state: connection state (0 : disconnected / 1: connected)
 181:src/stm32f1xx_hal_pcd_ex.c ****   * @retval None
 182:src/stm32f1xx_hal_pcd_ex.c ****   */
 183:src/stm32f1xx_hal_pcd_ex.c **** __weak void HAL_PCDEx_SetConnectionState(PCD_HandleTypeDef *hpcd, uint8_t state)
 184:src/stm32f1xx_hal_pcd_ex.c **** {
 185:src/stm32f1xx_hal_pcd_ex.c ****   /* Prevent unused argument(s) compilation warning */
 186:src/stm32f1xx_hal_pcd_ex.c ****   UNUSED(hpcd);
 187:src/stm32f1xx_hal_pcd_ex.c ****   UNUSED(state);
 188:src/stm32f1xx_hal_pcd_ex.c ****   /* NOTE : This function Should not be modified, when the callback is needed,
 189:src/stm32f1xx_hal_pcd_ex.c ****             the HAL_PCDEx_SetConnectionState could be implemented in the user file
 190:src/stm32f1xx_hal_pcd_ex.c ****    */
 191:src/stm32f1xx_hal_pcd_ex.c **** }
 192:src/stm32f1xx_hal_pcd_ex.c **** #endif /* defined (USB) */
 193:src/stm32f1xx_hal_pcd_ex.c **** 
 194:src/stm32f1xx_hal_pcd_ex.c **** /**
 195:src/stm32f1xx_hal_pcd_ex.c ****   * @brief  Send LPM message to user layer callback.
 196:src/stm32f1xx_hal_pcd_ex.c ****   * @param  hpcd PCD handle
 197:src/stm32f1xx_hal_pcd_ex.c ****   * @param  msg LPM message
 198:src/stm32f1xx_hal_pcd_ex.c ****   * @retval HAL status
 199:src/stm32f1xx_hal_pcd_ex.c ****   */
 200:src/stm32f1xx_hal_pcd_ex.c **** __weak void HAL_PCDEx_LPM_Callback(PCD_HandleTypeDef *hpcd, PCD_LPM_MsgTypeDef msg)
 201:src/stm32f1xx_hal_pcd_ex.c **** {
 202:src/stm32f1xx_hal_pcd_ex.c ****   /* Prevent unused argument(s) compilation warning */
 203:src/stm32f1xx_hal_pcd_ex.c ****   UNUSED(hpcd);
 204:src/stm32f1xx_hal_pcd_ex.c ****   UNUSED(msg);
 205:src/stm32f1xx_hal_pcd_ex.c **** 
 206:src/stm32f1xx_hal_pcd_ex.c ****   /* NOTE : This function should not be modified, when the callback is needed,
 207:src/stm32f1xx_hal_pcd_ex.c ****             the HAL_PCDEx_LPM_Callback could be implemented in the user file
 208:src/stm32f1xx_hal_pcd_ex.c ****    */
 209:src/stm32f1xx_hal_pcd_ex.c **** }
 210:src/stm32f1xx_hal_pcd_ex.c **** 
 211:src/stm32f1xx_hal_pcd_ex.c **** /**
 212:src/stm32f1xx_hal_pcd_ex.c ****   * @brief  Send BatteryCharging message to user layer callback.
 213:src/stm32f1xx_hal_pcd_ex.c ****   * @param  hpcd PCD handle
 214:src/stm32f1xx_hal_pcd_ex.c ****   * @param  msg LPM message
 215:src/stm32f1xx_hal_pcd_ex.c ****   * @retval HAL status
 216:src/stm32f1xx_hal_pcd_ex.c ****   */
 217:src/stm32f1xx_hal_pcd_ex.c **** __weak void HAL_PCDEx_BCD_Callback(PCD_HandleTypeDef *hpcd, PCD_BCD_MsgTypeDef msg)
 218:src/stm32f1xx_hal_pcd_ex.c **** {
 174              		.loc 1 218 0
 175              		.cfi_startproc
ARM GAS  /tmp/ccAUnyVA.s 			page 8


 176              		@ args = 0, pretend = 0, frame = 0
 177              		@ frame_needed = 0, uses_anonymous_args = 0
 178              		@ link register save eliminated.
 179              	.LVL9:
 180 0034 7047     		bx	lr	@
 181              		.cfi_endproc
 182              	.LFE68:
 183              		.size	HAL_PCDEx_BCD_Callback, .-HAL_PCDEx_BCD_Callback
 184              	.Letext0:
 185              		.file 2 "/usr/include/newlib/machine/_default_types.h"
 186              		.file 3 "/usr/include/newlib/sys/_stdint.h"
 187              		.file 4 "../cmsiscore/inc/core_cm3.h"
 188              		.file 5 "../cmsisstm32f1xx/inc/system_stm32f1xx.h"
 189              		.file 6 "../cmsisstm32f1xx/inc/stm32f103x6.h"
 190              		.file 7 "./inc/stm32f1xx_hal_def.h"
 191              		.file 8 "./inc/stm32f1xx_ll_usb.h"
 192              		.file 9 "./inc/stm32f1xx_hal_pcd.h"
 193              		.file 10 "./inc/stm32f1xx_hal.h"