ARM GAS  /tmp/ccLG8aCO.s 			page 1


   1              		.cpu cortex-m3
   2              		.eabi_attribute 20, 1
   3              		.eabi_attribute 21, 1
   4              		.eabi_attribute 23, 3
   5              		.eabi_attribute 24, 1
   6              		.eabi_attribute 25, 1
   7              		.eabi_attribute 26, 1
   8              		.eabi_attribute 30, 1
   9              		.eabi_attribute 34, 1
  10              		.eabi_attribute 18, 4
  11              		.file	"stm32f1xx_hal_tim_ex.c"
  12              		.section	.text.TIM_CCxNChannelCmd,"ax",%progbits
  13              		.align	1
  14              		.syntax unified
  15              		.thumb
  16              		.thumb_func
  17              		.fpu softvfp
  19              	TIM_CCxNChannelCmd:
  20              		@ args = 0, pretend = 0, frame = 0
  21              		@ frame_needed = 0, uses_anonymous_args = 0
  22              		@ link register save eliminated.
  23 0000 10B4     		push	{r4}
  24 0002 01F01F01 		and	r1, r1, #31
  25 0006 0423     		movs	r3, #4
  26 0008 03FA01F4 		lsl	r4, r3, r1
  27 000c 036A     		ldr	r3, [r0, #32]
  28 000e 23EA0403 		bic	r3, r3, r4
  29 0012 0362     		str	r3, [r0, #32]
  30 0014 036A     		ldr	r3, [r0, #32]
  31 0016 8A40     		lsls	r2, r2, r1
  32 0018 1343     		orrs	r3, r3, r2
  33 001a 0362     		str	r3, [r0, #32]
  34 001c 10BC     		pop	{r4}
  35 001e 7047     		bx	lr
  37              		.section	.text.HAL_TIMEx_HallSensor_MspInit,"ax",%progbits
  38              		.align	1
  39              		.weak	HAL_TIMEx_HallSensor_MspInit
  40              		.syntax unified
  41              		.thumb
  42              		.thumb_func
  43              		.fpu softvfp
  45              	HAL_TIMEx_HallSensor_MspInit:
  46              		@ args = 0, pretend = 0, frame = 0
  47              		@ frame_needed = 0, uses_anonymous_args = 0
  48              		@ link register save eliminated.
  49 0000 7047     		bx	lr
  51              		.section	.text.HAL_TIMEx_HallSensor_Init,"ax",%progbits
  52              		.align	1
  53              		.global	HAL_TIMEx_HallSensor_Init
  54              		.syntax unified
  55              		.thumb
  56              		.thumb_func
  57              		.fpu softvfp
  59              	HAL_TIMEx_HallSensor_Init:
  60              		@ args = 0, pretend = 0, frame = 32
  61              		@ frame_needed = 0, uses_anonymous_args = 0
  62 0000 0028     		cmp	r0, #0
ARM GAS  /tmp/ccLG8aCO.s 			page 2


  63 0002 5AD0     		beq	.L7
  64 0004 70B5     		push	{r4, r5, r6, lr}
  65 0006 88B0     		sub	sp, sp, #32
  66 0008 0446     		mov	r4, r0
  67 000a 0E46     		mov	r6, r1
  68 000c 90F83D30 		ldrb	r3, [r0, #61]	@ zero_extendqisi2
  69 0010 002B     		cmp	r3, #0
  70 0012 4DD0     		beq	.L12
  71              	.L6:
  72 0014 0223     		movs	r3, #2
  73 0016 84F83D30 		strb	r3, [r4, #61]
  74 001a 211D     		adds	r1, r4, #4
  75 001c 2068     		ldr	r0, [r4]
  76 001e FFF7FEFF 		bl	TIM_Base_SetConfig
  77 0022 B368     		ldr	r3, [r6, #8]
  78 0024 0322     		movs	r2, #3
  79 0026 3168     		ldr	r1, [r6]
  80 0028 2068     		ldr	r0, [r4]
  81 002a FFF7FEFF 		bl	TIM_TI1_SetConfig
  82 002e 2268     		ldr	r2, [r4]
  83 0030 9369     		ldr	r3, [r2, #24]
  84 0032 23F00C03 		bic	r3, r3, #12
  85 0036 9361     		str	r3, [r2, #24]
  86 0038 2268     		ldr	r2, [r4]
  87 003a 9369     		ldr	r3, [r2, #24]
  88 003c 7168     		ldr	r1, [r6, #4]
  89 003e 0B43     		orrs	r3, r3, r1
  90 0040 9361     		str	r3, [r2, #24]
  91 0042 2268     		ldr	r2, [r4]
  92 0044 5368     		ldr	r3, [r2, #4]
  93 0046 43F08003 		orr	r3, r3, #128
  94 004a 5360     		str	r3, [r2, #4]
  95 004c 2268     		ldr	r2, [r4]
  96 004e 9368     		ldr	r3, [r2, #8]
  97 0050 23F07003 		bic	r3, r3, #112
  98 0054 9360     		str	r3, [r2, #8]
  99 0056 2268     		ldr	r2, [r4]
 100 0058 9368     		ldr	r3, [r2, #8]
 101 005a 43F04003 		orr	r3, r3, #64
 102 005e 9360     		str	r3, [r2, #8]
 103 0060 2268     		ldr	r2, [r4]
 104 0062 9368     		ldr	r3, [r2, #8]
 105 0064 23F00703 		bic	r3, r3, #7
 106 0068 9360     		str	r3, [r2, #8]
 107 006a 2268     		ldr	r2, [r4]
 108 006c 9368     		ldr	r3, [r2, #8]
 109 006e 43F00403 		orr	r3, r3, #4
 110 0072 9360     		str	r3, [r2, #8]
 111 0074 0025     		movs	r5, #0
 112 0076 0595     		str	r5, [sp, #20]
 113 0078 0695     		str	r5, [sp, #24]
 114 007a 7023     		movs	r3, #112
 115 007c 0193     		str	r3, [sp, #4]
 116 007e 0795     		str	r5, [sp, #28]
 117 0080 0495     		str	r5, [sp, #16]
 118 0082 0395     		str	r5, [sp, #12]
 119 0084 F368     		ldr	r3, [r6, #12]
ARM GAS  /tmp/ccLG8aCO.s 			page 3


 120 0086 0293     		str	r3, [sp, #8]
 121 0088 01A9     		add	r1, sp, #4
 122 008a 2068     		ldr	r0, [r4]
 123 008c FFF7FEFF 		bl	TIM_OC2_SetConfig
 124 0090 2268     		ldr	r2, [r4]
 125 0092 5368     		ldr	r3, [r2, #4]
 126 0094 23F07003 		bic	r3, r3, #112
 127 0098 5360     		str	r3, [r2, #4]
 128 009a 2268     		ldr	r2, [r4]
 129 009c 5368     		ldr	r3, [r2, #4]
 130 009e 43F05003 		orr	r3, r3, #80
 131 00a2 5360     		str	r3, [r2, #4]
 132 00a4 0123     		movs	r3, #1
 133 00a6 84F83D30 		strb	r3, [r4, #61]
 134 00aa 2846     		mov	r0, r5
 135 00ac 08B0     		add	sp, sp, #32
 136              		@ sp needed
 137 00ae 70BD     		pop	{r4, r5, r6, pc}
 138              	.L12:
 139 00b0 80F83C30 		strb	r3, [r0, #60]
 140 00b4 FFF7FEFF 		bl	HAL_TIMEx_HallSensor_MspInit
 141 00b8 ACE7     		b	.L6
 142              	.L7:
 143 00ba 0120     		movs	r0, #1
 144 00bc 7047     		bx	lr
 146              		.section	.text.HAL_TIMEx_HallSensor_MspDeInit,"ax",%progbits
 147              		.align	1
 148              		.weak	HAL_TIMEx_HallSensor_MspDeInit
 149              		.syntax unified
 150              		.thumb
 151              		.thumb_func
 152              		.fpu softvfp
 154              	HAL_TIMEx_HallSensor_MspDeInit:
 155              		@ args = 0, pretend = 0, frame = 0
 156              		@ frame_needed = 0, uses_anonymous_args = 0
 157              		@ link register save eliminated.
 158 0000 7047     		bx	lr
 160              		.section	.text.HAL_TIMEx_HallSensor_DeInit,"ax",%progbits
 161              		.align	1
 162              		.global	HAL_TIMEx_HallSensor_DeInit
 163              		.syntax unified
 164              		.thumb
 165              		.thumb_func
 166              		.fpu softvfp
 168              	HAL_TIMEx_HallSensor_DeInit:
 169              		@ args = 0, pretend = 0, frame = 0
 170              		@ frame_needed = 0, uses_anonymous_args = 0
 171 0000 10B5     		push	{r4, lr}
 172 0002 0446     		mov	r4, r0
 173 0004 0223     		movs	r3, #2
 174 0006 80F83D30 		strb	r3, [r0, #61]
 175 000a 0368     		ldr	r3, [r0]
 176 000c 196A     		ldr	r1, [r3, #32]
 177 000e 41F21112 		movw	r2, #4369
 178 0012 1142     		tst	r1, r2
 179 0014 08D1     		bne	.L15
 180 0016 196A     		ldr	r1, [r3, #32]
ARM GAS  /tmp/ccLG8aCO.s 			page 4


 181 0018 40F24442 		movw	r2, #1092
 182 001c 1142     		tst	r1, r2
 183 001e 03D1     		bne	.L15
 184 0020 1A68     		ldr	r2, [r3]
 185 0022 22F00102 		bic	r2, r2, #1
 186 0026 1A60     		str	r2, [r3]
 187              	.L15:
 188 0028 2046     		mov	r0, r4
 189 002a FFF7FEFF 		bl	HAL_TIMEx_HallSensor_MspDeInit
 190 002e 0020     		movs	r0, #0
 191 0030 84F83D00 		strb	r0, [r4, #61]
 192 0034 84F83C00 		strb	r0, [r4, #60]
 193 0038 10BD     		pop	{r4, pc}
 195              		.section	.text.HAL_TIMEx_HallSensor_Start,"ax",%progbits
 196              		.align	1
 197              		.global	HAL_TIMEx_HallSensor_Start
 198              		.syntax unified
 199              		.thumb
 200              		.thumb_func
 201              		.fpu softvfp
 203              	HAL_TIMEx_HallSensor_Start:
 204              		@ args = 0, pretend = 0, frame = 0
 205              		@ frame_needed = 0, uses_anonymous_args = 0
 206 0000 10B5     		push	{r4, lr}
 207 0002 0446     		mov	r4, r0
 208 0004 0122     		movs	r2, #1
 209 0006 0021     		movs	r1, #0
 210 0008 0068     		ldr	r0, [r0]
 211 000a FFF7FEFF 		bl	TIM_CCxChannelCmd
 212 000e 2268     		ldr	r2, [r4]
 213 0010 9368     		ldr	r3, [r2, #8]
 214 0012 03F00703 		and	r3, r3, #7
 215 0016 062B     		cmp	r3, #6
 216 0018 03D0     		beq	.L18
 217 001a 1368     		ldr	r3, [r2]
 218 001c 43F00103 		orr	r3, r3, #1
 219 0020 1360     		str	r3, [r2]
 220              	.L18:
 221 0022 0020     		movs	r0, #0
 222 0024 10BD     		pop	{r4, pc}
 224              		.section	.text.HAL_TIMEx_HallSensor_Stop,"ax",%progbits
 225              		.align	1
 226              		.global	HAL_TIMEx_HallSensor_Stop
 227              		.syntax unified
 228              		.thumb
 229              		.thumb_func
 230              		.fpu softvfp
 232              	HAL_TIMEx_HallSensor_Stop:
 233              		@ args = 0, pretend = 0, frame = 0
 234              		@ frame_needed = 0, uses_anonymous_args = 0
 235 0000 10B5     		push	{r4, lr}
 236 0002 0446     		mov	r4, r0
 237 0004 0022     		movs	r2, #0
 238 0006 1146     		mov	r1, r2
 239 0008 0068     		ldr	r0, [r0]
 240 000a FFF7FEFF 		bl	TIM_CCxChannelCmd
 241 000e 2368     		ldr	r3, [r4]
ARM GAS  /tmp/ccLG8aCO.s 			page 5


 242 0010 196A     		ldr	r1, [r3, #32]
 243 0012 41F21112 		movw	r2, #4369
 244 0016 1142     		tst	r1, r2
 245 0018 08D1     		bne	.L21
 246 001a 196A     		ldr	r1, [r3, #32]
 247 001c 40F24442 		movw	r2, #1092
 248 0020 1142     		tst	r1, r2
 249 0022 03D1     		bne	.L21
 250 0024 1A68     		ldr	r2, [r3]
 251 0026 22F00102 		bic	r2, r2, #1
 252 002a 1A60     		str	r2, [r3]
 253              	.L21:
 254 002c 0020     		movs	r0, #0
 255 002e 10BD     		pop	{r4, pc}
 257              		.section	.text.HAL_TIMEx_HallSensor_Start_IT,"ax",%progbits
 258              		.align	1
 259              		.global	HAL_TIMEx_HallSensor_Start_IT
 260              		.syntax unified
 261              		.thumb
 262              		.thumb_func
 263              		.fpu softvfp
 265              	HAL_TIMEx_HallSensor_Start_IT:
 266              		@ args = 0, pretend = 0, frame = 0
 267              		@ frame_needed = 0, uses_anonymous_args = 0
 268 0000 10B5     		push	{r4, lr}
 269 0002 0446     		mov	r4, r0
 270 0004 0268     		ldr	r2, [r0]
 271 0006 D368     		ldr	r3, [r2, #12]
 272 0008 43F00203 		orr	r3, r3, #2
 273 000c D360     		str	r3, [r2, #12]
 274 000e 0122     		movs	r2, #1
 275 0010 0021     		movs	r1, #0
 276 0012 0068     		ldr	r0, [r0]
 277 0014 FFF7FEFF 		bl	TIM_CCxChannelCmd
 278 0018 2268     		ldr	r2, [r4]
 279 001a 9368     		ldr	r3, [r2, #8]
 280 001c 03F00703 		and	r3, r3, #7
 281 0020 062B     		cmp	r3, #6
 282 0022 03D0     		beq	.L24
 283 0024 1368     		ldr	r3, [r2]
 284 0026 43F00103 		orr	r3, r3, #1
 285 002a 1360     		str	r3, [r2]
 286              	.L24:
 287 002c 0020     		movs	r0, #0
 288 002e 10BD     		pop	{r4, pc}
 290              		.section	.text.HAL_TIMEx_HallSensor_Stop_IT,"ax",%progbits
 291              		.align	1
 292              		.global	HAL_TIMEx_HallSensor_Stop_IT
 293              		.syntax unified
 294              		.thumb
 295              		.thumb_func
 296              		.fpu softvfp
 298              	HAL_TIMEx_HallSensor_Stop_IT:
 299              		@ args = 0, pretend = 0, frame = 0
 300              		@ frame_needed = 0, uses_anonymous_args = 0
 301 0000 10B5     		push	{r4, lr}
 302 0002 0446     		mov	r4, r0
ARM GAS  /tmp/ccLG8aCO.s 			page 6


 303 0004 0022     		movs	r2, #0
 304 0006 1146     		mov	r1, r2
 305 0008 0068     		ldr	r0, [r0]
 306 000a FFF7FEFF 		bl	TIM_CCxChannelCmd
 307 000e 2268     		ldr	r2, [r4]
 308 0010 D368     		ldr	r3, [r2, #12]
 309 0012 23F00203 		bic	r3, r3, #2
 310 0016 D360     		str	r3, [r2, #12]
 311 0018 2368     		ldr	r3, [r4]
 312 001a 196A     		ldr	r1, [r3, #32]
 313 001c 41F21112 		movw	r2, #4369
 314 0020 1142     		tst	r1, r2
 315 0022 08D1     		bne	.L27
 316 0024 196A     		ldr	r1, [r3, #32]
 317 0026 40F24442 		movw	r2, #1092
 318 002a 1142     		tst	r1, r2
 319 002c 03D1     		bne	.L27
 320 002e 1A68     		ldr	r2, [r3]
 321 0030 22F00102 		bic	r2, r2, #1
 322 0034 1A60     		str	r2, [r3]
 323              	.L27:
 324 0036 0020     		movs	r0, #0
 325 0038 10BD     		pop	{r4, pc}
 327              		.section	.text.HAL_TIMEx_HallSensor_Start_DMA,"ax",%progbits
 328              		.align	1
 329              		.global	HAL_TIMEx_HallSensor_Start_DMA
 330              		.syntax unified
 331              		.thumb
 332              		.thumb_func
 333              		.fpu softvfp
 335              	HAL_TIMEx_HallSensor_Start_DMA:
 336              		@ args = 0, pretend = 0, frame = 0
 337              		@ frame_needed = 0, uses_anonymous_args = 0
 338 0000 70B5     		push	{r4, r5, r6, lr}
 339 0002 90F83D50 		ldrb	r5, [r0, #61]	@ zero_extendqisi2
 340 0006 EDB2     		uxtb	r5, r5
 341 0008 022D     		cmp	r5, #2
 342 000a 34D0     		beq	.L33
 343 000c 90F83D40 		ldrb	r4, [r0, #61]	@ zero_extendqisi2
 344 0010 E4B2     		uxtb	r4, r4
 345 0012 012C     		cmp	r4, #1
 346 0014 29D0     		beq	.L37
 347              	.L31:
 348 0016 1646     		mov	r6, r2
 349 0018 0D46     		mov	r5, r1
 350 001a 0446     		mov	r4, r0
 351 001c 0122     		movs	r2, #1
 352 001e 0021     		movs	r1, #0
 353 0020 0068     		ldr	r0, [r0]
 354 0022 FFF7FEFF 		bl	TIM_CCxChannelCmd
 355 0026 636A     		ldr	r3, [r4, #36]
 356 0028 164A     		ldr	r2, .L38
 357 002a 9A62     		str	r2, [r3, #40]
 358 002c 636A     		ldr	r3, [r4, #36]
 359 002e 164A     		ldr	r2, .L38+4
 360 0030 DA62     		str	r2, [r3, #44]
 361 0032 636A     		ldr	r3, [r4, #36]
ARM GAS  /tmp/ccLG8aCO.s 			page 7


 362 0034 154A     		ldr	r2, .L38+8
 363 0036 1A63     		str	r2, [r3, #48]
 364 0038 2168     		ldr	r1, [r4]
 365 003a 3346     		mov	r3, r6
 366 003c 2A46     		mov	r2, r5
 367 003e 3431     		adds	r1, r1, #52
 368 0040 606A     		ldr	r0, [r4, #36]
 369 0042 FFF7FEFF 		bl	HAL_DMA_Start_IT
 370 0046 0346     		mov	r3, r0
 371 0048 D0B9     		cbnz	r0, .L35
 372 004a 2168     		ldr	r1, [r4]
 373 004c CA68     		ldr	r2, [r1, #12]
 374 004e 42F40072 		orr	r2, r2, #512
 375 0052 CA60     		str	r2, [r1, #12]
 376 0054 2168     		ldr	r1, [r4]
 377 0056 8A68     		ldr	r2, [r1, #8]
 378 0058 02F00702 		and	r2, r2, #7
 379 005c 062A     		cmp	r2, #6
 380 005e 0BD0     		beq	.L30
 381 0060 0A68     		ldr	r2, [r1]
 382 0062 42F00102 		orr	r2, r2, #1
 383 0066 0A60     		str	r2, [r1]
 384 0068 06E0     		b	.L30
 385              	.L37:
 386 006a 01B9     		cbnz	r1, .L32
 387 006c 32B9     		cbnz	r2, .L34
 388              	.L32:
 389 006e 0223     		movs	r3, #2
 390 0070 80F83D30 		strb	r3, [r0, #61]
 391 0074 CFE7     		b	.L31
 392              	.L33:
 393 0076 0223     		movs	r3, #2
 394              	.L30:
 395 0078 1846     		mov	r0, r3
 396 007a 70BD     		pop	{r4, r5, r6, pc}
 397              	.L34:
 398 007c 0123     		movs	r3, #1
 399 007e FBE7     		b	.L30
 400              	.L35:
 401 0080 0123     		movs	r3, #1
 402 0082 F9E7     		b	.L30
 403              	.L39:
 404              		.align	2
 405              	.L38:
 406 0084 00000000 		.word	TIM_DMACaptureCplt
 407 0088 00000000 		.word	TIM_DMACaptureHalfCplt
 408 008c 00000000 		.word	TIM_DMAError
 410              		.section	.text.HAL_TIMEx_HallSensor_Stop_DMA,"ax",%progbits
 411              		.align	1
 412              		.global	HAL_TIMEx_HallSensor_Stop_DMA
 413              		.syntax unified
 414              		.thumb
 415              		.thumb_func
 416              		.fpu softvfp
 418              	HAL_TIMEx_HallSensor_Stop_DMA:
 419              		@ args = 0, pretend = 0, frame = 0
 420              		@ frame_needed = 0, uses_anonymous_args = 0
ARM GAS  /tmp/ccLG8aCO.s 			page 8


 421 0000 10B5     		push	{r4, lr}
 422 0002 0446     		mov	r4, r0
 423 0004 0022     		movs	r2, #0
 424 0006 1146     		mov	r1, r2
 425 0008 0068     		ldr	r0, [r0]
 426 000a FFF7FEFF 		bl	TIM_CCxChannelCmd
 427 000e 2268     		ldr	r2, [r4]
 428 0010 D368     		ldr	r3, [r2, #12]
 429 0012 23F40073 		bic	r3, r3, #512
 430 0016 D360     		str	r3, [r2, #12]
 431 0018 606A     		ldr	r0, [r4, #36]
 432 001a FFF7FEFF 		bl	HAL_DMA_Abort_IT
 433 001e 2368     		ldr	r3, [r4]
 434 0020 196A     		ldr	r1, [r3, #32]
 435 0022 41F21112 		movw	r2, #4369
 436 0026 1142     		tst	r1, r2
 437 0028 08D1     		bne	.L41
 438 002a 196A     		ldr	r1, [r3, #32]
 439 002c 40F24442 		movw	r2, #1092
 440 0030 1142     		tst	r1, r2
 441 0032 03D1     		bne	.L41
 442 0034 1A68     		ldr	r2, [r3]
 443 0036 22F00102 		bic	r2, r2, #1
 444 003a 1A60     		str	r2, [r3]
 445              	.L41:
 446 003c 0020     		movs	r0, #0
 447 003e 10BD     		pop	{r4, pc}
 449              		.section	.text.HAL_TIMEx_OCN_Start,"ax",%progbits
 450              		.align	1
 451              		.global	HAL_TIMEx_OCN_Start
 452              		.syntax unified
 453              		.thumb
 454              		.thumb_func
 455              		.fpu softvfp
 457              	HAL_TIMEx_OCN_Start:
 458              		@ args = 0, pretend = 0, frame = 0
 459              		@ frame_needed = 0, uses_anonymous_args = 0
 460 0000 10B5     		push	{r4, lr}
 461 0002 0446     		mov	r4, r0
 462 0004 0422     		movs	r2, #4
 463 0006 0068     		ldr	r0, [r0]
 464 0008 FFF7FEFF 		bl	TIM_CCxNChannelCmd
 465 000c 2268     		ldr	r2, [r4]
 466 000e 536C     		ldr	r3, [r2, #68]
 467 0010 43F40043 		orr	r3, r3, #32768
 468 0014 5364     		str	r3, [r2, #68]
 469 0016 2268     		ldr	r2, [r4]
 470 0018 9368     		ldr	r3, [r2, #8]
 471 001a 03F00703 		and	r3, r3, #7
 472 001e 062B     		cmp	r3, #6
 473 0020 03D0     		beq	.L44
 474 0022 1368     		ldr	r3, [r2]
 475 0024 43F00103 		orr	r3, r3, #1
 476 0028 1360     		str	r3, [r2]
 477              	.L44:
 478 002a 0020     		movs	r0, #0
 479 002c 10BD     		pop	{r4, pc}
ARM GAS  /tmp/ccLG8aCO.s 			page 9


 481              		.section	.text.HAL_TIMEx_OCN_Stop,"ax",%progbits
 482              		.align	1
 483              		.global	HAL_TIMEx_OCN_Stop
 484              		.syntax unified
 485              		.thumb
 486              		.thumb_func
 487              		.fpu softvfp
 489              	HAL_TIMEx_OCN_Stop:
 490              		@ args = 0, pretend = 0, frame = 0
 491              		@ frame_needed = 0, uses_anonymous_args = 0
 492 0000 10B5     		push	{r4, lr}
 493 0002 0446     		mov	r4, r0
 494 0004 0022     		movs	r2, #0
 495 0006 0068     		ldr	r0, [r0]
 496 0008 FFF7FEFF 		bl	TIM_CCxNChannelCmd
 497 000c 2368     		ldr	r3, [r4]
 498 000e 196A     		ldr	r1, [r3, #32]
 499 0010 41F21112 		movw	r2, #4369
 500 0014 1142     		tst	r1, r2
 501 0016 08D1     		bne	.L47
 502 0018 196A     		ldr	r1, [r3, #32]
 503 001a 40F24442 		movw	r2, #1092
 504 001e 1142     		tst	r1, r2
 505 0020 03D1     		bne	.L47
 506 0022 5A6C     		ldr	r2, [r3, #68]
 507 0024 22F40042 		bic	r2, r2, #32768
 508 0028 5A64     		str	r2, [r3, #68]
 509              	.L47:
 510 002a 2368     		ldr	r3, [r4]
 511 002c 196A     		ldr	r1, [r3, #32]
 512 002e 41F21112 		movw	r2, #4369
 513 0032 1142     		tst	r1, r2
 514 0034 08D1     		bne	.L48
 515 0036 196A     		ldr	r1, [r3, #32]
 516 0038 40F24442 		movw	r2, #1092
 517 003c 1142     		tst	r1, r2
 518 003e 03D1     		bne	.L48
 519 0040 1A68     		ldr	r2, [r3]
 520 0042 22F00102 		bic	r2, r2, #1
 521 0046 1A60     		str	r2, [r3]
 522              	.L48:
 523 0048 0020     		movs	r0, #0
 524 004a 10BD     		pop	{r4, pc}
 526              		.section	.text.HAL_TIMEx_OCN_Start_IT,"ax",%progbits
 527              		.align	1
 528              		.global	HAL_TIMEx_OCN_Start_IT
 529              		.syntax unified
 530              		.thumb
 531              		.thumb_func
 532              		.fpu softvfp
 534              	HAL_TIMEx_OCN_Start_IT:
 535              		@ args = 0, pretend = 0, frame = 0
 536              		@ frame_needed = 0, uses_anonymous_args = 0
 537 0000 10B5     		push	{r4, lr}
 538 0002 0446     		mov	r4, r0
 539 0004 0429     		cmp	r1, #4
 540 0006 22D0     		beq	.L52
ARM GAS  /tmp/ccLG8aCO.s 			page 10


 541 0008 0829     		cmp	r1, #8
 542 000a 26D0     		beq	.L53
 543 000c C9B1     		cbz	r1, .L57
 544              	.L51:
 545 000e 2268     		ldr	r2, [r4]
 546 0010 D368     		ldr	r3, [r2, #12]
 547 0012 43F08003 		orr	r3, r3, #128
 548 0016 D360     		str	r3, [r2, #12]
 549 0018 0422     		movs	r2, #4
 550 001a 2068     		ldr	r0, [r4]
 551 001c FFF7FEFF 		bl	TIM_CCxNChannelCmd
 552 0020 2268     		ldr	r2, [r4]
 553 0022 536C     		ldr	r3, [r2, #68]
 554 0024 43F40043 		orr	r3, r3, #32768
 555 0028 5364     		str	r3, [r2, #68]
 556 002a 2268     		ldr	r2, [r4]
 557 002c 9368     		ldr	r3, [r2, #8]
 558 002e 03F00703 		and	r3, r3, #7
 559 0032 062B     		cmp	r3, #6
 560 0034 03D0     		beq	.L55
 561 0036 1368     		ldr	r3, [r2]
 562 0038 43F00103 		orr	r3, r3, #1
 563 003c 1360     		str	r3, [r2]
 564              	.L55:
 565 003e 0020     		movs	r0, #0
 566 0040 10BD     		pop	{r4, pc}
 567              	.L57:
 568 0042 0268     		ldr	r2, [r0]
 569 0044 D368     		ldr	r3, [r2, #12]
 570 0046 43F00203 		orr	r3, r3, #2
 571 004a D360     		str	r3, [r2, #12]
 572 004c DFE7     		b	.L51
 573              	.L52:
 574 004e 0268     		ldr	r2, [r0]
 575 0050 D368     		ldr	r3, [r2, #12]
 576 0052 43F00403 		orr	r3, r3, #4
 577 0056 D360     		str	r3, [r2, #12]
 578 0058 D9E7     		b	.L51
 579              	.L53:
 580 005a 0268     		ldr	r2, [r0]
 581 005c D368     		ldr	r3, [r2, #12]
 582 005e 43F00803 		orr	r3, r3, #8
 583 0062 D360     		str	r3, [r2, #12]
 584 0064 D3E7     		b	.L51
 586              		.section	.text.HAL_TIMEx_OCN_Stop_IT,"ax",%progbits
 587              		.align	1
 588              		.global	HAL_TIMEx_OCN_Stop_IT
 589              		.syntax unified
 590              		.thumb
 591              		.thumb_func
 592              		.fpu softvfp
 594              	HAL_TIMEx_OCN_Stop_IT:
 595              		@ args = 0, pretend = 0, frame = 0
 596              		@ frame_needed = 0, uses_anonymous_args = 0
 597 0000 10B5     		push	{r4, lr}
 598 0002 0446     		mov	r4, r0
 599 0004 0429     		cmp	r1, #4
ARM GAS  /tmp/ccLG8aCO.s 			page 11


 600 0006 37D0     		beq	.L60
 601 0008 0829     		cmp	r1, #8
 602 000a 3BD0     		beq	.L61
 603 000c 0029     		cmp	r1, #0
 604 000e 2DD0     		beq	.L67
 605              	.L59:
 606 0010 0022     		movs	r2, #0
 607 0012 2068     		ldr	r0, [r4]
 608 0014 FFF7FEFF 		bl	TIM_CCxNChannelCmd
 609 0018 2368     		ldr	r3, [r4]
 610 001a 196A     		ldr	r1, [r3, #32]
 611 001c 40F24442 		movw	r2, #1092
 612 0020 1142     		tst	r1, r2
 613 0022 03D1     		bne	.L63
 614 0024 DA68     		ldr	r2, [r3, #12]
 615 0026 22F08002 		bic	r2, r2, #128
 616 002a DA60     		str	r2, [r3, #12]
 617              	.L63:
 618 002c 2368     		ldr	r3, [r4]
 619 002e 196A     		ldr	r1, [r3, #32]
 620 0030 41F21112 		movw	r2, #4369
 621 0034 1142     		tst	r1, r2
 622 0036 08D1     		bne	.L64
 623 0038 196A     		ldr	r1, [r3, #32]
 624 003a 40F24442 		movw	r2, #1092
 625 003e 1142     		tst	r1, r2
 626 0040 03D1     		bne	.L64
 627 0042 5A6C     		ldr	r2, [r3, #68]
 628 0044 22F40042 		bic	r2, r2, #32768
 629 0048 5A64     		str	r2, [r3, #68]
 630              	.L64:
 631 004a 2368     		ldr	r3, [r4]
 632 004c 196A     		ldr	r1, [r3, #32]
 633 004e 41F21112 		movw	r2, #4369
 634 0052 1142     		tst	r1, r2
 635 0054 08D1     		bne	.L65
 636 0056 196A     		ldr	r1, [r3, #32]
 637 0058 40F24442 		movw	r2, #1092
 638 005c 1142     		tst	r1, r2
 639 005e 03D1     		bne	.L65
 640 0060 1A68     		ldr	r2, [r3]
 641 0062 22F00102 		bic	r2, r2, #1
 642 0066 1A60     		str	r2, [r3]
 643              	.L65:
 644 0068 0020     		movs	r0, #0
 645 006a 10BD     		pop	{r4, pc}
 646              	.L67:
 647 006c 0268     		ldr	r2, [r0]
 648 006e D368     		ldr	r3, [r2, #12]
 649 0070 23F00203 		bic	r3, r3, #2
 650 0074 D360     		str	r3, [r2, #12]
 651 0076 CBE7     		b	.L59
 652              	.L60:
 653 0078 0268     		ldr	r2, [r0]
 654 007a D368     		ldr	r3, [r2, #12]
 655 007c 23F00403 		bic	r3, r3, #4
 656 0080 D360     		str	r3, [r2, #12]
ARM GAS  /tmp/ccLG8aCO.s 			page 12


 657 0082 C5E7     		b	.L59
 658              	.L61:
 659 0084 0268     		ldr	r2, [r0]
 660 0086 D368     		ldr	r3, [r2, #12]
 661 0088 23F00803 		bic	r3, r3, #8
 662 008c D360     		str	r3, [r2, #12]
 663 008e BFE7     		b	.L59
 665              		.section	.text.HAL_TIMEx_OCN_Start_DMA,"ax",%progbits
 666              		.align	1
 667              		.global	HAL_TIMEx_OCN_Start_DMA
 668              		.syntax unified
 669              		.thumb
 670              		.thumb_func
 671              		.fpu softvfp
 673              	HAL_TIMEx_OCN_Start_DMA:
 674              		@ args = 0, pretend = 0, frame = 0
 675              		@ frame_needed = 0, uses_anonymous_args = 0
 676 0000 70B5     		push	{r4, r5, r6, lr}
 677 0002 90F83D50 		ldrb	r5, [r0, #61]	@ zero_extendqisi2
 678 0006 EDB2     		uxtb	r5, r5
 679 0008 022D     		cmp	r5, #2
 680 000a 6CD0     		beq	.L76
 681 000c 90F83D40 		ldrb	r4, [r0, #61]	@ zero_extendqisi2
 682 0010 E4B2     		uxtb	r4, r4
 683 0012 012C     		cmp	r4, #1
 684 0014 1DD0     		beq	.L83
 685              	.L70:
 686 0016 1646     		mov	r6, r2
 687 0018 0D46     		mov	r5, r1
 688 001a 0446     		mov	r4, r0
 689 001c 0429     		cmp	r1, #4
 690 001e 36D0     		beq	.L73
 691 0020 0829     		cmp	r1, #8
 692 0022 4AD0     		beq	.L74
 693 0024 E1B1     		cbz	r1, .L84
 694              	.L72:
 695 0026 0422     		movs	r2, #4
 696 0028 2946     		mov	r1, r5
 697 002a 2068     		ldr	r0, [r4]
 698 002c FFF7FEFF 		bl	TIM_CCxNChannelCmd
 699 0030 2268     		ldr	r2, [r4]
 700 0032 536C     		ldr	r3, [r2, #68]
 701 0034 43F40043 		orr	r3, r3, #32768
 702 0038 5364     		str	r3, [r2, #68]
 703 003a 2268     		ldr	r2, [r4]
 704 003c 9368     		ldr	r3, [r2, #8]
 705 003e 03F00703 		and	r3, r3, #7
 706 0042 062B     		cmp	r3, #6
 707 0044 59D0     		beq	.L81
 708 0046 1368     		ldr	r3, [r2]
 709 0048 43F00103 		orr	r3, r3, #1
 710 004c 1360     		str	r3, [r2]
 711 004e 0020     		movs	r0, #0
 712 0050 70BD     		pop	{r4, r5, r6, pc}
 713              	.L83:
 714 0052 0AB9     		cbnz	r2, .L71
 715 0054 002B     		cmp	r3, #0
ARM GAS  /tmp/ccLG8aCO.s 			page 13


 716 0056 48D1     		bne	.L77
 717              	.L71:
 718 0058 0224     		movs	r4, #2
 719 005a 80F83D40 		strb	r4, [r0, #61]
 720 005e DAE7     		b	.L70
 721              	.L84:
 722 0060 426A     		ldr	r2, [r0, #36]
 723 0062 2749     		ldr	r1, .L85
 724 0064 9162     		str	r1, [r2, #40]
 725 0066 426A     		ldr	r2, [r0, #36]
 726 0068 2649     		ldr	r1, .L85+4
 727 006a D162     		str	r1, [r2, #44]
 728 006c 426A     		ldr	r2, [r0, #36]
 729 006e 2649     		ldr	r1, .L85+8
 730 0070 1163     		str	r1, [r2, #48]
 731 0072 0268     		ldr	r2, [r0]
 732 0074 3432     		adds	r2, r2, #52
 733 0076 3146     		mov	r1, r6
 734 0078 406A     		ldr	r0, [r0, #36]
 735 007a FFF7FEFF 		bl	HAL_DMA_Start_IT
 736 007e 0028     		cmp	r0, #0
 737 0080 35D1     		bne	.L78
 738 0082 2268     		ldr	r2, [r4]
 739 0084 D368     		ldr	r3, [r2, #12]
 740 0086 43F40073 		orr	r3, r3, #512
 741 008a D360     		str	r3, [r2, #12]
 742 008c CBE7     		b	.L72
 743              	.L73:
 744 008e 826A     		ldr	r2, [r0, #40]
 745 0090 1B49     		ldr	r1, .L85
 746 0092 9162     		str	r1, [r2, #40]
 747 0094 826A     		ldr	r2, [r0, #40]
 748 0096 1B49     		ldr	r1, .L85+4
 749 0098 D162     		str	r1, [r2, #44]
 750 009a 826A     		ldr	r2, [r0, #40]
 751 009c 1A49     		ldr	r1, .L85+8
 752 009e 1163     		str	r1, [r2, #48]
 753 00a0 0268     		ldr	r2, [r0]
 754 00a2 3832     		adds	r2, r2, #56
 755 00a4 3146     		mov	r1, r6
 756 00a6 806A     		ldr	r0, [r0, #40]
 757 00a8 FFF7FEFF 		bl	HAL_DMA_Start_IT
 758 00ac 08BB     		cbnz	r0, .L79
 759 00ae 2268     		ldr	r2, [r4]
 760 00b0 D368     		ldr	r3, [r2, #12]
 761 00b2 43F48063 		orr	r3, r3, #1024
 762 00b6 D360     		str	r3, [r2, #12]
 763 00b8 B5E7     		b	.L72
 764              	.L74:
 765 00ba C26A     		ldr	r2, [r0, #44]
 766 00bc 1049     		ldr	r1, .L85
 767 00be 9162     		str	r1, [r2, #40]
 768 00c0 C26A     		ldr	r2, [r0, #44]
 769 00c2 1049     		ldr	r1, .L85+4
 770 00c4 D162     		str	r1, [r2, #44]
 771 00c6 C26A     		ldr	r2, [r0, #44]
 772 00c8 0F49     		ldr	r1, .L85+8
ARM GAS  /tmp/ccLG8aCO.s 			page 14


 773 00ca 1163     		str	r1, [r2, #48]
 774 00cc 0268     		ldr	r2, [r0]
 775 00ce 3C32     		adds	r2, r2, #60
 776 00d0 3146     		mov	r1, r6
 777 00d2 C06A     		ldr	r0, [r0, #44]
 778 00d4 FFF7FEFF 		bl	HAL_DMA_Start_IT
 779 00d8 68B9     		cbnz	r0, .L80
 780 00da 2268     		ldr	r2, [r4]
 781 00dc D368     		ldr	r3, [r2, #12]
 782 00de 43F40063 		orr	r3, r3, #2048
 783 00e2 D360     		str	r3, [r2, #12]
 784 00e4 9FE7     		b	.L72
 785              	.L76:
 786 00e6 0220     		movs	r0, #2
 787 00e8 70BD     		pop	{r4, r5, r6, pc}
 788              	.L77:
 789 00ea 0120     		movs	r0, #1
 790 00ec 70BD     		pop	{r4, r5, r6, pc}
 791              	.L78:
 792 00ee 0120     		movs	r0, #1
 793 00f0 70BD     		pop	{r4, r5, r6, pc}
 794              	.L79:
 795 00f2 0120     		movs	r0, #1
 796 00f4 70BD     		pop	{r4, r5, r6, pc}
 797              	.L80:
 798 00f6 0120     		movs	r0, #1
 799 00f8 70BD     		pop	{r4, r5, r6, pc}
 800              	.L81:
 801 00fa 0020     		movs	r0, #0
 802 00fc 70BD     		pop	{r4, r5, r6, pc}
 803              	.L86:
 804 00fe 00BF     		.align	2
 805              	.L85:
 806 0100 00000000 		.word	TIM_DMADelayPulseCplt
 807 0104 00000000 		.word	TIM_DMADelayPulseHalfCplt
 808 0108 00000000 		.word	TIM_DMAError
 810              		.section	.text.HAL_TIMEx_OCN_Stop_DMA,"ax",%progbits
 811              		.align	1
 812              		.global	HAL_TIMEx_OCN_Stop_DMA
 813              		.syntax unified
 814              		.thumb
 815              		.thumb_func
 816              		.fpu softvfp
 818              	HAL_TIMEx_OCN_Stop_DMA:
 819              		@ args = 0, pretend = 0, frame = 0
 820              		@ frame_needed = 0, uses_anonymous_args = 0
 821 0000 38B5     		push	{r3, r4, r5, lr}
 822 0002 0446     		mov	r4, r0
 823 0004 0D46     		mov	r5, r1
 824 0006 0429     		cmp	r1, #4
 825 0008 33D0     		beq	.L89
 826 000a 0829     		cmp	r1, #8
 827 000c 3AD0     		beq	.L90
 828 000e 39B3     		cbz	r1, .L95
 829              	.L88:
 830 0010 0022     		movs	r2, #0
 831 0012 2946     		mov	r1, r5
ARM GAS  /tmp/ccLG8aCO.s 			page 15


 832 0014 2068     		ldr	r0, [r4]
 833 0016 FFF7FEFF 		bl	TIM_CCxNChannelCmd
 834 001a 2368     		ldr	r3, [r4]
 835 001c 196A     		ldr	r1, [r3, #32]
 836 001e 41F21112 		movw	r2, #4369
 837 0022 1142     		tst	r1, r2
 838 0024 08D1     		bne	.L92
 839 0026 196A     		ldr	r1, [r3, #32]
 840 0028 40F24442 		movw	r2, #1092
 841 002c 1142     		tst	r1, r2
 842 002e 03D1     		bne	.L92
 843 0030 5A6C     		ldr	r2, [r3, #68]
 844 0032 22F40042 		bic	r2, r2, #32768
 845 0036 5A64     		str	r2, [r3, #68]
 846              	.L92:
 847 0038 2368     		ldr	r3, [r4]
 848 003a 196A     		ldr	r1, [r3, #32]
 849 003c 41F21112 		movw	r2, #4369
 850 0040 1142     		tst	r1, r2
 851 0042 08D1     		bne	.L93
 852 0044 196A     		ldr	r1, [r3, #32]
 853 0046 40F24442 		movw	r2, #1092
 854 004a 1142     		tst	r1, r2
 855 004c 03D1     		bne	.L93
 856 004e 1A68     		ldr	r2, [r3]
 857 0050 22F00102 		bic	r2, r2, #1
 858 0054 1A60     		str	r2, [r3]
 859              	.L93:
 860 0056 0123     		movs	r3, #1
 861 0058 84F83D30 		strb	r3, [r4, #61]
 862 005c 0020     		movs	r0, #0
 863 005e 38BD     		pop	{r3, r4, r5, pc}
 864              	.L95:
 865 0060 0268     		ldr	r2, [r0]
 866 0062 D368     		ldr	r3, [r2, #12]
 867 0064 23F40073 		bic	r3, r3, #512
 868 0068 D360     		str	r3, [r2, #12]
 869 006a 406A     		ldr	r0, [r0, #36]
 870 006c FFF7FEFF 		bl	HAL_DMA_Abort_IT
 871 0070 CEE7     		b	.L88
 872              	.L89:
 873 0072 0268     		ldr	r2, [r0]
 874 0074 D368     		ldr	r3, [r2, #12]
 875 0076 23F48063 		bic	r3, r3, #1024
 876 007a D360     		str	r3, [r2, #12]
 877 007c 806A     		ldr	r0, [r0, #40]
 878 007e FFF7FEFF 		bl	HAL_DMA_Abort_IT
 879 0082 C5E7     		b	.L88
 880              	.L90:
 881 0084 0268     		ldr	r2, [r0]
 882 0086 D368     		ldr	r3, [r2, #12]
 883 0088 23F40063 		bic	r3, r3, #2048
 884 008c D360     		str	r3, [r2, #12]
 885 008e C06A     		ldr	r0, [r0, #44]
 886 0090 FFF7FEFF 		bl	HAL_DMA_Abort_IT
 887 0094 BCE7     		b	.L88
 889              		.section	.text.HAL_TIMEx_PWMN_Start,"ax",%progbits
ARM GAS  /tmp/ccLG8aCO.s 			page 16


 890              		.align	1
 891              		.global	HAL_TIMEx_PWMN_Start
 892              		.syntax unified
 893              		.thumb
 894              		.thumb_func
 895              		.fpu softvfp
 897              	HAL_TIMEx_PWMN_Start:
 898              		@ args = 0, pretend = 0, frame = 0
 899              		@ frame_needed = 0, uses_anonymous_args = 0
 900 0000 10B5     		push	{r4, lr}
 901 0002 0446     		mov	r4, r0
 902 0004 0422     		movs	r2, #4
 903 0006 0068     		ldr	r0, [r0]
 904 0008 FFF7FEFF 		bl	TIM_CCxNChannelCmd
 905 000c 2268     		ldr	r2, [r4]
 906 000e 536C     		ldr	r3, [r2, #68]
 907 0010 43F40043 		orr	r3, r3, #32768
 908 0014 5364     		str	r3, [r2, #68]
 909 0016 2268     		ldr	r2, [r4]
 910 0018 9368     		ldr	r3, [r2, #8]
 911 001a 03F00703 		and	r3, r3, #7
 912 001e 062B     		cmp	r3, #6
 913 0020 03D0     		beq	.L97
 914 0022 1368     		ldr	r3, [r2]
 915 0024 43F00103 		orr	r3, r3, #1
 916 0028 1360     		str	r3, [r2]
 917              	.L97:
 918 002a 0020     		movs	r0, #0
 919 002c 10BD     		pop	{r4, pc}
 921              		.section	.text.HAL_TIMEx_PWMN_Stop,"ax",%progbits
 922              		.align	1
 923              		.global	HAL_TIMEx_PWMN_Stop
 924              		.syntax unified
 925              		.thumb
 926              		.thumb_func
 927              		.fpu softvfp
 929              	HAL_TIMEx_PWMN_Stop:
 930              		@ args = 0, pretend = 0, frame = 0
 931              		@ frame_needed = 0, uses_anonymous_args = 0
 932 0000 10B5     		push	{r4, lr}
 933 0002 0446     		mov	r4, r0
 934 0004 0022     		movs	r2, #0
 935 0006 0068     		ldr	r0, [r0]
 936 0008 FFF7FEFF 		bl	TIM_CCxNChannelCmd
 937 000c 2368     		ldr	r3, [r4]
 938 000e 196A     		ldr	r1, [r3, #32]
 939 0010 41F21112 		movw	r2, #4369
 940 0014 1142     		tst	r1, r2
 941 0016 08D1     		bne	.L100
 942 0018 196A     		ldr	r1, [r3, #32]
 943 001a 40F24442 		movw	r2, #1092
 944 001e 1142     		tst	r1, r2
 945 0020 03D1     		bne	.L100
 946 0022 5A6C     		ldr	r2, [r3, #68]
 947 0024 22F40042 		bic	r2, r2, #32768
 948 0028 5A64     		str	r2, [r3, #68]
 949              	.L100:
ARM GAS  /tmp/ccLG8aCO.s 			page 17


 950 002a 2368     		ldr	r3, [r4]
 951 002c 196A     		ldr	r1, [r3, #32]
 952 002e 41F21112 		movw	r2, #4369
 953 0032 1142     		tst	r1, r2
 954 0034 08D1     		bne	.L101
 955 0036 196A     		ldr	r1, [r3, #32]
 956 0038 40F24442 		movw	r2, #1092
 957 003c 1142     		tst	r1, r2
 958 003e 03D1     		bne	.L101
 959 0040 1A68     		ldr	r2, [r3]
 960 0042 22F00102 		bic	r2, r2, #1
 961 0046 1A60     		str	r2, [r3]
 962              	.L101:
 963 0048 0020     		movs	r0, #0
 964 004a 10BD     		pop	{r4, pc}
 966              		.section	.text.HAL_TIMEx_PWMN_Start_IT,"ax",%progbits
 967              		.align	1
 968              		.global	HAL_TIMEx_PWMN_Start_IT
 969              		.syntax unified
 970              		.thumb
 971              		.thumb_func
 972              		.fpu softvfp
 974              	HAL_TIMEx_PWMN_Start_IT:
 975              		@ args = 0, pretend = 0, frame = 0
 976              		@ frame_needed = 0, uses_anonymous_args = 0
 977 0000 10B5     		push	{r4, lr}
 978 0002 0446     		mov	r4, r0
 979 0004 0429     		cmp	r1, #4
 980 0006 22D0     		beq	.L105
 981 0008 0829     		cmp	r1, #8
 982 000a 26D0     		beq	.L106
 983 000c C9B1     		cbz	r1, .L110
 984              	.L104:
 985 000e 2268     		ldr	r2, [r4]
 986 0010 D368     		ldr	r3, [r2, #12]
 987 0012 43F08003 		orr	r3, r3, #128
 988 0016 D360     		str	r3, [r2, #12]
 989 0018 0422     		movs	r2, #4
 990 001a 2068     		ldr	r0, [r4]
 991 001c FFF7FEFF 		bl	TIM_CCxNChannelCmd
 992 0020 2268     		ldr	r2, [r4]
 993 0022 536C     		ldr	r3, [r2, #68]
 994 0024 43F40043 		orr	r3, r3, #32768
 995 0028 5364     		str	r3, [r2, #68]
 996 002a 2268     		ldr	r2, [r4]
 997 002c 9368     		ldr	r3, [r2, #8]
 998 002e 03F00703 		and	r3, r3, #7
 999 0032 062B     		cmp	r3, #6
 1000 0034 03D0     		beq	.L108
 1001 0036 1368     		ldr	r3, [r2]
 1002 0038 43F00103 		orr	r3, r3, #1
 1003 003c 1360     		str	r3, [r2]
 1004              	.L108:
 1005 003e 0020     		movs	r0, #0
 1006 0040 10BD     		pop	{r4, pc}
 1007              	.L110:
 1008 0042 0268     		ldr	r2, [r0]
ARM GAS  /tmp/ccLG8aCO.s 			page 18


 1009 0044 D368     		ldr	r3, [r2, #12]
 1010 0046 43F00203 		orr	r3, r3, #2
 1011 004a D360     		str	r3, [r2, #12]
 1012 004c DFE7     		b	.L104
 1013              	.L105:
 1014 004e 0268     		ldr	r2, [r0]
 1015 0050 D368     		ldr	r3, [r2, #12]
 1016 0052 43F00403 		orr	r3, r3, #4
 1017 0056 D360     		str	r3, [r2, #12]
 1018 0058 D9E7     		b	.L104
 1019              	.L106:
 1020 005a 0268     		ldr	r2, [r0]
 1021 005c D368     		ldr	r3, [r2, #12]
 1022 005e 43F00803 		orr	r3, r3, #8
 1023 0062 D360     		str	r3, [r2, #12]
 1024 0064 D3E7     		b	.L104
 1026              		.section	.text.HAL_TIMEx_PWMN_Stop_IT,"ax",%progbits
 1027              		.align	1
 1028              		.global	HAL_TIMEx_PWMN_Stop_IT
 1029              		.syntax unified
 1030              		.thumb
 1031              		.thumb_func
 1032              		.fpu softvfp
 1034              	HAL_TIMEx_PWMN_Stop_IT:
 1035              		@ args = 0, pretend = 0, frame = 0
 1036              		@ frame_needed = 0, uses_anonymous_args = 0
 1037 0000 10B5     		push	{r4, lr}
 1038 0002 0446     		mov	r4, r0
 1039 0004 0429     		cmp	r1, #4
 1040 0006 37D0     		beq	.L113
 1041 0008 0829     		cmp	r1, #8
 1042 000a 3BD0     		beq	.L114
 1043 000c 0029     		cmp	r1, #0
 1044 000e 2DD0     		beq	.L120
 1045              	.L112:
 1046 0010 0022     		movs	r2, #0
 1047 0012 2068     		ldr	r0, [r4]
 1048 0014 FFF7FEFF 		bl	TIM_CCxNChannelCmd
 1049 0018 2368     		ldr	r3, [r4]
 1050 001a 196A     		ldr	r1, [r3, #32]
 1051 001c 40F24442 		movw	r2, #1092
 1052 0020 1142     		tst	r1, r2
 1053 0022 03D1     		bne	.L116
 1054 0024 DA68     		ldr	r2, [r3, #12]
 1055 0026 22F08002 		bic	r2, r2, #128
 1056 002a DA60     		str	r2, [r3, #12]
 1057              	.L116:
 1058 002c 2368     		ldr	r3, [r4]
 1059 002e 196A     		ldr	r1, [r3, #32]
 1060 0030 41F21112 		movw	r2, #4369
 1061 0034 1142     		tst	r1, r2
 1062 0036 08D1     		bne	.L117
 1063 0038 196A     		ldr	r1, [r3, #32]
 1064 003a 40F24442 		movw	r2, #1092
 1065 003e 1142     		tst	r1, r2
 1066 0040 03D1     		bne	.L117
 1067 0042 5A6C     		ldr	r2, [r3, #68]
ARM GAS  /tmp/ccLG8aCO.s 			page 19


 1068 0044 22F40042 		bic	r2, r2, #32768
 1069 0048 5A64     		str	r2, [r3, #68]
 1070              	.L117:
 1071 004a 2368     		ldr	r3, [r4]
 1072 004c 196A     		ldr	r1, [r3, #32]
 1073 004e 41F21112 		movw	r2, #4369
 1074 0052 1142     		tst	r1, r2
 1075 0054 08D1     		bne	.L118
 1076 0056 196A     		ldr	r1, [r3, #32]
 1077 0058 40F24442 		movw	r2, #1092
 1078 005c 1142     		tst	r1, r2
 1079 005e 03D1     		bne	.L118
 1080 0060 1A68     		ldr	r2, [r3]
 1081 0062 22F00102 		bic	r2, r2, #1
 1082 0066 1A60     		str	r2, [r3]
 1083              	.L118:
 1084 0068 0020     		movs	r0, #0
 1085 006a 10BD     		pop	{r4, pc}
 1086              	.L120:
 1087 006c 0268     		ldr	r2, [r0]
 1088 006e D368     		ldr	r3, [r2, #12]
 1089 0070 23F00203 		bic	r3, r3, #2
 1090 0074 D360     		str	r3, [r2, #12]
 1091 0076 CBE7     		b	.L112
 1092              	.L113:
 1093 0078 0268     		ldr	r2, [r0]
 1094 007a D368     		ldr	r3, [r2, #12]
 1095 007c 23F00403 		bic	r3, r3, #4
 1096 0080 D360     		str	r3, [r2, #12]
 1097 0082 C5E7     		b	.L112
 1098              	.L114:
 1099 0084 0268     		ldr	r2, [r0]
 1100 0086 D368     		ldr	r3, [r2, #12]
 1101 0088 23F00803 		bic	r3, r3, #8
 1102 008c D360     		str	r3, [r2, #12]
 1103 008e BFE7     		b	.L112
 1105              		.section	.text.HAL_TIMEx_PWMN_Start_DMA,"ax",%progbits
 1106              		.align	1
 1107              		.global	HAL_TIMEx_PWMN_Start_DMA
 1108              		.syntax unified
 1109              		.thumb
 1110              		.thumb_func
 1111              		.fpu softvfp
 1113              	HAL_TIMEx_PWMN_Start_DMA:
 1114              		@ args = 0, pretend = 0, frame = 0
 1115              		@ frame_needed = 0, uses_anonymous_args = 0
 1116 0000 70B5     		push	{r4, r5, r6, lr}
 1117 0002 90F83D50 		ldrb	r5, [r0, #61]	@ zero_extendqisi2
 1118 0006 EDB2     		uxtb	r5, r5
 1119 0008 022D     		cmp	r5, #2
 1120 000a 6CD0     		beq	.L129
 1121 000c 90F83D40 		ldrb	r4, [r0, #61]	@ zero_extendqisi2
 1122 0010 E4B2     		uxtb	r4, r4
 1123 0012 012C     		cmp	r4, #1
 1124 0014 1DD0     		beq	.L136
 1125              	.L123:
 1126 0016 1646     		mov	r6, r2
ARM GAS  /tmp/ccLG8aCO.s 			page 20


 1127 0018 0D46     		mov	r5, r1
 1128 001a 0446     		mov	r4, r0
 1129 001c 0429     		cmp	r1, #4
 1130 001e 36D0     		beq	.L126
 1131 0020 0829     		cmp	r1, #8
 1132 0022 4AD0     		beq	.L127
 1133 0024 E1B1     		cbz	r1, .L137
 1134              	.L125:
 1135 0026 0422     		movs	r2, #4
 1136 0028 2946     		mov	r1, r5
 1137 002a 2068     		ldr	r0, [r4]
 1138 002c FFF7FEFF 		bl	TIM_CCxNChannelCmd
 1139 0030 2268     		ldr	r2, [r4]
 1140 0032 536C     		ldr	r3, [r2, #68]
 1141 0034 43F40043 		orr	r3, r3, #32768
 1142 0038 5364     		str	r3, [r2, #68]
 1143 003a 2268     		ldr	r2, [r4]
 1144 003c 9368     		ldr	r3, [r2, #8]
 1145 003e 03F00703 		and	r3, r3, #7
 1146 0042 062B     		cmp	r3, #6
 1147 0044 59D0     		beq	.L134
 1148 0046 1368     		ldr	r3, [r2]
 1149 0048 43F00103 		orr	r3, r3, #1
 1150 004c 1360     		str	r3, [r2]
 1151 004e 0020     		movs	r0, #0
 1152 0050 70BD     		pop	{r4, r5, r6, pc}
 1153              	.L136:
 1154 0052 0AB9     		cbnz	r2, .L124
 1155 0054 002B     		cmp	r3, #0
 1156 0056 48D1     		bne	.L130
 1157              	.L124:
 1158 0058 0224     		movs	r4, #2
 1159 005a 80F83D40 		strb	r4, [r0, #61]
 1160 005e DAE7     		b	.L123
 1161              	.L137:
 1162 0060 426A     		ldr	r2, [r0, #36]
 1163 0062 2749     		ldr	r1, .L138
 1164 0064 9162     		str	r1, [r2, #40]
 1165 0066 426A     		ldr	r2, [r0, #36]
 1166 0068 2649     		ldr	r1, .L138+4
 1167 006a D162     		str	r1, [r2, #44]
 1168 006c 426A     		ldr	r2, [r0, #36]
 1169 006e 2649     		ldr	r1, .L138+8
 1170 0070 1163     		str	r1, [r2, #48]
 1171 0072 0268     		ldr	r2, [r0]
 1172 0074 3432     		adds	r2, r2, #52
 1173 0076 3146     		mov	r1, r6
 1174 0078 406A     		ldr	r0, [r0, #36]
 1175 007a FFF7FEFF 		bl	HAL_DMA_Start_IT
 1176 007e 0028     		cmp	r0, #0
 1177 0080 35D1     		bne	.L131
 1178 0082 2268     		ldr	r2, [r4]
 1179 0084 D368     		ldr	r3, [r2, #12]
 1180 0086 43F40073 		orr	r3, r3, #512
 1181 008a D360     		str	r3, [r2, #12]
 1182 008c CBE7     		b	.L125
 1183              	.L126:
ARM GAS  /tmp/ccLG8aCO.s 			page 21


 1184 008e 826A     		ldr	r2, [r0, #40]
 1185 0090 1B49     		ldr	r1, .L138
 1186 0092 9162     		str	r1, [r2, #40]
 1187 0094 826A     		ldr	r2, [r0, #40]
 1188 0096 1B49     		ldr	r1, .L138+4
 1189 0098 D162     		str	r1, [r2, #44]
 1190 009a 826A     		ldr	r2, [r0, #40]
 1191 009c 1A49     		ldr	r1, .L138+8
 1192 009e 1163     		str	r1, [r2, #48]
 1193 00a0 0268     		ldr	r2, [r0]
 1194 00a2 3832     		adds	r2, r2, #56
 1195 00a4 3146     		mov	r1, r6
 1196 00a6 806A     		ldr	r0, [r0, #40]
 1197 00a8 FFF7FEFF 		bl	HAL_DMA_Start_IT
 1198 00ac 08BB     		cbnz	r0, .L132
 1199 00ae 2268     		ldr	r2, [r4]
 1200 00b0 D368     		ldr	r3, [r2, #12]
 1201 00b2 43F48063 		orr	r3, r3, #1024
 1202 00b6 D360     		str	r3, [r2, #12]
 1203 00b8 B5E7     		b	.L125
 1204              	.L127:
 1205 00ba C26A     		ldr	r2, [r0, #44]
 1206 00bc 1049     		ldr	r1, .L138
 1207 00be 9162     		str	r1, [r2, #40]
 1208 00c0 C26A     		ldr	r2, [r0, #44]
 1209 00c2 1049     		ldr	r1, .L138+4
 1210 00c4 D162     		str	r1, [r2, #44]
 1211 00c6 C26A     		ldr	r2, [r0, #44]
 1212 00c8 0F49     		ldr	r1, .L138+8
 1213 00ca 1163     		str	r1, [r2, #48]
 1214 00cc 0268     		ldr	r2, [r0]
 1215 00ce 3C32     		adds	r2, r2, #60
 1216 00d0 3146     		mov	r1, r6
 1217 00d2 C06A     		ldr	r0, [r0, #44]
 1218 00d4 FFF7FEFF 		bl	HAL_DMA_Start_IT
 1219 00d8 68B9     		cbnz	r0, .L133
 1220 00da 2268     		ldr	r2, [r4]
 1221 00dc D368     		ldr	r3, [r2, #12]
 1222 00de 43F40063 		orr	r3, r3, #2048
 1223 00e2 D360     		str	r3, [r2, #12]
 1224 00e4 9FE7     		b	.L125
 1225              	.L129:
 1226 00e6 0220     		movs	r0, #2
 1227 00e8 70BD     		pop	{r4, r5, r6, pc}
 1228              	.L130:
 1229 00ea 0120     		movs	r0, #1
 1230 00ec 70BD     		pop	{r4, r5, r6, pc}
 1231              	.L131:
 1232 00ee 0120     		movs	r0, #1
 1233 00f0 70BD     		pop	{r4, r5, r6, pc}
 1234              	.L132:
 1235 00f2 0120     		movs	r0, #1
 1236 00f4 70BD     		pop	{r4, r5, r6, pc}
 1237              	.L133:
 1238 00f6 0120     		movs	r0, #1
 1239 00f8 70BD     		pop	{r4, r5, r6, pc}
 1240              	.L134:
ARM GAS  /tmp/ccLG8aCO.s 			page 22


 1241 00fa 0020     		movs	r0, #0
 1242 00fc 70BD     		pop	{r4, r5, r6, pc}
 1243              	.L139:
 1244 00fe 00BF     		.align	2
 1245              	.L138:
 1246 0100 00000000 		.word	TIM_DMADelayPulseCplt
 1247 0104 00000000 		.word	TIM_DMADelayPulseHalfCplt
 1248 0108 00000000 		.word	TIM_DMAError
 1250              		.section	.text.HAL_TIMEx_PWMN_Stop_DMA,"ax",%progbits
 1251              		.align	1
 1252              		.global	HAL_TIMEx_PWMN_Stop_DMA
 1253              		.syntax unified
 1254              		.thumb
 1255              		.thumb_func
 1256              		.fpu softvfp
 1258              	HAL_TIMEx_PWMN_Stop_DMA:
 1259              		@ args = 0, pretend = 0, frame = 0
 1260              		@ frame_needed = 0, uses_anonymous_args = 0
 1261 0000 38B5     		push	{r3, r4, r5, lr}
 1262 0002 0446     		mov	r4, r0
 1263 0004 0D46     		mov	r5, r1
 1264 0006 0429     		cmp	r1, #4
 1265 0008 33D0     		beq	.L142
 1266 000a 0829     		cmp	r1, #8
 1267 000c 3AD0     		beq	.L143
 1268 000e 39B3     		cbz	r1, .L148
 1269              	.L141:
 1270 0010 0022     		movs	r2, #0
 1271 0012 2946     		mov	r1, r5
 1272 0014 2068     		ldr	r0, [r4]
 1273 0016 FFF7FEFF 		bl	TIM_CCxNChannelCmd
 1274 001a 2368     		ldr	r3, [r4]
 1275 001c 196A     		ldr	r1, [r3, #32]
 1276 001e 41F21112 		movw	r2, #4369
 1277 0022 1142     		tst	r1, r2
 1278 0024 08D1     		bne	.L145
 1279 0026 196A     		ldr	r1, [r3, #32]
 1280 0028 40F24442 		movw	r2, #1092
 1281 002c 1142     		tst	r1, r2
 1282 002e 03D1     		bne	.L145
 1283 0030 5A6C     		ldr	r2, [r3, #68]
 1284 0032 22F40042 		bic	r2, r2, #32768
 1285 0036 5A64     		str	r2, [r3, #68]
 1286              	.L145:
 1287 0038 2368     		ldr	r3, [r4]
 1288 003a 196A     		ldr	r1, [r3, #32]
 1289 003c 41F21112 		movw	r2, #4369
 1290 0040 1142     		tst	r1, r2
 1291 0042 08D1     		bne	.L146
 1292 0044 196A     		ldr	r1, [r3, #32]
 1293 0046 40F24442 		movw	r2, #1092
 1294 004a 1142     		tst	r1, r2
 1295 004c 03D1     		bne	.L146
 1296 004e 1A68     		ldr	r2, [r3]
 1297 0050 22F00102 		bic	r2, r2, #1
 1298 0054 1A60     		str	r2, [r3]
 1299              	.L146:
ARM GAS  /tmp/ccLG8aCO.s 			page 23


 1300 0056 0123     		movs	r3, #1
 1301 0058 84F83D30 		strb	r3, [r4, #61]
 1302 005c 0020     		movs	r0, #0
 1303 005e 38BD     		pop	{r3, r4, r5, pc}
 1304              	.L148:
 1305 0060 0268     		ldr	r2, [r0]
 1306 0062 D368     		ldr	r3, [r2, #12]
 1307 0064 23F40073 		bic	r3, r3, #512
 1308 0068 D360     		str	r3, [r2, #12]
 1309 006a 406A     		ldr	r0, [r0, #36]
 1310 006c FFF7FEFF 		bl	HAL_DMA_Abort_IT
 1311 0070 CEE7     		b	.L141
 1312              	.L142:
 1313 0072 0268     		ldr	r2, [r0]
 1314 0074 D368     		ldr	r3, [r2, #12]
 1315 0076 23F48063 		bic	r3, r3, #1024
 1316 007a D360     		str	r3, [r2, #12]
 1317 007c 806A     		ldr	r0, [r0, #40]
 1318 007e FFF7FEFF 		bl	HAL_DMA_Abort_IT
 1319 0082 C5E7     		b	.L141
 1320              	.L143:
 1321 0084 0268     		ldr	r2, [r0]
 1322 0086 D368     		ldr	r3, [r2, #12]
 1323 0088 23F40063 		bic	r3, r3, #2048
 1324 008c D360     		str	r3, [r2, #12]
 1325 008e C06A     		ldr	r0, [r0, #44]
 1326 0090 FFF7FEFF 		bl	HAL_DMA_Abort_IT
 1327 0094 BCE7     		b	.L141
 1329              		.section	.text.HAL_TIMEx_OnePulseN_Start,"ax",%progbits
 1330              		.align	1
 1331              		.global	HAL_TIMEx_OnePulseN_Start
 1332              		.syntax unified
 1333              		.thumb
 1334              		.thumb_func
 1335              		.fpu softvfp
 1337              	HAL_TIMEx_OnePulseN_Start:
 1338              		@ args = 0, pretend = 0, frame = 0
 1339              		@ frame_needed = 0, uses_anonymous_args = 0
 1340 0000 10B5     		push	{r4, lr}
 1341 0002 0446     		mov	r4, r0
 1342 0004 0422     		movs	r2, #4
 1343 0006 0068     		ldr	r0, [r0]
 1344 0008 FFF7FEFF 		bl	TIM_CCxNChannelCmd
 1345 000c 2268     		ldr	r2, [r4]
 1346 000e 536C     		ldr	r3, [r2, #68]
 1347 0010 43F40043 		orr	r3, r3, #32768
 1348 0014 5364     		str	r3, [r2, #68]
 1349 0016 0020     		movs	r0, #0
 1350 0018 10BD     		pop	{r4, pc}
 1352              		.section	.text.HAL_TIMEx_OnePulseN_Stop,"ax",%progbits
 1353              		.align	1
 1354              		.global	HAL_TIMEx_OnePulseN_Stop
 1355              		.syntax unified
 1356              		.thumb
 1357              		.thumb_func
 1358              		.fpu softvfp
 1360              	HAL_TIMEx_OnePulseN_Stop:
ARM GAS  /tmp/ccLG8aCO.s 			page 24


 1361              		@ args = 0, pretend = 0, frame = 0
 1362              		@ frame_needed = 0, uses_anonymous_args = 0
 1363 0000 10B5     		push	{r4, lr}
 1364 0002 0446     		mov	r4, r0
 1365 0004 0022     		movs	r2, #0
 1366 0006 0068     		ldr	r0, [r0]
 1367 0008 FFF7FEFF 		bl	TIM_CCxNChannelCmd
 1368 000c 2368     		ldr	r3, [r4]
 1369 000e 196A     		ldr	r1, [r3, #32]
 1370 0010 41F21112 		movw	r2, #4369
 1371 0014 1142     		tst	r1, r2
 1372 0016 08D1     		bne	.L152
 1373 0018 196A     		ldr	r1, [r3, #32]
 1374 001a 40F24442 		movw	r2, #1092
 1375 001e 1142     		tst	r1, r2
 1376 0020 03D1     		bne	.L152
 1377 0022 5A6C     		ldr	r2, [r3, #68]
 1378 0024 22F40042 		bic	r2, r2, #32768
 1379 0028 5A64     		str	r2, [r3, #68]
 1380              	.L152:
 1381 002a 2368     		ldr	r3, [r4]
 1382 002c 196A     		ldr	r1, [r3, #32]
 1383 002e 41F21112 		movw	r2, #4369
 1384 0032 1142     		tst	r1, r2
 1385 0034 08D1     		bne	.L153
 1386 0036 196A     		ldr	r1, [r3, #32]
 1387 0038 40F24442 		movw	r2, #1092
 1388 003c 1142     		tst	r1, r2
 1389 003e 03D1     		bne	.L153
 1390 0040 1A68     		ldr	r2, [r3]
 1391 0042 22F00102 		bic	r2, r2, #1
 1392 0046 1A60     		str	r2, [r3]
 1393              	.L153:
 1394 0048 0020     		movs	r0, #0
 1395 004a 10BD     		pop	{r4, pc}
 1397              		.section	.text.HAL_TIMEx_OnePulseN_Start_IT,"ax",%progbits
 1398              		.align	1
 1399              		.global	HAL_TIMEx_OnePulseN_Start_IT
 1400              		.syntax unified
 1401              		.thumb
 1402              		.thumb_func
 1403              		.fpu softvfp
 1405              	HAL_TIMEx_OnePulseN_Start_IT:
 1406              		@ args = 0, pretend = 0, frame = 0
 1407              		@ frame_needed = 0, uses_anonymous_args = 0
 1408 0000 10B5     		push	{r4, lr}
 1409 0002 0446     		mov	r4, r0
 1410 0004 0268     		ldr	r2, [r0]
 1411 0006 D368     		ldr	r3, [r2, #12]
 1412 0008 43F00203 		orr	r3, r3, #2
 1413 000c D360     		str	r3, [r2, #12]
 1414 000e 0268     		ldr	r2, [r0]
 1415 0010 D368     		ldr	r3, [r2, #12]
 1416 0012 43F00403 		orr	r3, r3, #4
 1417 0016 D360     		str	r3, [r2, #12]
 1418 0018 0422     		movs	r2, #4
 1419 001a 0068     		ldr	r0, [r0]
ARM GAS  /tmp/ccLG8aCO.s 			page 25


 1420 001c FFF7FEFF 		bl	TIM_CCxNChannelCmd
 1421 0020 2268     		ldr	r2, [r4]
 1422 0022 536C     		ldr	r3, [r2, #68]
 1423 0024 43F40043 		orr	r3, r3, #32768
 1424 0028 5364     		str	r3, [r2, #68]
 1425 002a 0020     		movs	r0, #0
 1426 002c 10BD     		pop	{r4, pc}
 1428              		.section	.text.HAL_TIMEx_OnePulseN_Stop_IT,"ax",%progbits
 1429              		.align	1
 1430              		.global	HAL_TIMEx_OnePulseN_Stop_IT
 1431              		.syntax unified
 1432              		.thumb
 1433              		.thumb_func
 1434              		.fpu softvfp
 1436              	HAL_TIMEx_OnePulseN_Stop_IT:
 1437              		@ args = 0, pretend = 0, frame = 0
 1438              		@ frame_needed = 0, uses_anonymous_args = 0
 1439 0000 10B5     		push	{r4, lr}
 1440 0002 0446     		mov	r4, r0
 1441 0004 0268     		ldr	r2, [r0]
 1442 0006 D368     		ldr	r3, [r2, #12]
 1443 0008 23F00203 		bic	r3, r3, #2
 1444 000c D360     		str	r3, [r2, #12]
 1445 000e 0268     		ldr	r2, [r0]
 1446 0010 D368     		ldr	r3, [r2, #12]
 1447 0012 23F00403 		bic	r3, r3, #4
 1448 0016 D360     		str	r3, [r2, #12]
 1449 0018 0022     		movs	r2, #0
 1450 001a 0068     		ldr	r0, [r0]
 1451 001c FFF7FEFF 		bl	TIM_CCxNChannelCmd
 1452 0020 2368     		ldr	r3, [r4]
 1453 0022 196A     		ldr	r1, [r3, #32]
 1454 0024 41F21112 		movw	r2, #4369
 1455 0028 1142     		tst	r1, r2
 1456 002a 08D1     		bne	.L158
 1457 002c 196A     		ldr	r1, [r3, #32]
 1458 002e 40F24442 		movw	r2, #1092
 1459 0032 1142     		tst	r1, r2
 1460 0034 03D1     		bne	.L158
 1461 0036 5A6C     		ldr	r2, [r3, #68]
 1462 0038 22F40042 		bic	r2, r2, #32768
 1463 003c 5A64     		str	r2, [r3, #68]
 1464              	.L158:
 1465 003e 2368     		ldr	r3, [r4]
 1466 0040 196A     		ldr	r1, [r3, #32]
 1467 0042 41F21112 		movw	r2, #4369
 1468 0046 1142     		tst	r1, r2
 1469 0048 08D1     		bne	.L159
 1470 004a 196A     		ldr	r1, [r3, #32]
 1471 004c 40F24442 		movw	r2, #1092
 1472 0050 1142     		tst	r1, r2
 1473 0052 03D1     		bne	.L159
 1474 0054 1A68     		ldr	r2, [r3]
 1475 0056 22F00102 		bic	r2, r2, #1
 1476 005a 1A60     		str	r2, [r3]
 1477              	.L159:
 1478 005c 0020     		movs	r0, #0
ARM GAS  /tmp/ccLG8aCO.s 			page 26


 1479 005e 10BD     		pop	{r4, pc}
 1481              		.section	.text.HAL_TIMEx_ConfigCommutEvent,"ax",%progbits
 1482              		.align	1
 1483              		.global	HAL_TIMEx_ConfigCommutEvent
 1484              		.syntax unified
 1485              		.thumb
 1486              		.thumb_func
 1487              		.fpu softvfp
 1489              	HAL_TIMEx_ConfigCommutEvent:
 1490              		@ args = 0, pretend = 0, frame = 0
 1491              		@ frame_needed = 0, uses_anonymous_args = 0
 1492              		@ link register save eliminated.
 1493 0000 90F83C30 		ldrb	r3, [r0, #60]	@ zero_extendqisi2
 1494 0004 012B     		cmp	r3, #1
 1495 0006 31D0     		beq	.L165
 1496 0008 10B4     		push	{r4}
 1497 000a 0123     		movs	r3, #1
 1498 000c 80F83C30 		strb	r3, [r0, #60]
 1499 0010 29B1     		cbz	r1, .L163
 1500 0012 1029     		cmp	r1, #16
 1501 0014 03D0     		beq	.L163
 1502 0016 2029     		cmp	r1, #32
 1503 0018 01D0     		beq	.L163
 1504 001a 3029     		cmp	r1, #48
 1505 001c 08D1     		bne	.L164
 1506              	.L163:
 1507 001e 0468     		ldr	r4, [r0]
 1508 0020 A368     		ldr	r3, [r4, #8]
 1509 0022 23F07003 		bic	r3, r3, #112
 1510 0026 A360     		str	r3, [r4, #8]
 1511 0028 0368     		ldr	r3, [r0]
 1512 002a 9C68     		ldr	r4, [r3, #8]
 1513 002c 2143     		orrs	r1, r1, r4
 1514 002e 9960     		str	r1, [r3, #8]
 1515              	.L164:
 1516 0030 0168     		ldr	r1, [r0]
 1517 0032 4B68     		ldr	r3, [r1, #4]
 1518 0034 43F00103 		orr	r3, r3, #1
 1519 0038 4B60     		str	r3, [r1, #4]
 1520 003a 0168     		ldr	r1, [r0]
 1521 003c 4B68     		ldr	r3, [r1, #4]
 1522 003e 23F00403 		bic	r3, r3, #4
 1523 0042 4B60     		str	r3, [r1, #4]
 1524 0044 0168     		ldr	r1, [r0]
 1525 0046 4B68     		ldr	r3, [r1, #4]
 1526 0048 1A43     		orrs	r2, r2, r3
 1527 004a 4A60     		str	r2, [r1, #4]
 1528 004c 0268     		ldr	r2, [r0]
 1529 004e D368     		ldr	r3, [r2, #12]
 1530 0050 23F02003 		bic	r3, r3, #32
 1531 0054 D360     		str	r3, [r2, #12]
 1532 0056 0268     		ldr	r2, [r0]
 1533 0058 D368     		ldr	r3, [r2, #12]
 1534 005a 23F40053 		bic	r3, r3, #8192
 1535 005e D360     		str	r3, [r2, #12]
 1536 0060 0023     		movs	r3, #0
 1537 0062 80F83C30 		strb	r3, [r0, #60]
ARM GAS  /tmp/ccLG8aCO.s 			page 27


 1538 0066 1846     		mov	r0, r3
 1539 0068 10BC     		pop	{r4}
 1540 006a 7047     		bx	lr
 1541              	.L165:
 1542 006c 0220     		movs	r0, #2
 1543 006e 7047     		bx	lr
 1545              		.section	.text.HAL_TIMEx_ConfigCommutEvent_IT,"ax",%progbits
 1546              		.align	1
 1547              		.global	HAL_TIMEx_ConfigCommutEvent_IT
 1548              		.syntax unified
 1549              		.thumb
 1550              		.thumb_func
 1551              		.fpu softvfp
 1553              	HAL_TIMEx_ConfigCommutEvent_IT:
 1554              		@ args = 0, pretend = 0, frame = 0
 1555              		@ frame_needed = 0, uses_anonymous_args = 0
 1556              		@ link register save eliminated.
 1557 0000 90F83C30 		ldrb	r3, [r0, #60]	@ zero_extendqisi2
 1558 0004 012B     		cmp	r3, #1
 1559 0006 31D0     		beq	.L174
 1560 0008 10B4     		push	{r4}
 1561 000a 0123     		movs	r3, #1
 1562 000c 80F83C30 		strb	r3, [r0, #60]
 1563 0010 29B1     		cbz	r1, .L172
 1564 0012 1029     		cmp	r1, #16
 1565 0014 03D0     		beq	.L172
 1566 0016 2029     		cmp	r1, #32
 1567 0018 01D0     		beq	.L172
 1568 001a 3029     		cmp	r1, #48
 1569 001c 08D1     		bne	.L173
 1570              	.L172:
 1571 001e 0468     		ldr	r4, [r0]
 1572 0020 A368     		ldr	r3, [r4, #8]
 1573 0022 23F07003 		bic	r3, r3, #112
 1574 0026 A360     		str	r3, [r4, #8]
 1575 0028 0368     		ldr	r3, [r0]
 1576 002a 9C68     		ldr	r4, [r3, #8]
 1577 002c 2143     		orrs	r1, r1, r4
 1578 002e 9960     		str	r1, [r3, #8]
 1579              	.L173:
 1580 0030 0168     		ldr	r1, [r0]
 1581 0032 4B68     		ldr	r3, [r1, #4]
 1582 0034 43F00103 		orr	r3, r3, #1
 1583 0038 4B60     		str	r3, [r1, #4]
 1584 003a 0168     		ldr	r1, [r0]
 1585 003c 4B68     		ldr	r3, [r1, #4]
 1586 003e 23F00403 		bic	r3, r3, #4
 1587 0042 4B60     		str	r3, [r1, #4]
 1588 0044 0168     		ldr	r1, [r0]
 1589 0046 4B68     		ldr	r3, [r1, #4]
 1590 0048 1A43     		orrs	r2, r2, r3
 1591 004a 4A60     		str	r2, [r1, #4]
 1592 004c 0268     		ldr	r2, [r0]
 1593 004e D368     		ldr	r3, [r2, #12]
 1594 0050 23F40053 		bic	r3, r3, #8192
 1595 0054 D360     		str	r3, [r2, #12]
 1596 0056 0268     		ldr	r2, [r0]
ARM GAS  /tmp/ccLG8aCO.s 			page 28


 1597 0058 D368     		ldr	r3, [r2, #12]
 1598 005a 43F02003 		orr	r3, r3, #32
 1599 005e D360     		str	r3, [r2, #12]
 1600 0060 0023     		movs	r3, #0
 1601 0062 80F83C30 		strb	r3, [r0, #60]
 1602 0066 1846     		mov	r0, r3
 1603 0068 10BC     		pop	{r4}
 1604 006a 7047     		bx	lr
 1605              	.L174:
 1606 006c 0220     		movs	r0, #2
 1607 006e 7047     		bx	lr
 1609              		.section	.text.HAL_TIMEx_ConfigCommutEvent_DMA,"ax",%progbits
 1610              		.align	1
 1611              		.global	HAL_TIMEx_ConfigCommutEvent_DMA
 1612              		.syntax unified
 1613              		.thumb
 1614              		.thumb_func
 1615              		.fpu softvfp
 1617              	HAL_TIMEx_ConfigCommutEvent_DMA:
 1618              		@ args = 0, pretend = 0, frame = 0
 1619              		@ frame_needed = 0, uses_anonymous_args = 0
 1620              		@ link register save eliminated.
 1621 0000 90F83C30 		ldrb	r3, [r0, #60]	@ zero_extendqisi2
 1622 0004 012B     		cmp	r3, #1
 1623 0006 3AD0     		beq	.L183
 1624 0008 10B4     		push	{r4}
 1625 000a 0123     		movs	r3, #1
 1626 000c 80F83C30 		strb	r3, [r0, #60]
 1627 0010 29B1     		cbz	r1, .L181
 1628 0012 1029     		cmp	r1, #16
 1629 0014 03D0     		beq	.L181
 1630 0016 2029     		cmp	r1, #32
 1631 0018 01D0     		beq	.L181
 1632 001a 3029     		cmp	r1, #48
 1633 001c 08D1     		bne	.L182
 1634              	.L181:
 1635 001e 0468     		ldr	r4, [r0]
 1636 0020 A368     		ldr	r3, [r4, #8]
 1637 0022 23F07003 		bic	r3, r3, #112
 1638 0026 A360     		str	r3, [r4, #8]
 1639 0028 0368     		ldr	r3, [r0]
 1640 002a 9C68     		ldr	r4, [r3, #8]
 1641 002c 2143     		orrs	r1, r1, r4
 1642 002e 9960     		str	r1, [r3, #8]
 1643              	.L182:
 1644 0030 0168     		ldr	r1, [r0]
 1645 0032 4B68     		ldr	r3, [r1, #4]
 1646 0034 43F00103 		orr	r3, r3, #1
 1647 0038 4B60     		str	r3, [r1, #4]
 1648 003a 0168     		ldr	r1, [r0]
 1649 003c 4B68     		ldr	r3, [r1, #4]
 1650 003e 23F00403 		bic	r3, r3, #4
 1651 0042 4B60     		str	r3, [r1, #4]
 1652 0044 0168     		ldr	r1, [r0]
 1653 0046 4B68     		ldr	r3, [r1, #4]
 1654 0048 1A43     		orrs	r2, r2, r3
 1655 004a 4A60     		str	r2, [r1, #4]
ARM GAS  /tmp/ccLG8aCO.s 			page 29


 1656 004c 436B     		ldr	r3, [r0, #52]
 1657 004e 0D4A     		ldr	r2, .L188
 1658 0050 9A62     		str	r2, [r3, #40]
 1659 0052 436B     		ldr	r3, [r0, #52]
 1660 0054 0C4A     		ldr	r2, .L188+4
 1661 0056 DA62     		str	r2, [r3, #44]
 1662 0058 436B     		ldr	r3, [r0, #52]
 1663 005a 0C4A     		ldr	r2, .L188+8
 1664 005c 1A63     		str	r2, [r3, #48]
 1665 005e 0268     		ldr	r2, [r0]
 1666 0060 D368     		ldr	r3, [r2, #12]
 1667 0062 23F02003 		bic	r3, r3, #32
 1668 0066 D360     		str	r3, [r2, #12]
 1669 0068 0268     		ldr	r2, [r0]
 1670 006a D368     		ldr	r3, [r2, #12]
 1671 006c 43F40053 		orr	r3, r3, #8192
 1672 0070 D360     		str	r3, [r2, #12]
 1673 0072 0023     		movs	r3, #0
 1674 0074 80F83C30 		strb	r3, [r0, #60]
 1675 0078 1846     		mov	r0, r3
 1676 007a 10BC     		pop	{r4}
 1677 007c 7047     		bx	lr
 1678              	.L183:
 1679 007e 0220     		movs	r0, #2
 1680 0080 7047     		bx	lr
 1681              	.L189:
 1682 0082 00BF     		.align	2
 1683              	.L188:
 1684 0084 00000000 		.word	TIMEx_DMACommutationCplt
 1685 0088 00000000 		.word	TIMEx_DMACommutationHalfCplt
 1686 008c 00000000 		.word	TIM_DMAError
 1688              		.section	.text.HAL_TIMEx_MasterConfigSynchronization,"ax",%progbits
 1689              		.align	1
 1690              		.global	HAL_TIMEx_MasterConfigSynchronization
 1691              		.syntax unified
 1692              		.thumb
 1693              		.thumb_func
 1694              		.fpu softvfp
 1696              	HAL_TIMEx_MasterConfigSynchronization:
 1697              		@ args = 0, pretend = 0, frame = 0
 1698              		@ frame_needed = 0, uses_anonymous_args = 0
 1699              		@ link register save eliminated.
 1700 0000 90F83C30 		ldrb	r3, [r0, #60]	@ zero_extendqisi2
 1701 0004 012B     		cmp	r3, #1
 1702 0006 1CD0     		beq	.L192
 1703 0008 70B4     		push	{r4, r5, r6}
 1704 000a 0125     		movs	r5, #1
 1705 000c 80F83C50 		strb	r5, [r0, #60]
 1706 0010 0223     		movs	r3, #2
 1707 0012 80F83D30 		strb	r3, [r0, #61]
 1708 0016 0468     		ldr	r4, [r0]
 1709 0018 6268     		ldr	r2, [r4, #4]
 1710 001a A368     		ldr	r3, [r4, #8]
 1711 001c 22F07002 		bic	r2, r2, #112
 1712 0020 0E68     		ldr	r6, [r1]
 1713 0022 3243     		orrs	r2, r2, r6
 1714 0024 23F08003 		bic	r3, r3, #128
ARM GAS  /tmp/ccLG8aCO.s 			page 30


 1715 0028 4968     		ldr	r1, [r1, #4]
 1716 002a 0B43     		orrs	r3, r3, r1
 1717 002c 6260     		str	r2, [r4, #4]
 1718 002e 0268     		ldr	r2, [r0]
 1719 0030 9360     		str	r3, [r2, #8]
 1720 0032 80F83D50 		strb	r5, [r0, #61]
 1721 0036 0023     		movs	r3, #0
 1722 0038 80F83C30 		strb	r3, [r0, #60]
 1723 003c 1846     		mov	r0, r3
 1724 003e 70BC     		pop	{r4, r5, r6}
 1725 0040 7047     		bx	lr
 1726              	.L192:
 1727 0042 0220     		movs	r0, #2
 1728 0044 7047     		bx	lr
 1730              		.section	.text.HAL_TIMEx_ConfigBreakDeadTime,"ax",%progbits
 1731              		.align	1
 1732              		.global	HAL_TIMEx_ConfigBreakDeadTime
 1733              		.syntax unified
 1734              		.thumb
 1735              		.thumb_func
 1736              		.fpu softvfp
 1738              	HAL_TIMEx_ConfigBreakDeadTime:
 1739              		@ args = 0, pretend = 0, frame = 0
 1740              		@ frame_needed = 0, uses_anonymous_args = 0
 1741              		@ link register save eliminated.
 1742 0000 90F83C30 		ldrb	r3, [r0, #60]	@ zero_extendqisi2
 1743 0004 012B     		cmp	r3, #1
 1744 0006 22D0     		beq	.L199
 1745 0008 0123     		movs	r3, #1
 1746 000a 80F83C30 		strb	r3, [r0, #60]
 1747 000e CB68     		ldr	r3, [r1, #12]
 1748 0010 23F44073 		bic	r3, r3, #768
 1749 0014 8A68     		ldr	r2, [r1, #8]
 1750 0016 1343     		orrs	r3, r3, r2
 1751 0018 23F48063 		bic	r3, r3, #1024
 1752 001c 4A68     		ldr	r2, [r1, #4]
 1753 001e 1343     		orrs	r3, r3, r2
 1754 0020 23F40063 		bic	r3, r3, #2048
 1755 0024 0A68     		ldr	r2, [r1]
 1756 0026 1343     		orrs	r3, r3, r2
 1757 0028 23F48053 		bic	r3, r3, #4096
 1758 002c 0A69     		ldr	r2, [r1, #16]
 1759 002e 1343     		orrs	r3, r3, r2
 1760 0030 23F40053 		bic	r3, r3, #8192
 1761 0034 4A69     		ldr	r2, [r1, #20]
 1762 0036 1343     		orrs	r3, r3, r2
 1763 0038 23F48043 		bic	r3, r3, #16384
 1764 003c CA69     		ldr	r2, [r1, #28]
 1765 003e 1343     		orrs	r3, r3, r2
 1766 0040 0268     		ldr	r2, [r0]
 1767 0042 5364     		str	r3, [r2, #68]
 1768 0044 0023     		movs	r3, #0
 1769 0046 80F83C30 		strb	r3, [r0, #60]
 1770 004a 1846     		mov	r0, r3
 1771 004c 7047     		bx	lr
 1772              	.L199:
 1773 004e 0220     		movs	r0, #2
ARM GAS  /tmp/ccLG8aCO.s 			page 31


 1774 0050 7047     		bx	lr
 1776              		.section	.text.HAL_TIMEx_RemapConfig,"ax",%progbits
 1777              		.align	1
 1778              		.global	HAL_TIMEx_RemapConfig
 1779              		.syntax unified
 1780              		.thumb
 1781              		.thumb_func
 1782              		.fpu softvfp
 1784              	HAL_TIMEx_RemapConfig:
 1785              		@ args = 0, pretend = 0, frame = 0
 1786              		@ frame_needed = 0, uses_anonymous_args = 0
 1787              		@ link register save eliminated.
 1788 0000 0020     		movs	r0, #0
 1789 0002 7047     		bx	lr
 1791              		.section	.text.HAL_TIMEx_CommutCallback,"ax",%progbits
 1792              		.align	1
 1793              		.weak	HAL_TIMEx_CommutCallback
 1794              		.syntax unified
 1795              		.thumb
 1796              		.thumb_func
 1797              		.fpu softvfp
 1799              	HAL_TIMEx_CommutCallback:
 1800              		@ args = 0, pretend = 0, frame = 0
 1801              		@ frame_needed = 0, uses_anonymous_args = 0
 1802              		@ link register save eliminated.
 1803 0000 7047     		bx	lr
 1805              		.section	.text.TIMEx_DMACommutationCplt,"ax",%progbits
 1806              		.align	1
 1807              		.global	TIMEx_DMACommutationCplt
 1808              		.syntax unified
 1809              		.thumb
 1810              		.thumb_func
 1811              		.fpu softvfp
 1813              	TIMEx_DMACommutationCplt:
 1814              		@ args = 0, pretend = 0, frame = 0
 1815              		@ frame_needed = 0, uses_anonymous_args = 0
 1816 0000 08B5     		push	{r3, lr}
 1817 0002 406A     		ldr	r0, [r0, #36]
 1818 0004 0123     		movs	r3, #1
 1819 0006 80F83D30 		strb	r3, [r0, #61]
 1820 000a FFF7FEFF 		bl	HAL_TIMEx_CommutCallback
 1821 000e 08BD     		pop	{r3, pc}
 1823              		.section	.text.HAL_TIMEx_CommutHalfCpltCallback,"ax",%progbits
 1824              		.align	1
 1825              		.weak	HAL_TIMEx_CommutHalfCpltCallback
 1826              		.syntax unified
 1827              		.thumb
 1828              		.thumb_func
 1829              		.fpu softvfp
 1831              	HAL_TIMEx_CommutHalfCpltCallback:
 1832              		@ args = 0, pretend = 0, frame = 0
 1833              		@ frame_needed = 0, uses_anonymous_args = 0
 1834              		@ link register save eliminated.
 1835 0000 7047     		bx	lr
 1837              		.section	.text.TIMEx_DMACommutationHalfCplt,"ax",%progbits
 1838              		.align	1
 1839              		.global	TIMEx_DMACommutationHalfCplt
ARM GAS  /tmp/ccLG8aCO.s 			page 32


 1840              		.syntax unified
 1841              		.thumb
 1842              		.thumb_func
 1843              		.fpu softvfp
 1845              	TIMEx_DMACommutationHalfCplt:
 1846              		@ args = 0, pretend = 0, frame = 0
 1847              		@ frame_needed = 0, uses_anonymous_args = 0
 1848 0000 08B5     		push	{r3, lr}
 1849 0002 406A     		ldr	r0, [r0, #36]
 1850 0004 0123     		movs	r3, #1
 1851 0006 80F83D30 		strb	r3, [r0, #61]
 1852 000a FFF7FEFF 		bl	HAL_TIMEx_CommutHalfCpltCallback
 1853 000e 08BD     		pop	{r3, pc}
 1855              		.section	.text.HAL_TIMEx_BreakCallback,"ax",%progbits
 1856              		.align	1
 1857              		.weak	HAL_TIMEx_BreakCallback
 1858              		.syntax unified
 1859              		.thumb
 1860              		.thumb_func
 1861              		.fpu softvfp
 1863              	HAL_TIMEx_BreakCallback:
 1864              		@ args = 0, pretend = 0, frame = 0
 1865              		@ frame_needed = 0, uses_anonymous_args = 0
 1866              		@ link register save eliminated.
 1867 0000 7047     		bx	lr
 1869              		.section	.text.HAL_TIMEx_HallSensor_GetState,"ax",%progbits
 1870              		.align	1
 1871              		.global	HAL_TIMEx_HallSensor_GetState
 1872              		.syntax unified
 1873              		.thumb
 1874              		.thumb_func
 1875              		.fpu softvfp
 1877              	HAL_TIMEx_HallSensor_GetState:
 1878              		@ args = 0, pretend = 0, frame = 0
 1879              		@ frame_needed = 0, uses_anonymous_args = 0
 1880              		@ link register save eliminated.
 1881 0000 90F83D00 		ldrb	r0, [r0, #61]	@ zero_extendqisi2
 1882 0004 7047     		bx	lr
 1884              		.ident	"GCC: (15:6.3.1+svn253039-1build1) 6.3.1 20170620"
ARM GAS  /tmp/ccLG8aCO.s 			page 33


DEFINED SYMBOLS
                            *ABS*:0000000000000000 stm32f1xx_hal_tim_ex.c
     /tmp/ccLG8aCO.s:13     .text.TIM_CCxNChannelCmd:0000000000000000 $t
     /tmp/ccLG8aCO.s:19     .text.TIM_CCxNChannelCmd:0000000000000000 TIM_CCxNChannelCmd
     /tmp/ccLG8aCO.s:38     .text.HAL_TIMEx_HallSensor_MspInit:0000000000000000 $t
     /tmp/ccLG8aCO.s:45     .text.HAL_TIMEx_HallSensor_MspInit:0000000000000000 HAL_TIMEx_HallSensor_MspInit
     /tmp/ccLG8aCO.s:52     .text.HAL_TIMEx_HallSensor_Init:0000000000000000 $t
     /tmp/ccLG8aCO.s:59     .text.HAL_TIMEx_HallSensor_Init:0000000000000000 HAL_TIMEx_HallSensor_Init
     /tmp/ccLG8aCO.s:147    .text.HAL_TIMEx_HallSensor_MspDeInit:0000000000000000 $t
     /tmp/ccLG8aCO.s:154    .text.HAL_TIMEx_HallSensor_MspDeInit:0000000000000000 HAL_TIMEx_HallSensor_MspDeInit
     /tmp/ccLG8aCO.s:161    .text.HAL_TIMEx_HallSensor_DeInit:0000000000000000 $t
     /tmp/ccLG8aCO.s:168    .text.HAL_TIMEx_HallSensor_DeInit:0000000000000000 HAL_TIMEx_HallSensor_DeInit
     /tmp/ccLG8aCO.s:196    .text.HAL_TIMEx_HallSensor_Start:0000000000000000 $t
     /tmp/ccLG8aCO.s:203    .text.HAL_TIMEx_HallSensor_Start:0000000000000000 HAL_TIMEx_HallSensor_Start
     /tmp/ccLG8aCO.s:225    .text.HAL_TIMEx_HallSensor_Stop:0000000000000000 $t
     /tmp/ccLG8aCO.s:232    .text.HAL_TIMEx_HallSensor_Stop:0000000000000000 HAL_TIMEx_HallSensor_Stop
     /tmp/ccLG8aCO.s:258    .text.HAL_TIMEx_HallSensor_Start_IT:0000000000000000 $t
     /tmp/ccLG8aCO.s:265    .text.HAL_TIMEx_HallSensor_Start_IT:0000000000000000 HAL_TIMEx_HallSensor_Start_IT
     /tmp/ccLG8aCO.s:291    .text.HAL_TIMEx_HallSensor_Stop_IT:0000000000000000 $t
     /tmp/ccLG8aCO.s:298    .text.HAL_TIMEx_HallSensor_Stop_IT:0000000000000000 HAL_TIMEx_HallSensor_Stop_IT
     /tmp/ccLG8aCO.s:328    .text.HAL_TIMEx_HallSensor_Start_DMA:0000000000000000 $t
     /tmp/ccLG8aCO.s:335    .text.HAL_TIMEx_HallSensor_Start_DMA:0000000000000000 HAL_TIMEx_HallSensor_Start_DMA
     /tmp/ccLG8aCO.s:406    .text.HAL_TIMEx_HallSensor_Start_DMA:0000000000000084 $d
     /tmp/ccLG8aCO.s:411    .text.HAL_TIMEx_HallSensor_Stop_DMA:0000000000000000 $t
     /tmp/ccLG8aCO.s:418    .text.HAL_TIMEx_HallSensor_Stop_DMA:0000000000000000 HAL_TIMEx_HallSensor_Stop_DMA
     /tmp/ccLG8aCO.s:450    .text.HAL_TIMEx_OCN_Start:0000000000000000 $t
     /tmp/ccLG8aCO.s:457    .text.HAL_TIMEx_OCN_Start:0000000000000000 HAL_TIMEx_OCN_Start
     /tmp/ccLG8aCO.s:482    .text.HAL_TIMEx_OCN_Stop:0000000000000000 $t
     /tmp/ccLG8aCO.s:489    .text.HAL_TIMEx_OCN_Stop:0000000000000000 HAL_TIMEx_OCN_Stop
     /tmp/ccLG8aCO.s:527    .text.HAL_TIMEx_OCN_Start_IT:0000000000000000 $t
     /tmp/ccLG8aCO.s:534    .text.HAL_TIMEx_OCN_Start_IT:0000000000000000 HAL_TIMEx_OCN_Start_IT
     /tmp/ccLG8aCO.s:587    .text.HAL_TIMEx_OCN_Stop_IT:0000000000000000 $t
     /tmp/ccLG8aCO.s:594    .text.HAL_TIMEx_OCN_Stop_IT:0000000000000000 HAL_TIMEx_OCN_Stop_IT
     /tmp/ccLG8aCO.s:666    .text.HAL_TIMEx_OCN_Start_DMA:0000000000000000 $t
     /tmp/ccLG8aCO.s:673    .text.HAL_TIMEx_OCN_Start_DMA:0000000000000000 HAL_TIMEx_OCN_Start_DMA
     /tmp/ccLG8aCO.s:806    .text.HAL_TIMEx_OCN_Start_DMA:0000000000000100 $d
     /tmp/ccLG8aCO.s:811    .text.HAL_TIMEx_OCN_Stop_DMA:0000000000000000 $t
     /tmp/ccLG8aCO.s:818    .text.HAL_TIMEx_OCN_Stop_DMA:0000000000000000 HAL_TIMEx_OCN_Stop_DMA
     /tmp/ccLG8aCO.s:890    .text.HAL_TIMEx_PWMN_Start:0000000000000000 $t
     /tmp/ccLG8aCO.s:897    .text.HAL_TIMEx_PWMN_Start:0000000000000000 HAL_TIMEx_PWMN_Start
     /tmp/ccLG8aCO.s:922    .text.HAL_TIMEx_PWMN_Stop:0000000000000000 $t
     /tmp/ccLG8aCO.s:929    .text.HAL_TIMEx_PWMN_Stop:0000000000000000 HAL_TIMEx_PWMN_Stop
     /tmp/ccLG8aCO.s:967    .text.HAL_TIMEx_PWMN_Start_IT:0000000000000000 $t
     /tmp/ccLG8aCO.s:974    .text.HAL_TIMEx_PWMN_Start_IT:0000000000000000 HAL_TIMEx_PWMN_Start_IT
     /tmp/ccLG8aCO.s:1027   .text.HAL_TIMEx_PWMN_Stop_IT:0000000000000000 $t
     /tmp/ccLG8aCO.s:1034   .text.HAL_TIMEx_PWMN_Stop_IT:0000000000000000 HAL_TIMEx_PWMN_Stop_IT
     /tmp/ccLG8aCO.s:1106   .text.HAL_TIMEx_PWMN_Start_DMA:0000000000000000 $t
     /tmp/ccLG8aCO.s:1113   .text.HAL_TIMEx_PWMN_Start_DMA:0000000000000000 HAL_TIMEx_PWMN_Start_DMA
     /tmp/ccLG8aCO.s:1246   .text.HAL_TIMEx_PWMN_Start_DMA:0000000000000100 $d
     /tmp/ccLG8aCO.s:1251   .text.HAL_TIMEx_PWMN_Stop_DMA:0000000000000000 $t
     /tmp/ccLG8aCO.s:1258   .text.HAL_TIMEx_PWMN_Stop_DMA:0000000000000000 HAL_TIMEx_PWMN_Stop_DMA
     /tmp/ccLG8aCO.s:1330   .text.HAL_TIMEx_OnePulseN_Start:0000000000000000 $t
     /tmp/ccLG8aCO.s:1337   .text.HAL_TIMEx_OnePulseN_Start:0000000000000000 HAL_TIMEx_OnePulseN_Start
     /tmp/ccLG8aCO.s:1353   .text.HAL_TIMEx_OnePulseN_Stop:0000000000000000 $t
     /tmp/ccLG8aCO.s:1360   .text.HAL_TIMEx_OnePulseN_Stop:0000000000000000 HAL_TIMEx_OnePulseN_Stop
     /tmp/ccLG8aCO.s:1398   .text.HAL_TIMEx_OnePulseN_Start_IT:0000000000000000 $t
     /tmp/ccLG8aCO.s:1405   .text.HAL_TIMEx_OnePulseN_Start_IT:0000000000000000 HAL_TIMEx_OnePulseN_Start_IT
ARM GAS  /tmp/ccLG8aCO.s 			page 34


     /tmp/ccLG8aCO.s:1429   .text.HAL_TIMEx_OnePulseN_Stop_IT:0000000000000000 $t
     /tmp/ccLG8aCO.s:1436   .text.HAL_TIMEx_OnePulseN_Stop_IT:0000000000000000 HAL_TIMEx_OnePulseN_Stop_IT
     /tmp/ccLG8aCO.s:1482   .text.HAL_TIMEx_ConfigCommutEvent:0000000000000000 $t
     /tmp/ccLG8aCO.s:1489   .text.HAL_TIMEx_ConfigCommutEvent:0000000000000000 HAL_TIMEx_ConfigCommutEvent
     /tmp/ccLG8aCO.s:1546   .text.HAL_TIMEx_ConfigCommutEvent_IT:0000000000000000 $t
     /tmp/ccLG8aCO.s:1553   .text.HAL_TIMEx_ConfigCommutEvent_IT:0000000000000000 HAL_TIMEx_ConfigCommutEvent_IT
     /tmp/ccLG8aCO.s:1610   .text.HAL_TIMEx_ConfigCommutEvent_DMA:0000000000000000 $t
     /tmp/ccLG8aCO.s:1617   .text.HAL_TIMEx_ConfigCommutEvent_DMA:0000000000000000 HAL_TIMEx_ConfigCommutEvent_DMA
     /tmp/ccLG8aCO.s:1684   .text.HAL_TIMEx_ConfigCommutEvent_DMA:0000000000000084 $d
     /tmp/ccLG8aCO.s:1813   .text.TIMEx_DMACommutationCplt:0000000000000000 TIMEx_DMACommutationCplt
     /tmp/ccLG8aCO.s:1845   .text.TIMEx_DMACommutationHalfCplt:0000000000000000 TIMEx_DMACommutationHalfCplt
     /tmp/ccLG8aCO.s:1689   .text.HAL_TIMEx_MasterConfigSynchronization:0000000000000000 $t
     /tmp/ccLG8aCO.s:1696   .text.HAL_TIMEx_MasterConfigSynchronization:0000000000000000 HAL_TIMEx_MasterConfigSynchronization
     /tmp/ccLG8aCO.s:1731   .text.HAL_TIMEx_ConfigBreakDeadTime:0000000000000000 $t
     /tmp/ccLG8aCO.s:1738   .text.HAL_TIMEx_ConfigBreakDeadTime:0000000000000000 HAL_TIMEx_ConfigBreakDeadTime
     /tmp/ccLG8aCO.s:1777   .text.HAL_TIMEx_RemapConfig:0000000000000000 $t
     /tmp/ccLG8aCO.s:1784   .text.HAL_TIMEx_RemapConfig:0000000000000000 HAL_TIMEx_RemapConfig
     /tmp/ccLG8aCO.s:1792   .text.HAL_TIMEx_CommutCallback:0000000000000000 $t
     /tmp/ccLG8aCO.s:1799   .text.HAL_TIMEx_CommutCallback:0000000000000000 HAL_TIMEx_CommutCallback
     /tmp/ccLG8aCO.s:1806   .text.TIMEx_DMACommutationCplt:0000000000000000 $t
     /tmp/ccLG8aCO.s:1824   .text.HAL_TIMEx_CommutHalfCpltCallback:0000000000000000 $t
     /tmp/ccLG8aCO.s:1831   .text.HAL_TIMEx_CommutHalfCpltCallback:0000000000000000 HAL_TIMEx_CommutHalfCpltCallback
     /tmp/ccLG8aCO.s:1838   .text.TIMEx_DMACommutationHalfCplt:0000000000000000 $t
     /tmp/ccLG8aCO.s:1856   .text.HAL_TIMEx_BreakCallback:0000000000000000 $t
     /tmp/ccLG8aCO.s:1863   .text.HAL_TIMEx_BreakCallback:0000000000000000 HAL_TIMEx_BreakCallback
     /tmp/ccLG8aCO.s:1870   .text.HAL_TIMEx_HallSensor_GetState:0000000000000000 $t
     /tmp/ccLG8aCO.s:1877   .text.HAL_TIMEx_HallSensor_GetState:0000000000000000 HAL_TIMEx_HallSensor_GetState

UNDEFINED SYMBOLS
TIM_Base_SetConfig
TIM_TI1_SetConfig
TIM_OC2_SetConfig
TIM_CCxChannelCmd
HAL_DMA_Start_IT
TIM_DMACaptureCplt
TIM_DMACaptureHalfCplt
TIM_DMAError
HAL_DMA_Abort_IT
TIM_DMADelayPulseCplt
TIM_DMADelayPulseHalfCplt
