ARM GAS  /tmp/ccJDpv5s.s 			page 1


   1              		.cpu cortex-m3
   2              		.eabi_attribute 20, 1
   3              		.eabi_attribute 21, 1
   4              		.eabi_attribute 23, 3
   5              		.eabi_attribute 24, 1
   6              		.eabi_attribute 25, 1
   7              		.eabi_attribute 26, 1
   8              		.eabi_attribute 30, 1
   9              		.eabi_attribute 34, 1
  10              		.eabi_attribute 18, 4
  11              		.file	"stm32f1xx_hal_rtc_ex.c"
  12              		.section	.text.HAL_RTCEx_SetTamper,"ax",%progbits
  13              		.align	1
  14              		.global	HAL_RTCEx_SetTamper
  15              		.syntax unified
  16              		.thumb
  17              		.thumb_func
  18              		.fpu softvfp
  20              	HAL_RTCEx_SetTamper:
  21              		@ args = 0, pretend = 0, frame = 0
  22              		@ frame_needed = 0, uses_anonymous_args = 0
  23              		@ link register save eliminated.
  24 0000 18B3     		cbz	r0, .L4
  25 0002 0346     		mov	r3, r0
  26 0004 19B3     		cbz	r1, .L5
  27 0006 027C     		ldrb	r2, [r0, #16]	@ zero_extendqisi2
  28 0008 012A     		cmp	r2, #1
  29 000a 22D0     		beq	.L6
  30 000c 0122     		movs	r2, #1
  31 000e 0274     		strb	r2, [r0, #16]
  32 0010 0222     		movs	r2, #2
  33 0012 4274     		strb	r2, [r0, #17]
  34 0014 104A     		ldr	r2, .L11
  35 0016 D26A     		ldr	r2, [r2, #44]
  36 0018 12F4C07F 		tst	r2, #384
  37 001c 0FD1     		bne	.L10
  38 001e 10B4     		push	{r4}
  39 0020 0D4C     		ldr	r4, .L11
  40 0022 226B     		ldr	r2, [r4, #48]
  41 0024 22F00302 		bic	r2, r2, #3
  42 0028 0868     		ldr	r0, [r1]
  43 002a 4968     		ldr	r1, [r1, #4]
  44 002c 0143     		orrs	r1, r1, r0
  45 002e 0A43     		orrs	r2, r2, r1
  46 0030 2263     		str	r2, [r4, #48]
  47 0032 0122     		movs	r2, #1
  48 0034 5A74     		strb	r2, [r3, #17]
  49 0036 0020     		movs	r0, #0
  50 0038 1874     		strb	r0, [r3, #16]
  51 003a 10BC     		pop	{r4}
  52 003c 7047     		bx	lr
  53              	.L10:
  54 003e 0422     		movs	r2, #4
  55 0040 4274     		strb	r2, [r0, #17]
  56 0042 0022     		movs	r2, #0
  57 0044 0274     		strb	r2, [r0, #16]
  58 0046 0120     		movs	r0, #1
ARM GAS  /tmp/ccJDpv5s.s 			page 2


  59 0048 7047     		bx	lr
  60              	.L4:
  61 004a 0120     		movs	r0, #1
  62 004c 7047     		bx	lr
  63              	.L5:
  64 004e 0120     		movs	r0, #1
  65 0050 7047     		bx	lr
  66              	.L6:
  67 0052 0220     		movs	r0, #2
  68 0054 7047     		bx	lr
  69              	.L12:
  70 0056 00BF     		.align	2
  71              	.L11:
  72 0058 006C0040 		.word	1073769472
  74              		.section	.text.HAL_RTCEx_SetTamper_IT,"ax",%progbits
  75              		.align	1
  76              		.global	HAL_RTCEx_SetTamper_IT
  77              		.syntax unified
  78              		.thumb
  79              		.thumb_func
  80              		.fpu softvfp
  82              	HAL_RTCEx_SetTamper_IT:
  83              		@ args = 0, pretend = 0, frame = 0
  84              		@ frame_needed = 0, uses_anonymous_args = 0
  85              		@ link register save eliminated.
  86 0000 38B3     		cbz	r0, .L16
  87 0002 0346     		mov	r3, r0
  88 0004 39B3     		cbz	r1, .L17
  89 0006 027C     		ldrb	r2, [r0, #16]	@ zero_extendqisi2
  90 0008 012A     		cmp	r2, #1
  91 000a 26D0     		beq	.L18
  92 000c 0122     		movs	r2, #1
  93 000e 0274     		strb	r2, [r0, #16]
  94 0010 0222     		movs	r2, #2
  95 0012 4274     		strb	r2, [r0, #17]
  96 0014 124A     		ldr	r2, .L23
  97 0016 D26A     		ldr	r2, [r2, #44]
  98 0018 12F4C07F 		tst	r2, #384
  99 001c 13D1     		bne	.L22
 100 001e 10B4     		push	{r4}
 101 0020 0F48     		ldr	r0, .L23
 102 0022 026B     		ldr	r2, [r0, #48]
 103 0024 22F00302 		bic	r2, r2, #3
 104 0028 0C68     		ldr	r4, [r1]
 105 002a 4968     		ldr	r1, [r1, #4]
 106 002c 2143     		orrs	r1, r1, r4
 107 002e 0A43     		orrs	r2, r2, r1
 108 0030 0263     		str	r2, [r0, #48]
 109 0032 426B     		ldr	r2, [r0, #52]
 110 0034 42F00402 		orr	r2, r2, #4
 111 0038 4263     		str	r2, [r0, #52]
 112 003a 0122     		movs	r2, #1
 113 003c 5A74     		strb	r2, [r3, #17]
 114 003e 0020     		movs	r0, #0
 115 0040 1874     		strb	r0, [r3, #16]
 116 0042 10BC     		pop	{r4}
 117 0044 7047     		bx	lr
ARM GAS  /tmp/ccJDpv5s.s 			page 3


 118              	.L22:
 119 0046 0422     		movs	r2, #4
 120 0048 4274     		strb	r2, [r0, #17]
 121 004a 0022     		movs	r2, #0
 122 004c 0274     		strb	r2, [r0, #16]
 123 004e 0120     		movs	r0, #1
 124 0050 7047     		bx	lr
 125              	.L16:
 126 0052 0120     		movs	r0, #1
 127 0054 7047     		bx	lr
 128              	.L17:
 129 0056 0120     		movs	r0, #1
 130 0058 7047     		bx	lr
 131              	.L18:
 132 005a 0220     		movs	r0, #2
 133 005c 7047     		bx	lr
 134              	.L24:
 135 005e 00BF     		.align	2
 136              	.L23:
 137 0060 006C0040 		.word	1073769472
 139              		.section	.text.HAL_RTCEx_DeactivateTamper,"ax",%progbits
 140              		.align	1
 141              		.global	HAL_RTCEx_DeactivateTamper
 142              		.syntax unified
 143              		.thumb
 144              		.thumb_func
 145              		.fpu softvfp
 147              	HAL_RTCEx_DeactivateTamper:
 148              		@ args = 0, pretend = 0, frame = 0
 149              		@ frame_needed = 0, uses_anonymous_args = 0
 150              		@ link register save eliminated.
 151 0000 0246     		mov	r2, r0
 152 0002 D0B1     		cbz	r0, .L27
 153 0004 037C     		ldrb	r3, [r0, #16]	@ zero_extendqisi2
 154 0006 012B     		cmp	r3, #1
 155 0008 19D0     		beq	.L28
 156 000a 0120     		movs	r0, #1
 157 000c 1074     		strb	r0, [r2, #16]
 158 000e 0223     		movs	r3, #2
 159 0010 5374     		strb	r3, [r2, #17]
 160 0012 0C4B     		ldr	r3, .L29
 161 0014 196B     		ldr	r1, [r3, #48]
 162 0016 21F00101 		bic	r1, r1, #1
 163 001a 1963     		str	r1, [r3, #48]
 164 001c 596B     		ldr	r1, [r3, #52]
 165 001e 21F00401 		bic	r1, r1, #4
 166 0022 5963     		str	r1, [r3, #52]
 167 0024 596B     		ldr	r1, [r3, #52]
 168 0026 41F00301 		orr	r1, r1, #3
 169 002a 5963     		str	r1, [r3, #52]
 170 002c 596B     		ldr	r1, [r3, #52]
 171 002e 0143     		orrs	r1, r1, r0
 172 0030 5963     		str	r1, [r3, #52]
 173 0032 5074     		strb	r0, [r2, #17]
 174 0034 0020     		movs	r0, #0
 175 0036 1074     		strb	r0, [r2, #16]
 176 0038 7047     		bx	lr
ARM GAS  /tmp/ccJDpv5s.s 			page 4


 177              	.L27:
 178 003a 0120     		movs	r0, #1
 179 003c 7047     		bx	lr
 180              	.L28:
 181 003e 0220     		movs	r0, #2
 182 0040 7047     		bx	lr
 183              	.L30:
 184 0042 00BF     		.align	2
 185              	.L29:
 186 0044 006C0040 		.word	1073769472
 188              		.section	.text.HAL_RTCEx_Tamper1EventCallback,"ax",%progbits
 189              		.align	1
 190              		.weak	HAL_RTCEx_Tamper1EventCallback
 191              		.syntax unified
 192              		.thumb
 193              		.thumb_func
 194              		.fpu softvfp
 196              	HAL_RTCEx_Tamper1EventCallback:
 197              		@ args = 0, pretend = 0, frame = 0
 198              		@ frame_needed = 0, uses_anonymous_args = 0
 199              		@ link register save eliminated.
 200 0000 7047     		bx	lr
 202              		.section	.text.HAL_RTCEx_TamperIRQHandler,"ax",%progbits
 203              		.align	1
 204              		.global	HAL_RTCEx_TamperIRQHandler
 205              		.syntax unified
 206              		.thumb
 207              		.thumb_func
 208              		.fpu softvfp
 210              	HAL_RTCEx_TamperIRQHandler:
 211              		@ args = 0, pretend = 0, frame = 0
 212              		@ frame_needed = 0, uses_anonymous_args = 0
 213 0000 10B5     		push	{r4, lr}
 214 0002 0446     		mov	r4, r0
 215 0004 0A4B     		ldr	r3, .L36
 216 0006 5B6B     		ldr	r3, [r3, #52]
 217 0008 13F0040F 		tst	r3, #4
 218 000c 04D0     		beq	.L33
 219 000e 084B     		ldr	r3, .L36
 220 0010 5B6B     		ldr	r3, [r3, #52]
 221 0012 13F4807F 		tst	r3, #256
 222 0016 02D1     		bne	.L35
 223              	.L33:
 224 0018 0123     		movs	r3, #1
 225 001a 6374     		strb	r3, [r4, #17]
 226 001c 10BD     		pop	{r4, pc}
 227              	.L35:
 228 001e FFF7FEFF 		bl	HAL_RTCEx_Tamper1EventCallback
 229 0022 034A     		ldr	r2, .L36
 230 0024 536B     		ldr	r3, [r2, #52]
 231 0026 43F00303 		orr	r3, r3, #3
 232 002a 5363     		str	r3, [r2, #52]
 233 002c F4E7     		b	.L33
 234              	.L37:
 235 002e 00BF     		.align	2
 236              	.L36:
 237 0030 006C0040 		.word	1073769472
ARM GAS  /tmp/ccJDpv5s.s 			page 5


 239              		.section	.text.HAL_RTCEx_PollForTamper1Event,"ax",%progbits
 240              		.align	1
 241              		.global	HAL_RTCEx_PollForTamper1Event
 242              		.syntax unified
 243              		.thumb
 244              		.thumb_func
 245              		.fpu softvfp
 247              	HAL_RTCEx_PollForTamper1Event:
 248              		@ args = 0, pretend = 0, frame = 0
 249              		@ frame_needed = 0, uses_anonymous_args = 0
 250 0000 70B5     		push	{r4, r5, r6, lr}
 251 0002 0546     		mov	r5, r0
 252 0004 0C46     		mov	r4, r1
 253 0006 FFF7FEFF 		bl	HAL_GetTick
 254 000a 0646     		mov	r6, r0
 255 000c CDB1     		cbz	r5, .L46
 256              	.L41:
 257 000e 0E4B     		ldr	r3, .L48
 258 0010 5B6B     		ldr	r3, [r3, #52]
 259 0012 13F4807F 		tst	r3, #256
 260 0016 0BD1     		bne	.L47
 261 0018 B4F1FF3F 		cmp	r4, #-1
 262 001c F7D0     		beq	.L41
 263 001e 24B1     		cbz	r4, .L42
 264 0020 FFF7FEFF 		bl	HAL_GetTick
 265 0024 801B     		subs	r0, r0, r6
 266 0026 8442     		cmp	r4, r0
 267 0028 F1D2     		bcs	.L41
 268              	.L42:
 269 002a 0320     		movs	r0, #3
 270 002c 6874     		strb	r0, [r5, #17]
 271 002e 70BD     		pop	{r4, r5, r6, pc}
 272              	.L47:
 273 0030 054A     		ldr	r2, .L48
 274 0032 536B     		ldr	r3, [r2, #52]
 275 0034 43F00303 		orr	r3, r3, #3
 276 0038 5363     		str	r3, [r2, #52]
 277 003a 0123     		movs	r3, #1
 278 003c 6B74     		strb	r3, [r5, #17]
 279 003e 0020     		movs	r0, #0
 280 0040 70BD     		pop	{r4, r5, r6, pc}
 281              	.L46:
 282 0042 0120     		movs	r0, #1
 283 0044 70BD     		pop	{r4, r5, r6, pc}
 284              	.L49:
 285 0046 00BF     		.align	2
 286              	.L48:
 287 0048 006C0040 		.word	1073769472
 289              		.section	.text.HAL_RTCEx_SetSecond_IT,"ax",%progbits
 290              		.align	1
 291              		.global	HAL_RTCEx_SetSecond_IT
 292              		.syntax unified
 293              		.thumb
 294              		.thumb_func
 295              		.fpu softvfp
 297              	HAL_RTCEx_SetSecond_IT:
 298              		@ args = 0, pretend = 0, frame = 0
ARM GAS  /tmp/ccJDpv5s.s 			page 6


 299              		@ frame_needed = 0, uses_anonymous_args = 0
 300              		@ link register save eliminated.
 301 0000 0346     		mov	r3, r0
 302 0002 70B1     		cbz	r0, .L52
 303 0004 027C     		ldrb	r2, [r0, #16]	@ zero_extendqisi2
 304 0006 012A     		cmp	r2, #1
 305 0008 0DD0     		beq	.L53
 306 000a 0121     		movs	r1, #1
 307 000c 0174     		strb	r1, [r0, #16]
 308 000e 0222     		movs	r2, #2
 309 0010 4274     		strb	r2, [r0, #17]
 310 0012 0068     		ldr	r0, [r0]
 311 0014 0268     		ldr	r2, [r0]
 312 0016 0A43     		orrs	r2, r2, r1
 313 0018 0260     		str	r2, [r0]
 314 001a 5974     		strb	r1, [r3, #17]
 315 001c 0020     		movs	r0, #0
 316 001e 1874     		strb	r0, [r3, #16]
 317 0020 7047     		bx	lr
 318              	.L52:
 319 0022 0120     		movs	r0, #1
 320 0024 7047     		bx	lr
 321              	.L53:
 322 0026 0220     		movs	r0, #2
 323 0028 7047     		bx	lr
 325              		.section	.text.HAL_RTCEx_DeactivateSecond,"ax",%progbits
 326              		.align	1
 327              		.global	HAL_RTCEx_DeactivateSecond
 328              		.syntax unified
 329              		.thumb
 330              		.thumb_func
 331              		.fpu softvfp
 333              	HAL_RTCEx_DeactivateSecond:
 334              		@ args = 0, pretend = 0, frame = 0
 335              		@ frame_needed = 0, uses_anonymous_args = 0
 336              		@ link register save eliminated.
 337 0000 0346     		mov	r3, r0
 338 0002 78B1     		cbz	r0, .L56
 339 0004 027C     		ldrb	r2, [r0, #16]	@ zero_extendqisi2
 340 0006 012A     		cmp	r2, #1
 341 0008 0ED0     		beq	.L57
 342 000a 0121     		movs	r1, #1
 343 000c 0174     		strb	r1, [r0, #16]
 344 000e 0222     		movs	r2, #2
 345 0010 4274     		strb	r2, [r0, #17]
 346 0012 0068     		ldr	r0, [r0]
 347 0014 0268     		ldr	r2, [r0]
 348 0016 22F00102 		bic	r2, r2, #1
 349 001a 0260     		str	r2, [r0]
 350 001c 5974     		strb	r1, [r3, #17]
 351 001e 0020     		movs	r0, #0
 352 0020 1874     		strb	r0, [r3, #16]
 353 0022 7047     		bx	lr
 354              	.L56:
 355 0024 0120     		movs	r0, #1
 356 0026 7047     		bx	lr
 357              	.L57:
ARM GAS  /tmp/ccJDpv5s.s 			page 7


 358 0028 0220     		movs	r0, #2
 359 002a 7047     		bx	lr
 361              		.section	.text.HAL_RTCEx_RTCEventCallback,"ax",%progbits
 362              		.align	1
 363              		.weak	HAL_RTCEx_RTCEventCallback
 364              		.syntax unified
 365              		.thumb
 366              		.thumb_func
 367              		.fpu softvfp
 369              	HAL_RTCEx_RTCEventCallback:
 370              		@ args = 0, pretend = 0, frame = 0
 371              		@ frame_needed = 0, uses_anonymous_args = 0
 372              		@ link register save eliminated.
 373 0000 7047     		bx	lr
 375              		.section	.text.HAL_RTCEx_RTCEventErrorCallback,"ax",%progbits
 376              		.align	1
 377              		.weak	HAL_RTCEx_RTCEventErrorCallback
 378              		.syntax unified
 379              		.thumb
 380              		.thumb_func
 381              		.fpu softvfp
 383              	HAL_RTCEx_RTCEventErrorCallback:
 384              		@ args = 0, pretend = 0, frame = 0
 385              		@ frame_needed = 0, uses_anonymous_args = 0
 386              		@ link register save eliminated.
 387 0000 7047     		bx	lr
 389              		.section	.text.HAL_RTCEx_RTCIRQHandler,"ax",%progbits
 390              		.align	1
 391              		.global	HAL_RTCEx_RTCIRQHandler
 392              		.syntax unified
 393              		.thumb
 394              		.thumb_func
 395              		.fpu softvfp
 397              	HAL_RTCEx_RTCIRQHandler:
 398              		@ args = 0, pretend = 0, frame = 0
 399              		@ frame_needed = 0, uses_anonymous_args = 0
 400 0000 0368     		ldr	r3, [r0]
 401 0002 1A68     		ldr	r2, [r3]
 402 0004 12F0010F 		tst	r2, #1
 403 0008 1BD0     		beq	.L65
 404 000a 5A68     		ldr	r2, [r3, #4]
 405 000c 12F0010F 		tst	r2, #1
 406 0010 17D0     		beq	.L65
 407 0012 10B5     		push	{r4, lr}
 408 0014 0446     		mov	r4, r0
 409 0016 5B68     		ldr	r3, [r3, #4]
 410 0018 13F0040F 		tst	r3, #4
 411 001c 0CD0     		beq	.L62
 412 001e FFF7FEFF 		bl	HAL_RTCEx_RTCEventErrorCallback
 413 0022 2368     		ldr	r3, [r4]
 414 0024 6FF00402 		mvn	r2, #4
 415 0028 5A60     		str	r2, [r3, #4]
 416 002a 0423     		movs	r3, #4
 417 002c 6374     		strb	r3, [r4, #17]
 418              	.L63:
 419 002e 2368     		ldr	r3, [r4]
 420 0030 6FF00102 		mvn	r2, #1
ARM GAS  /tmp/ccJDpv5s.s 			page 8


 421 0034 5A60     		str	r2, [r3, #4]
 422 0036 10BD     		pop	{r4, pc}
 423              	.L62:
 424 0038 FFF7FEFF 		bl	HAL_RTCEx_RTCEventCallback
 425 003c 0123     		movs	r3, #1
 426 003e 6374     		strb	r3, [r4, #17]
 427 0040 F5E7     		b	.L63
 428              	.L65:
 429 0042 7047     		bx	lr
 431              		.section	.text.HAL_RTCEx_BKUPWrite,"ax",%progbits
 432              		.align	1
 433              		.global	HAL_RTCEx_BKUPWrite
 434              		.syntax unified
 435              		.thumb
 436              		.thumb_func
 437              		.fpu softvfp
 439              	HAL_RTCEx_BKUPWrite:
 440              		@ args = 0, pretend = 0, frame = 0
 441              		@ frame_needed = 0, uses_anonymous_args = 0
 442              		@ link register save eliminated.
 443 0000 8900     		lsls	r1, r1, #2
 444 0002 01F18041 		add	r1, r1, #1073741824
 445 0006 01F5D841 		add	r1, r1, #27648
 446 000a 92B2     		uxth	r2, r2
 447 000c 0A60     		str	r2, [r1]
 448 000e 7047     		bx	lr
 450              		.section	.text.HAL_RTCEx_BKUPRead,"ax",%progbits
 451              		.align	1
 452              		.global	HAL_RTCEx_BKUPRead
 453              		.syntax unified
 454              		.thumb
 455              		.thumb_func
 456              		.fpu softvfp
 458              	HAL_RTCEx_BKUPRead:
 459              		@ args = 0, pretend = 0, frame = 0
 460              		@ frame_needed = 0, uses_anonymous_args = 0
 461              		@ link register save eliminated.
 462 0000 8900     		lsls	r1, r1, #2
 463 0002 01F18041 		add	r1, r1, #1073741824
 464 0006 01F5D841 		add	r1, r1, #27648
 465 000a 0868     		ldr	r0, [r1]
 466 000c 80B2     		uxth	r0, r0
 467 000e 7047     		bx	lr
 469              		.section	.text.HAL_RTCEx_SetSmoothCalib,"ax",%progbits
 470              		.align	1
 471              		.global	HAL_RTCEx_SetSmoothCalib
 472              		.syntax unified
 473              		.thumb
 474              		.thumb_func
 475              		.fpu softvfp
 477              	HAL_RTCEx_SetSmoothCalib:
 478              		@ args = 0, pretend = 0, frame = 0
 479              		@ frame_needed = 0, uses_anonymous_args = 0
 480              		@ link register save eliminated.
 481 0000 98B1     		cbz	r0, .L72
 482 0002 0246     		mov	r2, r0
 483 0004 017C     		ldrb	r1, [r0, #16]	@ zero_extendqisi2
ARM GAS  /tmp/ccJDpv5s.s 			page 9


 484 0006 0129     		cmp	r1, #1
 485 0008 11D0     		beq	.L73
 486 000a 10B4     		push	{r4}
 487 000c 0120     		movs	r0, #1
 488 000e 1074     		strb	r0, [r2, #16]
 489 0010 0221     		movs	r1, #2
 490 0012 5174     		strb	r1, [r2, #17]
 491 0014 074C     		ldr	r4, .L78
 492 0016 E16A     		ldr	r1, [r4, #44]
 493 0018 21F07F01 		bic	r1, r1, #127
 494 001c 0B43     		orrs	r3, r3, r1
 495 001e E362     		str	r3, [r4, #44]
 496 0020 5074     		strb	r0, [r2, #17]
 497 0022 0020     		movs	r0, #0
 498 0024 1074     		strb	r0, [r2, #16]
 499 0026 10BC     		pop	{r4}
 500 0028 7047     		bx	lr
 501              	.L72:
 502 002a 0120     		movs	r0, #1
 503 002c 7047     		bx	lr
 504              	.L73:
 505 002e 0220     		movs	r0, #2
 506 0030 7047     		bx	lr
 507              	.L79:
 508 0032 00BF     		.align	2
 509              	.L78:
 510 0034 006C0040 		.word	1073769472
 512              		.ident	"GCC: (15:6.3.1+svn253039-1build1) 6.3.1 20170620"
ARM GAS  /tmp/ccJDpv5s.s 			page 10

