ARM GAS  /tmp/ccnCBS2w.s 			page 1


   1              		.cpu cortex-m3
   2              		.eabi_attribute 20, 1	@ Tag_ABI_FP_denormal
   3              		.eabi_attribute 21, 1	@ Tag_ABI_FP_exceptions
   4              		.eabi_attribute 23, 3	@ Tag_ABI_FP_number_model
   5              		.eabi_attribute 24, 1	@ Tag_ABI_align8_needed
   6              		.eabi_attribute 25, 1	@ Tag_ABI_align8_preserved
   7              		.eabi_attribute 26, 1	@ Tag_ABI_enum_size
   8              		.eabi_attribute 30, 4	@ Tag_ABI_optimization_goals
   9              		.eabi_attribute 34, 1	@ Tag_CPU_unaligned_access
  10              		.eabi_attribute 18, 4	@ Tag_ABI_PCS_wchar_t
  11              		.file	"stm32f1xx_hal_iwdg.c"
  12              	@ GNU C11 (15:6.3.1+svn253039-1build1) version 6.3.1 20170620 (arm-none-eabi)
  13              	@	compiled by GNU C version 7.2.0, GMP version 6.1.2, MPFR version 4.0.1-rc1, MPC version 1.1.0, is
  14              	@ warning: MPFR header version 4.0.1-rc1 differs from library version 4.0.1.
  15              	@ GGC heuristics: --param ggc-min-expand=100 --param ggc-min-heapsize=131072
  16              	@ options passed:  -I ./inc -I ./inc/Legacy -I ../cmsisstm32f1xx/inc
  17              	@ -I ../cmsiscore/inc -imultilib thumb/v7-m -D__USES_INITFINI__
  18              	@ -D STM32F103x6 -D RUN_FROM_FLASH=1 -D __c src/stm32f1xx_hal_iwdg.c
  19              	@ -mcpu=cortex-m3 -mthumb -auxbase-strip bin/stm32f1xx_hal_iwdg.o -g
  20              	@ -gdwarf-2 -Os -Wall -fomit-frame-pointer -fverbose-asm
  21              	@ options enabled:  -faggressive-loop-optimizations -falign-jumps
  22              	@ -falign-labels -falign-loops -fauto-inc-dec -fbranch-count-reg
  23              	@ -fcaller-saves -fchkp-check-incomplete-type -fchkp-check-read
  24              	@ -fchkp-check-write -fchkp-instrument-calls -fchkp-narrow-bounds
  25              	@ -fchkp-optimize -fchkp-store-bounds -fchkp-use-static-bounds
  26              	@ -fchkp-use-static-const-bounds -fchkp-use-wrappers
  27              	@ -fcombine-stack-adjustments -fcommon -fcompare-elim -fcprop-registers
  28              	@ -fcrossjumping -fcse-follow-jumps -fdefer-pop
  29              	@ -fdelete-null-pointer-checks -fdevirtualize -fdevirtualize-speculatively
  30              	@ -fdwarf2-cfi-asm -fearly-inlining -feliminate-unused-debug-types
  31              	@ -fexpensive-optimizations -fforward-propagate -ffunction-cse -fgcse
  32              	@ -fgcse-lm -fgnu-runtime -fgnu-unique -fguess-branch-probability
  33              	@ -fhoist-adjacent-loads -fident -fif-conversion -fif-conversion2
  34              	@ -findirect-inlining -finline -finline-atomics -finline-functions
  35              	@ -finline-functions-called-once -finline-small-functions -fipa-cp
  36              	@ -fipa-cp-alignment -fipa-icf -fipa-icf-functions -fipa-icf-variables
  37              	@ -fipa-profile -fipa-pure-const -fipa-ra -fipa-reference -fipa-sra
  38              	@ -fira-hoist-pressure -fira-share-save-slots -fira-share-spill-slots
  39              	@ -fisolate-erroneous-paths-dereference -fivopts -fkeep-static-consts
  40              	@ -fleading-underscore -flifetime-dse -flra-remat -flto-odr-type-merging
  41              	@ -fmath-errno -fmerge-constants -fmerge-debug-strings
  42              	@ -fmove-loop-invariants -fomit-frame-pointer -foptimize-sibling-calls
  43              	@ -fpartial-inlining -fpeephole -fpeephole2 -fplt -fprefetch-loop-arrays
  44              	@ -freg-struct-return -freorder-blocks -freorder-functions
  45              	@ -frerun-cse-after-loop -fsched-critical-path-heuristic
  46              	@ -fsched-dep-count-heuristic -fsched-group-heuristic -fsched-interblock
  47              	@ -fsched-last-insn-heuristic -fsched-pressure -fsched-rank-heuristic
  48              	@ -fsched-spec -fsched-spec-insn-heuristic -fsched-stalled-insns-dep
  49              	@ -fschedule-insns2 -fsection-anchors -fsemantic-interposition
  50              	@ -fshow-column -fsigned-zeros -fsplit-ivs-in-unroller -fsplit-wide-types
  51              	@ -fssa-backprop -fssa-phiopt -fstdarg-opt -fstrict-aliasing
  52              	@ -fstrict-overflow -fstrict-volatile-bitfields -fsync-libcalls
  53              	@ -fthread-jumps -ftoplevel-reorder -ftrapping-math -ftree-bit-ccp
  54              	@ -ftree-builtin-call-dce -ftree-ccp -ftree-ch -ftree-coalesce-vars
  55              	@ -ftree-copy-prop -ftree-cselim -ftree-dce -ftree-dominator-opts
  56              	@ -ftree-dse -ftree-forwprop -ftree-fre -ftree-loop-if-convert
  57              	@ -ftree-loop-im -ftree-loop-ivcanon -ftree-loop-optimize
ARM GAS  /tmp/ccnCBS2w.s 			page 2


  58              	@ -ftree-parallelize-loops= -ftree-phiprop -ftree-pre -ftree-pta
  59              	@ -ftree-reassoc -ftree-scev-cprop -ftree-sink -ftree-slsr -ftree-sra
  60              	@ -ftree-switch-conversion -ftree-tail-merge -ftree-ter -ftree-vrp
  61              	@ -funit-at-a-time -fvar-tracking -fvar-tracking-assignments -fverbose-asm
  62              	@ -fzero-initialized-in-bss -masm-syntax-unified -mfix-cortex-m3-ldrd
  63              	@ -mlittle-endian -mpic-data-is-text-relative -msched-prolog -mthumb
  64              	@ -munaligned-access -mvectorize-with-neon-quad
  65              	
  66              		.text
  67              	.Ltext0:
  68              		.cfi_sections	.debug_frame
  69              		.align	1
  70              		.global	HAL_IWDG_Init
  71              		.syntax unified
  72              		.thumb
  73              		.thumb_func
  74              		.fpu softvfp
  75              		.type	HAL_IWDG_Init, %function
  76              	HAL_IWDG_Init:
  77              	.LFB65:
  78              		.file 1 "src/stm32f1xx_hal_iwdg.c"
   1:src/stm32f1xx_hal_iwdg.c **** /**
   2:src/stm32f1xx_hal_iwdg.c ****   ******************************************************************************
   3:src/stm32f1xx_hal_iwdg.c ****   * @file    stm32f1xx_hal_iwdg.c
   4:src/stm32f1xx_hal_iwdg.c ****   * @author  MCD Application Team
   5:src/stm32f1xx_hal_iwdg.c ****   * @brief   IWDG HAL module driver.
   6:src/stm32f1xx_hal_iwdg.c ****   *          This file provides firmware functions to manage the following
   7:src/stm32f1xx_hal_iwdg.c ****   *          functionalities of the Independent Watchdog (IWDG) peripheral:
   8:src/stm32f1xx_hal_iwdg.c ****   *           + Initialization and Start functions
   9:src/stm32f1xx_hal_iwdg.c ****   *           + IO operation functions
  10:src/stm32f1xx_hal_iwdg.c ****   *
  11:src/stm32f1xx_hal_iwdg.c ****   @verbatim
  12:src/stm32f1xx_hal_iwdg.c ****   ==============================================================================
  13:src/stm32f1xx_hal_iwdg.c ****                     ##### IWDG Generic features #####
  14:src/stm32f1xx_hal_iwdg.c ****   ==============================================================================
  15:src/stm32f1xx_hal_iwdg.c ****   [..]
  16:src/stm32f1xx_hal_iwdg.c ****     (+) The IWDG can be started by either software or hardware (configurable
  17:src/stm32f1xx_hal_iwdg.c ****         through option byte).
  18:src/stm32f1xx_hal_iwdg.c **** 
  19:src/stm32f1xx_hal_iwdg.c ****     (+) The IWDG is clocked by Low-Speed clock (LSI) and thus stays active even
  20:src/stm32f1xx_hal_iwdg.c ****         if the main clock fails.
  21:src/stm32f1xx_hal_iwdg.c **** 
  22:src/stm32f1xx_hal_iwdg.c ****     (+) Once the IWDG is started, the LSI is forced ON and both can not be
  23:src/stm32f1xx_hal_iwdg.c ****         disabled. The counter starts counting down from the reset value (0xFFF).
  24:src/stm32f1xx_hal_iwdg.c ****         When it reaches the end of count value (0x000) a reset signal is
  25:src/stm32f1xx_hal_iwdg.c ****         generated (IWDG reset).
  26:src/stm32f1xx_hal_iwdg.c **** 
  27:src/stm32f1xx_hal_iwdg.c ****     (+) Whenever the key value 0x0000 AAAA is written in the IWDG_KR register,
  28:src/stm32f1xx_hal_iwdg.c ****         the IWDG_RLR value is reloaded in the counter and the watchdog reset is
  29:src/stm32f1xx_hal_iwdg.c ****         prevented.
  30:src/stm32f1xx_hal_iwdg.c **** 
  31:src/stm32f1xx_hal_iwdg.c ****     (+) The IWDG is implemented in the VDD voltage domain that is still functional
  32:src/stm32f1xx_hal_iwdg.c ****         in STOP and STANDBY mode (IWDG reset can wake-up from STANDBY).
  33:src/stm32f1xx_hal_iwdg.c ****         IWDGRST flag in RCC_CSR register can be used to inform when an IWDG
  34:src/stm32f1xx_hal_iwdg.c ****         reset occurs.
  35:src/stm32f1xx_hal_iwdg.c **** 
  36:src/stm32f1xx_hal_iwdg.c ****     (+) Debug mode : When the microcontroller enters debug mode (core halted),
ARM GAS  /tmp/ccnCBS2w.s 			page 3


  37:src/stm32f1xx_hal_iwdg.c ****         the IWDG counter either continues to work normally or stops, depending
  38:src/stm32f1xx_hal_iwdg.c ****         on DBG_IWDG_STOP configuration bit in DBG module, accessible through
  39:src/stm32f1xx_hal_iwdg.c ****         __HAL_DBGMCU_FREEZE_IWDG() and __HAL_DBGMCU_UNFREEZE_IWDG() macros
  40:src/stm32f1xx_hal_iwdg.c **** 
  41:src/stm32f1xx_hal_iwdg.c ****     [..] Min-max timeout value @32KHz (LSI): ~125us / ~32.7s
  42:src/stm32f1xx_hal_iwdg.c ****          The IWDG timeout may vary due to LSI frequency dispersion. STM32F1xx
  43:src/stm32f1xx_hal_iwdg.c ****          devices provide the capability to measure the LSI frequency (LSI clock
  44:src/stm32f1xx_hal_iwdg.c ****          connected internally to TIM5 CH4 input capture). The measured value
  45:src/stm32f1xx_hal_iwdg.c ****          can be used to have an IWDG timeout with an acceptable accuracy.
  46:src/stm32f1xx_hal_iwdg.c **** 
  47:src/stm32f1xx_hal_iwdg.c ****                      ##### How to use this driver #####
  48:src/stm32f1xx_hal_iwdg.c ****   ==============================================================================
  49:src/stm32f1xx_hal_iwdg.c ****   [..]
  50:src/stm32f1xx_hal_iwdg.c ****     (#) Use IWDG using HAL_IWDG_Init() function to :
  51:src/stm32f1xx_hal_iwdg.c ****       (++) Enable instance by writing Start keyword in IWDG_KEY register. LSI
  52:src/stm32f1xx_hal_iwdg.c ****            clock is forced ON and IWDG counter starts downcounting.
  53:src/stm32f1xx_hal_iwdg.c ****       (++) Enable write access to configuration register: IWDG_PR & IWDG_RLR.
  54:src/stm32f1xx_hal_iwdg.c ****       (++) Configure the IWDG prescaler and counter reload value. This reload
  55:src/stm32f1xx_hal_iwdg.c ****            value will be loaded in the IWDG counter each time the watchdog is
  56:src/stm32f1xx_hal_iwdg.c ****            reloaded, then the IWDG will start counting down from this value.
  57:src/stm32f1xx_hal_iwdg.c ****       (++) wait for status flags to be reset"
  58:src/stm32f1xx_hal_iwdg.c **** 
  59:src/stm32f1xx_hal_iwdg.c ****     (#) Then the application program must refresh the IWDG counter at regular
  60:src/stm32f1xx_hal_iwdg.c ****         intervals during normal operation to prevent an MCU reset, using
  61:src/stm32f1xx_hal_iwdg.c ****         HAL_IWDG_Refresh() function.
  62:src/stm32f1xx_hal_iwdg.c **** 
  63:src/stm32f1xx_hal_iwdg.c ****      *** IWDG HAL driver macros list ***
  64:src/stm32f1xx_hal_iwdg.c ****      ====================================
  65:src/stm32f1xx_hal_iwdg.c ****      [..]
  66:src/stm32f1xx_hal_iwdg.c ****        Below the list of most used macros in IWDG HAL driver:
  67:src/stm32f1xx_hal_iwdg.c ****       (+) __HAL_IWDG_START: Enable the IWDG peripheral
  68:src/stm32f1xx_hal_iwdg.c ****       (+) __HAL_IWDG_RELOAD_COUNTER: Reloads IWDG counter with value defined in
  69:src/stm32f1xx_hal_iwdg.c ****           the reload register
  70:src/stm32f1xx_hal_iwdg.c **** 
  71:src/stm32f1xx_hal_iwdg.c ****   @endverbatim
  72:src/stm32f1xx_hal_iwdg.c ****   ******************************************************************************
  73:src/stm32f1xx_hal_iwdg.c ****   * @attention
  74:src/stm32f1xx_hal_iwdg.c ****   *
  75:src/stm32f1xx_hal_iwdg.c ****   * <h2><center>&copy; Copyright (c) 2016 STMicroelectronics.
  76:src/stm32f1xx_hal_iwdg.c ****   * All rights reserved.</center></h2>
  77:src/stm32f1xx_hal_iwdg.c ****   *
  78:src/stm32f1xx_hal_iwdg.c ****   * This software component is licensed by ST under BSD 3-Clause license,
  79:src/stm32f1xx_hal_iwdg.c ****   * the "License"; You may not use this file except in compliance with the
  80:src/stm32f1xx_hal_iwdg.c ****   * License. You may obtain a copy of the License at:
  81:src/stm32f1xx_hal_iwdg.c ****   *                        opensource.org/licenses/BSD-3-Clause
  82:src/stm32f1xx_hal_iwdg.c ****   *
  83:src/stm32f1xx_hal_iwdg.c ****   ******************************************************************************
  84:src/stm32f1xx_hal_iwdg.c ****   */
  85:src/stm32f1xx_hal_iwdg.c **** 
  86:src/stm32f1xx_hal_iwdg.c **** /* Includes ------------------------------------------------------------------*/
  87:src/stm32f1xx_hal_iwdg.c **** #include "stm32f1xx_hal.h"
  88:src/stm32f1xx_hal_iwdg.c **** 
  89:src/stm32f1xx_hal_iwdg.c **** /** @addtogroup STM32F1xx_HAL_Driver
  90:src/stm32f1xx_hal_iwdg.c ****   * @{
  91:src/stm32f1xx_hal_iwdg.c ****   */
  92:src/stm32f1xx_hal_iwdg.c **** 
  93:src/stm32f1xx_hal_iwdg.c **** #ifdef HAL_IWDG_MODULE_ENABLED
ARM GAS  /tmp/ccnCBS2w.s 			page 4


  94:src/stm32f1xx_hal_iwdg.c **** /** @defgroup IWDG IWDG
  95:src/stm32f1xx_hal_iwdg.c ****   * @brief IWDG HAL module driver.
  96:src/stm32f1xx_hal_iwdg.c ****   * @{
  97:src/stm32f1xx_hal_iwdg.c ****   */
  98:src/stm32f1xx_hal_iwdg.c **** 
  99:src/stm32f1xx_hal_iwdg.c **** /* Private typedef -----------------------------------------------------------*/
 100:src/stm32f1xx_hal_iwdg.c **** /* Private define ------------------------------------------------------------*/
 101:src/stm32f1xx_hal_iwdg.c **** /** @defgroup IWDG_Private_Defines IWDG Private Defines
 102:src/stm32f1xx_hal_iwdg.c ****   * @{
 103:src/stm32f1xx_hal_iwdg.c ****   */
 104:src/stm32f1xx_hal_iwdg.c **** /* Status register need 5 RC LSI divided by prescaler clock to be updated. With
 105:src/stm32f1xx_hal_iwdg.c ****    higher prescaler (256), and according to HSI variation, we need to wait at
 106:src/stm32f1xx_hal_iwdg.c ****    least 6 cycles so 48 ms. */
 107:src/stm32f1xx_hal_iwdg.c **** #define HAL_IWDG_DEFAULT_TIMEOUT            48U
 108:src/stm32f1xx_hal_iwdg.c **** /**
 109:src/stm32f1xx_hal_iwdg.c ****   * @}
 110:src/stm32f1xx_hal_iwdg.c ****   */
 111:src/stm32f1xx_hal_iwdg.c **** 
 112:src/stm32f1xx_hal_iwdg.c **** /* Private macro -------------------------------------------------------------*/
 113:src/stm32f1xx_hal_iwdg.c **** /* Private variables ---------------------------------------------------------*/
 114:src/stm32f1xx_hal_iwdg.c **** /* Private function prototypes -----------------------------------------------*/
 115:src/stm32f1xx_hal_iwdg.c **** /* Exported functions --------------------------------------------------------*/
 116:src/stm32f1xx_hal_iwdg.c **** 
 117:src/stm32f1xx_hal_iwdg.c **** /** @addtogroup IWDG_Exported_Functions
 118:src/stm32f1xx_hal_iwdg.c ****   * @{
 119:src/stm32f1xx_hal_iwdg.c ****   */
 120:src/stm32f1xx_hal_iwdg.c **** 
 121:src/stm32f1xx_hal_iwdg.c **** /** @addtogroup IWDG_Exported_Functions_Group1
 122:src/stm32f1xx_hal_iwdg.c ****   *  @brief    Initialization and Start functions.
 123:src/stm32f1xx_hal_iwdg.c ****   *
 124:src/stm32f1xx_hal_iwdg.c **** @verbatim
 125:src/stm32f1xx_hal_iwdg.c ****  ===============================================================================
 126:src/stm32f1xx_hal_iwdg.c ****           ##### Initialization and Start functions #####
 127:src/stm32f1xx_hal_iwdg.c ****  ===============================================================================
 128:src/stm32f1xx_hal_iwdg.c ****  [..]  This section provides functions allowing to:
 129:src/stm32f1xx_hal_iwdg.c ****       (+) Initialize the IWDG according to the specified parameters in the
 130:src/stm32f1xx_hal_iwdg.c ****           IWDG_InitTypeDef of associated handle.
 131:src/stm32f1xx_hal_iwdg.c ****       (+) Once initialization is performed in HAL_IWDG_Init function, Watchdog
 132:src/stm32f1xx_hal_iwdg.c ****           is reloaded in order to exit function with correct time base.
 133:src/stm32f1xx_hal_iwdg.c **** 
 134:src/stm32f1xx_hal_iwdg.c **** @endverbatim
 135:src/stm32f1xx_hal_iwdg.c ****   * @{
 136:src/stm32f1xx_hal_iwdg.c ****   */
 137:src/stm32f1xx_hal_iwdg.c **** 
 138:src/stm32f1xx_hal_iwdg.c **** /**
 139:src/stm32f1xx_hal_iwdg.c ****   * @brief  Initialize the IWDG according to the specified parameters in the
 140:src/stm32f1xx_hal_iwdg.c ****   *         IWDG_InitTypeDef and start watchdog. Before exiting function,
 141:src/stm32f1xx_hal_iwdg.c ****   *         watchdog is refreshed in order to have correct time base.
 142:src/stm32f1xx_hal_iwdg.c ****   * @param  hiwdg  pointer to a IWDG_HandleTypeDef structure that contains
 143:src/stm32f1xx_hal_iwdg.c ****   *                the configuration information for the specified IWDG module.
 144:src/stm32f1xx_hal_iwdg.c ****   * @retval HAL status
 145:src/stm32f1xx_hal_iwdg.c ****   */
 146:src/stm32f1xx_hal_iwdg.c **** HAL_StatusTypeDef HAL_IWDG_Init(IWDG_HandleTypeDef *hiwdg)
 147:src/stm32f1xx_hal_iwdg.c **** {
  79              		.loc 1 147 0
  80              		.cfi_startproc
  81              		@ args = 0, pretend = 0, frame = 0
ARM GAS  /tmp/ccnCBS2w.s 			page 5


  82              		@ frame_needed = 0, uses_anonymous_args = 0
  83              	.LVL0:
  84 0000 38B5     		push	{r3, r4, r5, lr}	@
  85              	.LCFI0:
  86              		.cfi_def_cfa_offset 16
  87              		.cfi_offset 3, -16
  88              		.cfi_offset 4, -12
  89              		.cfi_offset 5, -8
  90              		.cfi_offset 14, -4
 148:src/stm32f1xx_hal_iwdg.c ****   uint32_t tickstart;
 149:src/stm32f1xx_hal_iwdg.c **** 
 150:src/stm32f1xx_hal_iwdg.c ****   /* Check the IWDG handle allocation */
 151:src/stm32f1xx_hal_iwdg.c ****   if (hiwdg == NULL)
  91              		.loc 1 151 0
  92 0002 0446     		mov	r4, r0	@ hiwdg, hiwdg
  93 0004 D8B1     		cbz	r0, .L5	@ hiwdg,
 152:src/stm32f1xx_hal_iwdg.c ****   {
 153:src/stm32f1xx_hal_iwdg.c ****     return HAL_ERROR;
 154:src/stm32f1xx_hal_iwdg.c ****   }
 155:src/stm32f1xx_hal_iwdg.c **** 
 156:src/stm32f1xx_hal_iwdg.c ****   /* Check the parameters */
 157:src/stm32f1xx_hal_iwdg.c ****   assert_param(IS_IWDG_ALL_INSTANCE(hiwdg->Instance));
 158:src/stm32f1xx_hal_iwdg.c ****   assert_param(IS_IWDG_PRESCALER(hiwdg->Init.Prescaler));
 159:src/stm32f1xx_hal_iwdg.c ****   assert_param(IS_IWDG_RELOAD(hiwdg->Init.Reload));
 160:src/stm32f1xx_hal_iwdg.c **** 
 161:src/stm32f1xx_hal_iwdg.c ****   /* Enable IWDG. LSI is turned on automaticaly */
 162:src/stm32f1xx_hal_iwdg.c ****   __HAL_IWDG_START(hiwdg);
  94              		.loc 1 162 0
  95 0006 4CF6CC42 		movw	r2, #52428	@ tmp120,
  96 000a 0368     		ldr	r3, [r0]	@ _6, hiwdg_4(D)->Instance
  97 000c 1A60     		str	r2, [r3]	@ tmp120, _6->KR
 163:src/stm32f1xx_hal_iwdg.c **** 
 164:src/stm32f1xx_hal_iwdg.c ****   /* Enable write access to IWDG_PR and IWDG_RLR registers by writing 0x5555 in KR */
 165:src/stm32f1xx_hal_iwdg.c ****   IWDG_ENABLE_WRITE_ACCESS(hiwdg);
  98              		.loc 1 165 0
  99 000e 45F25552 		movw	r2, #21845	@ tmp121,
 100 0012 1A60     		str	r2, [r3]	@ tmp121, _6->KR
 166:src/stm32f1xx_hal_iwdg.c **** 
 167:src/stm32f1xx_hal_iwdg.c ****   /* Write to IWDG registers the Prescaler & Reload values to work with */
 168:src/stm32f1xx_hal_iwdg.c ****   hiwdg->Instance->PR = hiwdg->Init.Prescaler;
 101              		.loc 1 168 0
 102 0014 4268     		ldr	r2, [r0, #4]	@ _9, hiwdg_4(D)->Init.Prescaler
 103 0016 5A60     		str	r2, [r3, #4]	@ _9, _6->PR
 169:src/stm32f1xx_hal_iwdg.c ****   hiwdg->Instance->RLR = hiwdg->Init.Reload;
 104              		.loc 1 169 0
 105 0018 8268     		ldr	r2, [r0, #8]	@ _11, hiwdg_4(D)->Init.Reload
 106 001a 9A60     		str	r2, [r3, #8]	@ _11, _6->RLR
 170:src/stm32f1xx_hal_iwdg.c **** 
 171:src/stm32f1xx_hal_iwdg.c ****   /* Check pending flag, if previous update not done, return timeout */
 172:src/stm32f1xx_hal_iwdg.c ****   tickstart = HAL_GetTick();
 107              		.loc 1 172 0
 108 001c FFF7FEFF 		bl	HAL_GetTick	@
 109              	.LVL1:
 110 0020 0546     		mov	r5, r0	@ tickstart,
 111              	.LVL2:
 112              	.L3:
 173:src/stm32f1xx_hal_iwdg.c **** 
ARM GAS  /tmp/ccnCBS2w.s 			page 6


 174:src/stm32f1xx_hal_iwdg.c ****   /* Wait for register to be updated */
 175:src/stm32f1xx_hal_iwdg.c ****   while (hiwdg->Instance->SR != RESET)
 113              		.loc 1 175 0
 114 0022 2368     		ldr	r3, [r4]	@ _15, hiwdg_4(D)->Instance
 115 0024 D868     		ldr	r0, [r3, #12]	@ _16, _15->SR
 116 0026 18B9     		cbnz	r0, .L4	@ _16,
 176:src/stm32f1xx_hal_iwdg.c ****   {
 177:src/stm32f1xx_hal_iwdg.c ****     if ((HAL_GetTick() - tickstart) > HAL_IWDG_DEFAULT_TIMEOUT)
 178:src/stm32f1xx_hal_iwdg.c ****     {
 179:src/stm32f1xx_hal_iwdg.c ****       return HAL_TIMEOUT;
 180:src/stm32f1xx_hal_iwdg.c ****     }
 181:src/stm32f1xx_hal_iwdg.c ****   }
 182:src/stm32f1xx_hal_iwdg.c **** 
 183:src/stm32f1xx_hal_iwdg.c ****   /* Reload IWDG counter with value defined in the reload register */
 184:src/stm32f1xx_hal_iwdg.c ****   __HAL_IWDG_RELOAD_COUNTER(hiwdg);
 117              		.loc 1 184 0
 118 0028 4AF6AA22 		movw	r2, #43690	@ tmp123,
 119 002c 1A60     		str	r2, [r3]	@ tmp123, _15->KR
 185:src/stm32f1xx_hal_iwdg.c **** 
 186:src/stm32f1xx_hal_iwdg.c ****   /* Return function status */
 187:src/stm32f1xx_hal_iwdg.c ****   return HAL_OK;
 120              		.loc 1 187 0
 121 002e 38BD     		pop	{r3, r4, r5, pc}	@
 122              	.LVL3:
 123              	.L4:
 177:src/stm32f1xx_hal_iwdg.c ****     {
 124              		.loc 1 177 0
 125 0030 FFF7FEFF 		bl	HAL_GetTick	@
 126              	.LVL4:
 127 0034 401B     		subs	r0, r0, r5	@ tmp122,, tickstart
 128 0036 3028     		cmp	r0, #48	@ tmp122,
 129 0038 F3D9     		bls	.L3	@,
 179:src/stm32f1xx_hal_iwdg.c ****     }
 130              		.loc 1 179 0
 131 003a 0320     		movs	r0, #3	@ <retval>,
 188:src/stm32f1xx_hal_iwdg.c **** }
 132              		.loc 1 188 0
 133 003c 38BD     		pop	{r3, r4, r5, pc}	@
 134              	.LVL5:
 135              	.L5:
 153:src/stm32f1xx_hal_iwdg.c ****   }
 136              		.loc 1 153 0
 137 003e 0120     		movs	r0, #1	@ <retval>,
 138              	.LVL6:
 139 0040 38BD     		pop	{r3, r4, r5, pc}	@
 140              		.cfi_endproc
 141              	.LFE65:
 142              		.size	HAL_IWDG_Init, .-HAL_IWDG_Init
 143              		.align	1
 144              		.global	HAL_IWDG_Refresh
 145              		.syntax unified
 146              		.thumb
 147              		.thumb_func
 148              		.fpu softvfp
 149              		.type	HAL_IWDG_Refresh, %function
 150              	HAL_IWDG_Refresh:
 151              	.LFB66:
ARM GAS  /tmp/ccnCBS2w.s 			page 7


 189:src/stm32f1xx_hal_iwdg.c **** 
 190:src/stm32f1xx_hal_iwdg.c **** /**
 191:src/stm32f1xx_hal_iwdg.c ****   * @}
 192:src/stm32f1xx_hal_iwdg.c ****   */
 193:src/stm32f1xx_hal_iwdg.c **** 
 194:src/stm32f1xx_hal_iwdg.c **** /** @addtogroup IWDG_Exported_Functions_Group2
 195:src/stm32f1xx_hal_iwdg.c ****   *  @brief   IO operation functions
 196:src/stm32f1xx_hal_iwdg.c ****   *
 197:src/stm32f1xx_hal_iwdg.c **** @verbatim
 198:src/stm32f1xx_hal_iwdg.c ****  ===============================================================================
 199:src/stm32f1xx_hal_iwdg.c ****                       ##### IO operation functions #####
 200:src/stm32f1xx_hal_iwdg.c ****  ===============================================================================
 201:src/stm32f1xx_hal_iwdg.c ****  [..]  This section provides functions allowing to:
 202:src/stm32f1xx_hal_iwdg.c ****       (+) Refresh the IWDG.
 203:src/stm32f1xx_hal_iwdg.c **** 
 204:src/stm32f1xx_hal_iwdg.c **** @endverbatim
 205:src/stm32f1xx_hal_iwdg.c ****   * @{
 206:src/stm32f1xx_hal_iwdg.c ****   */
 207:src/stm32f1xx_hal_iwdg.c **** 
 208:src/stm32f1xx_hal_iwdg.c **** /**
 209:src/stm32f1xx_hal_iwdg.c ****   * @brief  Refresh the IWDG.
 210:src/stm32f1xx_hal_iwdg.c ****   * @param  hiwdg  pointer to a IWDG_HandleTypeDef structure that contains
 211:src/stm32f1xx_hal_iwdg.c ****   *                the configuration information for the specified IWDG module.
 212:src/stm32f1xx_hal_iwdg.c ****   * @retval HAL status
 213:src/stm32f1xx_hal_iwdg.c ****   */
 214:src/stm32f1xx_hal_iwdg.c **** HAL_StatusTypeDef HAL_IWDG_Refresh(IWDG_HandleTypeDef *hiwdg)
 215:src/stm32f1xx_hal_iwdg.c **** {
 152              		.loc 1 215 0
 153              		.cfi_startproc
 154              		@ args = 0, pretend = 0, frame = 0
 155              		@ frame_needed = 0, uses_anonymous_args = 0
 156              		@ link register save eliminated.
 157              	.LVL7:
 216:src/stm32f1xx_hal_iwdg.c ****   /* Reload IWDG counter with value defined in the reload register */
 217:src/stm32f1xx_hal_iwdg.c ****   __HAL_IWDG_RELOAD_COUNTER(hiwdg);
 158              		.loc 1 217 0
 159 0042 4AF6AA22 		movw	r2, #43690	@ tmp113,
 160 0046 0368     		ldr	r3, [r0]	@ _3, hiwdg_2(D)->Instance
 218:src/stm32f1xx_hal_iwdg.c **** 
 219:src/stm32f1xx_hal_iwdg.c ****   /* Return function status */
 220:src/stm32f1xx_hal_iwdg.c ****   return HAL_OK;
 221:src/stm32f1xx_hal_iwdg.c **** }
 161              		.loc 1 221 0
 162 0048 0020     		movs	r0, #0	@,
 163              	.LVL8:
 217:src/stm32f1xx_hal_iwdg.c **** 
 164              		.loc 1 217 0
 165 004a 1A60     		str	r2, [r3]	@ tmp113, _3->KR
 166              		.loc 1 221 0
 167 004c 7047     		bx	lr	@
 168              		.cfi_endproc
 169              	.LFE66:
 170              		.size	HAL_IWDG_Refresh, .-HAL_IWDG_Refresh
 171              	.Letext0:
 172              		.file 2 "/usr/include/newlib/machine/_default_types.h"
 173              		.file 3 "/usr/include/newlib/sys/_stdint.h"
 174              		.file 4 "../cmsiscore/inc/core_cm3.h"
ARM GAS  /tmp/ccnCBS2w.s 			page 8


 175              		.file 5 "../cmsisstm32f1xx/inc/system_stm32f1xx.h"
 176              		.file 6 "../cmsisstm32f1xx/inc/stm32f103x6.h"
 177              		.file 7 "../cmsisstm32f1xx/inc/stm32f1xx.h"
 178              		.file 8 "./inc/stm32f1xx_hal_def.h"
 179              		.file 9 "./inc/stm32f1xx_hal_iwdg.h"
 180              		.file 10 "./inc/stm32f1xx_hal.h"