ARM GAS  /tmp/ccIsCorD.s 			page 1


   1              		.cpu cortex-m3
   2              		.eabi_attribute 20, 1	@ Tag_ABI_FP_denormal
   3              		.eabi_attribute 21, 1	@ Tag_ABI_FP_exceptions
   4              		.eabi_attribute 23, 3	@ Tag_ABI_FP_number_model
   5              		.eabi_attribute 24, 1	@ Tag_ABI_align8_needed
   6              		.eabi_attribute 25, 1	@ Tag_ABI_align8_preserved
   7              		.eabi_attribute 26, 1	@ Tag_ABI_enum_size
   8              		.eabi_attribute 30, 4	@ Tag_ABI_optimization_goals
   9              		.eabi_attribute 34, 1	@ Tag_CPU_unaligned_access
  10              		.eabi_attribute 18, 4	@ Tag_ABI_PCS_wchar_t
  11              		.file	"stm32f1xx_hal_timebase_tim_template.c"
  12              	@ GNU C11 (15:6.3.1+svn253039-1build1) version 6.3.1 20170620 (arm-none-eabi)
  13              	@	compiled by GNU C version 7.2.0, GMP version 6.1.2, MPFR version 4.0.1-rc1, MPC version 1.1.0, is
  14              	@ warning: MPFR header version 4.0.1-rc1 differs from library version 4.0.1.
  15              	@ GGC heuristics: --param ggc-min-expand=100 --param ggc-min-heapsize=131072
  16              	@ options passed:  -I ./inc -I ./inc/Legacy -I ../cmsisstm32f1xx/inc
  17              	@ -I ../cmsiscore/inc -imultilib thumb/v7-m -D__USES_INITFINI__
  18              	@ -D STM32F103x6 -D RUN_FROM_FLASH=1 -D __c
  19              	@ src/stm32f1xx_hal_timebase_tim_template.c -mcpu=cortex-m3 -mthumb
  20              	@ -auxbase-strip bin/stm32f1xx_hal_timebase_tim_template.o -g -gdwarf-2 -Os
  21              	@ -Wall -fomit-frame-pointer -fverbose-asm
  22              	@ options enabled:  -faggressive-loop-optimizations -falign-jumps
  23              	@ -falign-labels -falign-loops -fauto-inc-dec -fbranch-count-reg
  24              	@ -fcaller-saves -fchkp-check-incomplete-type -fchkp-check-read
  25              	@ -fchkp-check-write -fchkp-instrument-calls -fchkp-narrow-bounds
  26              	@ -fchkp-optimize -fchkp-store-bounds -fchkp-use-static-bounds
  27              	@ -fchkp-use-static-const-bounds -fchkp-use-wrappers
  28              	@ -fcombine-stack-adjustments -fcommon -fcompare-elim -fcprop-registers
  29              	@ -fcrossjumping -fcse-follow-jumps -fdefer-pop
  30              	@ -fdelete-null-pointer-checks -fdevirtualize -fdevirtualize-speculatively
  31              	@ -fdwarf2-cfi-asm -fearly-inlining -feliminate-unused-debug-types
  32              	@ -fexpensive-optimizations -fforward-propagate -ffunction-cse -fgcse
  33              	@ -fgcse-lm -fgnu-runtime -fgnu-unique -fguess-branch-probability
  34              	@ -fhoist-adjacent-loads -fident -fif-conversion -fif-conversion2
  35              	@ -findirect-inlining -finline -finline-atomics -finline-functions
  36              	@ -finline-functions-called-once -finline-small-functions -fipa-cp
  37              	@ -fipa-cp-alignment -fipa-icf -fipa-icf-functions -fipa-icf-variables
  38              	@ -fipa-profile -fipa-pure-const -fipa-ra -fipa-reference -fipa-sra
  39              	@ -fira-hoist-pressure -fira-share-save-slots -fira-share-spill-slots
  40              	@ -fisolate-erroneous-paths-dereference -fivopts -fkeep-static-consts
  41              	@ -fleading-underscore -flifetime-dse -flra-remat -flto-odr-type-merging
  42              	@ -fmath-errno -fmerge-constants -fmerge-debug-strings
  43              	@ -fmove-loop-invariants -fomit-frame-pointer -foptimize-sibling-calls
  44              	@ -fpartial-inlining -fpeephole -fpeephole2 -fplt -fprefetch-loop-arrays
  45              	@ -freg-struct-return -freorder-blocks -freorder-functions
  46              	@ -frerun-cse-after-loop -fsched-critical-path-heuristic
  47              	@ -fsched-dep-count-heuristic -fsched-group-heuristic -fsched-interblock
  48              	@ -fsched-last-insn-heuristic -fsched-pressure -fsched-rank-heuristic
  49              	@ -fsched-spec -fsched-spec-insn-heuristic -fsched-stalled-insns-dep
  50              	@ -fschedule-insns2 -fsection-anchors -fsemantic-interposition
  51              	@ -fshow-column -fsigned-zeros -fsplit-ivs-in-unroller -fsplit-wide-types
  52              	@ -fssa-backprop -fssa-phiopt -fstdarg-opt -fstrict-aliasing
  53              	@ -fstrict-overflow -fstrict-volatile-bitfields -fsync-libcalls
  54              	@ -fthread-jumps -ftoplevel-reorder -ftrapping-math -ftree-bit-ccp
  55              	@ -ftree-builtin-call-dce -ftree-ccp -ftree-ch -ftree-coalesce-vars
  56              	@ -ftree-copy-prop -ftree-cselim -ftree-dce -ftree-dominator-opts
  57              	@ -ftree-dse -ftree-forwprop -ftree-fre -ftree-loop-if-convert
ARM GAS  /tmp/ccIsCorD.s 			page 2


  58              	@ -ftree-loop-im -ftree-loop-ivcanon -ftree-loop-optimize
  59              	@ -ftree-parallelize-loops= -ftree-phiprop -ftree-pre -ftree-pta
  60              	@ -ftree-reassoc -ftree-scev-cprop -ftree-sink -ftree-slsr -ftree-sra
  61              	@ -ftree-switch-conversion -ftree-tail-merge -ftree-ter -ftree-vrp
  62              	@ -funit-at-a-time -fvar-tracking -fvar-tracking-assignments -fverbose-asm
  63              	@ -fzero-initialized-in-bss -masm-syntax-unified -mfix-cortex-m3-ldrd
  64              	@ -mlittle-endian -mpic-data-is-text-relative -msched-prolog -mthumb
  65              	@ -munaligned-access -mvectorize-with-neon-quad
  66              	
  67              		.text
  68              	.Ltext0:
  69              		.cfi_sections	.debug_frame
  70              		.align	1
  71              		.global	HAL_InitTick
  72              		.syntax unified
  73              		.thumb
  74              		.thumb_func
  75              		.fpu softvfp
  76              		.type	HAL_InitTick, %function
  77              	HAL_InitTick:
  78              	.LFB65:
  79              		.file 1 "src/stm32f1xx_hal_timebase_tim_template.c"
   1:src/stm32f1xx_hal_timebase_tim_template.c **** /**
   2:src/stm32f1xx_hal_timebase_tim_template.c ****   ******************************************************************************
   3:src/stm32f1xx_hal_timebase_tim_template.c ****   * @file    stm32f1xx_hal_timebase_tim_template.c
   4:src/stm32f1xx_hal_timebase_tim_template.c ****   * @author  MCD Application Team
   5:src/stm32f1xx_hal_timebase_tim_template.c ****   * @brief   HAL time base based on the hardware TIM Template.
   6:src/stm32f1xx_hal_timebase_tim_template.c ****   *
   7:src/stm32f1xx_hal_timebase_tim_template.c ****   *          This file overrides the native HAL time base functions (defined as weak)
   8:src/stm32f1xx_hal_timebase_tim_template.c ****   *          the TIM time base:
   9:src/stm32f1xx_hal_timebase_tim_template.c ****   *           + Intializes the TIM peripheral generate a Period elapsed Event each 1ms
  10:src/stm32f1xx_hal_timebase_tim_template.c ****   *           + HAL_IncTick is called inside HAL_TIM_PeriodElapsedCallback ie each 1ms
  11:src/stm32f1xx_hal_timebase_tim_template.c ****   *
  12:src/stm32f1xx_hal_timebase_tim_template.c ****   ******************************************************************************
  13:src/stm32f1xx_hal_timebase_tim_template.c ****   * @attention
  14:src/stm32f1xx_hal_timebase_tim_template.c ****   *
  15:src/stm32f1xx_hal_timebase_tim_template.c ****   * <h2><center>&copy; Copyright (c) 2017 STMicroelectronics.
  16:src/stm32f1xx_hal_timebase_tim_template.c ****   * All rights reserved.</center></h2>
  17:src/stm32f1xx_hal_timebase_tim_template.c ****   *
  18:src/stm32f1xx_hal_timebase_tim_template.c ****   * This software component is licensed by ST under BSD 3-Clause license,
  19:src/stm32f1xx_hal_timebase_tim_template.c ****   * the "License"; You may not use this file except in compliance with the
  20:src/stm32f1xx_hal_timebase_tim_template.c ****   * License. You may obtain a copy of the License at:
  21:src/stm32f1xx_hal_timebase_tim_template.c ****   *                        opensource.org/licenses/BSD-3-Clause
  22:src/stm32f1xx_hal_timebase_tim_template.c ****   *
  23:src/stm32f1xx_hal_timebase_tim_template.c ****   ******************************************************************************
  24:src/stm32f1xx_hal_timebase_tim_template.c ****   */
  25:src/stm32f1xx_hal_timebase_tim_template.c **** 
  26:src/stm32f1xx_hal_timebase_tim_template.c **** /* Includes ------------------------------------------------------------------*/
  27:src/stm32f1xx_hal_timebase_tim_template.c **** #include "stm32f1xx_hal.h"
  28:src/stm32f1xx_hal_timebase_tim_template.c **** 
  29:src/stm32f1xx_hal_timebase_tim_template.c **** /** @addtogroup STM32F1xx_HAL_Driver
  30:src/stm32f1xx_hal_timebase_tim_template.c ****   * @{
  31:src/stm32f1xx_hal_timebase_tim_template.c ****   */
  32:src/stm32f1xx_hal_timebase_tim_template.c **** 
  33:src/stm32f1xx_hal_timebase_tim_template.c **** /** @addtogroup HAL_TimeBase_TIM
  34:src/stm32f1xx_hal_timebase_tim_template.c ****   * @{
  35:src/stm32f1xx_hal_timebase_tim_template.c ****   */
ARM GAS  /tmp/ccIsCorD.s 			page 3


  36:src/stm32f1xx_hal_timebase_tim_template.c **** 
  37:src/stm32f1xx_hal_timebase_tim_template.c **** /* Private typedef -----------------------------------------------------------*/
  38:src/stm32f1xx_hal_timebase_tim_template.c **** /* Private define ------------------------------------------------------------*/
  39:src/stm32f1xx_hal_timebase_tim_template.c **** /* Private macro -------------------------------------------------------------*/
  40:src/stm32f1xx_hal_timebase_tim_template.c **** /* Private variables ---------------------------------------------------------*/
  41:src/stm32f1xx_hal_timebase_tim_template.c **** TIM_HandleTypeDef        TimHandle;
  42:src/stm32f1xx_hal_timebase_tim_template.c **** /* Private function prototypes -----------------------------------------------*/
  43:src/stm32f1xx_hal_timebase_tim_template.c **** void TIM2_IRQHandler(void);
  44:src/stm32f1xx_hal_timebase_tim_template.c **** /* Private functions ---------------------------------------------------------*/
  45:src/stm32f1xx_hal_timebase_tim_template.c **** 
  46:src/stm32f1xx_hal_timebase_tim_template.c **** /**
  47:src/stm32f1xx_hal_timebase_tim_template.c ****   * @brief  This function configures the TIM2 as a time base source.
  48:src/stm32f1xx_hal_timebase_tim_template.c ****   *         The time source is configured to have 1ms time base with a dedicated
  49:src/stm32f1xx_hal_timebase_tim_template.c ****   *         Tick interrupt priority.
  50:src/stm32f1xx_hal_timebase_tim_template.c ****   * @note   This function is called  automatically at the beginning of program after
  51:src/stm32f1xx_hal_timebase_tim_template.c ****   *         reset by HAL_Init() or at any time when clock is configured, by HAL_RCC_ClockConfig().
  52:src/stm32f1xx_hal_timebase_tim_template.c ****   * @param  TickPriority Tick interrupt priority.
  53:src/stm32f1xx_hal_timebase_tim_template.c ****   * @retval HAL status
  54:src/stm32f1xx_hal_timebase_tim_template.c ****   */
  55:src/stm32f1xx_hal_timebase_tim_template.c **** HAL_StatusTypeDef HAL_InitTick(uint32_t TickPriority)
  56:src/stm32f1xx_hal_timebase_tim_template.c **** {
  80              		.loc 1 56 0
  81              		.cfi_startproc
  82              		@ args = 0, pretend = 0, frame = 32
  83              		@ frame_needed = 0, uses_anonymous_args = 0
  84              	.LVL0:
  85 0000 10B5     		push	{r4, lr}	@
  86              	.LCFI0:
  87              		.cfi_def_cfa_offset 8
  88              		.cfi_offset 4, -8
  89              		.cfi_offset 14, -4
  57:src/stm32f1xx_hal_timebase_tim_template.c ****   RCC_ClkInitTypeDef    clkconfig;
  58:src/stm32f1xx_hal_timebase_tim_template.c ****   uint32_t              uwTimclock, uwAPB1Prescaler = 0U;
  59:src/stm32f1xx_hal_timebase_tim_template.c ****   uint32_t              uwPrescalerValue = 0U;
  60:src/stm32f1xx_hal_timebase_tim_template.c ****   uint32_t              pFLatency;
  61:src/stm32f1xx_hal_timebase_tim_template.c **** 
  62:src/stm32f1xx_hal_timebase_tim_template.c ****   /*Configure the TIM2 IRQ priority */
  63:src/stm32f1xx_hal_timebase_tim_template.c ****   HAL_NVIC_SetPriority(TIM2_IRQn, TickPriority, 0U);
  90              		.loc 1 63 0
  91 0002 0146     		mov	r1, r0	@, TickPriority
  56:src/stm32f1xx_hal_timebase_tim_template.c ****   RCC_ClkInitTypeDef    clkconfig;
  92              		.loc 1 56 0
  93 0004 88B0     		sub	sp, sp, #32	@,,
  94              	.LCFI1:
  95              		.cfi_def_cfa_offset 40
  96              		.loc 1 63 0
  97 0006 0022     		movs	r2, #0	@,
  98 0008 1C20     		movs	r0, #28	@,
  99              	.LVL1:
 100 000a FFF7FEFF 		bl	HAL_NVIC_SetPriority	@
 101              	.LVL2:
  64:src/stm32f1xx_hal_timebase_tim_template.c **** 
  65:src/stm32f1xx_hal_timebase_tim_template.c ****   /* Enable the TIM2 global Interrupt */
  66:src/stm32f1xx_hal_timebase_tim_template.c ****   HAL_NVIC_EnableIRQ(TIM2_IRQn);
 102              		.loc 1 66 0
 103 000e 1C20     		movs	r0, #28	@,
 104 0010 FFF7FEFF 		bl	HAL_NVIC_EnableIRQ	@
ARM GAS  /tmp/ccIsCorD.s 			page 4


 105              	.LVL3:
 106              	.LBB2:
  67:src/stm32f1xx_hal_timebase_tim_template.c **** 
  68:src/stm32f1xx_hal_timebase_tim_template.c ****   /* Enable TIM2 clock */
  69:src/stm32f1xx_hal_timebase_tim_template.c ****   __HAL_RCC_TIM2_CLK_ENABLE();
 107              		.loc 1 69 0
 108 0014 184B     		ldr	r3, .L6	@ tmp123,
 109              	.LBE2:
  70:src/stm32f1xx_hal_timebase_tim_template.c **** 
  71:src/stm32f1xx_hal_timebase_tim_template.c ****   /* Get clock configuration */
  72:src/stm32f1xx_hal_timebase_tim_template.c ****   HAL_RCC_GetClockConfig(&clkconfig, &pFLatency);
 110              		.loc 1 72 0
 111 0016 01A9     		add	r1, sp, #4	@,,
 112              	.LBB3:
  69:src/stm32f1xx_hal_timebase_tim_template.c **** 
 113              		.loc 1 69 0
 114 0018 DA69     		ldr	r2, [r3, #28]	@ _9, MEM[(struct RCC_TypeDef *)1073876992B].APB1ENR
 115              	.LBE3:
 116              		.loc 1 72 0
 117 001a 03A8     		add	r0, sp, #12	@,,
 118              	.LBB4:
  69:src/stm32f1xx_hal_timebase_tim_template.c **** 
 119              		.loc 1 69 0
 120 001c 42F00102 		orr	r2, r2, #1	@ _10, _9,
 121 0020 DA61     		str	r2, [r3, #28]	@ _10, MEM[(struct RCC_TypeDef *)1073876992B].APB1ENR
 122 0022 DB69     		ldr	r3, [r3, #28]	@ _12, MEM[(struct RCC_TypeDef *)1073876992B].APB1ENR
 123 0024 03F00103 		and	r3, r3, #1	@ tmpreg.0_13, _12,
 124 0028 0293     		str	r3, [sp, #8]	@ tmpreg.0_13, tmpreg
 125 002a 029B     		ldr	r3, [sp, #8]	@ vol.1_15, tmpreg
 126              	.LBE4:
 127              		.loc 1 72 0
 128 002c FFF7FEFF 		bl	HAL_RCC_GetClockConfig	@
 129              	.LVL4:
  73:src/stm32f1xx_hal_timebase_tim_template.c **** 
  74:src/stm32f1xx_hal_timebase_tim_template.c ****   /* Get APB1 prescaler */
  75:src/stm32f1xx_hal_timebase_tim_template.c ****   uwAPB1Prescaler = clkconfig.APB1CLKDivider;
  76:src/stm32f1xx_hal_timebase_tim_template.c **** 
  77:src/stm32f1xx_hal_timebase_tim_template.c ****   /* Compute TIM2 clock */
  78:src/stm32f1xx_hal_timebase_tim_template.c ****   if (uwAPB1Prescaler == RCC_HCLK_DIV1)
 130              		.loc 1 78 0
 131 0030 069B     		ldr	r3, [sp, #24]	@ clkconfig.APB1CLKDivider, clkconfig.APB1CLKDivider
 132 0032 D3B9     		cbnz	r3, .L2	@ clkconfig.APB1CLKDivider,
  79:src/stm32f1xx_hal_timebase_tim_template.c ****   {
  80:src/stm32f1xx_hal_timebase_tim_template.c ****     uwTimclock = HAL_RCC_GetPCLK1Freq();
 133              		.loc 1 80 0
 134 0034 FFF7FEFF 		bl	HAL_RCC_GetPCLK1Freq	@
 135              	.LVL5:
 136              	.L3:
  81:src/stm32f1xx_hal_timebase_tim_template.c ****   }
  82:src/stm32f1xx_hal_timebase_tim_template.c ****   else
  83:src/stm32f1xx_hal_timebase_tim_template.c ****   {
  84:src/stm32f1xx_hal_timebase_tim_template.c ****     uwTimclock = 2 * HAL_RCC_GetPCLK1Freq();
  85:src/stm32f1xx_hal_timebase_tim_template.c ****   }
  86:src/stm32f1xx_hal_timebase_tim_template.c **** 
  87:src/stm32f1xx_hal_timebase_tim_template.c ****   /* Compute the prescaler value to have TIM2 counter clock equal to 1MHz */
  88:src/stm32f1xx_hal_timebase_tim_template.c ****   uwPrescalerValue = (uint32_t)((uwTimclock / 1000000U) - 1U);
  89:src/stm32f1xx_hal_timebase_tim_template.c **** 
ARM GAS  /tmp/ccIsCorD.s 			page 5


  90:src/stm32f1xx_hal_timebase_tim_template.c ****   /* Initialize TIM2 */
  91:src/stm32f1xx_hal_timebase_tim_template.c ****   TimHandle.Instance = TIM2;
 137              		.loc 1 91 0
 138 0038 4FF08043 		mov	r3, #1073741824	@ tmp130,
 139 003c 0F4C     		ldr	r4, .L6+4	@ tmp129,
 140 003e 2360     		str	r3, [r4]	@ tmp130, TimHandle.Instance
  92:src/stm32f1xx_hal_timebase_tim_template.c **** 
  93:src/stm32f1xx_hal_timebase_tim_template.c ****   /* Initialize TIMx peripheral as follow:
  94:src/stm32f1xx_hal_timebase_tim_template.c ****   + Period = [(TIM2CLK/1000) - 1]. to have a (1/1000) s time base.
  95:src/stm32f1xx_hal_timebase_tim_template.c ****   + Prescaler = (uwTimclock/1000000 - 1) to have a 1MHz counter clock.
  96:src/stm32f1xx_hal_timebase_tim_template.c ****   + ClockDivision = 0
  97:src/stm32f1xx_hal_timebase_tim_template.c ****   + Counter direction = Up
  98:src/stm32f1xx_hal_timebase_tim_template.c ****   */
  99:src/stm32f1xx_hal_timebase_tim_template.c ****   TimHandle.Init.Period = (1000000U / 1000U) - 1U;
 141              		.loc 1 99 0
 142 0040 40F2E733 		movw	r3, #999	@ tmp132,
 143 0044 E360     		str	r3, [r4, #12]	@ tmp132, TimHandle.Init.Period
  88:src/stm32f1xx_hal_timebase_tim_template.c **** 
 144              		.loc 1 88 0
 145 0046 0E4B     		ldr	r3, .L6+8	@ tmp136,
 146 0048 B0FBF3F0 		udiv	r0, r0, r3	@ tmp135, uwTimclock, tmp136
 147              	.LVL6:
 100:src/stm32f1xx_hal_timebase_tim_template.c ****   TimHandle.Init.Prescaler = uwPrescalerValue;
 101:src/stm32f1xx_hal_timebase_tim_template.c ****   TimHandle.Init.ClockDivision = 0U;
 148              		.loc 1 101 0
 149 004c 0023     		movs	r3, #0	@ tmp139,
  88:src/stm32f1xx_hal_timebase_tim_template.c **** 
 150              		.loc 1 88 0
 151 004e 0138     		subs	r0, r0, #1	@ uwPrescalerValue, tmp135,
 152              	.LVL7:
 100:src/stm32f1xx_hal_timebase_tim_template.c ****   TimHandle.Init.Prescaler = uwPrescalerValue;
 153              		.loc 1 100 0
 154 0050 6060     		str	r0, [r4, #4]	@ uwPrescalerValue, TimHandle.Init.Prescaler
 102:src/stm32f1xx_hal_timebase_tim_template.c ****   TimHandle.Init.CounterMode = TIM_COUNTERMODE_UP;
 103:src/stm32f1xx_hal_timebase_tim_template.c ****   TimHandle.Init.AutoReloadPreload = TIM_AUTORELOAD_PRELOAD_DISABLE;
 104:src/stm32f1xx_hal_timebase_tim_template.c ****   if (HAL_TIM_Base_Init(&TimHandle) == HAL_OK)
 155              		.loc 1 104 0
 156 0052 2046     		mov	r0, r4	@, tmp129
 157              	.LVL8:
 101:src/stm32f1xx_hal_timebase_tim_template.c ****   TimHandle.Init.CounterMode = TIM_COUNTERMODE_UP;
 158              		.loc 1 101 0
 159 0054 2361     		str	r3, [r4, #16]	@ tmp139, TimHandle.Init.ClockDivision
 102:src/stm32f1xx_hal_timebase_tim_template.c ****   TimHandle.Init.CounterMode = TIM_COUNTERMODE_UP;
 160              		.loc 1 102 0
 161 0056 A360     		str	r3, [r4, #8]	@ tmp139, TimHandle.Init.CounterMode
 103:src/stm32f1xx_hal_timebase_tim_template.c ****   if (HAL_TIM_Base_Init(&TimHandle) == HAL_OK)
 162              		.loc 1 103 0
 163 0058 A361     		str	r3, [r4, #24]	@ tmp139, TimHandle.Init.AutoReloadPreload
 164              		.loc 1 104 0
 165 005a FFF7FEFF 		bl	HAL_TIM_Base_Init	@
 166              	.LVL9:
 167 005e 40B9     		cbnz	r0, .L5	@,
 105:src/stm32f1xx_hal_timebase_tim_template.c ****   {
 106:src/stm32f1xx_hal_timebase_tim_template.c ****     /* Start the TIM time Base generation in interrupt mode */
 107:src/stm32f1xx_hal_timebase_tim_template.c ****     return HAL_TIM_Base_Start_IT(&TimHandle);
 168              		.loc 1 107 0
 169 0060 2046     		mov	r0, r4	@, tmp129
ARM GAS  /tmp/ccIsCorD.s 			page 6


 170 0062 FFF7FEFF 		bl	HAL_TIM_Base_Start_IT	@
 171              	.LVL10:
 172              	.L4:
 108:src/stm32f1xx_hal_timebase_tim_template.c ****   }
 109:src/stm32f1xx_hal_timebase_tim_template.c **** 
 110:src/stm32f1xx_hal_timebase_tim_template.c ****   /* Return function status */
 111:src/stm32f1xx_hal_timebase_tim_template.c ****   return HAL_ERROR;
 112:src/stm32f1xx_hal_timebase_tim_template.c **** }
 173              		.loc 1 112 0
 174 0066 08B0     		add	sp, sp, #32	@,,
 175              	.LCFI2:
 176              		.cfi_remember_state
 177              		.cfi_def_cfa_offset 8
 178              		@ sp needed	@
 179 0068 10BD     		pop	{r4, pc}	@
 180              	.LVL11:
 181              	.L2:
 182              	.LCFI3:
 183              		.cfi_restore_state
  84:src/stm32f1xx_hal_timebase_tim_template.c ****   }
 184              		.loc 1 84 0
 185 006a FFF7FEFF 		bl	HAL_RCC_GetPCLK1Freq	@
 186              	.LVL12:
 187 006e 4000     		lsls	r0, r0, #1	@ uwTimclock,,
 188              	.LVL13:
 189 0070 E2E7     		b	.L3	@
 190              	.LVL14:
 191              	.L5:
 111:src/stm32f1xx_hal_timebase_tim_template.c **** }
 192              		.loc 1 111 0
 193 0072 0120     		movs	r0, #1	@ <retval>,
 194 0074 F7E7     		b	.L4	@
 195              	.L7:
 196 0076 00BF     		.align	2
 197              	.L6:
 198 0078 00100240 		.word	1073876992
 199 007c 00000000 		.word	TimHandle
 200 0080 40420F00 		.word	1000000
 201              		.cfi_endproc
 202              	.LFE65:
 203              		.size	HAL_InitTick, .-HAL_InitTick
 204              		.align	1
 205              		.global	HAL_SuspendTick
 206              		.syntax unified
 207              		.thumb
 208              		.thumb_func
 209              		.fpu softvfp
 210              		.type	HAL_SuspendTick, %function
 211              	HAL_SuspendTick:
 212              	.LFB66:
 113:src/stm32f1xx_hal_timebase_tim_template.c **** 
 114:src/stm32f1xx_hal_timebase_tim_template.c **** /**
 115:src/stm32f1xx_hal_timebase_tim_template.c ****   * @brief  Suspend Tick increment.
 116:src/stm32f1xx_hal_timebase_tim_template.c ****   * @note   Disable the tick increment by disabling TIM2 update interrupt.
 117:src/stm32f1xx_hal_timebase_tim_template.c ****   * @retval None
 118:src/stm32f1xx_hal_timebase_tim_template.c ****   */
 119:src/stm32f1xx_hal_timebase_tim_template.c **** void HAL_SuspendTick(void)
ARM GAS  /tmp/ccIsCorD.s 			page 7


 120:src/stm32f1xx_hal_timebase_tim_template.c **** {
 213              		.loc 1 120 0
 214              		.cfi_startproc
 215              		@ args = 0, pretend = 0, frame = 0
 216              		@ frame_needed = 0, uses_anonymous_args = 0
 217              		@ link register save eliminated.
 121:src/stm32f1xx_hal_timebase_tim_template.c ****   /* Disable TIM2 update Interrupt */
 122:src/stm32f1xx_hal_timebase_tim_template.c ****   __HAL_TIM_DISABLE_IT(&TimHandle, TIM_IT_UPDATE);
 218              		.loc 1 122 0
 219 0084 034B     		ldr	r3, .L9	@ tmp113,
 220 0086 1A68     		ldr	r2, [r3]	@ _2, TimHandle.Instance
 221 0088 D368     		ldr	r3, [r2, #12]	@ _3, _2->DIER
 222 008a 23F00103 		bic	r3, r3, #1	@ _4, _3,
 223 008e D360     		str	r3, [r2, #12]	@ _4, _2->DIER
 224 0090 7047     		bx	lr	@
 225              	.L10:
 226 0092 00BF     		.align	2
 227              	.L9:
 228 0094 00000000 		.word	TimHandle
 229              		.cfi_endproc
 230              	.LFE66:
 231              		.size	HAL_SuspendTick, .-HAL_SuspendTick
 232              		.align	1
 233              		.global	HAL_ResumeTick
 234              		.syntax unified
 235              		.thumb
 236              		.thumb_func
 237              		.fpu softvfp
 238              		.type	HAL_ResumeTick, %function
 239              	HAL_ResumeTick:
 240              	.LFB67:
 123:src/stm32f1xx_hal_timebase_tim_template.c **** }
 124:src/stm32f1xx_hal_timebase_tim_template.c **** 
 125:src/stm32f1xx_hal_timebase_tim_template.c **** /**
 126:src/stm32f1xx_hal_timebase_tim_template.c ****   * @brief  Resume Tick increment.
 127:src/stm32f1xx_hal_timebase_tim_template.c ****   * @note   Enable the tick increment by Enabling TIM2 update interrupt.
 128:src/stm32f1xx_hal_timebase_tim_template.c ****   * @retval None
 129:src/stm32f1xx_hal_timebase_tim_template.c ****   */
 130:src/stm32f1xx_hal_timebase_tim_template.c **** void HAL_ResumeTick(void)
 131:src/stm32f1xx_hal_timebase_tim_template.c **** {
 241              		.loc 1 131 0
 242              		.cfi_startproc
 243              		@ args = 0, pretend = 0, frame = 0
 244              		@ frame_needed = 0, uses_anonymous_args = 0
 245              		@ link register save eliminated.
 132:src/stm32f1xx_hal_timebase_tim_template.c ****   /* Enable TIM2 Update interrupt */
 133:src/stm32f1xx_hal_timebase_tim_template.c ****   __HAL_TIM_ENABLE_IT(&TimHandle, TIM_IT_UPDATE);
 246              		.loc 1 133 0
 247 0098 034B     		ldr	r3, .L12	@ tmp113,
 248 009a 1A68     		ldr	r2, [r3]	@ _2, TimHandle.Instance
 249 009c D368     		ldr	r3, [r2, #12]	@ _3, _2->DIER
 250 009e 43F00103 		orr	r3, r3, #1	@ _4, _3,
 251 00a2 D360     		str	r3, [r2, #12]	@ _4, _2->DIER
 252 00a4 7047     		bx	lr	@
 253              	.L13:
 254 00a6 00BF     		.align	2
 255              	.L12:
ARM GAS  /tmp/ccIsCorD.s 			page 8


 256 00a8 00000000 		.word	TimHandle
 257              		.cfi_endproc
 258              	.LFE67:
 259              		.size	HAL_ResumeTick, .-HAL_ResumeTick
 260              		.align	1
 261              		.global	HAL_TIM_PeriodElapsedCallback
 262              		.syntax unified
 263              		.thumb
 264              		.thumb_func
 265              		.fpu softvfp
 266              		.type	HAL_TIM_PeriodElapsedCallback, %function
 267              	HAL_TIM_PeriodElapsedCallback:
 268              	.LFB68:
 134:src/stm32f1xx_hal_timebase_tim_template.c **** }
 135:src/stm32f1xx_hal_timebase_tim_template.c **** 
 136:src/stm32f1xx_hal_timebase_tim_template.c **** /**
 137:src/stm32f1xx_hal_timebase_tim_template.c ****   * @brief  Period elapsed callback in non blocking mode
 138:src/stm32f1xx_hal_timebase_tim_template.c ****   * @note   This function is called  when TIM2 interrupt took place, inside
 139:src/stm32f1xx_hal_timebase_tim_template.c ****   * HAL_TIM_IRQHandler(). It makes a direct call to HAL_IncTick() to increment
 140:src/stm32f1xx_hal_timebase_tim_template.c ****   * a global variable "uwTick" used as application time base.
 141:src/stm32f1xx_hal_timebase_tim_template.c ****   * @param  htim TIM handle
 142:src/stm32f1xx_hal_timebase_tim_template.c ****   * @retval None
 143:src/stm32f1xx_hal_timebase_tim_template.c ****   */
 144:src/stm32f1xx_hal_timebase_tim_template.c **** void HAL_TIM_PeriodElapsedCallback(TIM_HandleTypeDef *htim)
 145:src/stm32f1xx_hal_timebase_tim_template.c **** {
 269              		.loc 1 145 0
 270              		.cfi_startproc
 271              		@ args = 0, pretend = 0, frame = 0
 272              		@ frame_needed = 0, uses_anonymous_args = 0
 273              		@ link register save eliminated.
 274              	.LVL15:
 146:src/stm32f1xx_hal_timebase_tim_template.c ****   HAL_IncTick();
 275              		.loc 1 146 0
 276 00ac FFF7FEBF 		b	HAL_IncTick	@
 277              	.LVL16:
 278              		.cfi_endproc
 279              	.LFE68:
 280              		.size	HAL_TIM_PeriodElapsedCallback, .-HAL_TIM_PeriodElapsedCallback
 281              		.align	1
 282              		.global	TIM2_IRQHandler
 283              		.syntax unified
 284              		.thumb
 285              		.thumb_func
 286              		.fpu softvfp
 287              		.type	TIM2_IRQHandler, %function
 288              	TIM2_IRQHandler:
 289              	.LFB69:
 147:src/stm32f1xx_hal_timebase_tim_template.c **** }
 148:src/stm32f1xx_hal_timebase_tim_template.c **** 
 149:src/stm32f1xx_hal_timebase_tim_template.c **** /**
 150:src/stm32f1xx_hal_timebase_tim_template.c ****   * @brief  This function handles TIM interrupt request.
 151:src/stm32f1xx_hal_timebase_tim_template.c ****   * @retval None
 152:src/stm32f1xx_hal_timebase_tim_template.c ****   */
 153:src/stm32f1xx_hal_timebase_tim_template.c **** void TIM2_IRQHandler(void)
 154:src/stm32f1xx_hal_timebase_tim_template.c **** {
 290              		.loc 1 154 0
 291              		.cfi_startproc
ARM GAS  /tmp/ccIsCorD.s 			page 9


 292              		@ args = 0, pretend = 0, frame = 0
 293              		@ frame_needed = 0, uses_anonymous_args = 0
 294              		@ link register save eliminated.
 155:src/stm32f1xx_hal_timebase_tim_template.c ****   HAL_TIM_IRQHandler(&TimHandle);
 295              		.loc 1 155 0
 296 00b0 0148     		ldr	r0, .L16	@,
 297 00b2 FFF7FEBF 		b	HAL_TIM_IRQHandler	@
 298              	.LVL17:
 299              	.L17:
 300 00b6 00BF     		.align	2
 301              	.L16:
 302 00b8 00000000 		.word	TimHandle
 303              		.cfi_endproc
 304              	.LFE69:
 305              		.size	TIM2_IRQHandler, .-TIM2_IRQHandler
 306              		.comm	TimHandle,64,4
 307              	.Letext0:
 308              		.file 2 "/usr/include/newlib/machine/_default_types.h"
 309              		.file 3 "/usr/include/newlib/sys/_stdint.h"
 310              		.file 4 "../cmsiscore/inc/core_cm3.h"
 311              		.file 5 "../cmsisstm32f1xx/inc/system_stm32f1xx.h"
 312              		.file 6 "../cmsisstm32f1xx/inc/stm32f103x6.h"
 313              		.file 7 "./inc/stm32f1xx_hal_def.h"
 314              		.file 8 "./inc/stm32f1xx_hal_rcc.h"
 315              		.file 9 "./inc/stm32f1xx_hal_dma.h"
 316              		.file 10 "./inc/stm32f1xx_hal_tim.h"
 317              		.file 11 "./inc/stm32f1xx_hal.h"
 318              		.file 12 "./inc/stm32f1xx_hal_cortex.h"
 319              		.section	.debug_info,"",%progbits
 320              	.Ldebug_info0:
 321 0000 E20A0000 		.4byte	0xae2
 322 0004 0200     		.2byte	0x2
 323 0006 00000000 		.4byte	.Ldebug_abbrev0
 324 000a 04       		.byte	0x4
 325 000b 01       		.uleb128 0x1
 326 000c 31070000 		.4byte	.LASF184
 327 0010 0C       		.byte	0xc
 328 0011 F5030000 		.4byte	.LASF185
 329 0015 8E070000 		.4byte	.LASF186
 330 0019 00000000 		.4byte	.Ltext0
 331 001d BC000000 		.4byte	.Letext0
 332 0021 00000000 		.4byte	.Ldebug_line0
 333 0025 02       		.uleb128 0x2
 334 0026 04       		.byte	0x4
 335 0027 07       		.byte	0x7
 336 0028 92080000 		.4byte	.LASF47
 337 002c 03       		.uleb128 0x3
 338 002d 01       		.byte	0x1
 339 002e 53010000 		.4byte	0x153
 340 0032 06       		.byte	0x6
 341 0033 46       		.byte	0x46
 342 0034 53010000 		.4byte	0x153
 343 0038 04       		.uleb128 0x4
 344 0039 C7080000 		.4byte	.LASF0
 345 003d 72       		.sleb128 -14
 346 003e 04       		.uleb128 0x4
 347 003f 50040000 		.4byte	.LASF1
ARM GAS  /tmp/ccIsCorD.s 			page 10


 348 0043 73       		.sleb128 -13
 349 0044 04       		.uleb128 0x4
 350 0045 3A060000 		.4byte	.LASF2
 351 0049 74       		.sleb128 -12
 352 004a 04       		.uleb128 0x4
 353 004b CD020000 		.4byte	.LASF3
 354 004f 75       		.sleb128 -11
 355 0050 04       		.uleb128 0x4
 356 0051 44080000 		.4byte	.LASF4
 357 0055 76       		.sleb128 -10
 358 0056 04       		.uleb128 0x4
 359 0057 51050000 		.4byte	.LASF5
 360 005b 7B       		.sleb128 -5
 361 005c 04       		.uleb128 0x4
 362 005d 8E060000 		.4byte	.LASF6
 363 0061 7C       		.sleb128 -4
 364 0062 04       		.uleb128 0x4
 365 0063 64020000 		.4byte	.LASF7
 366 0067 7E       		.sleb128 -2
 367 0068 04       		.uleb128 0x4
 368 0069 02050000 		.4byte	.LASF8
 369 006d 7F       		.sleb128 -1
 370 006e 05       		.uleb128 0x5
 371 006f 24010000 		.4byte	.LASF9
 372 0073 00       		.byte	0
 373 0074 05       		.uleb128 0x5
 374 0075 51000000 		.4byte	.LASF10
 375 0079 01       		.byte	0x1
 376 007a 05       		.uleb128 0x5
 377 007b 3C090000 		.4byte	.LASF11
 378 007f 02       		.byte	0x2
 379 0080 05       		.uleb128 0x5
 380 0081 3C0A0000 		.4byte	.LASF12
 381 0085 03       		.byte	0x3
 382 0086 05       		.uleb128 0x5
 383 0087 FC070000 		.4byte	.LASF13
 384 008b 04       		.byte	0x4
 385 008c 05       		.uleb128 0x5
 386 008d EB090000 		.4byte	.LASF14
 387 0091 05       		.byte	0x5
 388 0092 05       		.uleb128 0x5
 389 0093 81010000 		.4byte	.LASF15
 390 0097 06       		.byte	0x6
 391 0098 05       		.uleb128 0x5
 392 0099 890A0000 		.4byte	.LASF16
 393 009d 07       		.byte	0x7
 394 009e 05       		.uleb128 0x5
 395 009f 19010000 		.4byte	.LASF17
 396 00a3 08       		.byte	0x8
 397 00a4 05       		.uleb128 0x5
 398 00a5 7F050000 		.4byte	.LASF18
 399 00a9 09       		.byte	0x9
 400 00aa 05       		.uleb128 0x5
 401 00ab D7060000 		.4byte	.LASF19
 402 00af 0A       		.byte	0xa
 403 00b0 05       		.uleb128 0x5
 404 00b1 27060000 		.4byte	.LASF20
ARM GAS  /tmp/ccIsCorD.s 			page 11


 405 00b5 0B       		.byte	0xb
 406 00b6 05       		.uleb128 0x5
 407 00b7 9D020000 		.4byte	.LASF21
 408 00bb 0C       		.byte	0xc
 409 00bc 05       		.uleb128 0x5
 410 00bd 09070000 		.4byte	.LASF22
 411 00c1 0D       		.byte	0xd
 412 00c2 05       		.uleb128 0x5
 413 00c3 8A020000 		.4byte	.LASF23
 414 00c7 0E       		.byte	0xe
 415 00c8 05       		.uleb128 0x5
 416 00c9 DD030000 		.4byte	.LASF24
 417 00cd 0F       		.byte	0xf
 418 00ce 05       		.uleb128 0x5
 419 00cf 21090000 		.4byte	.LASF25
 420 00d3 10       		.byte	0x10
 421 00d4 05       		.uleb128 0x5
 422 00d5 0A0A0000 		.4byte	.LASF26
 423 00d9 11       		.byte	0x11
 424 00da 05       		.uleb128 0x5
 425 00db 4B020000 		.4byte	.LASF27
 426 00df 12       		.byte	0x12
 427 00e0 05       		.uleb128 0x5
 428 00e1 B6060000 		.4byte	.LASF28
 429 00e5 13       		.byte	0x13
 430 00e6 05       		.uleb128 0x5
 431 00e7 1C070000 		.4byte	.LASF29
 432 00eb 14       		.byte	0x14
 433 00ec 05       		.uleb128 0x5
 434 00ed EB000000 		.4byte	.LASF30
 435 00f1 15       		.byte	0x15
 436 00f2 05       		.uleb128 0x5
 437 00f3 B9080000 		.4byte	.LASF31
 438 00f7 16       		.byte	0x16
 439 00f8 05       		.uleb128 0x5
 440 00f9 1C020000 		.4byte	.LASF32
 441 00fd 17       		.byte	0x17
 442 00fe 05       		.uleb128 0x5
 443 00ff 9F080000 		.4byte	.LASF33
 444 0103 18       		.byte	0x18
 445 0104 05       		.uleb128 0x5
 446 0105 48090000 		.4byte	.LASF34
 447 0109 19       		.byte	0x19
 448 010a 05       		.uleb128 0x5
 449 010b 5F000000 		.4byte	.LASF35
 450 010f 1A       		.byte	0x1a
 451 0110 05       		.uleb128 0x5
 452 0111 0F050000 		.4byte	.LASF36
 453 0115 1B       		.byte	0x1b
 454 0116 05       		.uleb128 0x5
 455 0117 A5090000 		.4byte	.LASF37
 456 011b 1C       		.byte	0x1c
 457 011c 05       		.uleb128 0x5
 458 011d 780A0000 		.4byte	.LASF38
 459 0121 1D       		.byte	0x1d
 460 0122 05       		.uleb128 0x5
 461 0123 AC000000 		.4byte	.LASF39
ARM GAS  /tmp/ccIsCorD.s 			page 12


 462 0127 1F       		.byte	0x1f
 463 0128 05       		.uleb128 0x5
 464 0129 2F0A0000 		.4byte	.LASF40
 465 012d 20       		.byte	0x20
 466 012e 05       		.uleb128 0x5
 467 012f E2060000 		.4byte	.LASF41
 468 0133 23       		.byte	0x23
 469 0134 05       		.uleb128 0x5
 470 0135 66060000 		.4byte	.LASF42
 471 0139 25       		.byte	0x25
 472 013a 05       		.uleb128 0x5
 473 013b 38080000 		.4byte	.LASF43
 474 013f 26       		.byte	0x26
 475 0140 05       		.uleb128 0x5
 476 0141 1B000000 		.4byte	.LASF44
 477 0145 28       		.byte	0x28
 478 0146 05       		.uleb128 0x5
 479 0147 0A010000 		.4byte	.LASF45
 480 014b 29       		.byte	0x29
 481 014c 05       		.uleb128 0x5
 482 014d 68090000 		.4byte	.LASF46
 483 0151 2A       		.byte	0x2a
 484 0152 00       		.byte	0
 485 0153 02       		.uleb128 0x2
 486 0154 01       		.byte	0x1
 487 0155 06       		.byte	0x6
 488 0156 6B010000 		.4byte	.LASF48
 489 015a 06       		.uleb128 0x6
 490 015b B9000000 		.4byte	.LASF52
 491 015f 02       		.byte	0x2
 492 0160 1D       		.byte	0x1d
 493 0161 65010000 		.4byte	0x165
 494 0165 02       		.uleb128 0x2
 495 0166 01       		.byte	0x1
 496 0167 08       		.byte	0x8
 497 0168 A8060000 		.4byte	.LASF49
 498 016c 02       		.uleb128 0x2
 499 016d 02       		.byte	0x2
 500 016e 05       		.byte	0x5
 501 016f EC060000 		.4byte	.LASF50
 502 0173 02       		.uleb128 0x2
 503 0174 02       		.byte	0x2
 504 0175 07       		.byte	0x7
 505 0176 70020000 		.4byte	.LASF51
 506 017a 06       		.uleb128 0x6
 507 017b D4040000 		.4byte	.LASF53
 508 017f 02       		.byte	0x2
 509 0180 3F       		.byte	0x3f
 510 0181 85010000 		.4byte	0x185
 511 0185 02       		.uleb128 0x2
 512 0186 04       		.byte	0x4
 513 0187 05       		.byte	0x5
 514 0188 00020000 		.4byte	.LASF54
 515 018c 06       		.uleb128 0x6
 516 018d C2020000 		.4byte	.LASF55
 517 0191 02       		.byte	0x2
 518 0192 41       		.byte	0x41
ARM GAS  /tmp/ccIsCorD.s 			page 13


 519 0193 97010000 		.4byte	0x197
 520 0197 02       		.uleb128 0x2
 521 0198 04       		.byte	0x4
 522 0199 07       		.byte	0x7
 523 019a 86030000 		.4byte	.LASF56
 524 019e 02       		.uleb128 0x2
 525 019f 08       		.byte	0x8
 526 01a0 05       		.byte	0x5
 527 01a1 5D010000 		.4byte	.LASF57
 528 01a5 02       		.uleb128 0x2
 529 01a6 08       		.byte	0x8
 530 01a7 07       		.byte	0x7
 531 01a8 93010000 		.4byte	.LASF58
 532 01ac 07       		.uleb128 0x7
 533 01ad 04       		.byte	0x4
 534 01ae 05       		.byte	0x5
 535 01af 696E7400 		.ascii	"int\000"
 536 01b3 06       		.uleb128 0x6
 537 01b4 E3090000 		.4byte	.LASF59
 538 01b8 03       		.byte	0x3
 539 01b9 18       		.byte	0x18
 540 01ba 5A010000 		.4byte	0x15a
 541 01be 08       		.uleb128 0x8
 542 01bf B3010000 		.4byte	0x1b3
 543 01c3 06       		.uleb128 0x6
 544 01c4 A0060000 		.4byte	.LASF60
 545 01c8 03       		.byte	0x3
 546 01c9 2C       		.byte	0x2c
 547 01ca 7A010000 		.4byte	0x17a
 548 01ce 09       		.uleb128 0x9
 549 01cf C3010000 		.4byte	0x1c3
 550 01d3 06       		.uleb128 0x6
 551 01d4 2F080000 		.4byte	.LASF61
 552 01d8 03       		.byte	0x3
 553 01d9 30       		.byte	0x30
 554 01da 8C010000 		.4byte	0x18c
 555 01de 09       		.uleb128 0x9
 556 01df D3010000 		.4byte	0x1d3
 557 01e3 02       		.uleb128 0x2
 558 01e4 04       		.byte	0x4
 559 01e5 07       		.byte	0x7
 560 01e6 48050000 		.4byte	.LASF62
 561 01ea 0A       		.uleb128 0xa
 562 01eb CA060000 		.4byte	.LASF63
 563 01ef 04       		.byte	0x4
 564 01f0 4807     		.2byte	0x748
 565 01f2 CE010000 		.4byte	0x1ce
 566 01f6 01       		.byte	0x1
 567 01f7 01       		.byte	0x1
 568 01f8 0B       		.uleb128 0xb
 569 01f9 08060000 		.4byte	.LASF64
 570 01fd 05       		.byte	0x5
 571 01fe 33       		.byte	0x33
 572 01ff D3010000 		.4byte	0x1d3
 573 0203 01       		.byte	0x1
 574 0204 01       		.byte	0x1
 575 0205 0C       		.uleb128 0xc
ARM GAS  /tmp/ccIsCorD.s 			page 14


 576 0206 BE010000 		.4byte	0x1be
 577 020a 15020000 		.4byte	0x215
 578 020e 0D       		.uleb128 0xd
 579 020f E3010000 		.4byte	0x1e3
 580 0213 0F       		.byte	0xf
 581 0214 00       		.byte	0
 582 0215 08       		.uleb128 0x8
 583 0216 05020000 		.4byte	0x205
 584 021a 0B       		.uleb128 0xb
 585 021b C6040000 		.4byte	.LASF65
 586 021f 05       		.byte	0x5
 587 0220 34       		.byte	0x34
 588 0221 15020000 		.4byte	0x215
 589 0225 01       		.byte	0x1
 590 0226 01       		.byte	0x1
 591 0227 0C       		.uleb128 0xc
 592 0228 BE010000 		.4byte	0x1be
 593 022c 37020000 		.4byte	0x237
 594 0230 0D       		.uleb128 0xd
 595 0231 E3010000 		.4byte	0x1e3
 596 0235 07       		.byte	0x7
 597 0236 00       		.byte	0
 598 0237 08       		.uleb128 0x8
 599 0238 27020000 		.4byte	0x227
 600 023c 0B       		.uleb128 0xb
 601 023d CC000000 		.4byte	.LASF66
 602 0241 05       		.byte	0x5
 603 0242 35       		.byte	0x35
 604 0243 37020000 		.4byte	0x237
 605 0247 01       		.byte	0x1
 606 0248 01       		.byte	0x1
 607 0249 0E       		.uleb128 0xe
 608 024a 10       		.byte	0x10
 609 024b 06       		.byte	0x6
 610 024c 1E01     		.2byte	0x11e
 611 024e 8F020000 		.4byte	0x28f
 612 0252 0F       		.uleb128 0xf
 613 0253 43435200 		.ascii	"CCR\000"
 614 0257 06       		.byte	0x6
 615 0258 2001     		.2byte	0x120
 616 025a DE010000 		.4byte	0x1de
 617 025e 02       		.byte	0x2
 618 025f 23       		.byte	0x23
 619 0260 00       		.uleb128 0
 620 0261 10       		.uleb128 0x10
 621 0262 B9090000 		.4byte	.LASF67
 622 0266 06       		.byte	0x6
 623 0267 2101     		.2byte	0x121
 624 0269 DE010000 		.4byte	0x1de
 625 026d 02       		.byte	0x2
 626 026e 23       		.byte	0x23
 627 026f 04       		.uleb128 0x4
 628 0270 10       		.uleb128 0x10
 629 0271 81030000 		.4byte	.LASF68
 630 0275 06       		.byte	0x6
 631 0276 2201     		.2byte	0x122
 632 0278 DE010000 		.4byte	0x1de
ARM GAS  /tmp/ccIsCorD.s 			page 15


 633 027c 02       		.byte	0x2
 634 027d 23       		.byte	0x23
 635 027e 08       		.uleb128 0x8
 636 027f 10       		.uleb128 0x10
 637 0280 98000000 		.4byte	.LASF69
 638 0284 06       		.byte	0x6
 639 0285 2301     		.2byte	0x123
 640 0287 DE010000 		.4byte	0x1de
 641 028b 02       		.byte	0x2
 642 028c 23       		.byte	0x23
 643 028d 0C       		.uleb128 0xc
 644 028e 00       		.byte	0
 645 028f 11       		.uleb128 0x11
 646 0290 E6050000 		.4byte	.LASF70
 647 0294 06       		.byte	0x6
 648 0295 2401     		.2byte	0x124
 649 0297 49020000 		.4byte	0x249
 650 029b 0E       		.uleb128 0xe
 651 029c 08       		.byte	0x8
 652 029d 06       		.byte	0x6
 653 029e 2601     		.2byte	0x126
 654 02a0 C3020000 		.4byte	0x2c3
 655 02a4 0F       		.uleb128 0xf
 656 02a5 49535200 		.ascii	"ISR\000"
 657 02a9 06       		.byte	0x6
 658 02aa 2801     		.2byte	0x128
 659 02ac DE010000 		.4byte	0x1de
 660 02b0 02       		.byte	0x2
 661 02b1 23       		.byte	0x23
 662 02b2 00       		.uleb128 0
 663 02b3 10       		.uleb128 0x10
 664 02b4 5E080000 		.4byte	.LASF71
 665 02b8 06       		.byte	0x6
 666 02b9 2901     		.2byte	0x129
 667 02bb DE010000 		.4byte	0x1de
 668 02bf 02       		.byte	0x2
 669 02c0 23       		.byte	0x23
 670 02c1 04       		.uleb128 0x4
 671 02c2 00       		.byte	0
 672 02c3 11       		.uleb128 0x11
 673 02c4 24030000 		.4byte	.LASF72
 674 02c8 06       		.byte	0x6
 675 02c9 2A01     		.2byte	0x12a
 676 02cb 9B020000 		.4byte	0x29b
 677 02cf 0E       		.uleb128 0xe
 678 02d0 28       		.byte	0x28
 679 02d1 06       		.byte	0x6
 680 02d2 A301     		.2byte	0x1a3
 681 02d4 6E030000 		.4byte	0x36e
 682 02d8 0F       		.uleb128 0xf
 683 02d9 435200   		.ascii	"CR\000"
 684 02dc 06       		.byte	0x6
 685 02dd A501     		.2byte	0x1a5
 686 02df DE010000 		.4byte	0x1de
 687 02e3 02       		.byte	0x2
 688 02e4 23       		.byte	0x23
 689 02e5 00       		.uleb128 0
ARM GAS  /tmp/ccIsCorD.s 			page 16


 690 02e6 10       		.uleb128 0x10
 691 02e7 1D0A0000 		.4byte	.LASF73
 692 02eb 06       		.byte	0x6
 693 02ec A601     		.2byte	0x1a6
 694 02ee DE010000 		.4byte	0x1de
 695 02f2 02       		.byte	0x2
 696 02f3 23       		.byte	0x23
 697 02f4 04       		.uleb128 0x4
 698 02f5 0F       		.uleb128 0xf
 699 02f6 43495200 		.ascii	"CIR\000"
 700 02fa 06       		.byte	0x6
 701 02fb A701     		.2byte	0x1a7
 702 02fd DE010000 		.4byte	0x1de
 703 0301 02       		.byte	0x2
 704 0302 23       		.byte	0x23
 705 0303 08       		.uleb128 0x8
 706 0304 10       		.uleb128 0x10
 707 0305 09020000 		.4byte	.LASF74
 708 0309 06       		.byte	0x6
 709 030a A801     		.2byte	0x1a8
 710 030c DE010000 		.4byte	0x1de
 711 0310 02       		.byte	0x2
 712 0311 23       		.byte	0x23
 713 0312 0C       		.uleb128 0xc
 714 0313 10       		.uleb128 0x10
 715 0314 D3050000 		.4byte	.LASF75
 716 0318 06       		.byte	0x6
 717 0319 A901     		.2byte	0x1a9
 718 031b DE010000 		.4byte	0x1de
 719 031f 02       		.byte	0x2
 720 0320 23       		.byte	0x23
 721 0321 10       		.uleb128 0x10
 722 0322 10       		.uleb128 0x10
 723 0323 820A0000 		.4byte	.LASF76
 724 0327 06       		.byte	0x6
 725 0328 AA01     		.2byte	0x1aa
 726 032a DE010000 		.4byte	0x1de
 727 032e 02       		.byte	0x2
 728 032f 23       		.byte	0x23
 729 0330 14       		.uleb128 0x14
 730 0331 10       		.uleb128 0x10
 731 0332 86070000 		.4byte	.LASF77
 732 0336 06       		.byte	0x6
 733 0337 AB01     		.2byte	0x1ab
 734 0339 DE010000 		.4byte	0x1de
 735 033d 02       		.byte	0x2
 736 033e 23       		.byte	0x23
 737 033f 18       		.uleb128 0x18
 738 0340 10       		.uleb128 0x10
 739 0341 34090000 		.4byte	.LASF78
 740 0345 06       		.byte	0x6
 741 0346 AC01     		.2byte	0x1ac
 742 0348 DE010000 		.4byte	0x1de
 743 034c 02       		.byte	0x2
 744 034d 23       		.byte	0x23
 745 034e 1C       		.uleb128 0x1c
 746 034f 10       		.uleb128 0x10
ARM GAS  /tmp/ccIsCorD.s 			page 17


 747 0350 BF090000 		.4byte	.LASF79
 748 0354 06       		.byte	0x6
 749 0355 AD01     		.2byte	0x1ad
 750 0357 DE010000 		.4byte	0x1de
 751 035b 02       		.byte	0x2
 752 035c 23       		.byte	0x23
 753 035d 20       		.uleb128 0x20
 754 035e 0F       		.uleb128 0xf
 755 035f 43535200 		.ascii	"CSR\000"
 756 0363 06       		.byte	0x6
 757 0364 AE01     		.2byte	0x1ae
 758 0366 DE010000 		.4byte	0x1de
 759 036a 02       		.byte	0x2
 760 036b 23       		.byte	0x23
 761 036c 24       		.uleb128 0x24
 762 036d 00       		.byte	0
 763 036e 11       		.uleb128 0x11
 764 036f DF010000 		.4byte	.LASF80
 765 0373 06       		.byte	0x6
 766 0374 B101     		.2byte	0x1b1
 767 0376 CF020000 		.4byte	0x2cf
 768 037a 0E       		.uleb128 0xe
 769 037b 54       		.byte	0x54
 770 037c 06       		.byte	0x6
 771 037d D801     		.2byte	0x1d8
 772 037f BD040000 		.4byte	0x4bd
 773 0383 0F       		.uleb128 0xf
 774 0384 43523100 		.ascii	"CR1\000"
 775 0388 06       		.byte	0x6
 776 0389 DA01     		.2byte	0x1da
 777 038b DE010000 		.4byte	0x1de
 778 038f 02       		.byte	0x2
 779 0390 23       		.byte	0x23
 780 0391 00       		.uleb128 0
 781 0392 0F       		.uleb128 0xf
 782 0393 43523200 		.ascii	"CR2\000"
 783 0397 06       		.byte	0x6
 784 0398 DB01     		.2byte	0x1db
 785 039a DE010000 		.4byte	0x1de
 786 039e 02       		.byte	0x2
 787 039f 23       		.byte	0x23
 788 03a0 04       		.uleb128 0x4
 789 03a1 10       		.uleb128 0x10
 790 03a2 F0030000 		.4byte	.LASF81
 791 03a6 06       		.byte	0x6
 792 03a7 DC01     		.2byte	0x1dc
 793 03a9 DE010000 		.4byte	0x1de
 794 03ad 02       		.byte	0x2
 795 03ae 23       		.byte	0x23
 796 03af 08       		.uleb128 0x8
 797 03b0 10       		.uleb128 0x10
 798 03b1 5A000000 		.4byte	.LASF82
 799 03b5 06       		.byte	0x6
 800 03b6 DD01     		.2byte	0x1dd
 801 03b8 DE010000 		.4byte	0x1de
 802 03bc 02       		.byte	0x2
 803 03bd 23       		.byte	0x23
ARM GAS  /tmp/ccIsCorD.s 			page 18


 804 03be 0C       		.uleb128 0xc
 805 03bf 0F       		.uleb128 0xf
 806 03c0 535200   		.ascii	"SR\000"
 807 03c3 06       		.byte	0x6
 808 03c4 DE01     		.2byte	0x1de
 809 03c6 DE010000 		.4byte	0x1de
 810 03ca 02       		.byte	0x2
 811 03cb 23       		.byte	0x23
 812 03cc 10       		.uleb128 0x10
 813 03cd 0F       		.uleb128 0xf
 814 03ce 45475200 		.ascii	"EGR\000"
 815 03d2 06       		.byte	0x6
 816 03d3 DF01     		.2byte	0x1df
 817 03d5 DE010000 		.4byte	0x1de
 818 03d9 02       		.byte	0x2
 819 03da 23       		.byte	0x23
 820 03db 14       		.uleb128 0x14
 821 03dc 10       		.uleb128 0x10
 822 03dd 51010000 		.4byte	.LASF83
 823 03e1 06       		.byte	0x6
 824 03e2 E001     		.2byte	0x1e0
 825 03e4 DE010000 		.4byte	0x1de
 826 03e8 02       		.byte	0x2
 827 03e9 23       		.byte	0x23
 828 03ea 18       		.uleb128 0x18
 829 03eb 10       		.uleb128 0x10
 830 03ec 57010000 		.4byte	.LASF84
 831 03f0 06       		.byte	0x6
 832 03f1 E101     		.2byte	0x1e1
 833 03f3 DE010000 		.4byte	0x1de
 834 03f7 02       		.byte	0x2
 835 03f8 23       		.byte	0x23
 836 03f9 1C       		.uleb128 0x1c
 837 03fa 10       		.uleb128 0x10
 838 03fb 29020000 		.4byte	.LASF85
 839 03ff 06       		.byte	0x6
 840 0400 E201     		.2byte	0x1e2
 841 0402 DE010000 		.4byte	0x1de
 842 0406 02       		.byte	0x2
 843 0407 23       		.byte	0x23
 844 0408 20       		.uleb128 0x20
 845 0409 0F       		.uleb128 0xf
 846 040a 434E5400 		.ascii	"CNT\000"
 847 040e 06       		.byte	0x6
 848 040f E301     		.2byte	0x1e3
 849 0411 DE010000 		.4byte	0x1de
 850 0415 02       		.byte	0x2
 851 0416 23       		.byte	0x23
 852 0417 24       		.uleb128 0x24
 853 0418 0F       		.uleb128 0xf
 854 0419 50534300 		.ascii	"PSC\000"
 855 041d 06       		.byte	0x6
 856 041e E401     		.2byte	0x1e4
 857 0420 DE010000 		.4byte	0x1de
 858 0424 02       		.byte	0x2
 859 0425 23       		.byte	0x23
 860 0426 28       		.uleb128 0x28
ARM GAS  /tmp/ccIsCorD.s 			page 19


 861 0427 0F       		.uleb128 0xf
 862 0428 41525200 		.ascii	"ARR\000"
 863 042c 06       		.byte	0x6
 864 042d E501     		.2byte	0x1e5
 865 042f DE010000 		.4byte	0x1de
 866 0433 02       		.byte	0x2
 867 0434 23       		.byte	0x23
 868 0435 2C       		.uleb128 0x2c
 869 0436 0F       		.uleb128 0xf
 870 0437 52435200 		.ascii	"RCR\000"
 871 043b 06       		.byte	0x6
 872 043c E601     		.2byte	0x1e6
 873 043e DE010000 		.4byte	0x1de
 874 0442 02       		.byte	0x2
 875 0443 23       		.byte	0x23
 876 0444 30       		.uleb128 0x30
 877 0445 10       		.uleb128 0x10
 878 0446 A0090000 		.4byte	.LASF86
 879 044a 06       		.byte	0x6
 880 044b E701     		.2byte	0x1e7
 881 044d DE010000 		.4byte	0x1de
 882 0451 02       		.byte	0x2
 883 0452 23       		.byte	0x23
 884 0453 34       		.uleb128 0x34
 885 0454 10       		.uleb128 0x10
 886 0455 05010000 		.4byte	.LASF87
 887 0459 06       		.byte	0x6
 888 045a E801     		.2byte	0x1e8
 889 045c DE010000 		.4byte	0x1de
 890 0460 02       		.byte	0x2
 891 0461 23       		.byte	0x23
 892 0462 38       		.uleb128 0x38
 893 0463 10       		.uleb128 0x10
 894 0464 AF090000 		.4byte	.LASF88
 895 0468 06       		.byte	0x6
 896 0469 E901     		.2byte	0x1e9
 897 046b DE010000 		.4byte	0x1de
 898 046f 02       		.byte	0x2
 899 0470 23       		.byte	0x23
 900 0471 3C       		.uleb128 0x3c
 901 0472 10       		.uleb128 0x10
 902 0473 B4090000 		.4byte	.LASF89
 903 0477 06       		.byte	0x6
 904 0478 EA01     		.2byte	0x1ea
 905 047a DE010000 		.4byte	0x1de
 906 047e 02       		.byte	0x2
 907 047f 23       		.byte	0x23
 908 0480 40       		.uleb128 0x40
 909 0481 10       		.uleb128 0x10
 910 0482 FF020000 		.4byte	.LASF90
 911 0486 06       		.byte	0x6
 912 0487 EB01     		.2byte	0x1eb
 913 0489 DE010000 		.4byte	0x1de
 914 048d 02       		.byte	0x2
 915 048e 23       		.byte	0x23
 916 048f 44       		.uleb128 0x44
 917 0490 0F       		.uleb128 0xf
ARM GAS  /tmp/ccIsCorD.s 			page 20


 918 0491 44435200 		.ascii	"DCR\000"
 919 0495 06       		.byte	0x6
 920 0496 EC01     		.2byte	0x1ec
 921 0498 DE010000 		.4byte	0x1de
 922 049c 02       		.byte	0x2
 923 049d 23       		.byte	0x23
 924 049e 48       		.uleb128 0x48
 925 049f 10       		.uleb128 0x10
 926 04a0 AD080000 		.4byte	.LASF91
 927 04a4 06       		.byte	0x6
 928 04a5 ED01     		.2byte	0x1ed
 929 04a7 DE010000 		.4byte	0x1de
 930 04ab 02       		.byte	0x2
 931 04ac 23       		.byte	0x23
 932 04ad 4C       		.uleb128 0x4c
 933 04ae 0F       		.uleb128 0xf
 934 04af 4F5200   		.ascii	"OR\000"
 935 04b2 06       		.byte	0x6
 936 04b3 EE01     		.2byte	0x1ee
 937 04b5 DE010000 		.4byte	0x1de
 938 04b9 02       		.byte	0x2
 939 04ba 23       		.byte	0x23
 940 04bb 50       		.uleb128 0x50
 941 04bc 00       		.byte	0
 942 04bd 11       		.uleb128 0x11
 943 04be DA000000 		.4byte	.LASF92
 944 04c2 06       		.byte	0x6
 945 04c3 EF01     		.2byte	0x1ef
 946 04c5 7A030000 		.4byte	0x37a
 947 04c9 02       		.uleb128 0x2
 948 04ca 08       		.byte	0x8
 949 04cb 04       		.byte	0x4
 950 04cc 5D050000 		.4byte	.LASF93
 951 04d0 03       		.uleb128 0x3
 952 04d1 01       		.byte	0x1
 953 04d2 65010000 		.4byte	0x165
 954 04d6 07       		.byte	0x7
 955 04d7 2A       		.byte	0x2a
 956 04d8 F5040000 		.4byte	0x4f5
 957 04dc 05       		.uleb128 0x5
 958 04dd D6030000 		.4byte	.LASF94
 959 04e1 00       		.byte	0
 960 04e2 05       		.uleb128 0x5
 961 04e3 54080000 		.4byte	.LASF95
 962 04e7 01       		.byte	0x1
 963 04e8 05       		.uleb128 0x5
 964 04e9 C3000000 		.4byte	.LASF96
 965 04ed 02       		.byte	0x2
 966 04ee 05       		.uleb128 0x5
 967 04ef 18030000 		.4byte	.LASF97
 968 04f3 03       		.byte	0x3
 969 04f4 00       		.byte	0
 970 04f5 06       		.uleb128 0x6
 971 04f6 9E040000 		.4byte	.LASF98
 972 04fa 07       		.byte	0x7
 973 04fb 2F       		.byte	0x2f
 974 04fc D0040000 		.4byte	0x4d0
ARM GAS  /tmp/ccIsCorD.s 			page 21


 975 0500 03       		.uleb128 0x3
 976 0501 01       		.byte	0x1
 977 0502 65010000 		.4byte	0x165
 978 0506 07       		.byte	0x7
 979 0507 35       		.byte	0x35
 980 0508 19050000 		.4byte	0x519
 981 050c 05       		.uleb128 0x5
 982 050d 220A0000 		.4byte	.LASF99
 983 0511 00       		.byte	0
 984 0512 05       		.uleb128 0x5
 985 0513 74050000 		.4byte	.LASF100
 986 0517 01       		.byte	0x1
 987 0518 00       		.byte	0
 988 0519 06       		.uleb128 0x6
 989 051a CF010000 		.4byte	.LASF101
 990 051e 07       		.byte	0x7
 991 051f 38       		.byte	0x38
 992 0520 00050000 		.4byte	0x500
 993 0524 12       		.uleb128 0x12
 994 0525 14       		.byte	0x14
 995 0526 08       		.byte	0x8
 996 0527 40       		.byte	0x40
 997 0528 73050000 		.4byte	0x573
 998 052c 13       		.uleb128 0x13
 999 052d DC050000 		.4byte	.LASF102
 1000 0531 08       		.byte	0x8
 1001 0532 42       		.byte	0x42
 1002 0533 D3010000 		.4byte	0x1d3
 1003 0537 02       		.byte	0x2
 1004 0538 23       		.byte	0x23
 1005 0539 00       		.uleb128 0
 1006 053a 13       		.uleb128 0x13
 1007 053b 940A0000 		.4byte	.LASF103
 1008 053f 08       		.byte	0x8
 1009 0540 45       		.byte	0x45
 1010 0541 D3010000 		.4byte	0x1d3
 1011 0545 02       		.byte	0x2
 1012 0546 23       		.byte	0x23
 1013 0547 04       		.uleb128 0x4
 1014 0548 13       		.uleb128 0x13
 1015 0549 DE040000 		.4byte	.LASF104
 1016 054d 08       		.byte	0x8
 1017 054e 48       		.byte	0x48
 1018 054f D3010000 		.4byte	0x1d3
 1019 0553 02       		.byte	0x2
 1020 0554 23       		.byte	0x23
 1021 0555 08       		.uleb128 0x8
 1022 0556 13       		.uleb128 0x13
 1023 0557 9D000000 		.4byte	.LASF105
 1024 055b 08       		.byte	0x8
 1025 055c 4B       		.byte	0x4b
 1026 055d D3010000 		.4byte	0x1d3
 1027 0561 02       		.byte	0x2
 1028 0562 23       		.byte	0x23
 1029 0563 0C       		.uleb128 0xc
 1030 0564 13       		.uleb128 0x13
 1031 0565 DB080000 		.4byte	.LASF106
ARM GAS  /tmp/ccIsCorD.s 			page 22


 1032 0569 08       		.byte	0x8
 1033 056a 4E       		.byte	0x4e
 1034 056b D3010000 		.4byte	0x1d3
 1035 056f 02       		.byte	0x2
 1036 0570 23       		.byte	0x23
 1037 0571 10       		.uleb128 0x10
 1038 0572 00       		.byte	0
 1039 0573 06       		.uleb128 0x6
 1040 0574 C0050000 		.4byte	.LASF107
 1041 0578 08       		.byte	0x8
 1042 0579 50       		.byte	0x50
 1043 057a 24050000 		.4byte	0x524
 1044 057e 12       		.uleb128 0x12
 1045 057f 1C       		.byte	0x1c
 1046 0580 09       		.byte	0x9
 1047 0581 30       		.byte	0x30
 1048 0582 E9050000 		.4byte	0x5e9
 1049 0586 13       		.uleb128 0x13
 1050 0587 E0020000 		.4byte	.LASF108
 1051 058b 09       		.byte	0x9
 1052 058c 32       		.byte	0x32
 1053 058d D3010000 		.4byte	0x1d3
 1054 0591 02       		.byte	0x2
 1055 0592 23       		.byte	0x23
 1056 0593 00       		.uleb128 0
 1057 0594 13       		.uleb128 0x13
 1058 0595 12020000 		.4byte	.LASF109
 1059 0599 09       		.byte	0x9
 1060 059a 36       		.byte	0x36
 1061 059b D3010000 		.4byte	0x1d3
 1062 059f 02       		.byte	0x2
 1063 05a0 23       		.byte	0x23
 1064 05a1 04       		.uleb128 0x4
 1065 05a2 13       		.uleb128 0x13
 1066 05a3 B2080000 		.4byte	.LASF110
 1067 05a7 09       		.byte	0x9
 1068 05a8 39       		.byte	0x39
 1069 05a9 D3010000 		.4byte	0x1d3
 1070 05ad 02       		.byte	0x2
 1071 05ae 23       		.byte	0x23
 1072 05af 08       		.uleb128 0x8
 1073 05b0 13       		.uleb128 0x13
 1074 05b1 8C090000 		.4byte	.LASF111
 1075 05b5 09       		.byte	0x9
 1076 05b6 3C       		.byte	0x3c
 1077 05b7 D3010000 		.4byte	0x1d3
 1078 05bb 02       		.byte	0x2
 1079 05bc 23       		.byte	0x23
 1080 05bd 0C       		.uleb128 0xc
 1081 05be 13       		.uleb128 0x13
 1082 05bf 78040000 		.4byte	.LASF112
 1083 05c3 09       		.byte	0x9
 1084 05c4 3F       		.byte	0x3f
 1085 05c5 D3010000 		.4byte	0x1d3
 1086 05c9 02       		.byte	0x2
 1087 05ca 23       		.byte	0x23
 1088 05cb 10       		.uleb128 0x10
ARM GAS  /tmp/ccIsCorD.s 			page 23


 1089 05cc 13       		.uleb128 0x13
 1090 05cd DB020000 		.4byte	.LASF113
 1091 05d1 09       		.byte	0x9
 1092 05d2 42       		.byte	0x42
 1093 05d3 D3010000 		.4byte	0x1d3
 1094 05d7 02       		.byte	0x2
 1095 05d8 23       		.byte	0x23
 1096 05d9 14       		.uleb128 0x14
 1097 05da 13       		.uleb128 0x13
 1098 05db DA090000 		.4byte	.LASF114
 1099 05df 09       		.byte	0x9
 1100 05e0 47       		.byte	0x47
 1101 05e1 D3010000 		.4byte	0x1d3
 1102 05e5 02       		.byte	0x2
 1103 05e6 23       		.byte	0x23
 1104 05e7 18       		.uleb128 0x18
 1105 05e8 00       		.byte	0
 1106 05e9 06       		.uleb128 0x6
 1107 05ea 88000000 		.4byte	.LASF115
 1108 05ee 09       		.byte	0x9
 1109 05ef 49       		.byte	0x49
 1110 05f0 7E050000 		.4byte	0x57e
 1111 05f4 03       		.uleb128 0x3
 1112 05f5 01       		.byte	0x1
 1113 05f6 65010000 		.4byte	0x165
 1114 05fa 09       		.byte	0x9
 1115 05fb 4F       		.byte	0x4f
 1116 05fc 19060000 		.4byte	0x619
 1117 0600 05       		.uleb128 0x5
 1118 0601 49030000 		.4byte	.LASF116
 1119 0605 00       		.byte	0
 1120 0606 05       		.uleb128 0x5
 1121 0607 63080000 		.4byte	.LASF117
 1122 060b 01       		.byte	0x1
 1123 060c 05       		.uleb128 0x5
 1124 060d F6060000 		.4byte	.LASF118
 1125 0611 02       		.byte	0x2
 1126 0612 05       		.uleb128 0x5
 1127 0613 C4090000 		.4byte	.LASF119
 1128 0617 03       		.byte	0x3
 1129 0618 00       		.byte	0
 1130 0619 06       		.uleb128 0x6
 1131 061a 89040000 		.4byte	.LASF120
 1132 061e 09       		.byte	0x9
 1133 061f 54       		.byte	0x54
 1134 0620 F4050000 		.4byte	0x5f4
 1135 0624 14       		.uleb128 0x14
 1136 0625 1B080000 		.4byte	.LASF187
 1137 0629 44       		.byte	0x44
 1138 062a 09       		.byte	0x9
 1139 062b 6F       		.byte	0x6f
 1140 062c D9060000 		.4byte	0x6d9
 1141 0630 13       		.uleb128 0x13
 1142 0631 5D060000 		.4byte	.LASF121
 1143 0635 09       		.byte	0x9
 1144 0636 71       		.byte	0x71
 1145 0637 D9060000 		.4byte	0x6d9
ARM GAS  /tmp/ccIsCorD.s 			page 24


 1146 063b 02       		.byte	0x2
 1147 063c 23       		.byte	0x23
 1148 063d 00       		.uleb128 0
 1149 063e 13       		.uleb128 0x13
 1150 063f 83000000 		.4byte	.LASF122
 1151 0643 09       		.byte	0x9
 1152 0644 73       		.byte	0x73
 1153 0645 E9050000 		.4byte	0x5e9
 1154 0649 02       		.byte	0x2
 1155 064a 23       		.byte	0x23
 1156 064b 04       		.uleb128 0x4
 1157 064c 13       		.uleb128 0x13
 1158 064d B0020000 		.4byte	.LASF123
 1159 0651 09       		.byte	0x9
 1160 0652 75       		.byte	0x75
 1161 0653 19050000 		.4byte	0x519
 1162 0657 02       		.byte	0x2
 1163 0658 23       		.byte	0x23
 1164 0659 20       		.uleb128 0x20
 1165 065a 13       		.uleb128 0x13
 1166 065b 15000000 		.4byte	.LASF124
 1167 065f 09       		.byte	0x9
 1168 0660 77       		.byte	0x77
 1169 0661 19060000 		.4byte	0x619
 1170 0665 02       		.byte	0x2
 1171 0666 23       		.byte	0x23
 1172 0667 21       		.uleb128 0x21
 1173 0668 13       		.uleb128 0x13
 1174 0669 83020000 		.4byte	.LASF125
 1175 066d 09       		.byte	0x9
 1176 066e 79       		.byte	0x79
 1177 066f DF060000 		.4byte	0x6df
 1178 0673 02       		.byte	0x2
 1179 0674 23       		.byte	0x23
 1180 0675 24       		.uleb128 0x24
 1181 0676 13       		.uleb128 0x13
 1182 0677 670A0000 		.4byte	.LASF126
 1183 067b 09       		.byte	0x9
 1184 067c 7B       		.byte	0x7b
 1185 067d F3060000 		.4byte	0x6f3
 1186 0681 02       		.byte	0x2
 1187 0682 23       		.byte	0x23
 1188 0683 28       		.uleb128 0x28
 1189 0684 13       		.uleb128 0x13
 1190 0685 EB010000 		.4byte	.LASF127
 1191 0689 09       		.byte	0x9
 1192 068a 7D       		.byte	0x7d
 1193 068b F3060000 		.4byte	0x6f3
 1194 068f 02       		.byte	0x2
 1195 0690 23       		.byte	0x23
 1196 0691 2C       		.uleb128 0x2c
 1197 0692 13       		.uleb128 0x13
 1198 0693 9C050000 		.4byte	.LASF128
 1199 0697 09       		.byte	0x9
 1200 0698 7F       		.byte	0x7f
 1201 0699 F3060000 		.4byte	0x6f3
 1202 069d 02       		.byte	0x2
ARM GAS  /tmp/ccIsCorD.s 			page 25


 1203 069e 23       		.byte	0x23
 1204 069f 30       		.uleb128 0x30
 1205 06a0 13       		.uleb128 0x13
 1206 06a1 450A0000 		.4byte	.LASF129
 1207 06a5 09       		.byte	0x9
 1208 06a6 81       		.byte	0x81
 1209 06a7 F3060000 		.4byte	0x6f3
 1210 06ab 02       		.byte	0x2
 1211 06ac 23       		.byte	0x23
 1212 06ad 34       		.uleb128 0x34
 1213 06ae 13       		.uleb128 0x13
 1214 06af 6E040000 		.4byte	.LASF130
 1215 06b3 09       		.byte	0x9
 1216 06b4 83       		.byte	0x83
 1217 06b5 DE010000 		.4byte	0x1de
 1218 06b9 02       		.byte	0x2
 1219 06ba 23       		.byte	0x23
 1220 06bb 38       		.uleb128 0x38
 1221 06bc 13       		.uleb128 0x13
 1222 06bd 5F040000 		.4byte	.LASF131
 1223 06c1 09       		.byte	0x9
 1224 06c2 85       		.byte	0x85
 1225 06c3 F9060000 		.4byte	0x6f9
 1226 06c7 02       		.byte	0x2
 1227 06c8 23       		.byte	0x23
 1228 06c9 3C       		.uleb128 0x3c
 1229 06ca 13       		.uleb128 0x13
 1230 06cb 57020000 		.4byte	.LASF132
 1231 06cf 09       		.byte	0x9
 1232 06d0 87       		.byte	0x87
 1233 06d1 D3010000 		.4byte	0x1d3
 1234 06d5 02       		.byte	0x2
 1235 06d6 23       		.byte	0x23
 1236 06d7 40       		.uleb128 0x40
 1237 06d8 00       		.byte	0
 1238 06d9 15       		.uleb128 0x15
 1239 06da 04       		.byte	0x4
 1240 06db 8F020000 		.4byte	0x28f
 1241 06df 16       		.uleb128 0x16
 1242 06e0 04       		.byte	0x4
 1243 06e1 17       		.uleb128 0x17
 1244 06e2 01       		.byte	0x1
 1245 06e3 ED060000 		.4byte	0x6ed
 1246 06e7 18       		.uleb128 0x18
 1247 06e8 ED060000 		.4byte	0x6ed
 1248 06ec 00       		.byte	0
 1249 06ed 15       		.uleb128 0x15
 1250 06ee 04       		.byte	0x4
 1251 06ef 24060000 		.4byte	0x624
 1252 06f3 15       		.uleb128 0x15
 1253 06f4 04       		.byte	0x4
 1254 06f5 E1060000 		.4byte	0x6e1
 1255 06f9 15       		.uleb128 0x15
 1256 06fa 04       		.byte	0x4
 1257 06fb C3020000 		.4byte	0x2c3
 1258 06ff 06       		.uleb128 0x6
 1259 0700 8A050000 		.4byte	.LASF133
ARM GAS  /tmp/ccIsCorD.s 			page 26


 1260 0704 09       		.byte	0x9
 1261 0705 89       		.byte	0x89
 1262 0706 24060000 		.4byte	0x624
 1263 070a 15       		.uleb128 0x15
 1264 070b 04       		.byte	0x4
 1265 070c FF060000 		.4byte	0x6ff
 1266 0710 12       		.uleb128 0x12
 1267 0711 18       		.byte	0x18
 1268 0712 0A       		.byte	0xa
 1269 0713 2F       		.byte	0x2f
 1270 0714 6D070000 		.4byte	0x76d
 1271 0718 13       		.uleb128 0x13
 1272 0719 2E020000 		.4byte	.LASF134
 1273 071d 0A       		.byte	0xa
 1274 071e 31       		.byte	0x31
 1275 071f D3010000 		.4byte	0x1d3
 1276 0723 02       		.byte	0x2
 1277 0724 23       		.byte	0x23
 1278 0725 00       		.uleb128 0
 1279 0726 13       		.uleb128 0x13
 1280 0727 BA040000 		.4byte	.LASF135
 1281 072b 0A       		.byte	0xa
 1282 072c 34       		.byte	0x34
 1283 072d D3010000 		.4byte	0x1d3
 1284 0731 02       		.byte	0x2
 1285 0732 23       		.byte	0x23
 1286 0733 04       		.uleb128 0x4
 1287 0734 13       		.uleb128 0x13
 1288 0735 8C010000 		.4byte	.LASF136
 1289 0739 0A       		.byte	0xa
 1290 073a 37       		.byte	0x37
 1291 073b D3010000 		.4byte	0x1d3
 1292 073f 02       		.byte	0x2
 1293 0740 23       		.byte	0x23
 1294 0741 08       		.uleb128 0x8
 1295 0742 13       		.uleb128 0x13
 1296 0743 FA050000 		.4byte	.LASF137
 1297 0747 0A       		.byte	0xa
 1298 0748 3B       		.byte	0x3b
 1299 0749 D3010000 		.4byte	0x1d3
 1300 074d 02       		.byte	0x2
 1301 074e 23       		.byte	0x23
 1302 074f 0C       		.uleb128 0xc
 1303 0750 13       		.uleb128 0x13
 1304 0751 AE050000 		.4byte	.LASF138
 1305 0755 0A       		.byte	0xa
 1306 0756 3E       		.byte	0x3e
 1307 0757 D3010000 		.4byte	0x1d3
 1308 075b 02       		.byte	0x2
 1309 075c 23       		.byte	0x23
 1310 075d 10       		.uleb128 0x10
 1311 075e 13       		.uleb128 0x13
 1312 075f 3F010000 		.4byte	.LASF139
 1313 0763 0A       		.byte	0xa
 1314 0764 47       		.byte	0x47
 1315 0765 D3010000 		.4byte	0x1d3
 1316 0769 02       		.byte	0x2
ARM GAS  /tmp/ccIsCorD.s 			page 27


 1317 076a 23       		.byte	0x23
 1318 076b 14       		.uleb128 0x14
 1319 076c 00       		.byte	0
 1320 076d 06       		.uleb128 0x6
 1321 076e 77090000 		.4byte	.LASF140
 1322 0772 0A       		.byte	0xa
 1323 0773 49       		.byte	0x49
 1324 0774 10070000 		.4byte	0x710
 1325 0778 19       		.uleb128 0x19
 1326 0779 01       		.byte	0x1
 1327 077a 65010000 		.4byte	0x165
 1328 077e 0A       		.byte	0xa
 1329 077f 2101     		.2byte	0x121
 1330 0781 A4070000 		.4byte	0x7a4
 1331 0785 05       		.uleb128 0x5
 1332 0786 34050000 		.4byte	.LASF141
 1333 078a 00       		.byte	0
 1334 078b 05       		.uleb128 0x5
 1335 078c 72060000 		.4byte	.LASF142
 1336 0790 01       		.byte	0x1
 1337 0791 05       		.uleb128 0x5
 1338 0792 21050000 		.4byte	.LASF143
 1339 0796 02       		.byte	0x2
 1340 0797 05       		.uleb128 0x5
 1341 0798 EC040000 		.4byte	.LASF144
 1342 079c 03       		.byte	0x3
 1343 079d 05       		.uleb128 0x5
 1344 079e 07080000 		.4byte	.LASF145
 1345 07a2 04       		.byte	0x4
 1346 07a3 00       		.byte	0
 1347 07a4 11       		.uleb128 0x11
 1348 07a5 EA020000 		.4byte	.LASF146
 1349 07a9 0A       		.byte	0xa
 1350 07aa 2701     		.2byte	0x127
 1351 07ac 78070000 		.4byte	0x778
 1352 07b0 09       		.uleb128 0x9
 1353 07b1 A4070000 		.4byte	0x7a4
 1354 07b5 19       		.uleb128 0x19
 1355 07b6 01       		.byte	0x1
 1356 07b7 65010000 		.4byte	0x165
 1357 07bb 0A       		.byte	0xa
 1358 07bc 2D01     		.2byte	0x12d
 1359 07be E1070000 		.4byte	0x7e1
 1360 07c2 05       		.uleb128 0x5
 1361 07c3 BA070000 		.4byte	.LASF147
 1362 07c7 01       		.byte	0x1
 1363 07c8 05       		.uleb128 0x5
 1364 07c9 30030000 		.4byte	.LASF148
 1365 07cd 02       		.byte	0x2
 1366 07ce 05       		.uleb128 0x5
 1367 07cf E3070000 		.4byte	.LASF149
 1368 07d3 04       		.byte	0x4
 1369 07d4 05       		.uleb128 0x5
 1370 07d5 5D030000 		.4byte	.LASF150
 1371 07d9 08       		.byte	0x8
 1372 07da 05       		.uleb128 0x5
 1373 07db 31040000 		.4byte	.LASF151
ARM GAS  /tmp/ccIsCorD.s 			page 28


 1374 07df 00       		.byte	0
 1375 07e0 00       		.byte	0
 1376 07e1 11       		.uleb128 0x11
 1377 07e2 F4090000 		.4byte	.LASF152
 1378 07e6 0A       		.byte	0xa
 1379 07e7 3301     		.2byte	0x133
 1380 07e9 B5070000 		.4byte	0x7b5
 1381 07ed 0E       		.uleb128 0xe
 1382 07ee 40       		.byte	0x40
 1383 07ef 0A       		.byte	0xa
 1384 07f0 3B01     		.2byte	0x13b
 1385 07f2 51080000 		.4byte	0x851
 1386 07f6 10       		.uleb128 0x10
 1387 07f7 5D060000 		.4byte	.LASF121
 1388 07fb 0A       		.byte	0xa
 1389 07fc 3E01     		.2byte	0x13e
 1390 07fe 51080000 		.4byte	0x851
 1391 0802 02       		.byte	0x2
 1392 0803 23       		.byte	0x23
 1393 0804 00       		.uleb128 0
 1394 0805 10       		.uleb128 0x10
 1395 0806 83000000 		.4byte	.LASF122
 1396 080a 0A       		.byte	0xa
 1397 080b 3F01     		.2byte	0x13f
 1398 080d 6D070000 		.4byte	0x76d
 1399 0811 02       		.byte	0x2
 1400 0812 23       		.byte	0x23
 1401 0813 04       		.uleb128 0x4
 1402 0814 10       		.uleb128 0x10
 1403 0815 86060000 		.4byte	.LASF153
 1404 0819 0A       		.byte	0xa
 1405 081a 4001     		.2byte	0x140
 1406 081c E1070000 		.4byte	0x7e1
 1407 0820 02       		.byte	0x2
 1408 0821 23       		.byte	0x23
 1409 0822 1C       		.uleb128 0x1c
 1410 0823 10       		.uleb128 0x10
 1411 0824 1C050000 		.4byte	.LASF154
 1412 0828 0A       		.byte	0xa
 1413 0829 4101     		.2byte	0x141
 1414 082b 57080000 		.4byte	0x857
 1415 082f 02       		.byte	0x2
 1416 0830 23       		.byte	0x23
 1417 0831 20       		.uleb128 0x20
 1418 0832 10       		.uleb128 0x10
 1419 0833 B0020000 		.4byte	.LASF123
 1420 0837 0A       		.byte	0xa
 1421 0838 4301     		.2byte	0x143
 1422 083a 19050000 		.4byte	0x519
 1423 083e 02       		.byte	0x2
 1424 083f 23       		.byte	0x23
 1425 0840 3C       		.uleb128 0x3c
 1426 0841 10       		.uleb128 0x10
 1427 0842 15000000 		.4byte	.LASF124
 1428 0846 0A       		.byte	0xa
 1429 0847 4401     		.2byte	0x144
 1430 0849 B0070000 		.4byte	0x7b0
ARM GAS  /tmp/ccIsCorD.s 			page 29


 1431 084d 02       		.byte	0x2
 1432 084e 23       		.byte	0x23
 1433 084f 3D       		.uleb128 0x3d
 1434 0850 00       		.byte	0
 1435 0851 15       		.uleb128 0x15
 1436 0852 04       		.byte	0x4
 1437 0853 BD040000 		.4byte	0x4bd
 1438 0857 0C       		.uleb128 0xc
 1439 0858 0A070000 		.4byte	0x70a
 1440 085c 67080000 		.4byte	0x867
 1441 0860 0D       		.uleb128 0xd
 1442 0861 E3010000 		.4byte	0x1e3
 1443 0865 06       		.byte	0x6
 1444 0866 00       		.byte	0
 1445 0867 11       		.uleb128 0x11
 1446 0868 1F040000 		.4byte	.LASF155
 1447 086c 0A       		.byte	0xa
 1448 086d 6301     		.2byte	0x163
 1449 086f ED070000 		.4byte	0x7ed
 1450 0873 03       		.uleb128 0x3
 1451 0874 01       		.byte	0x1
 1452 0875 65010000 		.4byte	0x165
 1453 0879 0B       		.byte	0xb
 1454 087a 33       		.byte	0x33
 1455 087b 98080000 		.4byte	0x898
 1456 087f 05       		.uleb128 0x5
 1457 0880 38020000 		.4byte	.LASF156
 1458 0884 64       		.byte	0x64
 1459 0885 05       		.uleb128 0x5
 1460 0886 04030000 		.4byte	.LASF157
 1461 088a 0A       		.byte	0xa
 1462 088b 05       		.uleb128 0x5
 1463 088c C3030000 		.4byte	.LASF158
 1464 0890 01       		.byte	0x1
 1465 0891 05       		.uleb128 0x5
 1466 0892 EA080000 		.4byte	.LASF159
 1467 0896 01       		.byte	0x1
 1468 0897 00       		.byte	0
 1469 0898 06       		.uleb128 0x6
 1470 0899 3D000000 		.4byte	.LASF160
 1471 089d 0B       		.byte	0xb
 1472 089e 38       		.byte	0x38
 1473 089f 73080000 		.4byte	0x873
 1474 08a3 0B       		.uleb128 0xb
 1475 08a4 77080000 		.4byte	.LASF161
 1476 08a8 0B       		.byte	0xb
 1477 08a9 3D       		.byte	0x3d
 1478 08aa D3010000 		.4byte	0x1d3
 1479 08ae 01       		.byte	0x1
 1480 08af 01       		.byte	0x1
 1481 08b0 0B       		.uleb128 0xb
 1482 08b1 76030000 		.4byte	.LASF162
 1483 08b5 0B       		.byte	0xb
 1484 08b6 3E       		.byte	0x3e
 1485 08b7 98080000 		.4byte	0x898
 1486 08bb 01       		.byte	0x1
 1487 08bc 01       		.byte	0x1
ARM GAS  /tmp/ccIsCorD.s 			page 30


 1488 08bd 1A       		.uleb128 0x1a
 1489 08be B0040000 		.4byte	.LASF163
 1490 08c2 01       		.byte	0x1
 1491 08c3 29       		.byte	0x29
 1492 08c4 67080000 		.4byte	0x867
 1493 08c8 01       		.byte	0x1
 1494 08c9 05       		.byte	0x5
 1495 08ca 03       		.byte	0x3
 1496 08cb 00000000 		.4byte	TimHandle
 1497 08cf 1B       		.uleb128 0x1b
 1498 08d0 01       		.byte	0x1
 1499 08d1 570A0000 		.4byte	.LASF164
 1500 08d5 01       		.byte	0x1
 1501 08d6 99       		.byte	0x99
 1502 08d7 01       		.byte	0x1
 1503 08d8 B0000000 		.4byte	.LFB69
 1504 08dc BC000000 		.4byte	.LFE69
 1505 08e0 02       		.byte	0x2
 1506 08e1 7D       		.byte	0x7d
 1507 08e2 00       		.sleb128 0
 1508 08e3 01       		.byte	0x1
 1509 08e4 FD080000 		.4byte	0x8fd
 1510 08e8 1C       		.uleb128 0x1c
 1511 08e9 B6000000 		.4byte	.LVL17
 1512 08ed 01       		.byte	0x1
 1513 08ee 750A0000 		.4byte	0xa75
 1514 08f2 1D       		.uleb128 0x1d
 1515 08f3 01       		.byte	0x1
 1516 08f4 50       		.byte	0x50
 1517 08f5 05       		.byte	0x5
 1518 08f6 03       		.byte	0x3
 1519 08f7 00000000 		.4byte	TimHandle
 1520 08fb 00       		.byte	0
 1521 08fc 00       		.byte	0
 1522 08fd 1B       		.uleb128 0x1b
 1523 08fe 01       		.byte	0x1
 1524 08ff AA010000 		.4byte	.LASF165
 1525 0903 01       		.byte	0x1
 1526 0904 90       		.byte	0x90
 1527 0905 01       		.byte	0x1
 1528 0906 AC000000 		.4byte	.LFB68
 1529 090a B0000000 		.4byte	.LFE68
 1530 090e 02       		.byte	0x2
 1531 090f 7D       		.byte	0x7d
 1532 0910 00       		.sleb128 0
 1533 0911 01       		.byte	0x1
 1534 0912 30090000 		.4byte	0x930
 1535 0916 1E       		.uleb128 0x1e
 1536 0917 E6000000 		.4byte	.LASF168
 1537 091b 01       		.byte	0x1
 1538 091c 90       		.byte	0x90
 1539 091d 30090000 		.4byte	0x930
 1540 0921 00000000 		.4byte	.LLST5
 1541 0925 1F       		.uleb128 0x1f
 1542 0926 B0000000 		.4byte	.LVL16
 1543 092a 01       		.byte	0x1
 1544 092b 830A0000 		.4byte	0xa83
ARM GAS  /tmp/ccIsCorD.s 			page 31


 1545 092f 00       		.byte	0
 1546 0930 15       		.uleb128 0x15
 1547 0931 04       		.byte	0x4
 1548 0932 67080000 		.4byte	0x867
 1549 0936 20       		.uleb128 0x20
 1550 0937 01       		.byte	0x1
 1551 0938 18060000 		.4byte	.LASF166
 1552 093c 01       		.byte	0x1
 1553 093d 82       		.byte	0x82
 1554 093e 01       		.byte	0x1
 1555 093f 98000000 		.4byte	.LFB67
 1556 0943 AC000000 		.4byte	.LFE67
 1557 0947 02       		.byte	0x2
 1558 0948 7D       		.byte	0x7d
 1559 0949 00       		.sleb128 0
 1560 094a 01       		.byte	0x1
 1561 094b 20       		.uleb128 0x20
 1562 094c 01       		.byte	0x1
 1563 094d D3070000 		.4byte	.LASF167
 1564 0951 01       		.byte	0x1
 1565 0952 77       		.byte	0x77
 1566 0953 01       		.byte	0x1
 1567 0954 84000000 		.4byte	.LFB66
 1568 0958 98000000 		.4byte	.LFE66
 1569 095c 02       		.byte	0x2
 1570 095d 7D       		.byte	0x7d
 1571 095e 00       		.sleb128 0
 1572 095f 01       		.byte	0x1
 1573 0960 21       		.uleb128 0x21
 1574 0961 01       		.byte	0x1
 1575 0962 50060000 		.4byte	.LASF188
 1576 0966 01       		.byte	0x1
 1577 0967 37       		.byte	0x37
 1578 0968 01       		.byte	0x1
 1579 0969 F5040000 		.4byte	0x4f5
 1580 096d 00000000 		.4byte	.LFB65
 1581 0971 84000000 		.4byte	.LFE65
 1582 0975 21000000 		.4byte	.LLST0
 1583 0979 01       		.byte	0x1
 1584 097a 750A0000 		.4byte	0xa75
 1585 097e 1E       		.uleb128 0x1e
 1586 097f B5020000 		.4byte	.LASF169
 1587 0983 01       		.byte	0x1
 1588 0984 37       		.byte	0x37
 1589 0985 D3010000 		.4byte	0x1d3
 1590 0989 65000000 		.4byte	.LLST1
 1591 098d 22       		.uleb128 0x22
 1592 098e 00090000 		.4byte	.LASF170
 1593 0992 01       		.byte	0x1
 1594 0993 39       		.byte	0x39
 1595 0994 73050000 		.4byte	0x573
 1596 0998 02       		.byte	0x2
 1597 0999 91       		.byte	0x91
 1598 099a 64       		.sleb128 -28
 1599 099b 23       		.uleb128 0x23
 1600 099c 69050000 		.4byte	.LASF171
 1601 09a0 01       		.byte	0x1
ARM GAS  /tmp/ccIsCorD.s 			page 32


 1602 09a1 3A       		.byte	0x3a
 1603 09a2 D3010000 		.4byte	0x1d3
 1604 09a6 91000000 		.4byte	.LLST2
 1605 09aa 23       		.uleb128 0x23
 1606 09ab 82080000 		.4byte	.LASF172
 1607 09af 01       		.byte	0x1
 1608 09b0 3A       		.byte	0x3a
 1609 09b1 D3010000 		.4byte	0x1d3
 1610 09b5 AF000000 		.4byte	.LLST3
 1611 09b9 23       		.uleb128 0x23
 1612 09ba 2E010000 		.4byte	.LASF173
 1613 09be 01       		.byte	0x1
 1614 09bf 3B       		.byte	0x3b
 1615 09c0 D3010000 		.4byte	0x1d3
 1616 09c4 DA000000 		.4byte	.LLST4
 1617 09c8 22       		.uleb128 0x22
 1618 09c9 77010000 		.4byte	.LASF174
 1619 09cd 01       		.byte	0x1
 1620 09ce 3C       		.byte	0x3c
 1621 09cf D3010000 		.4byte	0x1d3
 1622 09d3 02       		.byte	0x2
 1623 09d4 91       		.byte	0x91
 1624 09d5 5C       		.sleb128 -36
 1625 09d6 24       		.uleb128 0x24
 1626 09d7 00000000 		.4byte	.Ldebug_ranges0+0
 1627 09db EE090000 		.4byte	0x9ee
 1628 09df 22       		.uleb128 0x22
 1629 09e0 C8010000 		.4byte	.LASF175
 1630 09e4 01       		.byte	0x1
 1631 09e5 45       		.byte	0x45
 1632 09e6 DE010000 		.4byte	0x1de
 1633 09ea 02       		.byte	0x2
 1634 09eb 91       		.byte	0x91
 1635 09ec 60       		.sleb128 -32
 1636 09ed 00       		.byte	0
 1637 09ee 25       		.uleb128 0x25
 1638 09ef 0E000000 		.4byte	.LVL2
 1639 09f3 910A0000 		.4byte	0xa91
 1640 09f7 0D0A0000 		.4byte	0xa0d
 1641 09fb 1D       		.uleb128 0x1d
 1642 09fc 01       		.byte	0x1
 1643 09fd 50       		.byte	0x50
 1644 09fe 01       		.byte	0x1
 1645 09ff 4C       		.byte	0x4c
 1646 0a00 1D       		.uleb128 0x1d
 1647 0a01 01       		.byte	0x1
 1648 0a02 51       		.byte	0x51
 1649 0a03 03       		.byte	0x3
 1650 0a04 F3       		.byte	0xf3
 1651 0a05 01       		.uleb128 0x1
 1652 0a06 50       		.byte	0x50
 1653 0a07 1D       		.uleb128 0x1d
 1654 0a08 01       		.byte	0x1
 1655 0a09 52       		.byte	0x52
 1656 0a0a 01       		.byte	0x1
 1657 0a0b 30       		.byte	0x30
 1658 0a0c 00       		.byte	0
ARM GAS  /tmp/ccIsCorD.s 			page 33


 1659 0a0d 25       		.uleb128 0x25
 1660 0a0e 14000000 		.4byte	.LVL3
 1661 0a12 9F0A0000 		.4byte	0xa9f
 1662 0a16 200A0000 		.4byte	0xa20
 1663 0a1a 1D       		.uleb128 0x1d
 1664 0a1b 01       		.byte	0x1
 1665 0a1c 50       		.byte	0x50
 1666 0a1d 01       		.byte	0x1
 1667 0a1e 4C       		.byte	0x4c
 1668 0a1f 00       		.byte	0
 1669 0a20 25       		.uleb128 0x25
 1670 0a21 30000000 		.4byte	.LVL4
 1671 0a25 AD0A0000 		.4byte	0xaad
 1672 0a29 3A0A0000 		.4byte	0xa3a
 1673 0a2d 1D       		.uleb128 0x1d
 1674 0a2e 01       		.byte	0x1
 1675 0a2f 50       		.byte	0x50
 1676 0a30 02       		.byte	0x2
 1677 0a31 91       		.byte	0x91
 1678 0a32 64       		.sleb128 -28
 1679 0a33 1D       		.uleb128 0x1d
 1680 0a34 01       		.byte	0x1
 1681 0a35 51       		.byte	0x51
 1682 0a36 02       		.byte	0x2
 1683 0a37 91       		.byte	0x91
 1684 0a38 5C       		.sleb128 -36
 1685 0a39 00       		.byte	0
 1686 0a3a 26       		.uleb128 0x26
 1687 0a3b 38000000 		.4byte	.LVL5
 1688 0a3f BB0A0000 		.4byte	0xabb
 1689 0a43 25       		.uleb128 0x25
 1690 0a44 5E000000 		.4byte	.LVL9
 1691 0a48 C90A0000 		.4byte	0xac9
 1692 0a4c 570A0000 		.4byte	0xa57
 1693 0a50 1D       		.uleb128 0x1d
 1694 0a51 01       		.byte	0x1
 1695 0a52 50       		.byte	0x50
 1696 0a53 02       		.byte	0x2
 1697 0a54 74       		.byte	0x74
 1698 0a55 00       		.sleb128 0
 1699 0a56 00       		.byte	0
 1700 0a57 25       		.uleb128 0x25
 1701 0a58 66000000 		.4byte	.LVL10
 1702 0a5c D70A0000 		.4byte	0xad7
 1703 0a60 6B0A0000 		.4byte	0xa6b
 1704 0a64 1D       		.uleb128 0x1d
 1705 0a65 01       		.byte	0x1
 1706 0a66 50       		.byte	0x50
 1707 0a67 02       		.byte	0x2
 1708 0a68 74       		.byte	0x74
 1709 0a69 00       		.sleb128 0
 1710 0a6a 00       		.byte	0
 1711 0a6b 26       		.uleb128 0x26
 1712 0a6c 6E000000 		.4byte	.LVL12
 1713 0a70 BB0A0000 		.4byte	0xabb
 1714 0a74 00       		.byte	0
 1715 0a75 27       		.uleb128 0x27
ARM GAS  /tmp/ccIsCorD.s 			page 34


 1716 0a76 01       		.byte	0x1
 1717 0a77 01       		.byte	0x1
 1718 0a78 55090000 		.4byte	.LASF176
 1719 0a7c 55090000 		.4byte	.LASF176
 1720 0a80 0A       		.byte	0xa
 1721 0a81 6A07     		.2byte	0x76a
 1722 0a83 27       		.uleb128 0x27
 1723 0a84 01       		.byte	0x1
 1724 0a85 01       		.byte	0x1
 1725 0a86 F9000000 		.4byte	.LASF177
 1726 0a8a F9000000 		.4byte	.LASF177
 1727 0a8e 0B       		.byte	0xb
 1728 0a8f 2801     		.2byte	0x128
 1729 0a91 27       		.uleb128 0x27
 1730 0a92 01       		.byte	0x1
 1731 0a93 01       		.byte	0x1
 1732 0a94 98030000 		.4byte	.LASF178
 1733 0a98 98030000 		.4byte	.LASF178
 1734 0a9c 0C       		.byte	0xc
 1735 0a9d 0701     		.2byte	0x107
 1736 0a9f 27       		.uleb128 0x27
 1737 0aa0 01       		.byte	0x1
 1738 0aa1 01       		.byte	0x1
 1739 0aa2 2A000000 		.4byte	.LASF179
 1740 0aa6 2A000000 		.4byte	.LASF179
 1741 0aaa 0C       		.byte	0xc
 1742 0aab 0801     		.2byte	0x108
 1743 0aad 27       		.uleb128 0x27
 1744 0aae 01       		.byte	0x1
 1745 0aaf 01       		.byte	0x1
 1746 0ab0 0A090000 		.4byte	.LASF180
 1747 0ab4 0A090000 		.4byte	.LASF180
 1748 0ab8 08       		.byte	0x8
 1749 0ab9 9904     		.2byte	0x499
 1750 0abb 27       		.uleb128 0x27
 1751 0abc 01       		.byte	0x1
 1752 0abd 01       		.byte	0x1
 1753 0abe 00000000 		.4byte	.LASF181
 1754 0ac2 00000000 		.4byte	.LASF181
 1755 0ac6 08       		.byte	0x8
 1756 0ac7 9604     		.2byte	0x496
 1757 0ac9 27       		.uleb128 0x27
 1758 0aca 01       		.byte	0x1
 1759 0acb 01       		.byte	0x1
 1760 0acc 71000000 		.4byte	.LASF182
 1761 0ad0 71000000 		.4byte	.LASF182
 1762 0ad4 0A       		.byte	0xa
 1763 0ad5 E806     		.2byte	0x6e8
 1764 0ad7 27       		.uleb128 0x27
 1765 0ad8 01       		.byte	0x1
 1766 0ad9 01       		.byte	0x1
 1767 0ada AD030000 		.4byte	.LASF183
 1768 0ade AD030000 		.4byte	.LASF183
 1769 0ae2 0A       		.byte	0xa
 1770 0ae3 F006     		.2byte	0x6f0
 1771 0ae5 00       		.byte	0
 1772              		.section	.debug_abbrev,"",%progbits
ARM GAS  /tmp/ccIsCorD.s 			page 35


 1773              	.Ldebug_abbrev0:
 1774 0000 01       		.uleb128 0x1
 1775 0001 11       		.uleb128 0x11
 1776 0002 01       		.byte	0x1
 1777 0003 25       		.uleb128 0x25
 1778 0004 0E       		.uleb128 0xe
 1779 0005 13       		.uleb128 0x13
 1780 0006 0B       		.uleb128 0xb
 1781 0007 03       		.uleb128 0x3
 1782 0008 0E       		.uleb128 0xe
 1783 0009 1B       		.uleb128 0x1b
 1784 000a 0E       		.uleb128 0xe
 1785 000b 11       		.uleb128 0x11
 1786 000c 01       		.uleb128 0x1
 1787 000d 12       		.uleb128 0x12
 1788 000e 01       		.uleb128 0x1
 1789 000f 10       		.uleb128 0x10
 1790 0010 06       		.uleb128 0x6
 1791 0011 00       		.byte	0
 1792 0012 00       		.byte	0
 1793 0013 02       		.uleb128 0x2
 1794 0014 24       		.uleb128 0x24
 1795 0015 00       		.byte	0
 1796 0016 0B       		.uleb128 0xb
 1797 0017 0B       		.uleb128 0xb
 1798 0018 3E       		.uleb128 0x3e
 1799 0019 0B       		.uleb128 0xb
 1800 001a 03       		.uleb128 0x3
 1801 001b 0E       		.uleb128 0xe
 1802 001c 00       		.byte	0
 1803 001d 00       		.byte	0
 1804 001e 03       		.uleb128 0x3
 1805 001f 04       		.uleb128 0x4
 1806 0020 01       		.byte	0x1
 1807 0021 0B       		.uleb128 0xb
 1808 0022 0B       		.uleb128 0xb
 1809 0023 49       		.uleb128 0x49
 1810 0024 13       		.uleb128 0x13
 1811 0025 3A       		.uleb128 0x3a
 1812 0026 0B       		.uleb128 0xb
 1813 0027 3B       		.uleb128 0x3b
 1814 0028 0B       		.uleb128 0xb
 1815 0029 01       		.uleb128 0x1
 1816 002a 13       		.uleb128 0x13
 1817 002b 00       		.byte	0
 1818 002c 00       		.byte	0
 1819 002d 04       		.uleb128 0x4
 1820 002e 28       		.uleb128 0x28
 1821 002f 00       		.byte	0
 1822 0030 03       		.uleb128 0x3
 1823 0031 0E       		.uleb128 0xe
 1824 0032 1C       		.uleb128 0x1c
 1825 0033 0D       		.uleb128 0xd
 1826 0034 00       		.byte	0
 1827 0035 00       		.byte	0
 1828 0036 05       		.uleb128 0x5
 1829 0037 28       		.uleb128 0x28
ARM GAS  /tmp/ccIsCorD.s 			page 36


 1830 0038 00       		.byte	0
 1831 0039 03       		.uleb128 0x3
 1832 003a 0E       		.uleb128 0xe
 1833 003b 1C       		.uleb128 0x1c
 1834 003c 0B       		.uleb128 0xb
 1835 003d 00       		.byte	0
 1836 003e 00       		.byte	0
 1837 003f 06       		.uleb128 0x6
 1838 0040 16       		.uleb128 0x16
 1839 0041 00       		.byte	0
 1840 0042 03       		.uleb128 0x3
 1841 0043 0E       		.uleb128 0xe
 1842 0044 3A       		.uleb128 0x3a
 1843 0045 0B       		.uleb128 0xb
 1844 0046 3B       		.uleb128 0x3b
 1845 0047 0B       		.uleb128 0xb
 1846 0048 49       		.uleb128 0x49
 1847 0049 13       		.uleb128 0x13
 1848 004a 00       		.byte	0
 1849 004b 00       		.byte	0
 1850 004c 07       		.uleb128 0x7
 1851 004d 24       		.uleb128 0x24
 1852 004e 00       		.byte	0
 1853 004f 0B       		.uleb128 0xb
 1854 0050 0B       		.uleb128 0xb
 1855 0051 3E       		.uleb128 0x3e
 1856 0052 0B       		.uleb128 0xb
 1857 0053 03       		.uleb128 0x3
 1858 0054 08       		.uleb128 0x8
 1859 0055 00       		.byte	0
 1860 0056 00       		.byte	0
 1861 0057 08       		.uleb128 0x8
 1862 0058 26       		.uleb128 0x26
 1863 0059 00       		.byte	0
 1864 005a 49       		.uleb128 0x49
 1865 005b 13       		.uleb128 0x13
 1866 005c 00       		.byte	0
 1867 005d 00       		.byte	0
 1868 005e 09       		.uleb128 0x9
 1869 005f 35       		.uleb128 0x35
 1870 0060 00       		.byte	0
 1871 0061 49       		.uleb128 0x49
 1872 0062 13       		.uleb128 0x13
 1873 0063 00       		.byte	0
 1874 0064 00       		.byte	0
 1875 0065 0A       		.uleb128 0xa
 1876 0066 34       		.uleb128 0x34
 1877 0067 00       		.byte	0
 1878 0068 03       		.uleb128 0x3
 1879 0069 0E       		.uleb128 0xe
 1880 006a 3A       		.uleb128 0x3a
 1881 006b 0B       		.uleb128 0xb
 1882 006c 3B       		.uleb128 0x3b
 1883 006d 05       		.uleb128 0x5
 1884 006e 49       		.uleb128 0x49
 1885 006f 13       		.uleb128 0x13
 1886 0070 3F       		.uleb128 0x3f
ARM GAS  /tmp/ccIsCorD.s 			page 37


 1887 0071 0C       		.uleb128 0xc
 1888 0072 3C       		.uleb128 0x3c
 1889 0073 0C       		.uleb128 0xc
 1890 0074 00       		.byte	0
 1891 0075 00       		.byte	0
 1892 0076 0B       		.uleb128 0xb
 1893 0077 34       		.uleb128 0x34
 1894 0078 00       		.byte	0
 1895 0079 03       		.uleb128 0x3
 1896 007a 0E       		.uleb128 0xe
 1897 007b 3A       		.uleb128 0x3a
 1898 007c 0B       		.uleb128 0xb
 1899 007d 3B       		.uleb128 0x3b
 1900 007e 0B       		.uleb128 0xb
 1901 007f 49       		.uleb128 0x49
 1902 0080 13       		.uleb128 0x13
 1903 0081 3F       		.uleb128 0x3f
 1904 0082 0C       		.uleb128 0xc
 1905 0083 3C       		.uleb128 0x3c
 1906 0084 0C       		.uleb128 0xc
 1907 0085 00       		.byte	0
 1908 0086 00       		.byte	0
 1909 0087 0C       		.uleb128 0xc
 1910 0088 01       		.uleb128 0x1
 1911 0089 01       		.byte	0x1
 1912 008a 49       		.uleb128 0x49
 1913 008b 13       		.uleb128 0x13
 1914 008c 01       		.uleb128 0x1
 1915 008d 13       		.uleb128 0x13
 1916 008e 00       		.byte	0
 1917 008f 00       		.byte	0
 1918 0090 0D       		.uleb128 0xd
 1919 0091 21       		.uleb128 0x21
 1920 0092 00       		.byte	0
 1921 0093 49       		.uleb128 0x49
 1922 0094 13       		.uleb128 0x13
 1923 0095 2F       		.uleb128 0x2f
 1924 0096 0B       		.uleb128 0xb
 1925 0097 00       		.byte	0
 1926 0098 00       		.byte	0
 1927 0099 0E       		.uleb128 0xe
 1928 009a 13       		.uleb128 0x13
 1929 009b 01       		.byte	0x1
 1930 009c 0B       		.uleb128 0xb
 1931 009d 0B       		.uleb128 0xb
 1932 009e 3A       		.uleb128 0x3a
 1933 009f 0B       		.uleb128 0xb
 1934 00a0 3B       		.uleb128 0x3b
 1935 00a1 05       		.uleb128 0x5
 1936 00a2 01       		.uleb128 0x1
 1937 00a3 13       		.uleb128 0x13
 1938 00a4 00       		.byte	0
 1939 00a5 00       		.byte	0
 1940 00a6 0F       		.uleb128 0xf
 1941 00a7 0D       		.uleb128 0xd
 1942 00a8 00       		.byte	0
 1943 00a9 03       		.uleb128 0x3
ARM GAS  /tmp/ccIsCorD.s 			page 38


 1944 00aa 08       		.uleb128 0x8
 1945 00ab 3A       		.uleb128 0x3a
 1946 00ac 0B       		.uleb128 0xb
 1947 00ad 3B       		.uleb128 0x3b
 1948 00ae 05       		.uleb128 0x5
 1949 00af 49       		.uleb128 0x49
 1950 00b0 13       		.uleb128 0x13
 1951 00b1 38       		.uleb128 0x38
 1952 00b2 0A       		.uleb128 0xa
 1953 00b3 00       		.byte	0
 1954 00b4 00       		.byte	0
 1955 00b5 10       		.uleb128 0x10
 1956 00b6 0D       		.uleb128 0xd
 1957 00b7 00       		.byte	0
 1958 00b8 03       		.uleb128 0x3
 1959 00b9 0E       		.uleb128 0xe
 1960 00ba 3A       		.uleb128 0x3a
 1961 00bb 0B       		.uleb128 0xb
 1962 00bc 3B       		.uleb128 0x3b
 1963 00bd 05       		.uleb128 0x5
 1964 00be 49       		.uleb128 0x49
 1965 00bf 13       		.uleb128 0x13
 1966 00c0 38       		.uleb128 0x38
 1967 00c1 0A       		.uleb128 0xa
 1968 00c2 00       		.byte	0
 1969 00c3 00       		.byte	0
 1970 00c4 11       		.uleb128 0x11
 1971 00c5 16       		.uleb128 0x16
 1972 00c6 00       		.byte	0
 1973 00c7 03       		.uleb128 0x3
 1974 00c8 0E       		.uleb128 0xe
 1975 00c9 3A       		.uleb128 0x3a
 1976 00ca 0B       		.uleb128 0xb
 1977 00cb 3B       		.uleb128 0x3b
 1978 00cc 05       		.uleb128 0x5
 1979 00cd 49       		.uleb128 0x49
 1980 00ce 13       		.uleb128 0x13
 1981 00cf 00       		.byte	0
 1982 00d0 00       		.byte	0
 1983 00d1 12       		.uleb128 0x12
 1984 00d2 13       		.uleb128 0x13
 1985 00d3 01       		.byte	0x1
 1986 00d4 0B       		.uleb128 0xb
 1987 00d5 0B       		.uleb128 0xb
 1988 00d6 3A       		.uleb128 0x3a
 1989 00d7 0B       		.uleb128 0xb
 1990 00d8 3B       		.uleb128 0x3b
 1991 00d9 0B       		.uleb128 0xb
 1992 00da 01       		.uleb128 0x1
 1993 00db 13       		.uleb128 0x13
 1994 00dc 00       		.byte	0
 1995 00dd 00       		.byte	0
 1996 00de 13       		.uleb128 0x13
 1997 00df 0D       		.uleb128 0xd
 1998 00e0 00       		.byte	0
 1999 00e1 03       		.uleb128 0x3
 2000 00e2 0E       		.uleb128 0xe
ARM GAS  /tmp/ccIsCorD.s 			page 39


 2001 00e3 3A       		.uleb128 0x3a
 2002 00e4 0B       		.uleb128 0xb
 2003 00e5 3B       		.uleb128 0x3b
 2004 00e6 0B       		.uleb128 0xb
 2005 00e7 49       		.uleb128 0x49
 2006 00e8 13       		.uleb128 0x13
 2007 00e9 38       		.uleb128 0x38
 2008 00ea 0A       		.uleb128 0xa
 2009 00eb 00       		.byte	0
 2010 00ec 00       		.byte	0
 2011 00ed 14       		.uleb128 0x14
 2012 00ee 13       		.uleb128 0x13
 2013 00ef 01       		.byte	0x1
 2014 00f0 03       		.uleb128 0x3
 2015 00f1 0E       		.uleb128 0xe
 2016 00f2 0B       		.uleb128 0xb
 2017 00f3 0B       		.uleb128 0xb
 2018 00f4 3A       		.uleb128 0x3a
 2019 00f5 0B       		.uleb128 0xb
 2020 00f6 3B       		.uleb128 0x3b
 2021 00f7 0B       		.uleb128 0xb
 2022 00f8 01       		.uleb128 0x1
 2023 00f9 13       		.uleb128 0x13
 2024 00fa 00       		.byte	0
 2025 00fb 00       		.byte	0
 2026 00fc 15       		.uleb128 0x15
 2027 00fd 0F       		.uleb128 0xf
 2028 00fe 00       		.byte	0
 2029 00ff 0B       		.uleb128 0xb
 2030 0100 0B       		.uleb128 0xb
 2031 0101 49       		.uleb128 0x49
 2032 0102 13       		.uleb128 0x13
 2033 0103 00       		.byte	0
 2034 0104 00       		.byte	0
 2035 0105 16       		.uleb128 0x16
 2036 0106 0F       		.uleb128 0xf
 2037 0107 00       		.byte	0
 2038 0108 0B       		.uleb128 0xb
 2039 0109 0B       		.uleb128 0xb
 2040 010a 00       		.byte	0
 2041 010b 00       		.byte	0
 2042 010c 17       		.uleb128 0x17
 2043 010d 15       		.uleb128 0x15
 2044 010e 01       		.byte	0x1
 2045 010f 27       		.uleb128 0x27
 2046 0110 0C       		.uleb128 0xc
 2047 0111 01       		.uleb128 0x1
 2048 0112 13       		.uleb128 0x13
 2049 0113 00       		.byte	0
 2050 0114 00       		.byte	0
 2051 0115 18       		.uleb128 0x18
 2052 0116 05       		.uleb128 0x5
 2053 0117 00       		.byte	0
 2054 0118 49       		.uleb128 0x49
 2055 0119 13       		.uleb128 0x13
 2056 011a 00       		.byte	0
 2057 011b 00       		.byte	0
ARM GAS  /tmp/ccIsCorD.s 			page 40


 2058 011c 19       		.uleb128 0x19
 2059 011d 04       		.uleb128 0x4
 2060 011e 01       		.byte	0x1
 2061 011f 0B       		.uleb128 0xb
 2062 0120 0B       		.uleb128 0xb
 2063 0121 49       		.uleb128 0x49
 2064 0122 13       		.uleb128 0x13
 2065 0123 3A       		.uleb128 0x3a
 2066 0124 0B       		.uleb128 0xb
 2067 0125 3B       		.uleb128 0x3b
 2068 0126 05       		.uleb128 0x5
 2069 0127 01       		.uleb128 0x1
 2070 0128 13       		.uleb128 0x13
 2071 0129 00       		.byte	0
 2072 012a 00       		.byte	0
 2073 012b 1A       		.uleb128 0x1a
 2074 012c 34       		.uleb128 0x34
 2075 012d 00       		.byte	0
 2076 012e 03       		.uleb128 0x3
 2077 012f 0E       		.uleb128 0xe
 2078 0130 3A       		.uleb128 0x3a
 2079 0131 0B       		.uleb128 0xb
 2080 0132 3B       		.uleb128 0x3b
 2081 0133 0B       		.uleb128 0xb
 2082 0134 49       		.uleb128 0x49
 2083 0135 13       		.uleb128 0x13
 2084 0136 3F       		.uleb128 0x3f
 2085 0137 0C       		.uleb128 0xc
 2086 0138 02       		.uleb128 0x2
 2087 0139 0A       		.uleb128 0xa
 2088 013a 00       		.byte	0
 2089 013b 00       		.byte	0
 2090 013c 1B       		.uleb128 0x1b
 2091 013d 2E       		.uleb128 0x2e
 2092 013e 01       		.byte	0x1
 2093 013f 3F       		.uleb128 0x3f
 2094 0140 0C       		.uleb128 0xc
 2095 0141 03       		.uleb128 0x3
 2096 0142 0E       		.uleb128 0xe
 2097 0143 3A       		.uleb128 0x3a
 2098 0144 0B       		.uleb128 0xb
 2099 0145 3B       		.uleb128 0x3b
 2100 0146 0B       		.uleb128 0xb
 2101 0147 27       		.uleb128 0x27
 2102 0148 0C       		.uleb128 0xc
 2103 0149 11       		.uleb128 0x11
 2104 014a 01       		.uleb128 0x1
 2105 014b 12       		.uleb128 0x12
 2106 014c 01       		.uleb128 0x1
 2107 014d 40       		.uleb128 0x40
 2108 014e 0A       		.uleb128 0xa
 2109 014f 9742     		.uleb128 0x2117
 2110 0151 0C       		.uleb128 0xc
 2111 0152 01       		.uleb128 0x1
 2112 0153 13       		.uleb128 0x13
 2113 0154 00       		.byte	0
 2114 0155 00       		.byte	0
ARM GAS  /tmp/ccIsCorD.s 			page 41


 2115 0156 1C       		.uleb128 0x1c
 2116 0157 898201   		.uleb128 0x4109
 2117 015a 01       		.byte	0x1
 2118 015b 11       		.uleb128 0x11
 2119 015c 01       		.uleb128 0x1
 2120 015d 9542     		.uleb128 0x2115
 2121 015f 0C       		.uleb128 0xc
 2122 0160 31       		.uleb128 0x31
 2123 0161 13       		.uleb128 0x13
 2124 0162 00       		.byte	0
 2125 0163 00       		.byte	0
 2126 0164 1D       		.uleb128 0x1d
 2127 0165 8A8201   		.uleb128 0x410a
 2128 0168 00       		.byte	0
 2129 0169 02       		.uleb128 0x2
 2130 016a 0A       		.uleb128 0xa
 2131 016b 9142     		.uleb128 0x2111
 2132 016d 0A       		.uleb128 0xa
 2133 016e 00       		.byte	0
 2134 016f 00       		.byte	0
 2135 0170 1E       		.uleb128 0x1e
 2136 0171 05       		.uleb128 0x5
 2137 0172 00       		.byte	0
 2138 0173 03       		.uleb128 0x3
 2139 0174 0E       		.uleb128 0xe
 2140 0175 3A       		.uleb128 0x3a
 2141 0176 0B       		.uleb128 0xb
 2142 0177 3B       		.uleb128 0x3b
 2143 0178 0B       		.uleb128 0xb
 2144 0179 49       		.uleb128 0x49
 2145 017a 13       		.uleb128 0x13
 2146 017b 02       		.uleb128 0x2
 2147 017c 06       		.uleb128 0x6
 2148 017d 00       		.byte	0
 2149 017e 00       		.byte	0
 2150 017f 1F       		.uleb128 0x1f
 2151 0180 898201   		.uleb128 0x4109
 2152 0183 00       		.byte	0
 2153 0184 11       		.uleb128 0x11
 2154 0185 01       		.uleb128 0x1
 2155 0186 9542     		.uleb128 0x2115
 2156 0188 0C       		.uleb128 0xc
 2157 0189 31       		.uleb128 0x31
 2158 018a 13       		.uleb128 0x13
 2159 018b 00       		.byte	0
 2160 018c 00       		.byte	0
 2161 018d 20       		.uleb128 0x20
 2162 018e 2E       		.uleb128 0x2e
 2163 018f 00       		.byte	0
 2164 0190 3F       		.uleb128 0x3f
 2165 0191 0C       		.uleb128 0xc
 2166 0192 03       		.uleb128 0x3
 2167 0193 0E       		.uleb128 0xe
 2168 0194 3A       		.uleb128 0x3a
 2169 0195 0B       		.uleb128 0xb
 2170 0196 3B       		.uleb128 0x3b
 2171 0197 0B       		.uleb128 0xb
ARM GAS  /tmp/ccIsCorD.s 			page 42


 2172 0198 27       		.uleb128 0x27
 2173 0199 0C       		.uleb128 0xc
 2174 019a 11       		.uleb128 0x11
 2175 019b 01       		.uleb128 0x1
 2176 019c 12       		.uleb128 0x12
 2177 019d 01       		.uleb128 0x1
 2178 019e 40       		.uleb128 0x40
 2179 019f 0A       		.uleb128 0xa
 2180 01a0 9742     		.uleb128 0x2117
 2181 01a2 0C       		.uleb128 0xc
 2182 01a3 00       		.byte	0
 2183 01a4 00       		.byte	0
 2184 01a5 21       		.uleb128 0x21
 2185 01a6 2E       		.uleb128 0x2e
 2186 01a7 01       		.byte	0x1
 2187 01a8 3F       		.uleb128 0x3f
 2188 01a9 0C       		.uleb128 0xc
 2189 01aa 03       		.uleb128 0x3
 2190 01ab 0E       		.uleb128 0xe
 2191 01ac 3A       		.uleb128 0x3a
 2192 01ad 0B       		.uleb128 0xb
 2193 01ae 3B       		.uleb128 0x3b
 2194 01af 0B       		.uleb128 0xb
 2195 01b0 27       		.uleb128 0x27
 2196 01b1 0C       		.uleb128 0xc
 2197 01b2 49       		.uleb128 0x49
 2198 01b3 13       		.uleb128 0x13
 2199 01b4 11       		.uleb128 0x11
 2200 01b5 01       		.uleb128 0x1
 2201 01b6 12       		.uleb128 0x12
 2202 01b7 01       		.uleb128 0x1
 2203 01b8 40       		.uleb128 0x40
 2204 01b9 06       		.uleb128 0x6
 2205 01ba 9742     		.uleb128 0x2117
 2206 01bc 0C       		.uleb128 0xc
 2207 01bd 01       		.uleb128 0x1
 2208 01be 13       		.uleb128 0x13
 2209 01bf 00       		.byte	0
 2210 01c0 00       		.byte	0
 2211 01c1 22       		.uleb128 0x22
 2212 01c2 34       		.uleb128 0x34
 2213 01c3 00       		.byte	0
 2214 01c4 03       		.uleb128 0x3
 2215 01c5 0E       		.uleb128 0xe
 2216 01c6 3A       		.uleb128 0x3a
 2217 01c7 0B       		.uleb128 0xb
 2218 01c8 3B       		.uleb128 0x3b
 2219 01c9 0B       		.uleb128 0xb
 2220 01ca 49       		.uleb128 0x49
 2221 01cb 13       		.uleb128 0x13
 2222 01cc 02       		.uleb128 0x2
 2223 01cd 0A       		.uleb128 0xa
 2224 01ce 00       		.byte	0
 2225 01cf 00       		.byte	0
 2226 01d0 23       		.uleb128 0x23
 2227 01d1 34       		.uleb128 0x34
 2228 01d2 00       		.byte	0
ARM GAS  /tmp/ccIsCorD.s 			page 43


 2229 01d3 03       		.uleb128 0x3
 2230 01d4 0E       		.uleb128 0xe
 2231 01d5 3A       		.uleb128 0x3a
 2232 01d6 0B       		.uleb128 0xb
 2233 01d7 3B       		.uleb128 0x3b
 2234 01d8 0B       		.uleb128 0xb
 2235 01d9 49       		.uleb128 0x49
 2236 01da 13       		.uleb128 0x13
 2237 01db 02       		.uleb128 0x2
 2238 01dc 06       		.uleb128 0x6
 2239 01dd 00       		.byte	0
 2240 01de 00       		.byte	0
 2241 01df 24       		.uleb128 0x24
 2242 01e0 0B       		.uleb128 0xb
 2243 01e1 01       		.byte	0x1
 2244 01e2 55       		.uleb128 0x55
 2245 01e3 06       		.uleb128 0x6
 2246 01e4 01       		.uleb128 0x1
 2247 01e5 13       		.uleb128 0x13
 2248 01e6 00       		.byte	0
 2249 01e7 00       		.byte	0
 2250 01e8 25       		.uleb128 0x25
 2251 01e9 898201   		.uleb128 0x4109
 2252 01ec 01       		.byte	0x1
 2253 01ed 11       		.uleb128 0x11
 2254 01ee 01       		.uleb128 0x1
 2255 01ef 31       		.uleb128 0x31
 2256 01f0 13       		.uleb128 0x13
 2257 01f1 01       		.uleb128 0x1
 2258 01f2 13       		.uleb128 0x13
 2259 01f3 00       		.byte	0
 2260 01f4 00       		.byte	0
 2261 01f5 26       		.uleb128 0x26
 2262 01f6 898201   		.uleb128 0x4109
 2263 01f9 00       		.byte	0
 2264 01fa 11       		.uleb128 0x11
 2265 01fb 01       		.uleb128 0x1
 2266 01fc 31       		.uleb128 0x31
 2267 01fd 13       		.uleb128 0x13
 2268 01fe 00       		.byte	0
 2269 01ff 00       		.byte	0
 2270 0200 27       		.uleb128 0x27
 2271 0201 2E       		.uleb128 0x2e
 2272 0202 00       		.byte	0
 2273 0203 3F       		.uleb128 0x3f
 2274 0204 0C       		.uleb128 0xc
 2275 0205 3C       		.uleb128 0x3c
 2276 0206 0C       		.uleb128 0xc
 2277 0207 8740     		.uleb128 0x2007
 2278 0209 0E       		.uleb128 0xe
 2279 020a 03       		.uleb128 0x3
 2280 020b 0E       		.uleb128 0xe
 2281 020c 3A       		.uleb128 0x3a
 2282 020d 0B       		.uleb128 0xb
 2283 020e 3B       		.uleb128 0x3b
 2284 020f 05       		.uleb128 0x5
 2285 0210 00       		.byte	0
ARM GAS  /tmp/ccIsCorD.s 			page 44


 2286 0211 00       		.byte	0
 2287 0212 00       		.byte	0
 2288              		.section	.debug_loc,"",%progbits
 2289              	.Ldebug_loc0:
 2290              	.LLST5:
 2291 0000 AC000000 		.4byte	.LVL15-.Ltext0
 2292 0004 AF000000 		.4byte	.LVL16-1-.Ltext0
 2293 0008 0100     		.2byte	0x1
 2294 000a 50       		.byte	0x50
 2295 000b AF000000 		.4byte	.LVL16-1-.Ltext0
 2296 000f B0000000 		.4byte	.LFE68-.Ltext0
 2297 0013 0400     		.2byte	0x4
 2298 0015 F3       		.byte	0xf3
 2299 0016 01       		.uleb128 0x1
 2300 0017 50       		.byte	0x50
 2301 0018 9F       		.byte	0x9f
 2302 0019 00000000 		.4byte	0
 2303 001d 00000000 		.4byte	0
 2304              	.LLST0:
 2305 0021 00000000 		.4byte	.LFB65-.Ltext0
 2306 0025 02000000 		.4byte	.LCFI0-.Ltext0
 2307 0029 0200     		.2byte	0x2
 2308 002b 7D       		.byte	0x7d
 2309 002c 00       		.sleb128 0
 2310 002d 02000000 		.4byte	.LCFI0-.Ltext0
 2311 0031 06000000 		.4byte	.LCFI1-.Ltext0
 2312 0035 0200     		.2byte	0x2
 2313 0037 7D       		.byte	0x7d
 2314 0038 08       		.sleb128 8
 2315 0039 06000000 		.4byte	.LCFI1-.Ltext0
 2316 003d 68000000 		.4byte	.LCFI2-.Ltext0
 2317 0041 0200     		.2byte	0x2
 2318 0043 7D       		.byte	0x7d
 2319 0044 28       		.sleb128 40
 2320 0045 68000000 		.4byte	.LCFI2-.Ltext0
 2321 0049 6A000000 		.4byte	.LCFI3-.Ltext0
 2322 004d 0200     		.2byte	0x2
 2323 004f 7D       		.byte	0x7d
 2324 0050 08       		.sleb128 8
 2325 0051 6A000000 		.4byte	.LCFI3-.Ltext0
 2326 0055 84000000 		.4byte	.LFE65-.Ltext0
 2327 0059 0200     		.2byte	0x2
 2328 005b 7D       		.byte	0x7d
 2329 005c 28       		.sleb128 40
 2330 005d 00000000 		.4byte	0
 2331 0061 00000000 		.4byte	0
 2332              	.LLST1:
 2333 0065 00000000 		.4byte	.LVL0-.Ltext0
 2334 0069 0A000000 		.4byte	.LVL1-.Ltext0
 2335 006d 0100     		.2byte	0x1
 2336 006f 50       		.byte	0x50
 2337 0070 0A000000 		.4byte	.LVL1-.Ltext0
 2338 0074 0D000000 		.4byte	.LVL2-1-.Ltext0
 2339 0078 0100     		.2byte	0x1
 2340 007a 51       		.byte	0x51
 2341 007b 0D000000 		.4byte	.LVL2-1-.Ltext0
 2342 007f 84000000 		.4byte	.LFE65-.Ltext0
ARM GAS  /tmp/ccIsCorD.s 			page 45


 2343 0083 0400     		.2byte	0x4
 2344 0085 F3       		.byte	0xf3
 2345 0086 01       		.uleb128 0x1
 2346 0087 50       		.byte	0x50
 2347 0088 9F       		.byte	0x9f
 2348 0089 00000000 		.4byte	0
 2349 008d 00000000 		.4byte	0
 2350              	.LLST2:
 2351 0091 38000000 		.4byte	.LVL5-.Ltext0
 2352 0095 4C000000 		.4byte	.LVL6-.Ltext0
 2353 0099 0100     		.2byte	0x1
 2354 009b 50       		.byte	0x50
 2355 009c 70000000 		.4byte	.LVL13-.Ltext0
 2356 00a0 72000000 		.4byte	.LVL14-.Ltext0
 2357 00a4 0100     		.2byte	0x1
 2358 00a6 50       		.byte	0x50
 2359 00a7 00000000 		.4byte	0
 2360 00ab 00000000 		.4byte	0
 2361              	.LLST3:
 2362 00af 00000000 		.4byte	.LVL0-.Ltext0
 2363 00b3 30000000 		.4byte	.LVL4-.Ltext0
 2364 00b7 0200     		.2byte	0x2
 2365 00b9 30       		.byte	0x30
 2366 00ba 9F       		.byte	0x9f
 2367 00bb 30000000 		.4byte	.LVL4-.Ltext0
 2368 00bf 37000000 		.4byte	.LVL5-1-.Ltext0
 2369 00c3 0200     		.2byte	0x2
 2370 00c5 91       		.byte	0x91
 2371 00c6 70       		.sleb128 -16
 2372 00c7 6A000000 		.4byte	.LVL11-.Ltext0
 2373 00cb 6D000000 		.4byte	.LVL12-1-.Ltext0
 2374 00cf 0100     		.2byte	0x1
 2375 00d1 53       		.byte	0x53
 2376 00d2 00000000 		.4byte	0
 2377 00d6 00000000 		.4byte	0
 2378              	.LLST4:
 2379 00da 00000000 		.4byte	.LVL0-.Ltext0
 2380 00de 38000000 		.4byte	.LVL5-.Ltext0
 2381 00e2 0200     		.2byte	0x2
 2382 00e4 30       		.byte	0x30
 2383 00e5 9F       		.byte	0x9f
 2384 00e6 38000000 		.4byte	.LVL5-.Ltext0
 2385 00ea 4C000000 		.4byte	.LVL6-.Ltext0
 2386 00ee 1100     		.2byte	0x11
 2387 00f0 70       		.byte	0x70
 2388 00f1 00       		.sleb128 0
 2389 00f2 F7       		.byte	0xf7
 2390 00f3 25       		.uleb128 0x25
 2391 00f4 0C       		.byte	0xc
 2392 00f5 40420F00 		.4byte	0xf4240
 2393 00f9 F7       		.byte	0xf7
 2394 00fa 25       		.uleb128 0x25
 2395 00fb 1B       		.byte	0x1b
 2396 00fc F7       		.byte	0xf7
 2397 00fd 00       		.uleb128 0
 2398 00fe 31       		.byte	0x31
 2399 00ff 1C       		.byte	0x1c
ARM GAS  /tmp/ccIsCorD.s 			page 46


 2400 0100 9F       		.byte	0x9f
 2401 0101 50000000 		.4byte	.LVL7-.Ltext0
 2402 0105 54000000 		.4byte	.LVL8-.Ltext0
 2403 0109 0100     		.2byte	0x1
 2404 010b 50       		.byte	0x50
 2405 010c 54000000 		.4byte	.LVL8-.Ltext0
 2406 0110 5D000000 		.4byte	.LVL9-1-.Ltext0
 2407 0114 0500     		.2byte	0x5
 2408 0116 03       		.byte	0x3
 2409 0117 04000000 		.4byte	TimHandle+4
 2410 011b 6A000000 		.4byte	.LVL11-.Ltext0
 2411 011f 72000000 		.4byte	.LVL14-.Ltext0
 2412 0123 0200     		.2byte	0x2
 2413 0125 30       		.byte	0x30
 2414 0126 9F       		.byte	0x9f
 2415 0127 00000000 		.4byte	0
 2416 012b 00000000 		.4byte	0
 2417              		.section	.debug_aranges,"",%progbits
 2418 0000 1C000000 		.4byte	0x1c
 2419 0004 0200     		.2byte	0x2
 2420 0006 00000000 		.4byte	.Ldebug_info0
 2421 000a 04       		.byte	0x4
 2422 000b 00       		.byte	0
 2423 000c 0000     		.2byte	0
 2424 000e 0000     		.2byte	0
 2425 0010 00000000 		.4byte	.Ltext0
 2426 0014 BC000000 		.4byte	.Letext0-.Ltext0
 2427 0018 00000000 		.4byte	0
 2428 001c 00000000 		.4byte	0
 2429              		.section	.debug_ranges,"",%progbits
 2430              	.Ldebug_ranges0:
 2431 0000 14000000 		.4byte	.LBB2-.Ltext0
 2432 0004 16000000 		.4byte	.LBE2-.Ltext0
 2433 0008 18000000 		.4byte	.LBB3-.Ltext0
 2434 000c 1A000000 		.4byte	.LBE3-.Ltext0
 2435 0010 1C000000 		.4byte	.LBB4-.Ltext0
 2436 0014 2C000000 		.4byte	.LBE4-.Ltext0
 2437 0018 00000000 		.4byte	0
 2438 001c 00000000 		.4byte	0
 2439              		.section	.debug_line,"",%progbits
 2440              	.Ldebug_line0:
 2441 0000 CE010000 		.section	.debug_str,"MS",%progbits,1
 2441      02008001 
 2441      00000201 
 2441      FB0E0D00 
 2441      01010101 
 2442              	.LASF181:
 2443 0000 48414C5F 		.ascii	"HAL_RCC_GetPCLK1Freq\000"
 2443      5243435F 
 2443      47657450 
 2443      434C4B31 
 2443      46726571 
 2444              	.LASF124:
 2445 0015 53746174 		.ascii	"State\000"
 2445      6500
 2446              	.LASF44:
 2447 001b 45585449 		.ascii	"EXTI15_10_IRQn\000"
ARM GAS  /tmp/ccIsCorD.s 			page 47


 2447      31355F31 
 2447      305F4952 
 2447      516E00
 2448              	.LASF179:
 2449 002a 48414C5F 		.ascii	"HAL_NVIC_EnableIRQ\000"
 2449      4E564943 
 2449      5F456E61 
 2449      626C6549 
 2449      525100
 2450              	.LASF160:
 2451 003d 48414C5F 		.ascii	"HAL_TickFreqTypeDef\000"
 2451      5469636B 
 2451      46726571 
 2451      54797065 
 2451      44656600 
 2452              	.LASF10:
 2453 0051 5056445F 		.ascii	"PVD_IRQn\000"
 2453      4952516E 
 2453      00
 2454              	.LASF82:
 2455 005a 44494552 		.ascii	"DIER\000"
 2455      00
 2456              	.LASF35:
 2457 005f 54494D31 		.ascii	"TIM1_TRG_COM_IRQn\000"
 2457      5F545247 
 2457      5F434F4D 
 2457      5F495251 
 2457      6E00
 2458              	.LASF182:
 2459 0071 48414C5F 		.ascii	"HAL_TIM_Base_Init\000"
 2459      54494D5F 
 2459      42617365 
 2459      5F496E69 
 2459      7400
 2460              	.LASF122:
 2461 0083 496E6974 		.ascii	"Init\000"
 2461      00
 2462              	.LASF115:
 2463 0088 444D415F 		.ascii	"DMA_InitTypeDef\000"
 2463      496E6974 
 2463      54797065 
 2463      44656600 
 2464              	.LASF69:
 2465 0098 434D4152 		.ascii	"CMAR\000"
 2465      00
 2466              	.LASF105:
 2467 009d 41504231 		.ascii	"APB1CLKDivider\000"
 2467      434C4B44 
 2467      69766964 
 2467      657200
 2468              	.LASF39:
 2469 00ac 49324331 		.ascii	"I2C1_EV_IRQn\000"
 2469      5F45565F 
 2469      4952516E 
 2469      00
 2470              	.LASF52:
 2471 00b9 5F5F7569 		.ascii	"__uint8_t\000"
ARM GAS  /tmp/ccIsCorD.s 			page 48


 2471      6E74385F 
 2471      7400
 2472              	.LASF96:
 2473 00c3 48414C5F 		.ascii	"HAL_BUSY\000"
 2473      42555359 
 2473      00
 2474              	.LASF66:
 2475 00cc 41504250 		.ascii	"APBPrescTable\000"
 2475      72657363 
 2475      5461626C 
 2475      6500
 2476              	.LASF92:
 2477 00da 54494D5F 		.ascii	"TIM_TypeDef\000"
 2477      54797065 
 2477      44656600 
 2478              	.LASF168:
 2479 00e6 6874696D 		.ascii	"htim\000"
 2479      00
 2480              	.LASF30:
 2481 00eb 43414E31 		.ascii	"CAN1_RX1_IRQn\000"
 2481      5F525831 
 2481      5F495251 
 2481      6E00
 2482              	.LASF177:
 2483 00f9 48414C5F 		.ascii	"HAL_IncTick\000"
 2483      496E6354 
 2483      69636B00 
 2484              	.LASF87:
 2485 0105 43435232 		.ascii	"CCR2\000"
 2485      00
 2486              	.LASF45:
 2487 010a 5254435F 		.ascii	"RTC_Alarm_IRQn\000"
 2487      416C6172 
 2487      6D5F4952 
 2487      516E00
 2488              	.LASF17:
 2489 0119 45585449 		.ascii	"EXTI2_IRQn\000"
 2489      325F4952 
 2489      516E00
 2490              	.LASF9:
 2491 0124 57574447 		.ascii	"WWDG_IRQn\000"
 2491      5F495251 
 2491      6E00
 2492              	.LASF173:
 2493 012e 75775072 		.ascii	"uwPrescalerValue\000"
 2493      65736361 
 2493      6C657256 
 2493      616C7565 
 2493      00
 2494              	.LASF139:
 2495 013f 4175746F 		.ascii	"AutoReloadPreload\000"
 2495      52656C6F 
 2495      61645072 
 2495      656C6F61 
 2495      6400
 2496              	.LASF83:
 2497 0151 43434D52 		.ascii	"CCMR1\000"
ARM GAS  /tmp/ccIsCorD.s 			page 49


 2497      3100
 2498              	.LASF84:
 2499 0157 43434D52 		.ascii	"CCMR2\000"
 2499      3200
 2500              	.LASF57:
 2501 015d 6C6F6E67 		.ascii	"long long int\000"
 2501      206C6F6E 
 2501      6720696E 
 2501      7400
 2502              	.LASF48:
 2503 016b 7369676E 		.ascii	"signed char\000"
 2503      65642063 
 2503      68617200 
 2504              	.LASF174:
 2505 0177 70464C61 		.ascii	"pFLatency\000"
 2505      74656E63 
 2505      7900
 2506              	.LASF15:
 2507 0181 45585449 		.ascii	"EXTI0_IRQn\000"
 2507      305F4952 
 2507      516E00
 2508              	.LASF136:
 2509 018c 50657269 		.ascii	"Period\000"
 2509      6F6400
 2510              	.LASF58:
 2511 0193 6C6F6E67 		.ascii	"long long unsigned int\000"
 2511      206C6F6E 
 2511      6720756E 
 2511      7369676E 
 2511      65642069 
 2512              	.LASF165:
 2513 01aa 48414C5F 		.ascii	"HAL_TIM_PeriodElapsedCallback\000"
 2513      54494D5F 
 2513      50657269 
 2513      6F64456C 
 2513      61707365 
 2514              	.LASF175:
 2515 01c8 746D7072 		.ascii	"tmpreg\000"
 2515      656700
 2516              	.LASF101:
 2517 01cf 48414C5F 		.ascii	"HAL_LockTypeDef\000"
 2517      4C6F636B 
 2517      54797065 
 2517      44656600 
 2518              	.LASF80:
 2519 01df 5243435F 		.ascii	"RCC_TypeDef\000"
 2519      54797065 
 2519      44656600 
 2520              	.LASF127:
 2521 01eb 58666572 		.ascii	"XferHalfCpltCallback\000"
 2521      48616C66 
 2521      43706C74 
 2521      43616C6C 
 2521      6261636B 
 2522              	.LASF54:
 2523 0200 6C6F6E67 		.ascii	"long int\000"
 2523      20696E74 
ARM GAS  /tmp/ccIsCorD.s 			page 50


 2523      00
 2524              	.LASF74:
 2525 0209 41504232 		.ascii	"APB2RSTR\000"
 2525      52535452 
 2525      00
 2526              	.LASF109:
 2527 0212 50657269 		.ascii	"PeriphInc\000"
 2527      7068496E 
 2527      6300
 2528              	.LASF32:
 2529 021c 45585449 		.ascii	"EXTI9_5_IRQn\000"
 2529      395F355F 
 2529      4952516E 
 2529      00
 2530              	.LASF85:
 2531 0229 43434552 		.ascii	"CCER\000"
 2531      00
 2532              	.LASF134:
 2533 022e 50726573 		.ascii	"Prescaler\000"
 2533      63616C65 
 2533      7200
 2534              	.LASF156:
 2535 0238 48414C5F 		.ascii	"HAL_TICK_FREQ_10HZ\000"
 2535      5449434B 
 2535      5F465245 
 2535      515F3130 
 2535      485A00
 2536              	.LASF27:
 2537 024b 41444331 		.ascii	"ADC1_2_IRQn\000"
 2537      5F325F49 
 2537      52516E00 
 2538              	.LASF132:
 2539 0257 4368616E 		.ascii	"ChannelIndex\000"
 2539      6E656C49 
 2539      6E646578 
 2539      00
 2540              	.LASF7:
 2541 0264 50656E64 		.ascii	"PendSV_IRQn\000"
 2541      53565F49 
 2541      52516E00 
 2542              	.LASF51:
 2543 0270 73686F72 		.ascii	"short unsigned int\000"
 2543      7420756E 
 2543      7369676E 
 2543      65642069 
 2543      6E7400
 2544              	.LASF125:
 2545 0283 50617265 		.ascii	"Parent\000"
 2545      6E7400
 2546              	.LASF23:
 2547 028a 444D4131 		.ascii	"DMA1_Channel4_IRQn\000"
 2547      5F436861 
 2547      6E6E656C 
 2547      345F4952 
 2547      516E00
 2548              	.LASF21:
 2549 029d 444D4131 		.ascii	"DMA1_Channel2_IRQn\000"
ARM GAS  /tmp/ccIsCorD.s 			page 51


 2549      5F436861 
 2549      6E6E656C 
 2549      325F4952 
 2549      516E00
 2550              	.LASF123:
 2551 02b0 4C6F636B 		.ascii	"Lock\000"
 2551      00
 2552              	.LASF169:
 2553 02b5 5469636B 		.ascii	"TickPriority\000"
 2553      5072696F 
 2553      72697479 
 2553      00
 2554              	.LASF55:
 2555 02c2 5F5F7569 		.ascii	"__uint32_t\000"
 2555      6E743332 
 2555      5F7400
 2556              	.LASF3:
 2557 02cd 42757346 		.ascii	"BusFault_IRQn\000"
 2557      61756C74 
 2557      5F495251 
 2557      6E00
 2558              	.LASF113:
 2559 02db 4D6F6465 		.ascii	"Mode\000"
 2559      00
 2560              	.LASF108:
 2561 02e0 44697265 		.ascii	"Direction\000"
 2561      6374696F 
 2561      6E00
 2562              	.LASF146:
 2563 02ea 48414C5F 		.ascii	"HAL_TIM_StateTypeDef\000"
 2563      54494D5F 
 2563      53746174 
 2563      65547970 
 2563      65446566 
 2564              	.LASF90:
 2565 02ff 42445452 		.ascii	"BDTR\000"
 2565      00
 2566              	.LASF157:
 2567 0304 48414C5F 		.ascii	"HAL_TICK_FREQ_100HZ\000"
 2567      5449434B 
 2567      5F465245 
 2567      515F3130 
 2567      30485A00 
 2568              	.LASF97:
 2569 0318 48414C5F 		.ascii	"HAL_TIMEOUT\000"
 2569      54494D45 
 2569      4F555400 
 2570              	.LASF72:
 2571 0324 444D415F 		.ascii	"DMA_TypeDef\000"
 2571      54797065 
 2571      44656600 
 2572              	.LASF148:
 2573 0330 48414C5F 		.ascii	"HAL_TIM_ACTIVE_CHANNEL_2\000"
 2573      54494D5F 
 2573      41435449 
 2573      56455F43 
 2573      48414E4E 
ARM GAS  /tmp/ccIsCorD.s 			page 52


 2574              	.LASF116:
 2575 0349 48414C5F 		.ascii	"HAL_DMA_STATE_RESET\000"
 2575      444D415F 
 2575      53544154 
 2575      455F5245 
 2575      53455400 
 2576              	.LASF150:
 2577 035d 48414C5F 		.ascii	"HAL_TIM_ACTIVE_CHANNEL_4\000"
 2577      54494D5F 
 2577      41435449 
 2577      56455F43 
 2577      48414E4E 
 2578              	.LASF162:
 2579 0376 75775469 		.ascii	"uwTickFreq\000"
 2579      636B4672 
 2579      657100
 2580              	.LASF68:
 2581 0381 43504152 		.ascii	"CPAR\000"
 2581      00
 2582              	.LASF56:
 2583 0386 6C6F6E67 		.ascii	"long unsigned int\000"
 2583      20756E73 
 2583      69676E65 
 2583      6420696E 
 2583      7400
 2584              	.LASF178:
 2585 0398 48414C5F 		.ascii	"HAL_NVIC_SetPriority\000"
 2585      4E564943 
 2585      5F536574 
 2585      5072696F 
 2585      72697479 
 2586              	.LASF183:
 2587 03ad 48414C5F 		.ascii	"HAL_TIM_Base_Start_IT\000"
 2587      54494D5F 
 2587      42617365 
 2587      5F537461 
 2587      72745F49 
 2588              	.LASF158:
 2589 03c3 48414C5F 		.ascii	"HAL_TICK_FREQ_1KHZ\000"
 2589      5449434B 
 2589      5F465245 
 2589      515F314B 
 2589      485A00
 2590              	.LASF94:
 2591 03d6 48414C5F 		.ascii	"HAL_OK\000"
 2591      4F4B00
 2592              	.LASF24:
 2593 03dd 444D4131 		.ascii	"DMA1_Channel5_IRQn\000"
 2593      5F436861 
 2593      6E6E656C 
 2593      355F4952 
 2593      516E00
 2594              	.LASF81:
 2595 03f0 534D4352 		.ascii	"SMCR\000"
 2595      00
 2596              	.LASF185:
 2597 03f5 7372632F 		.ascii	"src/stm32f1xx_hal_timebase_tim_template.c\000"
ARM GAS  /tmp/ccIsCorD.s 			page 53


 2597      73746D33 
 2597      32663178 
 2597      785F6861 
 2597      6C5F7469 
 2598              	.LASF155:
 2599 041f 54494D5F 		.ascii	"TIM_HandleTypeDef\000"
 2599      48616E64 
 2599      6C655479 
 2599      70654465 
 2599      6600
 2600              	.LASF151:
 2601 0431 48414C5F 		.ascii	"HAL_TIM_ACTIVE_CHANNEL_CLEARED\000"
 2601      54494D5F 
 2601      41435449 
 2601      56455F43 
 2601      48414E4E 
 2602              	.LASF1:
 2603 0450 48617264 		.ascii	"HardFault_IRQn\000"
 2603      4661756C 
 2603      745F4952 
 2603      516E00
 2604              	.LASF131:
 2605 045f 446D6142 		.ascii	"DmaBaseAddress\000"
 2605      61736541 
 2605      64647265 
 2605      737300
 2606              	.LASF130:
 2607 046e 4572726F 		.ascii	"ErrorCode\000"
 2607      72436F64 
 2607      6500
 2608              	.LASF112:
 2609 0478 4D656D44 		.ascii	"MemDataAlignment\000"
 2609      61746141 
 2609      6C69676E 
 2609      6D656E74 
 2609      00
 2610              	.LASF120:
 2611 0489 48414C5F 		.ascii	"HAL_DMA_StateTypeDef\000"
 2611      444D415F 
 2611      53746174 
 2611      65547970 
 2611      65446566 
 2612              	.LASF98:
 2613 049e 48414C5F 		.ascii	"HAL_StatusTypeDef\000"
 2613      53746174 
 2613      75735479 
 2613      70654465 
 2613      6600
 2614              	.LASF163:
 2615 04b0 54696D48 		.ascii	"TimHandle\000"
 2615      616E646C 
 2615      6500
 2616              	.LASF135:
 2617 04ba 436F756E 		.ascii	"CounterMode\000"
 2617      7465724D 
 2617      6F646500 
 2618              	.LASF65:
ARM GAS  /tmp/ccIsCorD.s 			page 54


 2619 04c6 41484250 		.ascii	"AHBPrescTable\000"
 2619      72657363 
 2619      5461626C 
 2619      6500
 2620              	.LASF53:
 2621 04d4 5F5F696E 		.ascii	"__int32_t\000"
 2621      7433325F 
 2621      7400
 2622              	.LASF104:
 2623 04de 41484243 		.ascii	"AHBCLKDivider\000"
 2623      4C4B4469 
 2623      76696465 
 2623      7200
 2624              	.LASF144:
 2625 04ec 48414C5F 		.ascii	"HAL_TIM_STATE_TIMEOUT\000"
 2625      54494D5F 
 2625      53544154 
 2625      455F5449 
 2625      4D454F55 
 2626              	.LASF8:
 2627 0502 53797354 		.ascii	"SysTick_IRQn\000"
 2627      69636B5F 
 2627      4952516E 
 2627      00
 2628              	.LASF36:
 2629 050f 54494D31 		.ascii	"TIM1_CC_IRQn\000"
 2629      5F43435F 
 2629      4952516E 
 2629      00
 2630              	.LASF154:
 2631 051c 68646D61 		.ascii	"hdma\000"
 2631      00
 2632              	.LASF143:
 2633 0521 48414C5F 		.ascii	"HAL_TIM_STATE_BUSY\000"
 2633      54494D5F 
 2633      53544154 
 2633      455F4255 
 2633      535900
 2634              	.LASF141:
 2635 0534 48414C5F 		.ascii	"HAL_TIM_STATE_RESET\000"
 2635      54494D5F 
 2635      53544154 
 2635      455F5245 
 2635      53455400 
 2636              	.LASF62:
 2637 0548 73697A65 		.ascii	"sizetype\000"
 2637      74797065 
 2637      00
 2638              	.LASF5:
 2639 0551 53564361 		.ascii	"SVCall_IRQn\000"
 2639      6C6C5F49 
 2639      52516E00 
 2640              	.LASF93:
 2641 055d 6C6F6E67 		.ascii	"long double\000"
 2641      20646F75 
 2641      626C6500 
 2642              	.LASF171:
ARM GAS  /tmp/ccIsCorD.s 			page 55


 2643 0569 75775469 		.ascii	"uwTimclock\000"
 2643      6D636C6F 
 2643      636B00
 2644              	.LASF100:
 2645 0574 48414C5F 		.ascii	"HAL_LOCKED\000"
 2645      4C4F434B 
 2645      454400
 2646              	.LASF18:
 2647 057f 45585449 		.ascii	"EXTI3_IRQn\000"
 2647      335F4952 
 2647      516E00
 2648              	.LASF133:
 2649 058a 444D415F 		.ascii	"DMA_HandleTypeDef\000"
 2649      48616E64 
 2649      6C655479 
 2649      70654465 
 2649      6600
 2650              	.LASF128:
 2651 059c 58666572 		.ascii	"XferErrorCallback\000"
 2651      4572726F 
 2651      7243616C 
 2651      6C626163 
 2651      6B00
 2652              	.LASF138:
 2653 05ae 52657065 		.ascii	"RepetitionCounter\000"
 2653      74697469 
 2653      6F6E436F 
 2653      756E7465 
 2653      7200
 2654              	.LASF107:
 2655 05c0 5243435F 		.ascii	"RCC_ClkInitTypeDef\000"
 2655      436C6B49 
 2655      6E697454 
 2655      79706544 
 2655      656600
 2656              	.LASF75:
 2657 05d3 41504231 		.ascii	"APB1RSTR\000"
 2657      52535452 
 2657      00
 2658              	.LASF102:
 2659 05dc 436C6F63 		.ascii	"ClockType\000"
 2659      6B547970 
 2659      6500
 2660              	.LASF70:
 2661 05e6 444D415F 		.ascii	"DMA_Channel_TypeDef\000"
 2661      4368616E 
 2661      6E656C5F 
 2661      54797065 
 2661      44656600 
 2662              	.LASF137:
 2663 05fa 436C6F63 		.ascii	"ClockDivision\000"
 2663      6B446976 
 2663      6973696F 
 2663      6E00
 2664              	.LASF64:
 2665 0608 53797374 		.ascii	"SystemCoreClock\000"
 2665      656D436F 
ARM GAS  /tmp/ccIsCorD.s 			page 56


 2665      7265436C 
 2665      6F636B00 
 2666              	.LASF166:
 2667 0618 48414C5F 		.ascii	"HAL_ResumeTick\000"
 2667      52657375 
 2667      6D655469 
 2667      636B00
 2668              	.LASF20:
 2669 0627 444D4131 		.ascii	"DMA1_Channel1_IRQn\000"
 2669      5F436861 
 2669      6E6E656C 
 2669      315F4952 
 2669      516E00
 2670              	.LASF2:
 2671 063a 4D656D6F 		.ascii	"MemoryManagement_IRQn\000"
 2671      72794D61 
 2671      6E616765 
 2671      6D656E74 
 2671      5F495251 
 2672              	.LASF188:
 2673 0650 48414C5F 		.ascii	"HAL_InitTick\000"
 2673      496E6974 
 2673      5469636B 
 2673      00
 2674              	.LASF121:
 2675 065d 496E7374 		.ascii	"Instance\000"
 2675      616E6365 
 2675      00
 2676              	.LASF42:
 2677 0666 55534152 		.ascii	"USART1_IRQn\000"
 2677      54315F49 
 2677      52516E00 
 2678              	.LASF142:
 2679 0672 48414C5F 		.ascii	"HAL_TIM_STATE_READY\000"
 2679      54494D5F 
 2679      53544154 
 2679      455F5245 
 2679      41445900 
 2680              	.LASF153:
 2681 0686 4368616E 		.ascii	"Channel\000"
 2681      6E656C00 
 2682              	.LASF6:
 2683 068e 44656275 		.ascii	"DebugMonitor_IRQn\000"
 2683      674D6F6E 
 2683      69746F72 
 2683      5F495251 
 2683      6E00
 2684              	.LASF60:
 2685 06a0 696E7433 		.ascii	"int32_t\000"
 2685      325F7400 
 2686              	.LASF49:
 2687 06a8 756E7369 		.ascii	"unsigned char\000"
 2687      676E6564 
 2687      20636861 
 2687      7200
 2688              	.LASF28:
 2689 06b6 5553425F 		.ascii	"USB_HP_CAN1_TX_IRQn\000"
ARM GAS  /tmp/ccIsCorD.s 			page 57


 2689      48505F43 
 2689      414E315F 
 2689      54585F49 
 2689      52516E00 
 2690              	.LASF63:
 2691 06ca 49544D5F 		.ascii	"ITM_RxBuffer\000"
 2691      52784275 
 2691      66666572 
 2691      00
 2692              	.LASF19:
 2693 06d7 45585449 		.ascii	"EXTI4_IRQn\000"
 2693      345F4952 
 2693      516E00
 2694              	.LASF41:
 2695 06e2 53504931 		.ascii	"SPI1_IRQn\000"
 2695      5F495251 
 2695      6E00
 2696              	.LASF50:
 2697 06ec 73686F72 		.ascii	"short int\000"
 2697      7420696E 
 2697      7400
 2698              	.LASF118:
 2699 06f6 48414C5F 		.ascii	"HAL_DMA_STATE_BUSY\000"
 2699      444D415F 
 2699      53544154 
 2699      455F4255 
 2699      535900
 2700              	.LASF22:
 2701 0709 444D4131 		.ascii	"DMA1_Channel3_IRQn\000"
 2701      5F436861 
 2701      6E6E656C 
 2701      335F4952 
 2701      516E00
 2702              	.LASF29:
 2703 071c 5553425F 		.ascii	"USB_LP_CAN1_RX0_IRQn\000"
 2703      4C505F43 
 2703      414E315F 
 2703      5258305F 
 2703      4952516E 
 2704              	.LASF184:
 2705 0731 474E5520 		.ascii	"GNU C11 6.3.1 20170620 -mcpu=cortex-m3 -mthumb -g -"
 2705      43313120 
 2705      362E332E 
 2705      31203230 
 2705      31373036 
 2706 0764 67647761 		.ascii	"gdwarf-2 -Os -fomit-frame-pointer\000"
 2706      72662D32 
 2706      202D4F73 
 2706      202D666F 
 2706      6D69742D 
 2707              	.LASF77:
 2708 0786 41504232 		.ascii	"APB2ENR\000"
 2708      454E5200 
 2709              	.LASF186:
 2710 078e 2F686F6D 		.ascii	"/home/berndoj/git/stm32tctst/lib/stm32f1hal\000"
 2710      652F6265 
 2710      726E646F 
ARM GAS  /tmp/ccIsCorD.s 			page 58


 2710      6A2F6769 
 2710      742F7374 
 2711              	.LASF147:
 2712 07ba 48414C5F 		.ascii	"HAL_TIM_ACTIVE_CHANNEL_1\000"
 2712      54494D5F 
 2712      41435449 
 2712      56455F43 
 2712      48414E4E 
 2713              	.LASF167:
 2714 07d3 48414C5F 		.ascii	"HAL_SuspendTick\000"
 2714      53757370 
 2714      656E6454 
 2714      69636B00 
 2715              	.LASF149:
 2716 07e3 48414C5F 		.ascii	"HAL_TIM_ACTIVE_CHANNEL_3\000"
 2716      54494D5F 
 2716      41435449 
 2716      56455F43 
 2716      48414E4E 
 2717              	.LASF13:
 2718 07fc 464C4153 		.ascii	"FLASH_IRQn\000"
 2718      485F4952 
 2718      516E00
 2719              	.LASF145:
 2720 0807 48414C5F 		.ascii	"HAL_TIM_STATE_ERROR\000"
 2720      54494D5F 
 2720      53544154 
 2720      455F4552 
 2720      524F5200 
 2721              	.LASF187:
 2722 081b 5F5F444D 		.ascii	"__DMA_HandleTypeDef\000"
 2722      415F4861 
 2722      6E646C65 
 2722      54797065 
 2722      44656600 
 2723              	.LASF61:
 2724 082f 75696E74 		.ascii	"uint32_t\000"
 2724      33325F74 
 2724      00
 2725              	.LASF43:
 2726 0838 55534152 		.ascii	"USART2_IRQn\000"
 2726      54325F49 
 2726      52516E00 
 2727              	.LASF4:
 2728 0844 55736167 		.ascii	"UsageFault_IRQn\000"
 2728      65466175 
 2728      6C745F49 
 2728      52516E00 
 2729              	.LASF95:
 2730 0854 48414C5F 		.ascii	"HAL_ERROR\000"
 2730      4552524F 
 2730      5200
 2731              	.LASF71:
 2732 085e 49464352 		.ascii	"IFCR\000"
 2732      00
 2733              	.LASF117:
 2734 0863 48414C5F 		.ascii	"HAL_DMA_STATE_READY\000"
ARM GAS  /tmp/ccIsCorD.s 			page 59


 2734      444D415F 
 2734      53544154 
 2734      455F5245 
 2734      41445900 
 2735              	.LASF161:
 2736 0877 75775469 		.ascii	"uwTickPrio\000"
 2736      636B5072 
 2736      696F00
 2737              	.LASF172:
 2738 0882 75774150 		.ascii	"uwAPB1Prescaler\000"
 2738      42315072 
 2738      65736361 
 2738      6C657200 
 2739              	.LASF47:
 2740 0892 756E7369 		.ascii	"unsigned int\000"
 2740      676E6564 
 2740      20696E74 
 2740      00
 2741              	.LASF33:
 2742 089f 54494D31 		.ascii	"TIM1_BRK_IRQn\000"
 2742      5F42524B 
 2742      5F495251 
 2742      6E00
 2743              	.LASF91:
 2744 08ad 444D4152 		.ascii	"DMAR\000"
 2744      00
 2745              	.LASF110:
 2746 08b2 4D656D49 		.ascii	"MemInc\000"
 2746      6E6300
 2747              	.LASF31:
 2748 08b9 43414E31 		.ascii	"CAN1_SCE_IRQn\000"
 2748      5F534345 
 2748      5F495251 
 2748      6E00
 2749              	.LASF0:
 2750 08c7 4E6F6E4D 		.ascii	"NonMaskableInt_IRQn\000"
 2750      61736B61 
 2750      626C6549 
 2750      6E745F49 
 2750      52516E00 
 2751              	.LASF106:
 2752 08db 41504232 		.ascii	"APB2CLKDivider\000"
 2752      434C4B44 
 2752      69766964 
 2752      657200
 2753              	.LASF159:
 2754 08ea 48414C5F 		.ascii	"HAL_TICK_FREQ_DEFAULT\000"
 2754      5449434B 
 2754      5F465245 
 2754      515F4445 
 2754      4641554C 
 2755              	.LASF170:
 2756 0900 636C6B63 		.ascii	"clkconfig\000"
 2756      6F6E6669 
 2756      6700
 2757              	.LASF180:
 2758 090a 48414C5F 		.ascii	"HAL_RCC_GetClockConfig\000"
ARM GAS  /tmp/ccIsCorD.s 			page 60


 2758      5243435F 
 2758      47657443 
 2758      6C6F636B 
 2758      436F6E66 
 2759              	.LASF25:
 2760 0921 444D4131 		.ascii	"DMA1_Channel6_IRQn\000"
 2760      5F436861 
 2760      6E6E656C 
 2760      365F4952 
 2760      516E00
 2761              	.LASF78:
 2762 0934 41504231 		.ascii	"APB1ENR\000"
 2762      454E5200 
 2763              	.LASF11:
 2764 093c 54414D50 		.ascii	"TAMPER_IRQn\000"
 2764      45525F49 
 2764      52516E00 
 2765              	.LASF34:
 2766 0948 54494D31 		.ascii	"TIM1_UP_IRQn\000"
 2766      5F55505F 
 2766      4952516E 
 2766      00
 2767              	.LASF176:
 2768 0955 48414C5F 		.ascii	"HAL_TIM_IRQHandler\000"
 2768      54494D5F 
 2768      49525148 
 2768      616E646C 
 2768      657200
 2769              	.LASF46:
 2770 0968 55534257 		.ascii	"USBWakeUp_IRQn\000"
 2770      616B6555 
 2770      705F4952 
 2770      516E00
 2771              	.LASF140:
 2772 0977 54494D5F 		.ascii	"TIM_Base_InitTypeDef\000"
 2772      42617365 
 2772      5F496E69 
 2772      74547970 
 2772      65446566 
 2773              	.LASF111:
 2774 098c 50657269 		.ascii	"PeriphDataAlignment\000"
 2774      70684461 
 2774      7461416C 
 2774      69676E6D 
 2774      656E7400 
 2775              	.LASF86:
 2776 09a0 43435231 		.ascii	"CCR1\000"
 2776      00
 2777              	.LASF37:
 2778 09a5 54494D32 		.ascii	"TIM2_IRQn\000"
 2778      5F495251 
 2778      6E00
 2779              	.LASF88:
 2780 09af 43435233 		.ascii	"CCR3\000"
 2780      00
 2781              	.LASF89:
 2782 09b4 43435234 		.ascii	"CCR4\000"
ARM GAS  /tmp/ccIsCorD.s 			page 61


 2782      00
 2783              	.LASF67:
 2784 09b9 434E4454 		.ascii	"CNDTR\000"
 2784      5200
 2785              	.LASF79:
 2786 09bf 42444352 		.ascii	"BDCR\000"
 2786      00
 2787              	.LASF119:
 2788 09c4 48414C5F 		.ascii	"HAL_DMA_STATE_TIMEOUT\000"
 2788      444D415F 
 2788      53544154 
 2788      455F5449 
 2788      4D454F55 
 2789              	.LASF114:
 2790 09da 5072696F 		.ascii	"Priority\000"
 2790      72697479 
 2790      00
 2791              	.LASF59:
 2792 09e3 75696E74 		.ascii	"uint8_t\000"
 2792      385F7400 
 2793              	.LASF14:
 2794 09eb 5243435F 		.ascii	"RCC_IRQn\000"
 2794      4952516E 
 2794      00
 2795              	.LASF152:
 2796 09f4 48414C5F 		.ascii	"HAL_TIM_ActiveChannel\000"
 2796      54494D5F 
 2796      41637469 
 2796      76654368 
 2796      616E6E65 
 2797              	.LASF26:
 2798 0a0a 444D4131 		.ascii	"DMA1_Channel7_IRQn\000"
 2798      5F436861 
 2798      6E6E656C 
 2798      375F4952 
 2798      516E00
 2799              	.LASF73:
 2800 0a1d 43464752 		.ascii	"CFGR\000"
 2800      00
 2801              	.LASF99:
 2802 0a22 48414C5F 		.ascii	"HAL_UNLOCKED\000"
 2802      554E4C4F 
 2802      434B4544 
 2802      00
 2803              	.LASF40:
 2804 0a2f 49324331 		.ascii	"I2C1_ER_IRQn\000"
 2804      5F45525F 
 2804      4952516E 
 2804      00
 2805              	.LASF12:
 2806 0a3c 5254435F 		.ascii	"RTC_IRQn\000"
 2806      4952516E 
 2806      00
 2807              	.LASF129:
 2808 0a45 58666572 		.ascii	"XferAbortCallback\000"
 2808      41626F72 
 2808      7443616C 
ARM GAS  /tmp/ccIsCorD.s 			page 62


 2808      6C626163 
 2808      6B00
 2809              	.LASF164:
 2810 0a57 54494D32 		.ascii	"TIM2_IRQHandler\000"
 2810      5F495251 
 2810      48616E64 
 2810      6C657200 
 2811              	.LASF126:
 2812 0a67 58666572 		.ascii	"XferCpltCallback\000"
 2812      43706C74 
 2812      43616C6C 
 2812      6261636B 
 2812      00
 2813              	.LASF38:
 2814 0a78 54494D33 		.ascii	"TIM3_IRQn\000"
 2814      5F495251 
 2814      6E00
 2815              	.LASF76:
 2816 0a82 41484245 		.ascii	"AHBENR\000"
 2816      4E5200
 2817              	.LASF16:
 2818 0a89 45585449 		.ascii	"EXTI1_IRQn\000"
 2818      315F4952 
 2818      516E00
 2819              	.LASF103:
 2820 0a94 53595343 		.ascii	"SYSCLKSource\000"
 2820      4C4B536F 
 2820      75726365 
 2820      00
 2821              		.ident	"GCC: (15:6.3.1+svn253039-1build1) 6.3.1 20170620"
ARM GAS  /tmp/ccIsCorD.s 			page 63


DEFINED SYMBOLS
                            *ABS*:0000000000000000 stm32f1xx_hal_timebase_tim_template.c
     /tmp/ccIsCorD.s:70     .text:0000000000000000 $t
     /tmp/ccIsCorD.s:77     .text:0000000000000000 HAL_InitTick
     /tmp/ccIsCorD.s:198    .text:0000000000000078 $d
                            *COM*:0000000000000040 TimHandle
     /tmp/ccIsCorD.s:204    .text:0000000000000084 $t
     /tmp/ccIsCorD.s:211    .text:0000000000000084 HAL_SuspendTick
     /tmp/ccIsCorD.s:228    .text:0000000000000094 $d
     /tmp/ccIsCorD.s:232    .text:0000000000000098 $t
     /tmp/ccIsCorD.s:239    .text:0000000000000098 HAL_ResumeTick
     /tmp/ccIsCorD.s:256    .text:00000000000000a8 $d
     /tmp/ccIsCorD.s:260    .text:00000000000000ac $t
     /tmp/ccIsCorD.s:267    .text:00000000000000ac HAL_TIM_PeriodElapsedCallback
     /tmp/ccIsCorD.s:288    .text:00000000000000b0 TIM2_IRQHandler
     /tmp/ccIsCorD.s:302    .text:00000000000000b8 $d
                     .debug_frame:0000000000000010 $d

UNDEFINED SYMBOLS
HAL_NVIC_SetPriority
HAL_NVIC_EnableIRQ
HAL_RCC_GetClockConfig
HAL_RCC_GetPCLK1Freq
HAL_TIM_Base_Init
HAL_TIM_Base_Start_IT
HAL_IncTick
HAL_TIM_IRQHandler
