ARM GAS  /tmp/ccQLZ2B6.s 			page 1


   1              		.syntax unified
   2              		.cpu cortex-m3
   3              		.fpu softvfp
   4              		.eabi_attribute 20, 1
   5              		.eabi_attribute 21, 1
   6              		.eabi_attribute 23, 3
   7              		.eabi_attribute 24, 1
   8              		.eabi_attribute 25, 1
   9              		.eabi_attribute 26, 1
  10              		.eabi_attribute 30, 1
  11              		.eabi_attribute 34, 1
  12              		.eabi_attribute 18, 4
  13              		.thumb
  14              		.file	"stm32f1xx_hal_exti.c"
  15              		.section	.text.HAL_EXTI_SetConfigLine,"ax",%progbits
  16              		.align	2
  17              		.global	HAL_EXTI_SetConfigLine
  18              		.thumb
  19              		.thumb_func
  21              	HAL_EXTI_SetConfigLine:
  22              		@ args = 0, pretend = 0, frame = 0
  23              		@ frame_needed = 0, uses_anonymous_args = 0
  24              		@ link register save eliminated.
  25 0000 0028     		cmp	r0, #0
  26 0002 5FD0     		beq	.L11
  27 0004 0029     		cmp	r1, #0
  28 0006 5FD0     		beq	.L12
  29 0008 70B4     		push	{r4, r5, r6}
  30 000a 0A68     		ldr	r2, [r1]
  31 000c 0260     		str	r2, [r0]
  32 000e 0A68     		ldr	r2, [r1]
  33 0010 02F01F00 		and	r0, r2, #31
  34 0014 0123     		movs	r3, #1
  35 0016 8340     		lsls	r3, r3, r0
  36 0018 12F0007F 		tst	r2, #33554432
  37 001c 33D0     		beq	.L3
  38 001e 8C68     		ldr	r4, [r1, #8]
  39 0020 14F0010F 		tst	r4, #1
  40 0024 04D0     		beq	.L4
  41 0026 2A4D     		ldr	r5, .L15
  42 0028 AC68     		ldr	r4, [r5, #8]
  43 002a 1C43     		orrs	r4, r4, r3
  44 002c AC60     		str	r4, [r5, #8]
  45 002e 04E0     		b	.L5
  46              	.L4:
  47 0030 274D     		ldr	r5, .L15
  48 0032 AC68     		ldr	r4, [r5, #8]
  49 0034 24EA0304 		bic	r4, r4, r3
  50 0038 AC60     		str	r4, [r5, #8]
  51              	.L5:
  52 003a 8C68     		ldr	r4, [r1, #8]
  53 003c 14F0020F 		tst	r4, #2
  54 0040 04D0     		beq	.L6
  55 0042 234D     		ldr	r5, .L15
  56 0044 EC68     		ldr	r4, [r5, #12]
  57 0046 1C43     		orrs	r4, r4, r3
  58 0048 EC60     		str	r4, [r5, #12]
ARM GAS  /tmp/ccQLZ2B6.s 			page 2


  59 004a 04E0     		b	.L7
  60              	.L6:
  61 004c 204D     		ldr	r5, .L15
  62 004e EC68     		ldr	r4, [r5, #12]
  63 0050 24EA0304 		bic	r4, r4, r3
  64 0054 EC60     		str	r4, [r5, #12]
  65              	.L7:
  66 0056 0C68     		ldr	r4, [r1]
  67 0058 04F0C064 		and	r4, r4, #100663296
  68 005c B4F1C06F 		cmp	r4, #100663296
  69 0060 11D1     		bne	.L3
  70 0062 8008     		lsrs	r0, r0, #2
  71 0064 1B4E     		ldr	r6, .L15+4
  72 0066 0230     		adds	r0, r0, #2
  73 0068 56F82050 		ldr	r5, [r6, r0, lsl #2]
  74 006c 02F00302 		and	r2, r2, #3
  75 0070 9200     		lsls	r2, r2, #2
  76 0072 0F24     		movs	r4, #15
  77 0074 9440     		lsls	r4, r4, r2
  78 0076 25EA0404 		bic	r4, r5, r4
  79 007a CD68     		ldr	r5, [r1, #12]
  80 007c 9540     		lsls	r5, r5, r2
  81 007e 45EA0402 		orr	r2, r5, r4
  82 0082 46F82020 		str	r2, [r6, r0, lsl #2]
  83              	.L3:
  84 0086 4A68     		ldr	r2, [r1, #4]
  85 0088 12F0010F 		tst	r2, #1
  86 008c 04D0     		beq	.L8
  87 008e 1048     		ldr	r0, .L15
  88 0090 0268     		ldr	r2, [r0]
  89 0092 1A43     		orrs	r2, r2, r3
  90 0094 0260     		str	r2, [r0]
  91 0096 04E0     		b	.L9
  92              	.L8:
  93 0098 0D48     		ldr	r0, .L15
  94 009a 0268     		ldr	r2, [r0]
  95 009c 22EA0302 		bic	r2, r2, r3
  96 00a0 0260     		str	r2, [r0]
  97              	.L9:
  98 00a2 4A68     		ldr	r2, [r1, #4]
  99 00a4 12F0020F 		tst	r2, #2
 100 00a8 05D0     		beq	.L10
 101 00aa 0949     		ldr	r1, .L15
 102 00ac 4A68     		ldr	r2, [r1, #4]
 103 00ae 1343     		orrs	r3, r3, r2
 104 00b0 4B60     		str	r3, [r1, #4]
 105 00b2 0020     		movs	r0, #0
 106 00b4 0AE0     		b	.L2
 107              	.L10:
 108 00b6 0649     		ldr	r1, .L15
 109 00b8 4A68     		ldr	r2, [r1, #4]
 110 00ba 22EA0303 		bic	r3, r2, r3
 111 00be 4B60     		str	r3, [r1, #4]
 112 00c0 0020     		movs	r0, #0
 113 00c2 03E0     		b	.L2
 114              	.L11:
 115 00c4 0120     		movs	r0, #1
ARM GAS  /tmp/ccQLZ2B6.s 			page 3


 116 00c6 7047     		bx	lr
 117              	.L12:
 118 00c8 0120     		movs	r0, #1
 119 00ca 7047     		bx	lr
 120              	.L2:
 121 00cc 70BC     		pop	{r4, r5, r6}
 122 00ce 7047     		bx	lr
 123              	.L16:
 124              		.align	2
 125              	.L15:
 126 00d0 00040140 		.word	1073808384
 127 00d4 00000140 		.word	1073807360
 129              		.section	.text.HAL_EXTI_GetConfigLine,"ax",%progbits
 130              		.align	2
 131              		.global	HAL_EXTI_GetConfigLine
 132              		.thumb
 133              		.thumb_func
 135              	HAL_EXTI_GetConfigLine:
 136              		@ args = 0, pretend = 0, frame = 0
 137              		@ frame_needed = 0, uses_anonymous_args = 0
 138              		@ link register save eliminated.
 139 0000 0028     		cmp	r0, #0
 140 0002 48D0     		beq	.L27
 141 0004 0029     		cmp	r1, #0
 142 0006 48D0     		beq	.L28
 143 0008 10B4     		push	{r4}
 144 000a 0068     		ldr	r0, [r0]
 145 000c 0860     		str	r0, [r1]
 146 000e 00F01F04 		and	r4, r0, #31
 147 0012 0123     		movs	r3, #1
 148 0014 A340     		lsls	r3, r3, r4
 149 0016 234A     		ldr	r2, .L31
 150 0018 1268     		ldr	r2, [r2]
 151 001a 1A42     		tst	r2, r3
 152 001c 02D0     		beq	.L19
 153 001e 0122     		movs	r2, #1
 154 0020 4A60     		str	r2, [r1, #4]
 155 0022 01E0     		b	.L20
 156              	.L19:
 157 0024 0022     		movs	r2, #0
 158 0026 4A60     		str	r2, [r1, #4]
 159              	.L20:
 160 0028 1E4A     		ldr	r2, .L31
 161 002a 5268     		ldr	r2, [r2, #4]
 162 002c 1A42     		tst	r2, r3
 163 002e 03D0     		beq	.L21
 164 0030 4A68     		ldr	r2, [r1, #4]
 165 0032 42F00202 		orr	r2, r2, #2
 166 0036 4A60     		str	r2, [r1, #4]
 167              	.L21:
 168 0038 10F0007F 		tst	r0, #33554432
 169 003c 27D0     		beq	.L22
 170 003e 194A     		ldr	r2, .L31
 171 0040 9268     		ldr	r2, [r2, #8]
 172 0042 1A42     		tst	r2, r3
 173 0044 02D0     		beq	.L23
 174 0046 0122     		movs	r2, #1
ARM GAS  /tmp/ccQLZ2B6.s 			page 4


 175 0048 8A60     		str	r2, [r1, #8]
 176 004a 01E0     		b	.L24
 177              	.L23:
 178 004c 0022     		movs	r2, #0
 179 004e 8A60     		str	r2, [r1, #8]
 180              	.L24:
 181 0050 144A     		ldr	r2, .L31
 182 0052 D268     		ldr	r2, [r2, #12]
 183 0054 1A42     		tst	r2, r3
 184 0056 03D0     		beq	.L25
 185 0058 8B68     		ldr	r3, [r1, #8]
 186 005a 43F00203 		orr	r3, r3, #2
 187 005e 8B60     		str	r3, [r1, #8]
 188              	.L25:
 189 0060 00F0C063 		and	r3, r0, #100663296
 190 0064 B3F1C06F 		cmp	r3, #100663296
 191 0068 0ED1     		bne	.L26
 192 006a A308     		lsrs	r3, r4, #2
 193 006c 0233     		adds	r3, r3, #2
 194 006e 0E4A     		ldr	r2, .L31+4
 195 0070 52F82320 		ldr	r2, [r2, r3, lsl #2]
 196 0074 E343     		mvns	r3, r4
 197 0076 03F00303 		and	r3, r3, #3
 198 007a 9B00     		lsls	r3, r3, #2
 199 007c 02FA03F3 		lsl	r3, r2, r3
 200 0080 1B0E     		lsrs	r3, r3, #24
 201 0082 CB60     		str	r3, [r1, #12]
 202 0084 0020     		movs	r0, #0
 203 0086 0AE0     		b	.L18
 204              	.L26:
 205 0088 0020     		movs	r0, #0
 206 008a C860     		str	r0, [r1, #12]
 207 008c 07E0     		b	.L18
 208              	.L22:
 209 008e 0020     		movs	r0, #0
 210 0090 8860     		str	r0, [r1, #8]
 211 0092 C860     		str	r0, [r1, #12]
 212 0094 03E0     		b	.L18
 213              	.L27:
 214 0096 0120     		movs	r0, #1
 215 0098 7047     		bx	lr
 216              	.L28:
 217 009a 0120     		movs	r0, #1
 218 009c 7047     		bx	lr
 219              	.L18:
 220 009e 5DF8044B 		ldr	r4, [sp], #4
 221 00a2 7047     		bx	lr
 222              	.L32:
 223              		.align	2
 224              	.L31:
 225 00a4 00040140 		.word	1073808384
 226 00a8 00000140 		.word	1073807360
 228              		.section	.text.HAL_EXTI_ClearConfigLine,"ax",%progbits
 229              		.align	2
 230              		.global	HAL_EXTI_ClearConfigLine
 231              		.thumb
 232              		.thumb_func
ARM GAS  /tmp/ccQLZ2B6.s 			page 5


 234              	HAL_EXTI_ClearConfigLine:
 235              		@ args = 0, pretend = 0, frame = 0
 236              		@ frame_needed = 0, uses_anonymous_args = 0
 237              		@ link register save eliminated.
 238 0000 78B3     		cbz	r0, .L35
 239 0002 30B4     		push	{r4, r5}
 240 0004 0446     		mov	r4, r0
 241 0006 0568     		ldr	r5, [r0]
 242 0008 05F01F00 		and	r0, r5, #31
 243 000c 0123     		movs	r3, #1
 244 000e 8340     		lsls	r3, r3, r0
 245 0010 174A     		ldr	r2, .L39
 246 0012 1168     		ldr	r1, [r2]
 247 0014 DB43     		mvns	r3, r3
 248 0016 1940     		ands	r1, r1, r3
 249 0018 1160     		str	r1, [r2]
 250 001a 5168     		ldr	r1, [r2, #4]
 251 001c 1940     		ands	r1, r1, r3
 252 001e 5160     		str	r1, [r2, #4]
 253 0020 2268     		ldr	r2, [r4]
 254 0022 12F0007F 		tst	r2, #33554432
 255 0026 1ED0     		beq	.L36
 256 0028 114A     		ldr	r2, .L39
 257 002a 9168     		ldr	r1, [r2, #8]
 258 002c 1940     		ands	r1, r1, r3
 259 002e 9160     		str	r1, [r2, #8]
 260 0030 D168     		ldr	r1, [r2, #12]
 261 0032 0B40     		ands	r3, r3, r1
 262 0034 D360     		str	r3, [r2, #12]
 263 0036 2368     		ldr	r3, [r4]
 264 0038 03F0C063 		and	r3, r3, #100663296
 265 003c B3F1C06F 		cmp	r3, #100663296
 266 0040 13D1     		bne	.L37
 267 0042 8008     		lsrs	r0, r0, #2
 268 0044 0B49     		ldr	r1, .L39+4
 269 0046 0230     		adds	r0, r0, #2
 270 0048 51F82020 		ldr	r2, [r1, r0, lsl #2]
 271 004c 05F00305 		and	r5, r5, #3
 272 0050 AD00     		lsls	r5, r5, #2
 273 0052 0F23     		movs	r3, #15
 274 0054 AB40     		lsls	r3, r3, r5
 275 0056 22EA0303 		bic	r3, r2, r3
 276 005a 41F82030 		str	r3, [r1, r0, lsl #2]
 277 005e 0020     		movs	r0, #0
 278 0060 04E0     		b	.L34
 279              	.L35:
 280 0062 0120     		movs	r0, #1
 281 0064 7047     		bx	lr
 282              	.L36:
 283 0066 0020     		movs	r0, #0
 284 0068 00E0     		b	.L34
 285              	.L37:
 286 006a 0020     		movs	r0, #0
 287              	.L34:
 288 006c 30BC     		pop	{r4, r5}
 289 006e 7047     		bx	lr
 290              	.L40:
ARM GAS  /tmp/ccQLZ2B6.s 			page 6


 291              		.align	2
 292              	.L39:
 293 0070 00040140 		.word	1073808384
 294 0074 00000140 		.word	1073807360
 296              		.section	.text.HAL_EXTI_RegisterCallback,"ax",%progbits
 297              		.align	2
 298              		.global	HAL_EXTI_RegisterCallback
 299              		.thumb
 300              		.thumb_func
 302              	HAL_EXTI_RegisterCallback:
 303              		@ args = 0, pretend = 0, frame = 0
 304              		@ frame_needed = 0, uses_anonymous_args = 0
 305              		@ link register save eliminated.
 306 0000 11B9     		cbnz	r1, .L45
 307 0002 4260     		str	r2, [r0, #4]
 308 0004 0020     		movs	r0, #0
 309 0006 7047     		bx	lr
 310              	.L45:
 311 0008 0120     		movs	r0, #1
 312 000a 7047     		bx	lr
 314              		.section	.text.HAL_EXTI_GetHandle,"ax",%progbits
 315              		.align	2
 316              		.global	HAL_EXTI_GetHandle
 317              		.thumb
 318              		.thumb_func
 320              	HAL_EXTI_GetHandle:
 321              		@ args = 0, pretend = 0, frame = 0
 322              		@ frame_needed = 0, uses_anonymous_args = 0
 323              		@ link register save eliminated.
 324 0000 10B1     		cbz	r0, .L48
 325 0002 0160     		str	r1, [r0]
 326 0004 0020     		movs	r0, #0
 327 0006 7047     		bx	lr
 328              	.L48:
 329 0008 0120     		movs	r0, #1
 330 000a 7047     		bx	lr
 332              		.section	.text.HAL_EXTI_IRQHandler,"ax",%progbits
 333              		.align	2
 334              		.global	HAL_EXTI_IRQHandler
 335              		.thumb
 336              		.thumb_func
 338              	HAL_EXTI_IRQHandler:
 339              		@ args = 0, pretend = 0, frame = 0
 340              		@ frame_needed = 0, uses_anonymous_args = 0
 341 0000 08B5     		push	{r3, lr}
 342 0002 0368     		ldr	r3, [r0]
 343 0004 03F01F02 		and	r2, r3, #31
 344 0008 0123     		movs	r3, #1
 345 000a 9340     		lsls	r3, r3, r2
 346 000c 044A     		ldr	r2, .L52
 347 000e 5269     		ldr	r2, [r2, #20]
 348 0010 1A42     		tst	r2, r3
 349 0012 04D0     		beq	.L49
 350 0014 024A     		ldr	r2, .L52
 351 0016 5361     		str	r3, [r2, #20]
 352 0018 4368     		ldr	r3, [r0, #4]
 353 001a 03B1     		cbz	r3, .L49
ARM GAS  /tmp/ccQLZ2B6.s 			page 7


 354 001c 9847     		blx	r3
 355              	.L49:
 356 001e 08BD     		pop	{r3, pc}
 357              	.L53:
 358              		.align	2
 359              	.L52:
 360 0020 00040140 		.word	1073808384
 362              		.section	.text.HAL_EXTI_GetPending,"ax",%progbits
 363              		.align	2
 364              		.global	HAL_EXTI_GetPending
 365              		.thumb
 366              		.thumb_func
 368              	HAL_EXTI_GetPending:
 369              		@ args = 0, pretend = 0, frame = 0
 370              		@ frame_needed = 0, uses_anonymous_args = 0
 371              		@ link register save eliminated.
 372 0000 0368     		ldr	r3, [r0]
 373 0002 03F01F03 		and	r3, r3, #31
 374 0006 0120     		movs	r0, #1
 375 0008 9840     		lsls	r0, r0, r3
 376 000a 024A     		ldr	r2, .L55
 377 000c 5269     		ldr	r2, [r2, #20]
 378 000e 1040     		ands	r0, r0, r2
 379 0010 D840     		lsrs	r0, r0, r3
 380 0012 7047     		bx	lr
 381              	.L56:
 382              		.align	2
 383              	.L55:
 384 0014 00040140 		.word	1073808384
 386              		.section	.text.HAL_EXTI_ClearPending,"ax",%progbits
 387              		.align	2
 388              		.global	HAL_EXTI_ClearPending
 389              		.thumb
 390              		.thumb_func
 392              	HAL_EXTI_ClearPending:
 393              		@ args = 0, pretend = 0, frame = 0
 394              		@ frame_needed = 0, uses_anonymous_args = 0
 395              		@ link register save eliminated.
 396 0000 0268     		ldr	r2, [r0]
 397 0002 02F01F02 		and	r2, r2, #31
 398 0006 0123     		movs	r3, #1
 399 0008 9340     		lsls	r3, r3, r2
 400 000a 014A     		ldr	r2, .L58
 401 000c 5361     		str	r3, [r2, #20]
 402 000e 7047     		bx	lr
 403              	.L59:
 404              		.align	2
 405              	.L58:
 406 0010 00040140 		.word	1073808384
 408              		.section	.text.HAL_EXTI_GenerateSWI,"ax",%progbits
 409              		.align	2
 410              		.global	HAL_EXTI_GenerateSWI
 411              		.thumb
 412              		.thumb_func
 414              	HAL_EXTI_GenerateSWI:
 415              		@ args = 0, pretend = 0, frame = 0
 416              		@ frame_needed = 0, uses_anonymous_args = 0
ARM GAS  /tmp/ccQLZ2B6.s 			page 8


 417              		@ link register save eliminated.
 418 0000 0268     		ldr	r2, [r0]
 419 0002 02F01F02 		and	r2, r2, #31
 420 0006 0123     		movs	r3, #1
 421 0008 9340     		lsls	r3, r3, r2
 422 000a 014A     		ldr	r2, .L61
 423 000c 1361     		str	r3, [r2, #16]
 424 000e 7047     		bx	lr
 425              	.L62:
 426              		.align	2
 427              	.L61:
 428 0010 00040140 		.word	1073808384
 430              		.ident	"GCC: (15:4.9.3+svn231177-1) 4.9.3 20150529 (prerelease)"
ARM GAS  /tmp/ccQLZ2B6.s 			page 9


DEFINED SYMBOLS
                            *ABS*:0000000000000000 stm32f1xx_hal_exti.c
     /tmp/ccQLZ2B6.s:16     .text.HAL_EXTI_SetConfigLine:0000000000000000 $t
     /tmp/ccQLZ2B6.s:21     .text.HAL_EXTI_SetConfigLine:0000000000000000 HAL_EXTI_SetConfigLine
     /tmp/ccQLZ2B6.s:126    .text.HAL_EXTI_SetConfigLine:00000000000000d0 $d
     /tmp/ccQLZ2B6.s:130    .text.HAL_EXTI_GetConfigLine:0000000000000000 $t
     /tmp/ccQLZ2B6.s:135    .text.HAL_EXTI_GetConfigLine:0000000000000000 HAL_EXTI_GetConfigLine
     /tmp/ccQLZ2B6.s:225    .text.HAL_EXTI_GetConfigLine:00000000000000a4 $d
     /tmp/ccQLZ2B6.s:229    .text.HAL_EXTI_ClearConfigLine:0000000000000000 $t
     /tmp/ccQLZ2B6.s:234    .text.HAL_EXTI_ClearConfigLine:0000000000000000 HAL_EXTI_ClearConfigLine
     /tmp/ccQLZ2B6.s:293    .text.HAL_EXTI_ClearConfigLine:0000000000000070 $d
     /tmp/ccQLZ2B6.s:297    .text.HAL_EXTI_RegisterCallback:0000000000000000 $t
     /tmp/ccQLZ2B6.s:302    .text.HAL_EXTI_RegisterCallback:0000000000000000 HAL_EXTI_RegisterCallback
     /tmp/ccQLZ2B6.s:315    .text.HAL_EXTI_GetHandle:0000000000000000 $t
     /tmp/ccQLZ2B6.s:320    .text.HAL_EXTI_GetHandle:0000000000000000 HAL_EXTI_GetHandle
     /tmp/ccQLZ2B6.s:333    .text.HAL_EXTI_IRQHandler:0000000000000000 $t
     /tmp/ccQLZ2B6.s:338    .text.HAL_EXTI_IRQHandler:0000000000000000 HAL_EXTI_IRQHandler
     /tmp/ccQLZ2B6.s:360    .text.HAL_EXTI_IRQHandler:0000000000000020 $d
     /tmp/ccQLZ2B6.s:363    .text.HAL_EXTI_GetPending:0000000000000000 $t
     /tmp/ccQLZ2B6.s:368    .text.HAL_EXTI_GetPending:0000000000000000 HAL_EXTI_GetPending
     /tmp/ccQLZ2B6.s:384    .text.HAL_EXTI_GetPending:0000000000000014 $d
     /tmp/ccQLZ2B6.s:387    .text.HAL_EXTI_ClearPending:0000000000000000 $t
     /tmp/ccQLZ2B6.s:392    .text.HAL_EXTI_ClearPending:0000000000000000 HAL_EXTI_ClearPending
     /tmp/ccQLZ2B6.s:406    .text.HAL_EXTI_ClearPending:0000000000000010 $d
     /tmp/ccQLZ2B6.s:409    .text.HAL_EXTI_GenerateSWI:0000000000000000 $t
     /tmp/ccQLZ2B6.s:414    .text.HAL_EXTI_GenerateSWI:0000000000000000 HAL_EXTI_GenerateSWI
     /tmp/ccQLZ2B6.s:428    .text.HAL_EXTI_GenerateSWI:0000000000000010 $d

NO UNDEFINED SYMBOLS
