ARM GAS  /tmp/ccCh8NU1.s 			page 1


   1              		.cpu cortex-m3
   2              		.eabi_attribute 20, 1
   3              		.eabi_attribute 21, 1
   4              		.eabi_attribute 23, 3
   5              		.eabi_attribute 24, 1
   6              		.eabi_attribute 25, 1
   7              		.eabi_attribute 26, 1
   8              		.eabi_attribute 30, 1
   9              		.eabi_attribute 34, 1
  10              		.eabi_attribute 18, 4
  11              		.file	"stm32f1xx_hal_pcd.c"
  12              		.section	.text.HAL_PCD_MspInit,"ax",%progbits
  13              		.align	1
  14              		.weak	HAL_PCD_MspInit
  15              		.syntax unified
  16              		.thumb
  17              		.thumb_func
  18              		.fpu softvfp
  20              	HAL_PCD_MspInit:
  21              		@ args = 0, pretend = 0, frame = 0
  22              		@ frame_needed = 0, uses_anonymous_args = 0
  23              		@ link register save eliminated.
  24 0000 7047     		bx	lr
  26              		.section	.text.HAL_PCD_Init,"ax",%progbits
  27              		.align	1
  28              		.global	HAL_PCD_Init
  29              		.syntax unified
  30              		.thumb
  31              		.thumb_func
  32              		.fpu softvfp
  34              	HAL_PCD_Init:
  35              		@ args = 0, pretend = 0, frame = 0
  36              		@ frame_needed = 0, uses_anonymous_args = 0
  37 0000 F0B5     		push	{r4, r5, r6, r7, lr}
  38 0002 87B0     		sub	sp, sp, #28
  39 0004 0028     		cmp	r0, #0
  40 0006 73D0     		beq	.L11
  41 0008 0446     		mov	r4, r0
  42 000a 90F82932 		ldrb	r3, [r0, #553]	@ zero_extendqisi2
  43 000e D3B1     		cbz	r3, .L13
  44              	.L4:
  45 0010 0323     		movs	r3, #3
  46 0012 84F82932 		strb	r3, [r4, #553]
  47 0016 2068     		ldr	r0, [r4]
  48 0018 FFF7FEFF 		bl	USB_DisableGlobalInt
  49 001c 2546     		mov	r5, r4
  50 001e 55F8107B 		ldr	r7, [r5], #16
  51 0022 6E46     		mov	r6, sp
  52 0024 0FCD     		ldmia	r5!, {r0, r1, r2, r3}
  53 0026 0FC6     		stmia	r6!, {r0, r1, r2, r3}
  54 0028 2B68     		ldr	r3, [r5]
  55 002a 3360     		str	r3, [r6]
  56 002c 231D     		adds	r3, r4, #4
  57 002e 0ECB     		ldm	r3, {r1, r2, r3}
  58 0030 3846     		mov	r0, r7
  59 0032 FFF7FEFF 		bl	USB_CoreInit
  60 0036 58B1     		cbz	r0, .L5
ARM GAS  /tmp/ccCh8NU1.s 			page 2


  61 0038 0223     		movs	r3, #2
  62 003a 84F82932 		strb	r3, [r4, #553]
  63 003e 0125     		movs	r5, #1
  64              	.L3:
  65 0040 2846     		mov	r0, r5
  66 0042 07B0     		add	sp, sp, #28
  67              		@ sp needed
  68 0044 F0BD     		pop	{r4, r5, r6, r7, pc}
  69              	.L13:
  70 0046 80F82832 		strb	r3, [r0, #552]
  71 004a FFF7FEFF 		bl	HAL_PCD_MspInit
  72 004e DFE7     		b	.L4
  73              	.L5:
  74 0050 0021     		movs	r1, #0
  75 0052 2068     		ldr	r0, [r4]
  76 0054 FFF7FEFF 		bl	USB_SetCurrentMode
  77 0058 0023     		movs	r3, #0
  78 005a 11E0     		b	.L6
  79              	.L7:
  80 005c 04EB4312 		add	r2, r4, r3, lsl #5
  81 0060 0121     		movs	r1, #1
  82 0062 82F82910 		strb	r1, [r2, #41]
  83 0066 82F82830 		strb	r3, [r2, #40]
  84 006a D386     		strh	r3, [r2, #54]	@ movhi
  85 006c 0021     		movs	r1, #0
  86 006e 82F82B10 		strb	r1, [r2, #43]
  87 0072 9163     		str	r1, [r2, #56]
  88 0074 D163     		str	r1, [r2, #60]
  89 0076 9A1C     		adds	r2, r3, #2
  90 0078 5201     		lsls	r2, r2, #5
  91 007a A150     		str	r1, [r4, r2]
  92 007c 0133     		adds	r3, r3, #1
  93 007e DBB2     		uxtb	r3, r3
  94              	.L6:
  95 0080 6068     		ldr	r0, [r4, #4]
  96 0082 8342     		cmp	r3, r0
  97 0084 EAD3     		bcc	.L7
  98 0086 0023     		movs	r3, #0
  99 0088 12E0     		b	.L8
 100              	.L9:
 101 008a 04EB4311 		add	r1, r4, r3, lsl #5
 102 008e 0022     		movs	r2, #0
 103 0090 81F82921 		strb	r2, [r1, #297]
 104 0094 81F82831 		strb	r3, [r1, #296]
 105 0098 81F82B21 		strb	r2, [r1, #299]
 106 009c C1F83821 		str	r2, [r1, #312]
 107 00a0 C1F83C21 		str	r2, [r1, #316]
 108 00a4 03F10A01 		add	r1, r3, #10
 109 00a8 4901     		lsls	r1, r1, #5
 110 00aa 6250     		str	r2, [r4, r1]
 111 00ac 0133     		adds	r3, r3, #1
 112 00ae DBB2     		uxtb	r3, r3
 113              	.L8:
 114 00b0 9842     		cmp	r0, r3
 115 00b2 EAD8     		bhi	.L9
 116 00b4 2546     		mov	r5, r4
 117 00b6 55F8107B 		ldr	r7, [r5], #16
ARM GAS  /tmp/ccCh8NU1.s 			page 3


 118 00ba 6E46     		mov	r6, sp
 119 00bc 0FCD     		ldmia	r5!, {r0, r1, r2, r3}
 120 00be 0FC6     		stmia	r6!, {r0, r1, r2, r3}
 121 00c0 2B68     		ldr	r3, [r5]
 122 00c2 3360     		str	r3, [r6]
 123 00c4 231D     		adds	r3, r4, #4
 124 00c6 0ECB     		ldm	r3, {r1, r2, r3}
 125 00c8 3846     		mov	r0, r7
 126 00ca FFF7FEFF 		bl	USB_DevInit
 127 00ce 0546     		mov	r5, r0
 128 00d0 20B1     		cbz	r0, .L10
 129 00d2 0223     		movs	r3, #2
 130 00d4 84F82932 		strb	r3, [r4, #553]
 131 00d8 0125     		movs	r5, #1
 132 00da B1E7     		b	.L3
 133              	.L10:
 134 00dc 0023     		movs	r3, #0
 135 00de 84F82430 		strb	r3, [r4, #36]
 136 00e2 0123     		movs	r3, #1
 137 00e4 84F82932 		strb	r3, [r4, #553]
 138 00e8 2068     		ldr	r0, [r4]
 139 00ea FFF7FEFF 		bl	USB_DevDisconnect
 140 00ee A7E7     		b	.L3
 141              	.L11:
 142 00f0 0125     		movs	r5, #1
 143 00f2 A5E7     		b	.L3
 145              		.section	.text.HAL_PCD_MspDeInit,"ax",%progbits
 146              		.align	1
 147              		.weak	HAL_PCD_MspDeInit
 148              		.syntax unified
 149              		.thumb
 150              		.thumb_func
 151              		.fpu softvfp
 153              	HAL_PCD_MspDeInit:
 154              		@ args = 0, pretend = 0, frame = 0
 155              		@ frame_needed = 0, uses_anonymous_args = 0
 156              		@ link register save eliminated.
 157 0000 7047     		bx	lr
 159              		.section	.text.HAL_PCD_Start,"ax",%progbits
 160              		.align	1
 161              		.global	HAL_PCD_Start
 162              		.syntax unified
 163              		.thumb
 164              		.thumb_func
 165              		.fpu softvfp
 167              	HAL_PCD_Start:
 168              		@ args = 0, pretend = 0, frame = 0
 169              		@ frame_needed = 0, uses_anonymous_args = 0
 170 0000 90F82832 		ldrb	r3, [r0, #552]	@ zero_extendqisi2
 171 0004 012B     		cmp	r3, #1
 172 0006 01D1     		bne	.L22
 173 0008 0220     		movs	r0, #2
 174 000a 7047     		bx	lr
 175              	.L22:
 176 000c 10B5     		push	{r4, lr}
 177 000e 0446     		mov	r4, r0
 178 0010 0121     		movs	r1, #1
ARM GAS  /tmp/ccCh8NU1.s 			page 4


 179 0012 80F82812 		strb	r1, [r0, #552]
 180 0016 FFF7FEFF 		bl	HAL_PCDEx_SetConnectionState
 181 001a 2068     		ldr	r0, [r4]
 182 001c FFF7FEFF 		bl	USB_DevConnect
 183 0020 2068     		ldr	r0, [r4]
 184 0022 FFF7FEFF 		bl	USB_EnableGlobalInt
 185 0026 0020     		movs	r0, #0
 186 0028 84F82802 		strb	r0, [r4, #552]
 187 002c 10BD     		pop	{r4, pc}
 189              		.section	.text.HAL_PCD_Stop,"ax",%progbits
 190              		.align	1
 191              		.global	HAL_PCD_Stop
 192              		.syntax unified
 193              		.thumb
 194              		.thumb_func
 195              		.fpu softvfp
 197              	HAL_PCD_Stop:
 198              		@ args = 0, pretend = 0, frame = 0
 199              		@ frame_needed = 0, uses_anonymous_args = 0
 200 0000 38B5     		push	{r3, r4, r5, lr}
 201 0002 90F82832 		ldrb	r3, [r0, #552]	@ zero_extendqisi2
 202 0006 012B     		cmp	r3, #1
 203 0008 02D1     		bne	.L28
 204 000a 0225     		movs	r5, #2
 205              	.L24:
 206 000c 2846     		mov	r0, r5
 207 000e 38BD     		pop	{r3, r4, r5, pc}
 208              	.L28:
 209 0010 0446     		mov	r4, r0
 210 0012 0123     		movs	r3, #1
 211 0014 80F82832 		strb	r3, [r0, #552]
 212 0018 0068     		ldr	r0, [r0]
 213 001a FFF7FEFF 		bl	USB_DisableGlobalInt
 214 001e 2068     		ldr	r0, [r4]
 215 0020 FFF7FEFF 		bl	USB_StopDevice
 216 0024 0546     		mov	r5, r0
 217 0026 20B1     		cbz	r0, .L25
 218 0028 0023     		movs	r3, #0
 219 002a 84F82832 		strb	r3, [r4, #552]
 220 002e 0125     		movs	r5, #1
 221 0030 ECE7     		b	.L24
 222              	.L25:
 223 0032 2068     		ldr	r0, [r4]
 224 0034 FFF7FEFF 		bl	USB_DevDisconnect
 225 0038 0023     		movs	r3, #0
 226 003a 84F82832 		strb	r3, [r4, #552]
 227 003e E5E7     		b	.L24
 229              		.section	.text.HAL_PCD_DeInit,"ax",%progbits
 230              		.align	1
 231              		.global	HAL_PCD_DeInit
 232              		.syntax unified
 233              		.thumb
 234              		.thumb_func
 235              		.fpu softvfp
 237              	HAL_PCD_DeInit:
 238              		@ args = 0, pretend = 0, frame = 0
 239              		@ frame_needed = 0, uses_anonymous_args = 0
ARM GAS  /tmp/ccCh8NU1.s 			page 5


 240 0000 68B1     		cbz	r0, .L31
 241 0002 10B5     		push	{r4, lr}
 242 0004 0446     		mov	r4, r0
 243 0006 0323     		movs	r3, #3
 244 0008 80F82932 		strb	r3, [r0, #553]
 245 000c FFF7FEFF 		bl	HAL_PCD_Stop
 246 0010 2046     		mov	r0, r4
 247 0012 FFF7FEFF 		bl	HAL_PCD_MspDeInit
 248 0016 0020     		movs	r0, #0
 249 0018 84F82902 		strb	r0, [r4, #553]
 250 001c 10BD     		pop	{r4, pc}
 251              	.L31:
 252 001e 0120     		movs	r0, #1
 253 0020 7047     		bx	lr
 255              		.section	.text.HAL_PCD_DataOutStageCallback,"ax",%progbits
 256              		.align	1
 257              		.weak	HAL_PCD_DataOutStageCallback
 258              		.syntax unified
 259              		.thumb
 260              		.thumb_func
 261              		.fpu softvfp
 263              	HAL_PCD_DataOutStageCallback:
 264              		@ args = 0, pretend = 0, frame = 0
 265              		@ frame_needed = 0, uses_anonymous_args = 0
 266              		@ link register save eliminated.
 267 0000 7047     		bx	lr
 269              		.section	.text.HAL_PCD_DataInStageCallback,"ax",%progbits
 270              		.align	1
 271              		.weak	HAL_PCD_DataInStageCallback
 272              		.syntax unified
 273              		.thumb
 274              		.thumb_func
 275              		.fpu softvfp
 277              	HAL_PCD_DataInStageCallback:
 278              		@ args = 0, pretend = 0, frame = 0
 279              		@ frame_needed = 0, uses_anonymous_args = 0
 280              		@ link register save eliminated.
 281 0000 7047     		bx	lr
 283              		.section	.text.HAL_PCD_SetupStageCallback,"ax",%progbits
 284              		.align	1
 285              		.weak	HAL_PCD_SetupStageCallback
 286              		.syntax unified
 287              		.thumb
 288              		.thumb_func
 289              		.fpu softvfp
 291              	HAL_PCD_SetupStageCallback:
 292              		@ args = 0, pretend = 0, frame = 0
 293              		@ frame_needed = 0, uses_anonymous_args = 0
 294              		@ link register save eliminated.
 295 0000 7047     		bx	lr
 297              		.section	.text.HAL_PCD_SOFCallback,"ax",%progbits
 298              		.align	1
 299              		.weak	HAL_PCD_SOFCallback
 300              		.syntax unified
 301              		.thumb
 302              		.thumb_func
 303              		.fpu softvfp
ARM GAS  /tmp/ccCh8NU1.s 			page 6


 305              	HAL_PCD_SOFCallback:
 306              		@ args = 0, pretend = 0, frame = 0
 307              		@ frame_needed = 0, uses_anonymous_args = 0
 308              		@ link register save eliminated.
 309 0000 7047     		bx	lr
 311              		.section	.text.HAL_PCD_ResetCallback,"ax",%progbits
 312              		.align	1
 313              		.weak	HAL_PCD_ResetCallback
 314              		.syntax unified
 315              		.thumb
 316              		.thumb_func
 317              		.fpu softvfp
 319              	HAL_PCD_ResetCallback:
 320              		@ args = 0, pretend = 0, frame = 0
 321              		@ frame_needed = 0, uses_anonymous_args = 0
 322              		@ link register save eliminated.
 323 0000 7047     		bx	lr
 325              		.section	.text.HAL_PCD_SuspendCallback,"ax",%progbits
 326              		.align	1
 327              		.weak	HAL_PCD_SuspendCallback
 328              		.syntax unified
 329              		.thumb
 330              		.thumb_func
 331              		.fpu softvfp
 333              	HAL_PCD_SuspendCallback:
 334              		@ args = 0, pretend = 0, frame = 0
 335              		@ frame_needed = 0, uses_anonymous_args = 0
 336              		@ link register save eliminated.
 337 0000 7047     		bx	lr
 339              		.section	.text.HAL_PCD_ResumeCallback,"ax",%progbits
 340              		.align	1
 341              		.weak	HAL_PCD_ResumeCallback
 342              		.syntax unified
 343              		.thumb
 344              		.thumb_func
 345              		.fpu softvfp
 347              	HAL_PCD_ResumeCallback:
 348              		@ args = 0, pretend = 0, frame = 0
 349              		@ frame_needed = 0, uses_anonymous_args = 0
 350              		@ link register save eliminated.
 351 0000 7047     		bx	lr
 353              		.section	.text.HAL_PCD_ISOOUTIncompleteCallback,"ax",%progbits
 354              		.align	1
 355              		.weak	HAL_PCD_ISOOUTIncompleteCallback
 356              		.syntax unified
 357              		.thumb
 358              		.thumb_func
 359              		.fpu softvfp
 361              	HAL_PCD_ISOOUTIncompleteCallback:
 362              		@ args = 0, pretend = 0, frame = 0
 363              		@ frame_needed = 0, uses_anonymous_args = 0
 364              		@ link register save eliminated.
 365 0000 7047     		bx	lr
 367              		.section	.text.HAL_PCD_ISOINIncompleteCallback,"ax",%progbits
 368              		.align	1
 369              		.weak	HAL_PCD_ISOINIncompleteCallback
 370              		.syntax unified
ARM GAS  /tmp/ccCh8NU1.s 			page 7


 371              		.thumb
 372              		.thumb_func
 373              		.fpu softvfp
 375              	HAL_PCD_ISOINIncompleteCallback:
 376              		@ args = 0, pretend = 0, frame = 0
 377              		@ frame_needed = 0, uses_anonymous_args = 0
 378              		@ link register save eliminated.
 379 0000 7047     		bx	lr
 381              		.section	.text.HAL_PCD_ConnectCallback,"ax",%progbits
 382              		.align	1
 383              		.weak	HAL_PCD_ConnectCallback
 384              		.syntax unified
 385              		.thumb
 386              		.thumb_func
 387              		.fpu softvfp
 389              	HAL_PCD_ConnectCallback:
 390              		@ args = 0, pretend = 0, frame = 0
 391              		@ frame_needed = 0, uses_anonymous_args = 0
 392              		@ link register save eliminated.
 393 0000 7047     		bx	lr
 395              		.section	.text.HAL_PCD_DisconnectCallback,"ax",%progbits
 396              		.align	1
 397              		.weak	HAL_PCD_DisconnectCallback
 398              		.syntax unified
 399              		.thumb
 400              		.thumb_func
 401              		.fpu softvfp
 403              	HAL_PCD_DisconnectCallback:
 404              		@ args = 0, pretend = 0, frame = 0
 405              		@ frame_needed = 0, uses_anonymous_args = 0
 406              		@ link register save eliminated.
 407 0000 7047     		bx	lr
 409              		.section	.text.HAL_PCD_DevConnect,"ax",%progbits
 410              		.align	1
 411              		.global	HAL_PCD_DevConnect
 412              		.syntax unified
 413              		.thumb
 414              		.thumb_func
 415              		.fpu softvfp
 417              	HAL_PCD_DevConnect:
 418              		@ args = 0, pretend = 0, frame = 0
 419              		@ frame_needed = 0, uses_anonymous_args = 0
 420 0000 90F82832 		ldrb	r3, [r0, #552]	@ zero_extendqisi2
 421 0004 012B     		cmp	r3, #1
 422 0006 01D1     		bne	.L54
 423 0008 0220     		movs	r0, #2
 424 000a 7047     		bx	lr
 425              	.L54:
 426 000c 10B5     		push	{r4, lr}
 427 000e 0446     		mov	r4, r0
 428 0010 0121     		movs	r1, #1
 429 0012 80F82812 		strb	r1, [r0, #552]
 430 0016 FFF7FEFF 		bl	HAL_PCDEx_SetConnectionState
 431 001a 2068     		ldr	r0, [r4]
 432 001c FFF7FEFF 		bl	USB_DevConnect
 433 0020 0020     		movs	r0, #0
 434 0022 84F82802 		strb	r0, [r4, #552]
ARM GAS  /tmp/ccCh8NU1.s 			page 8


 435 0026 10BD     		pop	{r4, pc}
 437              		.section	.text.HAL_PCD_DevDisconnect,"ax",%progbits
 438              		.align	1
 439              		.global	HAL_PCD_DevDisconnect
 440              		.syntax unified
 441              		.thumb
 442              		.thumb_func
 443              		.fpu softvfp
 445              	HAL_PCD_DevDisconnect:
 446              		@ args = 0, pretend = 0, frame = 0
 447              		@ frame_needed = 0, uses_anonymous_args = 0
 448 0000 90F82832 		ldrb	r3, [r0, #552]	@ zero_extendqisi2
 449 0004 012B     		cmp	r3, #1
 450 0006 01D1     		bne	.L62
 451 0008 0220     		movs	r0, #2
 452 000a 7047     		bx	lr
 453              	.L62:
 454 000c 10B5     		push	{r4, lr}
 455 000e 0446     		mov	r4, r0
 456 0010 0123     		movs	r3, #1
 457 0012 80F82832 		strb	r3, [r0, #552]
 458 0016 0021     		movs	r1, #0
 459 0018 FFF7FEFF 		bl	HAL_PCDEx_SetConnectionState
 460 001c 2068     		ldr	r0, [r4]
 461 001e FFF7FEFF 		bl	USB_DevDisconnect
 462 0022 0020     		movs	r0, #0
 463 0024 84F82802 		strb	r0, [r4, #552]
 464 0028 10BD     		pop	{r4, pc}
 466              		.section	.text.HAL_PCD_SetAddress,"ax",%progbits
 467              		.align	1
 468              		.global	HAL_PCD_SetAddress
 469              		.syntax unified
 470              		.thumb
 471              		.thumb_func
 472              		.fpu softvfp
 474              	HAL_PCD_SetAddress:
 475              		@ args = 0, pretend = 0, frame = 0
 476              		@ frame_needed = 0, uses_anonymous_args = 0
 477 0000 90F82832 		ldrb	r3, [r0, #552]	@ zero_extendqisi2
 478 0004 012B     		cmp	r3, #1
 479 0006 01D1     		bne	.L70
 480 0008 0220     		movs	r0, #2
 481 000a 7047     		bx	lr
 482              	.L70:
 483 000c 10B5     		push	{r4, lr}
 484 000e 0446     		mov	r4, r0
 485 0010 0123     		movs	r3, #1
 486 0012 80F82832 		strb	r3, [r0, #552]
 487 0016 80F82410 		strb	r1, [r0, #36]
 488 001a 0068     		ldr	r0, [r0]
 489 001c FFF7FEFF 		bl	USB_SetDevAddress
 490 0020 0020     		movs	r0, #0
 491 0022 84F82802 		strb	r0, [r4, #552]
 492 0026 10BD     		pop	{r4, pc}
 494              		.section	.text.HAL_PCD_EP_Open,"ax",%progbits
 495              		.align	1
 496              		.global	HAL_PCD_EP_Open
ARM GAS  /tmp/ccCh8NU1.s 			page 9


 497              		.syntax unified
 498              		.thumb
 499              		.thumb_func
 500              		.fpu softvfp
 502              	HAL_PCD_EP_Open:
 503              		@ args = 0, pretend = 0, frame = 0
 504              		@ frame_needed = 0, uses_anonymous_args = 0
 505 0000 70B5     		push	{r4, r5, r6, lr}
 506 0002 11F0800F 		tst	r1, #128
 507 0006 19D1     		bne	.L79
 508 0008 01F00705 		and	r5, r1, #7
 509 000c 6D01     		lsls	r5, r5, #5
 510 000e 05F59474 		add	r4, r5, #296
 511 0012 0444     		add	r4, r4, r0
 512 0014 0544     		add	r5, r5, r0
 513 0016 0026     		movs	r6, #0
 514 0018 85F82961 		strb	r6, [r5, #297]
 515              	.L73:
 516 001c 01F00701 		and	r1, r1, #7
 517 0020 2170     		strb	r1, [r4]
 518 0022 2261     		str	r2, [r4, #16]
 519 0024 E370     		strb	r3, [r4, #3]
 520 0026 6278     		ldrb	r2, [r4, #1]	@ zero_extendqisi2
 521 0028 02B1     		cbz	r2, .L74
 522 002a E181     		strh	r1, [r4, #14]	@ movhi
 523              	.L74:
 524 002c 022B     		cmp	r3, #2
 525 002e 10D0     		beq	.L80
 526              	.L75:
 527 0030 90F82832 		ldrb	r3, [r0, #552]	@ zero_extendqisi2
 528 0034 012B     		cmp	r3, #1
 529 0036 0FD1     		bne	.L81
 530 0038 0220     		movs	r0, #2
 531 003a 70BD     		pop	{r4, r5, r6, pc}
 532              	.L79:
 533 003c 01F00705 		and	r5, r1, #7
 534 0040 6D01     		lsls	r5, r5, #5
 535 0042 05F12804 		add	r4, r5, #40
 536 0046 0444     		add	r4, r4, r0
 537 0048 0544     		add	r5, r5, r0
 538 004a 0126     		movs	r6, #1
 539 004c 85F82960 		strb	r6, [r5, #41]
 540 0050 E4E7     		b	.L73
 541              	.L80:
 542 0052 0023     		movs	r3, #0
 543 0054 2371     		strb	r3, [r4, #4]
 544 0056 EBE7     		b	.L75
 545              	.L81:
 546 0058 0546     		mov	r5, r0
 547 005a 0123     		movs	r3, #1
 548 005c 80F82832 		strb	r3, [r0, #552]
 549 0060 2146     		mov	r1, r4
 550 0062 0068     		ldr	r0, [r0]
 551 0064 FFF7FEFF 		bl	USB_ActivateEndpoint
 552 0068 0020     		movs	r0, #0
 553 006a 85F82802 		strb	r0, [r5, #552]
 554 006e 70BD     		pop	{r4, r5, r6, pc}
ARM GAS  /tmp/ccCh8NU1.s 			page 10


 556              		.section	.text.HAL_PCD_EP_Close,"ax",%progbits
 557              		.align	1
 558              		.global	HAL_PCD_EP_Close
 559              		.syntax unified
 560              		.thumb
 561              		.thumb_func
 562              		.fpu softvfp
 564              	HAL_PCD_EP_Close:
 565              		@ args = 0, pretend = 0, frame = 0
 566              		@ frame_needed = 0, uses_anonymous_args = 0
 567 0000 10B5     		push	{r4, lr}
 568 0002 11F0800F 		tst	r1, #128
 569 0006 12D1     		bne	.L88
 570 0008 01F00703 		and	r3, r1, #7
 571 000c 5B01     		lsls	r3, r3, #5
 572 000e 03F59472 		add	r2, r3, #296
 573 0012 0244     		add	r2, r2, r0
 574 0014 0344     		add	r3, r3, r0
 575 0016 0024     		movs	r4, #0
 576 0018 83F82941 		strb	r4, [r3, #297]
 577              	.L84:
 578 001c 01F00703 		and	r3, r1, #7
 579 0020 1370     		strb	r3, [r2]
 580 0022 90F82832 		ldrb	r3, [r0, #552]	@ zero_extendqisi2
 581 0026 012B     		cmp	r3, #1
 582 0028 0CD1     		bne	.L89
 583 002a 0220     		movs	r0, #2
 584 002c 10BD     		pop	{r4, pc}
 585              	.L88:
 586 002e 01F00703 		and	r3, r1, #7
 587 0032 5B01     		lsls	r3, r3, #5
 588 0034 03F12802 		add	r2, r3, #40
 589 0038 0244     		add	r2, r2, r0
 590 003a 0344     		add	r3, r3, r0
 591 003c 0124     		movs	r4, #1
 592 003e 83F82940 		strb	r4, [r3, #41]
 593 0042 EBE7     		b	.L84
 594              	.L89:
 595 0044 0446     		mov	r4, r0
 596 0046 0123     		movs	r3, #1
 597 0048 80F82832 		strb	r3, [r0, #552]
 598 004c 1146     		mov	r1, r2
 599 004e 0068     		ldr	r0, [r0]
 600 0050 FFF7FEFF 		bl	USB_DeactivateEndpoint
 601 0054 0020     		movs	r0, #0
 602 0056 84F82802 		strb	r0, [r4, #552]
 603 005a 10BD     		pop	{r4, pc}
 605              		.section	.text.HAL_PCD_EP_Receive,"ax",%progbits
 606              		.align	1
 607              		.global	HAL_PCD_EP_Receive
 608              		.syntax unified
 609              		.thumb
 610              		.thumb_func
 611              		.fpu softvfp
 613              	HAL_PCD_EP_Receive:
 614              		@ args = 0, pretend = 0, frame = 0
 615              		@ frame_needed = 0, uses_anonymous_args = 0
ARM GAS  /tmp/ccCh8NU1.s 			page 11


 616 0000 70B5     		push	{r4, r5, r6, lr}
 617 0002 01F00705 		and	r5, r1, #7
 618 0006 6C01     		lsls	r4, r5, #5
 619 0008 04F59471 		add	r1, r4, #296
 620 000c 0144     		add	r1, r1, r0
 621 000e 0444     		add	r4, r4, r0
 622 0010 C4F83C21 		str	r2, [r4, #316]
 623 0014 05F10A02 		add	r2, r5, #10
 624 0018 5201     		lsls	r2, r2, #5
 625 001a 8618     		adds	r6, r0, r2
 626 001c 8350     		str	r3, [r0, r2]
 627 001e 0023     		movs	r3, #0
 628 0020 7360     		str	r3, [r6, #4]
 629 0022 84F82931 		strb	r3, [r4, #297]
 630 0026 84F82851 		strb	r5, [r4, #296]
 631 002a 25B1     		cbz	r5, .L94
 632 002c 0068     		ldr	r0, [r0]
 633 002e FFF7FEFF 		bl	USB_EPStartXfer
 634              	.L92:
 635 0032 0020     		movs	r0, #0
 636 0034 70BD     		pop	{r4, r5, r6, pc}
 637              	.L94:
 638 0036 0068     		ldr	r0, [r0]
 639 0038 FFF7FEFF 		bl	USB_EPStartXfer
 640 003c F9E7     		b	.L92
 642              		.section	.text.HAL_PCD_EP_GetRxCount,"ax",%progbits
 643              		.align	1
 644              		.global	HAL_PCD_EP_GetRxCount
 645              		.syntax unified
 646              		.thumb
 647              		.thumb_func
 648              		.fpu softvfp
 650              	HAL_PCD_EP_GetRxCount:
 651              		@ args = 0, pretend = 0, frame = 0
 652              		@ frame_needed = 0, uses_anonymous_args = 0
 653              		@ link register save eliminated.
 654 0000 01F00701 		and	r1, r1, #7
 655 0004 0A31     		adds	r1, r1, #10
 656 0006 00EB4111 		add	r1, r0, r1, lsl #5
 657 000a 4868     		ldr	r0, [r1, #4]
 658 000c 7047     		bx	lr
 660              		.section	.text.HAL_PCD_EP_Transmit,"ax",%progbits
 661              		.align	1
 662              		.global	HAL_PCD_EP_Transmit
 663              		.syntax unified
 664              		.thumb
 665              		.thumb_func
 666              		.fpu softvfp
 668              	HAL_PCD_EP_Transmit:
 669              		@ args = 0, pretend = 0, frame = 0
 670              		@ frame_needed = 0, uses_anonymous_args = 0
 671 0000 70B5     		push	{r4, r5, r6, lr}
 672 0002 01F00705 		and	r5, r1, #7
 673 0006 6C01     		lsls	r4, r5, #5
 674 0008 04F12801 		add	r1, r4, #40
 675 000c 0144     		add	r1, r1, r0
 676 000e 0444     		add	r4, r4, r0
ARM GAS  /tmp/ccCh8NU1.s 			page 12


 677 0010 E263     		str	r2, [r4, #60]
 678 0012 AA1C     		adds	r2, r5, #2
 679 0014 5201     		lsls	r2, r2, #5
 680 0016 8618     		adds	r6, r0, r2
 681 0018 8350     		str	r3, [r0, r2]
 682 001a 0023     		movs	r3, #0
 683 001c 7360     		str	r3, [r6, #4]
 684 001e 0123     		movs	r3, #1
 685 0020 84F82930 		strb	r3, [r4, #41]
 686 0024 84F82850 		strb	r5, [r4, #40]
 687 0028 25B1     		cbz	r5, .L100
 688 002a 0068     		ldr	r0, [r0]
 689 002c FFF7FEFF 		bl	USB_EPStartXfer
 690              	.L98:
 691 0030 0020     		movs	r0, #0
 692 0032 70BD     		pop	{r4, r5, r6, pc}
 693              	.L100:
 694 0034 0068     		ldr	r0, [r0]
 695 0036 FFF7FEFF 		bl	USB_EPStartXfer
 696 003a F9E7     		b	.L98
 698              		.section	.text.PCD_EP_ISR_Handler,"ax",%progbits
 699              		.align	1
 700              		.syntax unified
 701              		.thumb
 702              		.thumb_func
 703              		.fpu softvfp
 705              	PCD_EP_ISR_Handler:
 706              		@ args = 0, pretend = 0, frame = 0
 707              		@ frame_needed = 0, uses_anonymous_args = 0
 708 0000 F8B5     		push	{r3, r4, r5, r6, r7, lr}
 709 0002 0446     		mov	r4, r0
 710 0004 ACE0     		b	.L102
 711              	.L125:
 712 0006 0388     		ldrh	r3, [r0]
 713 0008 9BB2     		uxth	r3, r3
 714 000a 23F4E143 		bic	r3, r3, #28800
 715 000e 23F07003 		bic	r3, r3, #112
 716 0012 6FEA4343 		mvn	r3, r3, lsl #17
 717 0016 6FEA5343 		mvn	r3, r3, lsr #17
 718 001a 9BB2     		uxth	r3, r3
 719 001c 0380     		strh	r3, [r0]	@ movhi
 720 001e 2268     		ldr	r2, [r4]
 721 0020 B2F85030 		ldrh	r3, [r2, #80]
 722 0024 9BB2     		uxth	r3, r3
 723 0026 94F82810 		ldrb	r1, [r4, #40]	@ zero_extendqisi2
 724 002a 03EBC103 		add	r3, r3, r1, lsl #3
 725 002e 0233     		adds	r3, r3, #2
 726 0030 02EB4303 		add	r3, r2, r3, lsl #1
 727 0034 B3F80034 		ldrh	r3, [r3, #1024]
 728 0038 C3F30903 		ubfx	r3, r3, #0, #10
 729 003c 6364     		str	r3, [r4, #68]
 730 003e E26B     		ldr	r2, [r4, #60]
 731 0040 1344     		add	r3, r3, r2
 732 0042 E363     		str	r3, [r4, #60]
 733 0044 0021     		movs	r1, #0
 734 0046 2046     		mov	r0, r4
 735 0048 FFF7FEFF 		bl	HAL_PCD_DataInStageCallback
ARM GAS  /tmp/ccCh8NU1.s 			page 13


 736 004c 94F82430 		ldrb	r3, [r4, #36]	@ zero_extendqisi2
 737 0050 002B     		cmp	r3, #0
 738 0052 00F08580 		beq	.L102
 739 0056 236C     		ldr	r3, [r4, #64]
 740 0058 002B     		cmp	r3, #0
 741 005a 40F08180 		bne	.L102
 742 005e 2268     		ldr	r2, [r4]
 743 0060 94F82430 		ldrb	r3, [r4, #36]	@ zero_extendqisi2
 744 0064 43F08003 		orr	r3, r3, #128
 745 0068 A2F84C30 		strh	r3, [r2, #76]	@ movhi
 746 006c 0023     		movs	r3, #0
 747 006e 84F82430 		strb	r3, [r4, #36]
 748 0072 75E0     		b	.L102
 749              	.L126:
 750 0074 B0F85030 		ldrh	r3, [r0, #80]
 751 0078 9BB2     		uxth	r3, r3
 752 007a 94F82821 		ldrb	r2, [r4, #296]	@ zero_extendqisi2
 753 007e 03EBC203 		add	r3, r3, r2, lsl #3
 754 0082 0633     		adds	r3, r3, #6
 755 0084 00EB4303 		add	r3, r0, r3, lsl #1
 756 0088 B3F80034 		ldrh	r3, [r3, #1024]
 757 008c C3F30903 		ubfx	r3, r3, #0, #10
 758 0090 C4F84431 		str	r3, [r4, #324]
 759 0094 B4F82E21 		ldrh	r2, [r4, #302]
 760 0098 04F50C71 		add	r1, r4, #560
 761 009c FFF7FEFF 		bl	USB_ReadPMA
 762 00a0 2268     		ldr	r2, [r4]
 763 00a2 1388     		ldrh	r3, [r2]
 764 00a4 23F07003 		bic	r3, r3, #112
 765 00a8 1B05     		lsls	r3, r3, #20
 766 00aa 1B0D     		lsrs	r3, r3, #20
 767 00ac 43F08003 		orr	r3, r3, #128
 768 00b0 1380     		strh	r3, [r2]	@ movhi
 769 00b2 2046     		mov	r0, r4
 770 00b4 FFF7FEFF 		bl	HAL_PCD_SetupStageCallback
 771 00b8 52E0     		b	.L102
 772              	.L108:
 773 00ba 3E2A     		cmp	r2, #62
 774 00bc 09D8     		bhi	.L110
 775 00be 5108     		lsrs	r1, r2, #1
 776 00c0 12F0010F 		tst	r2, #1
 777 00c4 00D0     		beq	.L111
 778 00c6 0131     		adds	r1, r1, #1
 779              	.L111:
 780 00c8 8A02     		lsls	r2, r1, #10
 781 00ca 92B2     		uxth	r2, r2
 782 00cc A3F80C24 		strh	r2, [r3, #1036]	@ movhi
 783 00d0 A7E0     		b	.L109
 784              	.L110:
 785 00d2 5109     		lsrs	r1, r2, #5
 786 00d4 12F01F0F 		tst	r2, #31
 787 00d8 00D1     		bne	.L112
 788 00da 0139     		subs	r1, r1, #1
 789              	.L112:
 790 00dc 6FEAC162 		mvn	r2, r1, lsl #27
 791 00e0 6FEA5242 		mvn	r2, r2, lsr #17
 792 00e4 92B2     		uxth	r2, r2
ARM GAS  /tmp/ccCh8NU1.s 			page 14


 793 00e6 A3F80C24 		strh	r2, [r3, #1036]	@ movhi
 794 00ea 9AE0     		b	.L109
 795              	.L103:
 796 00ec 30F82560 		ldrh	r6, [r0, r5, lsl #2]
 797 00f0 B6B2     		uxth	r6, r6
 798 00f2 16F4004F 		tst	r6, #32768
 799 00f6 40F0A380 		bne	.L123
 800              	.L113:
 801 00fa 16F0800F 		tst	r6, #128
 802 00fe 2FD0     		beq	.L102
 803 0100 2268     		ldr	r2, [r4]
 804 0102 32F82530 		ldrh	r3, [r2, r5, lsl #2]
 805 0106 9BB2     		uxth	r3, r3
 806 0108 23F4E143 		bic	r3, r3, #28800
 807 010c 23F07003 		bic	r3, r3, #112
 808 0110 6FEA4343 		mvn	r3, r3, lsl #17
 809 0114 6FEA5343 		mvn	r3, r3, lsr #17
 810 0118 9BB2     		uxth	r3, r3
 811 011a 22F82530 		strh	r3, [r2, r5, lsl #2]	@ movhi
 812 011e 2268     		ldr	r2, [r4]
 813 0120 B2F85030 		ldrh	r3, [r2, #80]
 814 0124 9BB2     		uxth	r3, r3
 815 0126 04EB4510 		add	r0, r4, r5, lsl #5
 816 012a 90F82810 		ldrb	r1, [r0, #40]	@ zero_extendqisi2
 817 012e 03EBC103 		add	r3, r3, r1, lsl #3
 818 0132 0233     		adds	r3, r3, #2
 819 0134 02EB4303 		add	r3, r2, r3, lsl #1
 820 0138 B3F80024 		ldrh	r2, [r3, #1024]
 821 013c C2F30902 		ubfx	r2, r2, #0, #10
 822 0140 AB1C     		adds	r3, r5, #2
 823 0142 5B01     		lsls	r3, r3, #5
 824 0144 E118     		adds	r1, r4, r3
 825 0146 4A60     		str	r2, [r1, #4]
 826 0148 C16B     		ldr	r1, [r0, #60]
 827 014a 0A44     		add	r2, r2, r1
 828 014c C263     		str	r2, [r0, #60]
 829 014e E358     		ldr	r3, [r4, r3]
 830 0150 002B     		cmp	r3, #0
 831 0152 40F00F81 		bne	.L120
 832 0156 90F82810 		ldrb	r1, [r0, #40]	@ zero_extendqisi2
 833 015a 2046     		mov	r0, r4
 834 015c FFF7FEFF 		bl	HAL_PCD_DataInStageCallback
 835              	.L102:
 836 0160 2068     		ldr	r0, [r4]
 837 0162 B0F84430 		ldrh	r3, [r0, #68]
 838 0166 13F4004F 		tst	r3, #32768
 839 016a 00F00B81 		beq	.L124
 840 016e B0F84430 		ldrh	r3, [r0, #68]
 841 0172 9BB2     		uxth	r3, r3
 842 0174 13F00F05 		ands	r5, r3, #15
 843 0178 B8D1     		bne	.L103
 844 017a 13F0100F 		tst	r3, #16
 845 017e 3FF442AF 		beq	.L125
 846 0182 0388     		ldrh	r3, [r0]
 847 0184 9BB2     		uxth	r3, r3
 848 0186 13F4006F 		tst	r3, #2048
 849 018a 7FF473AF 		bne	.L126
ARM GAS  /tmp/ccCh8NU1.s 			page 15


 850 018e 13F4004F 		tst	r3, #32768
 851 0192 E5D0     		beq	.L102
 852 0194 0388     		ldrh	r3, [r0]
 853 0196 23F07003 		bic	r3, r3, #112
 854 019a 1B05     		lsls	r3, r3, #20
 855 019c 1B0D     		lsrs	r3, r3, #20
 856 019e 43F08003 		orr	r3, r3, #128
 857 01a2 0380     		strh	r3, [r0]	@ movhi
 858 01a4 2068     		ldr	r0, [r4]
 859 01a6 B0F85030 		ldrh	r3, [r0, #80]
 860 01aa 9BB2     		uxth	r3, r3
 861 01ac 94F82821 		ldrb	r2, [r4, #296]	@ zero_extendqisi2
 862 01b0 03EBC203 		add	r3, r3, r2, lsl #3
 863 01b4 0633     		adds	r3, r3, #6
 864 01b6 00EB4303 		add	r3, r0, r3, lsl #1
 865 01ba B3F80034 		ldrh	r3, [r3, #1024]
 866 01be C3F30903 		ubfx	r3, r3, #0, #10
 867 01c2 C4F84431 		str	r3, [r4, #324]
 868 01c6 8BB1     		cbz	r3, .L107
 869 01c8 D4F83C11 		ldr	r1, [r4, #316]
 870 01cc 71B1     		cbz	r1, .L107
 871 01ce B4F82E21 		ldrh	r2, [r4, #302]
 872 01d2 FFF7FEFF 		bl	USB_ReadPMA
 873 01d6 D4F84421 		ldr	r2, [r4, #324]
 874 01da D4F83C31 		ldr	r3, [r4, #316]
 875 01de 1344     		add	r3, r3, r2
 876 01e0 C4F83C31 		str	r3, [r4, #316]
 877 01e4 0021     		movs	r1, #0
 878 01e6 2046     		mov	r0, r4
 879 01e8 FFF7FEFF 		bl	HAL_PCD_DataOutStageCallback
 880              	.L107:
 881 01ec 2268     		ldr	r2, [r4]
 882 01ee B2F85030 		ldrh	r3, [r2, #80]
 883 01f2 9BB2     		uxth	r3, r3
 884 01f4 1344     		add	r3, r3, r2
 885 01f6 D4F83821 		ldr	r2, [r4, #312]
 886 01fa 002A     		cmp	r2, #0
 887 01fc 7FF45DAF 		bne	.L108
 888 0200 B3F80C24 		ldrh	r2, [r3, #1036]
 889 0204 92B2     		uxth	r2, r2
 890 0206 22F4F842 		bic	r2, r2, #31744
 891 020a 92B2     		uxth	r2, r2
 892 020c A3F80C24 		strh	r2, [r3, #1036]	@ movhi
 893 0210 B3F80C24 		ldrh	r2, [r3, #1036]
 894 0214 6FEA4242 		mvn	r2, r2, lsl #17
 895 0218 6FEA5242 		mvn	r2, r2, lsr #17
 896 021c 92B2     		uxth	r2, r2
 897 021e A3F80C24 		strh	r2, [r3, #1036]	@ movhi
 898              	.L109:
 899 0222 2268     		ldr	r2, [r4]
 900 0224 1388     		ldrh	r3, [r2]
 901 0226 9BB2     		uxth	r3, r3
 902 0228 23F48043 		bic	r3, r3, #16384
 903 022c 23F07003 		bic	r3, r3, #112
 904 0230 83F44053 		eor	r3, r3, #12288
 905 0234 43F40043 		orr	r3, r3, #32768
 906 0238 43F08003 		orr	r3, r3, #128
ARM GAS  /tmp/ccCh8NU1.s 			page 16


 907 023c 1380     		strh	r3, [r2]	@ movhi
 908 023e 8FE7     		b	.L102
 909              	.L123:
 910 0240 30F82530 		ldrh	r3, [r0, r5, lsl #2]
 911 0244 23F07003 		bic	r3, r3, #112
 912 0248 1B05     		lsls	r3, r3, #20
 913 024a 1B0D     		lsrs	r3, r3, #20
 914 024c 43F08003 		orr	r3, r3, #128
 915 0250 20F82530 		strh	r3, [r0, r5, lsl #2]	@ movhi
 916 0254 04EB4513 		add	r3, r4, r5, lsl #5
 917 0258 93F83431 		ldrb	r3, [r3, #308]	@ zero_extendqisi2
 918 025c DBB9     		cbnz	r3, .L114
 919 025e 2068     		ldr	r0, [r4]
 920 0260 B0F85030 		ldrh	r3, [r0, #80]
 921 0264 9BB2     		uxth	r3, r3
 922 0266 04EB4512 		add	r2, r4, r5, lsl #5
 923 026a 92F82821 		ldrb	r2, [r2, #296]	@ zero_extendqisi2
 924 026e 03EBC203 		add	r3, r3, r2, lsl #3
 925 0272 0633     		adds	r3, r3, #6
 926 0274 00EB4303 		add	r3, r0, r3, lsl #1
 927 0278 B3F80074 		ldrh	r7, [r3, #1024]
 928 027c C7F30907 		ubfx	r7, r7, #0, #10
 929 0280 97B3     		cbz	r7, .L115
 930 0282 04EB4511 		add	r1, r4, r5, lsl #5
 931 0286 3B46     		mov	r3, r7
 932 0288 B1F82E21 		ldrh	r2, [r1, #302]
 933 028c D1F83C11 		ldr	r1, [r1, #316]
 934 0290 FFF7FEFF 		bl	USB_ReadPMA
 935 0294 28E0     		b	.L115
 936              	.L114:
 937 0296 2068     		ldr	r0, [r4]
 938 0298 04EB4513 		add	r3, r4, r5, lsl #5
 939 029c 93F82821 		ldrb	r2, [r3, #296]	@ zero_extendqisi2
 940 02a0 30F82230 		ldrh	r3, [r0, r2, lsl #2]
 941 02a4 13F4804F 		tst	r3, #16384
 942 02a8 44D0     		beq	.L116
 943 02aa B0F85030 		ldrh	r3, [r0, #80]
 944 02ae 9BB2     		uxth	r3, r3
 945 02b0 03EBC203 		add	r3, r3, r2, lsl #3
 946 02b4 0233     		adds	r3, r3, #2
 947 02b6 00EB4303 		add	r3, r0, r3, lsl #1
 948 02ba B3F80074 		ldrh	r7, [r3, #1024]
 949 02be C7F30907 		ubfx	r7, r7, #0, #10
 950 02c2 6FBB     		cbnz	r7, .L127
 951              	.L117:
 952 02c4 2268     		ldr	r2, [r4]
 953 02c6 04EB4513 		add	r3, r4, r5, lsl #5
 954 02ca 93F82811 		ldrb	r1, [r3, #296]	@ zero_extendqisi2
 955 02ce 32F82130 		ldrh	r3, [r2, r1, lsl #2]
 956 02d2 9BB2     		uxth	r3, r3
 957 02d4 23F4E043 		bic	r3, r3, #28672
 958 02d8 23F07003 		bic	r3, r3, #112
 959 02dc 43F40043 		orr	r3, r3, #32768
 960 02e0 43F0C003 		orr	r3, r3, #192
 961 02e4 22F82130 		strh	r3, [r2, r1, lsl #2]	@ movhi
 962              	.L115:
 963 02e8 05F10A03 		add	r3, r5, #10
ARM GAS  /tmp/ccCh8NU1.s 			page 17


 964 02ec 5B01     		lsls	r3, r3, #5
 965 02ee E118     		adds	r1, r4, r3
 966 02f0 4A68     		ldr	r2, [r1, #4]
 967 02f2 3A44     		add	r2, r2, r7
 968 02f4 4A60     		str	r2, [r1, #4]
 969 02f6 04EB4511 		add	r1, r4, r5, lsl #5
 970 02fa D1F83C21 		ldr	r2, [r1, #316]
 971 02fe 3A44     		add	r2, r2, r7
 972 0300 C1F83C21 		str	r2, [r1, #316]
 973 0304 E358     		ldr	r3, [r4, r3]
 974 0306 1BB1     		cbz	r3, .L118
 975 0308 D1F83811 		ldr	r1, [r1, #312]
 976 030c 8F42     		cmp	r7, r1
 977 030e 29D2     		bcs	.L119
 978              	.L118:
 979 0310 04EB4513 		add	r3, r4, r5, lsl #5
 980 0314 93F82811 		ldrb	r1, [r3, #296]	@ zero_extendqisi2
 981 0318 2046     		mov	r0, r4
 982 031a FFF7FEFF 		bl	HAL_PCD_DataOutStageCallback
 983 031e ECE6     		b	.L113
 984              	.L127:
 985 0320 04EB4511 		add	r1, r4, r5, lsl #5
 986 0324 3B46     		mov	r3, r7
 987 0326 B1F83021 		ldrh	r2, [r1, #304]
 988 032a D1F83C11 		ldr	r1, [r1, #316]
 989 032e FFF7FEFF 		bl	USB_ReadPMA
 990 0332 C7E7     		b	.L117
 991              	.L116:
 992 0334 B0F85030 		ldrh	r3, [r0, #80]
 993 0338 9BB2     		uxth	r3, r3
 994 033a 03EBC203 		add	r3, r3, r2, lsl #3
 995 033e 0633     		adds	r3, r3, #6
 996 0340 00EB4303 		add	r3, r0, r3, lsl #1
 997 0344 B3F80074 		ldrh	r7, [r3, #1024]
 998 0348 C7F30907 		ubfx	r7, r7, #0, #10
 999 034c 002F     		cmp	r7, #0
 1000 034e B9D0     		beq	.L117
 1001 0350 04EB4511 		add	r1, r4, r5, lsl #5
 1002 0354 3B46     		mov	r3, r7
 1003 0356 B1F83221 		ldrh	r2, [r1, #306]
 1004 035a D1F83C11 		ldr	r1, [r1, #316]
 1005 035e FFF7FEFF 		bl	USB_ReadPMA
 1006 0362 AFE7     		b	.L117
 1007              	.L119:
 1008 0364 04EB4511 		add	r1, r4, r5, lsl #5
 1009 0368 91F82811 		ldrb	r1, [r1, #296]	@ zero_extendqisi2
 1010 036c 2046     		mov	r0, r4
 1011 036e FFF7FEFF 		bl	HAL_PCD_EP_Receive
 1012 0372 C2E6     		b	.L113
 1013              	.L120:
 1014 0374 04EB4515 		add	r5, r4, r5, lsl #5
 1015 0378 95F82810 		ldrb	r1, [r5, #40]	@ zero_extendqisi2
 1016 037c 2046     		mov	r0, r4
 1017 037e FFF7FEFF 		bl	HAL_PCD_EP_Transmit
 1018 0382 EDE6     		b	.L102
 1019              	.L124:
 1020 0384 0020     		movs	r0, #0
ARM GAS  /tmp/ccCh8NU1.s 			page 18


 1021 0386 F8BD     		pop	{r3, r4, r5, r6, r7, pc}
 1023              		.section	.text.HAL_PCD_IRQHandler,"ax",%progbits
 1024              		.align	1
 1025              		.global	HAL_PCD_IRQHandler
 1026              		.syntax unified
 1027              		.thumb
 1028              		.thumb_func
 1029              		.fpu softvfp
 1031              	HAL_PCD_IRQHandler:
 1032              		@ args = 0, pretend = 0, frame = 0
 1033              		@ frame_needed = 0, uses_anonymous_args = 0
 1034 0000 10B5     		push	{r4, lr}
 1035 0002 0446     		mov	r4, r0
 1036 0004 0068     		ldr	r0, [r0]
 1037 0006 FFF7FEFF 		bl	USB_ReadInterrupts
 1038 000a 10F4004F 		tst	r0, #32768
 1039 000e 45D1     		bne	.L139
 1040              	.L129:
 1041 0010 2068     		ldr	r0, [r4]
 1042 0012 FFF7FEFF 		bl	USB_ReadInterrupts
 1043 0016 10F4806F 		tst	r0, #1024
 1044 001a 43D1     		bne	.L140
 1045              	.L130:
 1046 001c 2068     		ldr	r0, [r4]
 1047 001e FFF7FEFF 		bl	USB_ReadInterrupts
 1048 0022 10F4804F 		tst	r0, #16384
 1049 0026 08D0     		beq	.L131
 1050 0028 2268     		ldr	r2, [r4]
 1051 002a B2F84430 		ldrh	r3, [r2, #68]
 1052 002e 9BB2     		uxth	r3, r3
 1053 0030 23F48043 		bic	r3, r3, #16384
 1054 0034 9BB2     		uxth	r3, r3
 1055 0036 A2F84430 		strh	r3, [r2, #68]	@ movhi
 1056              	.L131:
 1057 003a 2068     		ldr	r0, [r4]
 1058 003c FFF7FEFF 		bl	USB_ReadInterrupts
 1059 0040 10F4005F 		tst	r0, #8192
 1060 0044 08D0     		beq	.L132
 1061 0046 2268     		ldr	r2, [r4]
 1062 0048 B2F84430 		ldrh	r3, [r2, #68]
 1063 004c 9BB2     		uxth	r3, r3
 1064 004e 23F40053 		bic	r3, r3, #8192
 1065 0052 9BB2     		uxth	r3, r3
 1066 0054 A2F84430 		strh	r3, [r2, #68]	@ movhi
 1067              	.L132:
 1068 0058 2068     		ldr	r0, [r4]
 1069 005a FFF7FEFF 		bl	USB_ReadInterrupts
 1070 005e 10F4805F 		tst	r0, #4096
 1071 0062 30D1     		bne	.L141
 1072              	.L133:
 1073 0064 2068     		ldr	r0, [r4]
 1074 0066 FFF7FEFF 		bl	USB_ReadInterrupts
 1075 006a 10F4006F 		tst	r0, #2048
 1076 006e 49D1     		bne	.L142
 1077              	.L134:
 1078 0070 2068     		ldr	r0, [r4]
 1079 0072 FFF7FEFF 		bl	USB_ReadInterrupts
ARM GAS  /tmp/ccCh8NU1.s 			page 19


 1080 0076 10F4007F 		tst	r0, #512
 1081 007a 6FD1     		bne	.L143
 1082              	.L136:
 1083 007c 2068     		ldr	r0, [r4]
 1084 007e FFF7FEFF 		bl	USB_ReadInterrupts
 1085 0082 10F4807F 		tst	r0, #256
 1086 0086 08D0     		beq	.L128
 1087 0088 2268     		ldr	r2, [r4]
 1088 008a B2F84430 		ldrh	r3, [r2, #68]
 1089 008e 9BB2     		uxth	r3, r3
 1090 0090 23F48073 		bic	r3, r3, #256
 1091 0094 9BB2     		uxth	r3, r3
 1092 0096 A2F84430 		strh	r3, [r2, #68]	@ movhi
 1093              	.L128:
 1094 009a 10BD     		pop	{r4, pc}
 1095              	.L139:
 1096 009c 2046     		mov	r0, r4
 1097 009e FFF7FEFF 		bl	PCD_EP_ISR_Handler
 1098 00a2 B5E7     		b	.L129
 1099              	.L140:
 1100 00a4 2268     		ldr	r2, [r4]
 1101 00a6 B2F84430 		ldrh	r3, [r2, #68]
 1102 00aa 9BB2     		uxth	r3, r3
 1103 00ac 23F48063 		bic	r3, r3, #1024
 1104 00b0 9BB2     		uxth	r3, r3
 1105 00b2 A2F84430 		strh	r3, [r2, #68]	@ movhi
 1106 00b6 2046     		mov	r0, r4
 1107 00b8 FFF7FEFF 		bl	HAL_PCD_ResetCallback
 1108 00bc 0021     		movs	r1, #0
 1109 00be 2046     		mov	r0, r4
 1110 00c0 FFF7FEFF 		bl	HAL_PCD_SetAddress
 1111 00c4 AAE7     		b	.L130
 1112              	.L141:
 1113 00c6 2268     		ldr	r2, [r4]
 1114 00c8 B2F84030 		ldrh	r3, [r2, #64]
 1115 00cc 9BB2     		uxth	r3, r3
 1116 00ce 23F00403 		bic	r3, r3, #4
 1117 00d2 9BB2     		uxth	r3, r3
 1118 00d4 A2F84030 		strh	r3, [r2, #64]	@ movhi
 1119 00d8 2268     		ldr	r2, [r4]
 1120 00da B2F84030 		ldrh	r3, [r2, #64]
 1121 00de 9BB2     		uxth	r3, r3
 1122 00e0 23F00803 		bic	r3, r3, #8
 1123 00e4 9BB2     		uxth	r3, r3
 1124 00e6 A2F84030 		strh	r3, [r2, #64]	@ movhi
 1125 00ea 2046     		mov	r0, r4
 1126 00ec FFF7FEFF 		bl	HAL_PCD_ResumeCallback
 1127 00f0 2268     		ldr	r2, [r4]
 1128 00f2 B2F84430 		ldrh	r3, [r2, #68]
 1129 00f6 9BB2     		uxth	r3, r3
 1130 00f8 23F48053 		bic	r3, r3, #4096
 1131 00fc 9BB2     		uxth	r3, r3
 1132 00fe A2F84430 		strh	r3, [r2, #68]	@ movhi
 1133 0102 AFE7     		b	.L133
 1134              	.L142:
 1135 0104 2268     		ldr	r2, [r4]
 1136 0106 B2F84030 		ldrh	r3, [r2, #64]
ARM GAS  /tmp/ccCh8NU1.s 			page 20


 1137 010a 9BB2     		uxth	r3, r3
 1138 010c 43F00803 		orr	r3, r3, #8
 1139 0110 A2F84030 		strh	r3, [r2, #64]	@ movhi
 1140 0114 2268     		ldr	r2, [r4]
 1141 0116 B2F84430 		ldrh	r3, [r2, #68]
 1142 011a 9BB2     		uxth	r3, r3
 1143 011c 23F40063 		bic	r3, r3, #2048
 1144 0120 9BB2     		uxth	r3, r3
 1145 0122 A2F84430 		strh	r3, [r2, #68]	@ movhi
 1146 0126 2268     		ldr	r2, [r4]
 1147 0128 B2F84030 		ldrh	r3, [r2, #64]
 1148 012c 9BB2     		uxth	r3, r3
 1149 012e 43F00403 		orr	r3, r3, #4
 1150 0132 A2F84030 		strh	r3, [r2, #64]	@ movhi
 1151 0136 2068     		ldr	r0, [r4]
 1152 0138 FFF7FEFF 		bl	USB_ReadInterrupts
 1153 013c 10F4805F 		tst	r0, #4096
 1154 0140 08D0     		beq	.L135
 1155 0142 2268     		ldr	r2, [r4]
 1156 0144 B2F84430 		ldrh	r3, [r2, #68]
 1157 0148 9BB2     		uxth	r3, r3
 1158 014a 23F48053 		bic	r3, r3, #4096
 1159 014e 9BB2     		uxth	r3, r3
 1160 0150 A2F84430 		strh	r3, [r2, #68]	@ movhi
 1161              	.L135:
 1162 0154 2046     		mov	r0, r4
 1163 0156 FFF7FEFF 		bl	HAL_PCD_SuspendCallback
 1164 015a 89E7     		b	.L134
 1165              	.L143:
 1166 015c 2268     		ldr	r2, [r4]
 1167 015e B2F84430 		ldrh	r3, [r2, #68]
 1168 0162 9BB2     		uxth	r3, r3
 1169 0164 23F40073 		bic	r3, r3, #512
 1170 0168 9BB2     		uxth	r3, r3
 1171 016a A2F84430 		strh	r3, [r2, #68]	@ movhi
 1172 016e 2046     		mov	r0, r4
 1173 0170 FFF7FEFF 		bl	HAL_PCD_SOFCallback
 1174 0174 82E7     		b	.L136
 1176              		.section	.text.HAL_PCD_EP_SetStall,"ax",%progbits
 1177              		.align	1
 1178              		.global	HAL_PCD_EP_SetStall
 1179              		.syntax unified
 1180              		.thumb
 1181              		.thumb_func
 1182              		.fpu softvfp
 1184              	HAL_PCD_EP_SetStall:
 1185              		@ args = 0, pretend = 0, frame = 0
 1186              		@ frame_needed = 0, uses_anonymous_args = 0
 1187 0000 38B5     		push	{r3, r4, r5, lr}
 1188 0002 01F00705 		and	r5, r1, #7
 1189 0006 4368     		ldr	r3, [r0, #4]
 1190 0008 9D42     		cmp	r5, r3
 1191 000a 2ED8     		bhi	.L149
 1192 000c 11F0800F 		tst	r1, #128
 1193 0010 10D1     		bne	.L152
 1194 0012 4B01     		lsls	r3, r1, #5
 1195 0014 03F59471 		add	r1, r3, #296
ARM GAS  /tmp/ccCh8NU1.s 			page 21


 1196 0018 0144     		add	r1, r1, r0
 1197 001a 0344     		add	r3, r3, r0
 1198 001c 0022     		movs	r2, #0
 1199 001e 83F82921 		strb	r2, [r3, #297]
 1200              	.L147:
 1201 0022 0123     		movs	r3, #1
 1202 0024 8B70     		strb	r3, [r1, #2]
 1203 0026 0D70     		strb	r5, [r1]
 1204 0028 90F82832 		ldrb	r3, [r0, #552]	@ zero_extendqisi2
 1205 002c 012B     		cmp	r3, #1
 1206 002e 0AD1     		bne	.L153
 1207 0030 0220     		movs	r0, #2
 1208 0032 38BD     		pop	{r3, r4, r5, pc}
 1209              	.L152:
 1210 0034 6B01     		lsls	r3, r5, #5
 1211 0036 03F12801 		add	r1, r3, #40
 1212 003a 0144     		add	r1, r1, r0
 1213 003c 0344     		add	r3, r3, r0
 1214 003e 0122     		movs	r2, #1
 1215 0040 83F82920 		strb	r2, [r3, #41]
 1216 0044 EDE7     		b	.L147
 1217              	.L153:
 1218 0046 0446     		mov	r4, r0
 1219 0048 0123     		movs	r3, #1
 1220 004a 80F82832 		strb	r3, [r0, #552]
 1221 004e 0068     		ldr	r0, [r0]
 1222 0050 FFF7FEFF 		bl	USB_EPSetStall
 1223 0054 1DB1     		cbz	r5, .L154
 1224              	.L148:
 1225 0056 0020     		movs	r0, #0
 1226 0058 84F82802 		strb	r0, [r4, #552]
 1227 005c 38BD     		pop	{r3, r4, r5, pc}
 1228              	.L154:
 1229 005e 04F50C71 		add	r1, r4, #560
 1230 0062 2068     		ldr	r0, [r4]
 1231 0064 FFF7FEFF 		bl	USB_EP0_OutStart
 1232 0068 F5E7     		b	.L148
 1233              	.L149:
 1234 006a 0120     		movs	r0, #1
 1235 006c 38BD     		pop	{r3, r4, r5, pc}
 1237              		.section	.text.HAL_PCD_EP_ClrStall,"ax",%progbits
 1238              		.align	1
 1239              		.global	HAL_PCD_EP_ClrStall
 1240              		.syntax unified
 1241              		.thumb
 1242              		.thumb_func
 1243              		.fpu softvfp
 1245              	HAL_PCD_EP_ClrStall:
 1246              		@ args = 0, pretend = 0, frame = 0
 1247              		@ frame_needed = 0, uses_anonymous_args = 0
 1248 0000 01F00F02 		and	r2, r1, #15
 1249 0004 4368     		ldr	r3, [r0, #4]
 1250 0006 9A42     		cmp	r2, r3
 1251 0008 2FD8     		bhi	.L159
 1252 000a 10B5     		push	{r4, lr}
 1253 000c 11F0800F 		tst	r1, #128
 1254 0010 14D1     		bne	.L165
ARM GAS  /tmp/ccCh8NU1.s 			page 22


 1255 0012 01F00703 		and	r3, r1, #7
 1256 0016 5B01     		lsls	r3, r3, #5
 1257 0018 03F59472 		add	r2, r3, #296
 1258 001c 0244     		add	r2, r2, r0
 1259 001e 0344     		add	r3, r3, r0
 1260 0020 0024     		movs	r4, #0
 1261 0022 83F82941 		strb	r4, [r3, #297]
 1262              	.L158:
 1263 0026 0023     		movs	r3, #0
 1264 0028 9370     		strb	r3, [r2, #2]
 1265 002a 01F00703 		and	r3, r1, #7
 1266 002e 1370     		strb	r3, [r2]
 1267 0030 90F82832 		ldrb	r3, [r0, #552]	@ zero_extendqisi2
 1268 0034 012B     		cmp	r3, #1
 1269 0036 0CD1     		bne	.L166
 1270 0038 0220     		movs	r0, #2
 1271 003a 10BD     		pop	{r4, pc}
 1272              	.L165:
 1273 003c 01F00703 		and	r3, r1, #7
 1274 0040 5B01     		lsls	r3, r3, #5
 1275 0042 03F12802 		add	r2, r3, #40
 1276 0046 0244     		add	r2, r2, r0
 1277 0048 0344     		add	r3, r3, r0
 1278 004a 0124     		movs	r4, #1
 1279 004c 83F82940 		strb	r4, [r3, #41]
 1280 0050 E9E7     		b	.L158
 1281              	.L166:
 1282 0052 0446     		mov	r4, r0
 1283 0054 0123     		movs	r3, #1
 1284 0056 80F82832 		strb	r3, [r0, #552]
 1285 005a 1146     		mov	r1, r2
 1286 005c 0068     		ldr	r0, [r0]
 1287 005e FFF7FEFF 		bl	USB_EPClearStall
 1288 0062 0020     		movs	r0, #0
 1289 0064 84F82802 		strb	r0, [r4, #552]
 1290 0068 10BD     		pop	{r4, pc}
 1291              	.L159:
 1292 006a 0120     		movs	r0, #1
 1293 006c 7047     		bx	lr
 1295              		.section	.text.HAL_PCD_EP_Flush,"ax",%progbits
 1296              		.align	1
 1297              		.global	HAL_PCD_EP_Flush
 1298              		.syntax unified
 1299              		.thumb
 1300              		.thumb_func
 1301              		.fpu softvfp
 1303              	HAL_PCD_EP_Flush:
 1304              		@ args = 0, pretend = 0, frame = 0
 1305              		@ frame_needed = 0, uses_anonymous_args = 0
 1306 0000 90F82832 		ldrb	r3, [r0, #552]	@ zero_extendqisi2
 1307 0004 012B     		cmp	r3, #1
 1308 0006 14D0     		beq	.L171
 1309 0008 10B5     		push	{r4, lr}
 1310 000a 0446     		mov	r4, r0
 1311 000c 0123     		movs	r3, #1
 1312 000e 80F82832 		strb	r3, [r0, #552]
 1313 0012 11F0800F 		tst	r1, #128
ARM GAS  /tmp/ccCh8NU1.s 			page 23


 1314 0016 06D1     		bne	.L176
 1315 0018 0068     		ldr	r0, [r0]
 1316 001a FFF7FEFF 		bl	USB_FlushRxFifo
 1317              	.L170:
 1318 001e 0020     		movs	r0, #0
 1319 0020 84F82802 		strb	r0, [r4, #552]
 1320 0024 10BD     		pop	{r4, pc}
 1321              	.L176:
 1322 0026 01F00701 		and	r1, r1, #7
 1323 002a 0068     		ldr	r0, [r0]
 1324 002c FFF7FEFF 		bl	USB_FlushTxFifo
 1325 0030 F5E7     		b	.L170
 1326              	.L171:
 1327 0032 0220     		movs	r0, #2
 1328 0034 7047     		bx	lr
 1330              		.section	.text.HAL_PCD_ActivateRemoteWakeup,"ax",%progbits
 1331              		.align	1
 1332              		.global	HAL_PCD_ActivateRemoteWakeup
 1333              		.syntax unified
 1334              		.thumb
 1335              		.thumb_func
 1336              		.fpu softvfp
 1338              	HAL_PCD_ActivateRemoteWakeup:
 1339              		@ args = 0, pretend = 0, frame = 0
 1340              		@ frame_needed = 0, uses_anonymous_args = 0
 1341 0000 08B5     		push	{r3, lr}
 1342 0002 0068     		ldr	r0, [r0]
 1343 0004 FFF7FEFF 		bl	USB_ActivateRemoteWakeup
 1344 0008 08BD     		pop	{r3, pc}
 1346              		.section	.text.HAL_PCD_DeActivateRemoteWakeup,"ax",%progbits
 1347              		.align	1
 1348              		.global	HAL_PCD_DeActivateRemoteWakeup
 1349              		.syntax unified
 1350              		.thumb
 1351              		.thumb_func
 1352              		.fpu softvfp
 1354              	HAL_PCD_DeActivateRemoteWakeup:
 1355              		@ args = 0, pretend = 0, frame = 0
 1356              		@ frame_needed = 0, uses_anonymous_args = 0
 1357 0000 08B5     		push	{r3, lr}
 1358 0002 0068     		ldr	r0, [r0]
 1359 0004 FFF7FEFF 		bl	USB_DeActivateRemoteWakeup
 1360 0008 08BD     		pop	{r3, pc}
 1362              		.section	.text.HAL_PCD_GetState,"ax",%progbits
 1363              		.align	1
 1364              		.global	HAL_PCD_GetState
 1365              		.syntax unified
 1366              		.thumb
 1367              		.thumb_func
 1368              		.fpu softvfp
 1370              	HAL_PCD_GetState:
 1371              		@ args = 0, pretend = 0, frame = 0
 1372              		@ frame_needed = 0, uses_anonymous_args = 0
 1373              		@ link register save eliminated.
 1374 0000 90F82902 		ldrb	r0, [r0, #553]	@ zero_extendqisi2
 1375 0004 7047     		bx	lr
 1377              		.ident	"GCC: (15:6.3.1+svn253039-1build1) 6.3.1 20170620"
ARM GAS  /tmp/ccCh8NU1.s 			page 24


ARM GAS  /tmp/ccCh8NU1.s 			page 25

