ARM GAS  /tmp/ccoaqWXd.s 			page 1


   1              		.syntax unified
   2              		.cpu cortex-m3
   3              		.fpu softvfp
   4              		.eabi_attribute 20, 1
   5              		.eabi_attribute 21, 1
   6              		.eabi_attribute 23, 3
   7              		.eabi_attribute 24, 1
   8              		.eabi_attribute 25, 1
   9              		.eabi_attribute 26, 1
  10              		.eabi_attribute 30, 1
  11              		.eabi_attribute 34, 1
  12              		.eabi_attribute 18, 4
  13              		.thumb
  14              		.file	"stm32f1xx_ll_usb.c"
  15              		.section	.text.USB_CoreInit,"ax",%progbits
  16              		.align	2
  17              		.global	USB_CoreInit
  18              		.thumb
  19              		.thumb_func
  21              	USB_CoreInit:
  22              		@ args = 36, pretend = 16, frame = 0
  23              		@ frame_needed = 0, uses_anonymous_args = 0
  24              		@ link register save eliminated.
  25 0000 84B0     		sub	sp, sp, #16
  26 0002 01A8     		add	r0, sp, #4
  27 0004 80E80E00 		stmia	r0, {r1, r2, r3}
  28 0008 0020     		movs	r0, #0
  29 000a 04B0     		add	sp, sp, #16
  30 000c 7047     		bx	lr
  32 000e 00BF     		.section	.text.USB_EnableGlobalInt,"ax",%progbits
  33              		.align	2
  34              		.global	USB_EnableGlobalInt
  35              		.thumb
  36              		.thumb_func
  38              	USB_EnableGlobalInt:
  39              		@ args = 0, pretend = 0, frame = 0
  40              		@ frame_needed = 0, uses_anonymous_args = 0
  41              		@ link register save eliminated.
  42 0000 B0F84030 		ldrh	r3, [r0, #64]
  43 0004 9BB2     		uxth	r3, r3
  44 0006 43F43F43 		orr	r3, r3, #48896
  45 000a A0F84030 		strh	r3, [r0, #64]	@ movhi
  46 000e 0020     		movs	r0, #0
  47 0010 7047     		bx	lr
  49 0012 00BF     		.section	.text.USB_DisableGlobalInt,"ax",%progbits
  50              		.align	2
  51              		.global	USB_DisableGlobalInt
  52              		.thumb
  53              		.thumb_func
  55              	USB_DisableGlobalInt:
  56              		@ args = 0, pretend = 0, frame = 0
  57              		@ frame_needed = 0, uses_anonymous_args = 0
  58              		@ link register save eliminated.
  59 0000 B0F84030 		ldrh	r3, [r0, #64]
  60 0004 23F47C53 		bic	r3, r3, #16128
  61 0008 5B04     		lsls	r3, r3, #17
  62 000a 5B0C     		lsrs	r3, r3, #17
ARM GAS  /tmp/ccoaqWXd.s 			page 2


  63 000c A0F84030 		strh	r3, [r0, #64]	@ movhi
  64 0010 0020     		movs	r0, #0
  65 0012 7047     		bx	lr
  67              		.section	.text.USB_SetCurrentMode,"ax",%progbits
  68              		.align	2
  69              		.global	USB_SetCurrentMode
  70              		.thumb
  71              		.thumb_func
  73              	USB_SetCurrentMode:
  74              		@ args = 0, pretend = 0, frame = 0
  75              		@ frame_needed = 0, uses_anonymous_args = 0
  76              		@ link register save eliminated.
  77 0000 0020     		movs	r0, #0
  78 0002 7047     		bx	lr
  80              		.section	.text.USB_DevInit,"ax",%progbits
  81              		.align	2
  82              		.global	USB_DevInit
  83              		.thumb
  84              		.thumb_func
  86              	USB_DevInit:
  87              		@ args = 36, pretend = 16, frame = 0
  88              		@ frame_needed = 0, uses_anonymous_args = 0
  89 0000 84B0     		sub	sp, sp, #16
  90 0002 38B5     		push	{r3, r4, r5, lr}
  91 0004 05AC     		add	r4, sp, #20
  92 0006 84E80E00 		stmia	r4, {r1, r2, r3}
  93 000a 0123     		movs	r3, #1
  94 000c A0F84030 		strh	r3, [r0, #64]	@ movhi
  95 0010 0024     		movs	r4, #0
  96 0012 A0F84040 		strh	r4, [r0, #64]	@ movhi
  97 0016 A0F84440 		strh	r4, [r0, #68]	@ movhi
  98 001a A0F85040 		strh	r4, [r0, #80]	@ movhi
  99 001e FFF7FEFF 		bl	USB_EnableGlobalInt
 100 0022 2046     		mov	r0, r4
 101 0024 BDE83840 		pop	{r3, r4, r5, lr}
 102 0028 04B0     		add	sp, sp, #16
 103 002a 7047     		bx	lr
 105              		.section	.text.USB_SetDevSpeed,"ax",%progbits
 106              		.align	2
 107              		.global	USB_SetDevSpeed
 108              		.thumb
 109              		.thumb_func
 111              	USB_SetDevSpeed:
 112              		@ args = 0, pretend = 0, frame = 0
 113              		@ frame_needed = 0, uses_anonymous_args = 0
 114              		@ link register save eliminated.
 115 0000 0020     		movs	r0, #0
 116 0002 7047     		bx	lr
 118              		.section	.text.USB_FlushTxFifo,"ax",%progbits
 119              		.align	2
 120              		.global	USB_FlushTxFifo
 121              		.thumb
 122              		.thumb_func
 124              	USB_FlushTxFifo:
 125              		@ args = 0, pretend = 0, frame = 0
 126              		@ frame_needed = 0, uses_anonymous_args = 0
 127              		@ link register save eliminated.
ARM GAS  /tmp/ccoaqWXd.s 			page 3


 128 0000 0020     		movs	r0, #0
 129 0002 7047     		bx	lr
 131              		.section	.text.USB_FlushRxFifo,"ax",%progbits
 132              		.align	2
 133              		.global	USB_FlushRxFifo
 134              		.thumb
 135              		.thumb_func
 137              	USB_FlushRxFifo:
 138              		@ args = 0, pretend = 0, frame = 0
 139              		@ frame_needed = 0, uses_anonymous_args = 0
 140              		@ link register save eliminated.
 141 0000 0020     		movs	r0, #0
 142 0002 7047     		bx	lr
 144              		.section	.text.USB_ActivateEndpoint,"ax",%progbits
 145              		.align	2
 146              		.global	USB_ActivateEndpoint
 147              		.thumb
 148              		.thumb_func
 150              	USB_ActivateEndpoint:
 151              		@ args = 0, pretend = 0, frame = 0
 152              		@ frame_needed = 0, uses_anonymous_args = 0
 153              		@ link register save eliminated.
 154 0000 30B4     		push	{r4, r5}
 155 0002 0346     		mov	r3, r0
 156 0004 0D78     		ldrb	r5, [r1]	@ zero_extendqisi2
 157 0006 30F82520 		ldrh	r2, [r0, r5, lsl #2]
 158 000a 92B2     		uxth	r2, r2
 159 000c 22F4EC42 		bic	r2, r2, #30208
 160 0010 22F07002 		bic	r2, r2, #112
 161 0014 92B2     		uxth	r2, r2
 162 0016 C878     		ldrb	r0, [r1, #3]	@ zero_extendqisi2
 163 0018 0328     		cmp	r0, #3
 164 001a 03D8     		bhi	.L12
 165 001c DFE800F0 		tbb	[pc, r0]
 166              	.L14:
 167 0020 04       		.byte	(.L13-.L14)/2
 168 0021 0C       		.byte	(.L15-.L14)/2
 169 0022 10       		.byte	(.L36-.L14)/2
 170 0023 08       		.byte	(.L17-.L14)/2
 171              		.p2align 1
 172              	.L12:
 173 0024 0120     		movs	r0, #1
 174 0026 0CE0     		b	.L16
 175              	.L13:
 176 0028 42F40072 		orr	r2, r2, #512
 177 002c 0020     		movs	r0, #0
 178 002e 08E0     		b	.L16
 179              	.L17:
 180 0030 42F4C062 		orr	r2, r2, #1536
 181 0034 0020     		movs	r0, #0
 182 0036 04E0     		b	.L16
 183              	.L15:
 184 0038 42F48062 		orr	r2, r2, #1024
 185 003c 0020     		movs	r0, #0
 186 003e 00E0     		b	.L16
 187              	.L36:
 188 0040 0020     		movs	r0, #0
ARM GAS  /tmp/ccoaqWXd.s 			page 4


 189              	.L16:
 190 0042 48F28004 		movw	r4, #32896
 191 0046 2243     		orrs	r2, r2, r4
 192 0048 23F82520 		strh	r2, [r3, r5, lsl #2]	@ movhi
 193 004c 0D78     		ldrb	r5, [r1]	@ zero_extendqisi2
 194 004e 33F82520 		ldrh	r2, [r3, r5, lsl #2]
 195 0052 92B2     		uxth	r2, r2
 196 0054 22F4E042 		bic	r2, r2, #28672
 197 0058 22F07002 		bic	r2, r2, #112
 198 005c 2A43     		orrs	r2, r2, r5
 199 005e 2243     		orrs	r2, r2, r4
 200 0060 23F82520 		strh	r2, [r3, r5, lsl #2]	@ movhi
 201 0064 0A7B     		ldrb	r2, [r1, #12]	@ zero_extendqisi2
 202 0066 002A     		cmp	r2, #0
 203 0068 40F0AC80 		bne	.L18
 204 006c 4A78     		ldrb	r2, [r1, #1]	@ zero_extendqisi2
 205 006e 002A     		cmp	r2, #0
 206 0070 43D0     		beq	.L19
 207 0072 B3F85020 		ldrh	r2, [r3, #80]
 208 0076 92B2     		uxth	r2, r2
 209 0078 1A44     		add	r2, r2, r3
 210 007a 0C78     		ldrb	r4, [r1]	@ zero_extendqisi2
 211 007c 02EB0412 		add	r2, r2, r4, lsl #4
 212 0080 CC88     		ldrh	r4, [r1, #6]
 213 0082 24F00104 		bic	r4, r4, #1
 214 0086 A4B2     		uxth	r4, r4
 215 0088 A2F80044 		strh	r4, [r2, #1024]	@ movhi
 216 008c 0C78     		ldrb	r4, [r1]	@ zero_extendqisi2
 217 008e 33F82420 		ldrh	r2, [r3, r4, lsl #2]
 218 0092 02F04002 		and	r2, r2, #64
 219 0096 92B2     		uxth	r2, r2
 220 0098 62B1     		cbz	r2, .L20
 221 009a 33F82420 		ldrh	r2, [r3, r4, lsl #2]
 222 009e 92B2     		uxth	r2, r2
 223 00a0 22F4E042 		bic	r2, r2, #28672
 224 00a4 22F07002 		bic	r2, r2, #112
 225 00a8 42F40042 		orr	r2, r2, #32768
 226 00ac 42F0C002 		orr	r2, r2, #192
 227 00b0 23F82420 		strh	r2, [r3, r4, lsl #2]	@ movhi
 228              	.L20:
 229 00b4 CA78     		ldrb	r2, [r1, #3]	@ zero_extendqisi2
 230 00b6 012A     		cmp	r2, #1
 231 00b8 10D0     		beq	.L21
 232 00ba 0978     		ldrb	r1, [r1]	@ zero_extendqisi2
 233 00bc 33F82120 		ldrh	r2, [r3, r1, lsl #2]
 234 00c0 92B2     		uxth	r2, r2
 235 00c2 22F4E042 		bic	r2, r2, #28672
 236 00c6 22F04002 		bic	r2, r2, #64
 237 00ca 82F02002 		eor	r2, r2, #32
 238 00ce 42F40042 		orr	r2, r2, #32768
 239 00d2 42F08002 		orr	r2, r2, #128
 240 00d6 23F82120 		strh	r2, [r3, r1, lsl #2]	@ movhi
 241 00da 55E1     		b	.L22
 242              	.L21:
 243 00dc 0978     		ldrb	r1, [r1]	@ zero_extendqisi2
 244 00de 33F82120 		ldrh	r2, [r3, r1, lsl #2]
 245 00e2 92B2     		uxth	r2, r2
ARM GAS  /tmp/ccoaqWXd.s 			page 5


 246 00e4 22F4E042 		bic	r2, r2, #28672
 247 00e8 22F04002 		bic	r2, r2, #64
 248 00ec 42F40042 		orr	r2, r2, #32768
 249 00f0 42F08002 		orr	r2, r2, #128
 250 00f4 23F82120 		strh	r2, [r3, r1, lsl #2]	@ movhi
 251 00f8 46E1     		b	.L22
 252              	.L19:
 253 00fa B3F85020 		ldrh	r2, [r3, #80]
 254 00fe 92B2     		uxth	r2, r2
 255 0100 1A44     		add	r2, r2, r3
 256 0102 0C78     		ldrb	r4, [r1]	@ zero_extendqisi2
 257 0104 02EB0412 		add	r2, r2, r4, lsl #4
 258 0108 CC88     		ldrh	r4, [r1, #6]
 259 010a 24F00104 		bic	r4, r4, #1
 260 010e A4B2     		uxth	r4, r4
 261 0110 A2F80844 		strh	r4, [r2, #1032]	@ movhi
 262 0114 B3F85020 		ldrh	r2, [r3, #80]
 263 0118 92B2     		uxth	r2, r2
 264 011a 1A44     		add	r2, r2, r3
 265 011c 0C78     		ldrb	r4, [r1]	@ zero_extendqisi2
 266 011e 02EB0412 		add	r2, r2, r4, lsl #4
 267 0122 0C69     		ldr	r4, [r1, #16]
 268 0124 8CB9     		cbnz	r4, .L23
 269 0126 B2F80C44 		ldrh	r4, [r2, #1036]
 270 012a 24F4F844 		bic	r4, r4, #31744
 271 012e 2404     		lsls	r4, r4, #16
 272 0130 240C     		lsrs	r4, r4, #16
 273 0132 A2F80C44 		strh	r4, [r2, #1036]	@ movhi
 274 0136 B2F80C44 		ldrh	r4, [r2, #1036]
 275 013a 6FEA4444 		mvn	r4, r4, lsl #17
 276 013e 6FEA5444 		mvn	r4, r4, lsr #17
 277 0142 A4B2     		uxth	r4, r4
 278 0144 A2F80C44 		strh	r4, [r2, #1036]	@ movhi
 279 0148 17E0     		b	.L24
 280              	.L23:
 281 014a 3E2C     		cmp	r4, #62
 282 014c 09D8     		bhi	.L25
 283 014e 6508     		lsrs	r5, r4, #1
 284 0150 14F0010F 		tst	r4, #1
 285 0154 00D0     		beq	.L26
 286 0156 0135     		adds	r5, r5, #1
 287              	.L26:
 288 0158 AD02     		lsls	r5, r5, #10
 289 015a ADB2     		uxth	r5, r5
 290 015c A2F80C54 		strh	r5, [r2, #1036]	@ movhi
 291 0160 0BE0     		b	.L24
 292              	.L25:
 293 0162 6509     		lsrs	r5, r4, #5
 294 0164 14F01F0F 		tst	r4, #31
 295 0168 00D1     		bne	.L27
 296 016a 013D     		subs	r5, r5, #1
 297              	.L27:
 298 016c 6FEAC564 		mvn	r4, r5, lsl #27
 299 0170 6FEA5444 		mvn	r4, r4, lsr #17
 300 0174 A4B2     		uxth	r4, r4
 301 0176 A2F80C44 		strh	r4, [r2, #1036]	@ movhi
 302              	.L24:
ARM GAS  /tmp/ccoaqWXd.s 			page 6


 303 017a 0C78     		ldrb	r4, [r1]	@ zero_extendqisi2
 304 017c 33F82420 		ldrh	r2, [r3, r4, lsl #2]
 305 0180 02F48042 		and	r2, r2, #16384
 306 0184 92B2     		uxth	r2, r2
 307 0186 62B1     		cbz	r2, .L28
 308 0188 33F82420 		ldrh	r2, [r3, r4, lsl #2]
 309 018c 92B2     		uxth	r2, r2
 310 018e 22F4E042 		bic	r2, r2, #28672
 311 0192 22F07002 		bic	r2, r2, #112
 312 0196 42F44042 		orr	r2, r2, #49152
 313 019a 42F08002 		orr	r2, r2, #128
 314 019e 23F82420 		strh	r2, [r3, r4, lsl #2]	@ movhi
 315              	.L28:
 316 01a2 0978     		ldrb	r1, [r1]	@ zero_extendqisi2
 317 01a4 33F82120 		ldrh	r2, [r3, r1, lsl #2]
 318 01a8 92B2     		uxth	r2, r2
 319 01aa 22F48042 		bic	r2, r2, #16384
 320 01ae 22F07002 		bic	r2, r2, #112
 321 01b2 82F44052 		eor	r2, r2, #12288
 322 01b6 42F40042 		orr	r2, r2, #32768
 323 01ba 42F08002 		orr	r2, r2, #128
 324 01be 23F82120 		strh	r2, [r3, r1, lsl #2]	@ movhi
 325 01c2 E1E0     		b	.L22
 326              	.L18:
 327 01c4 0C78     		ldrb	r4, [r1]	@ zero_extendqisi2
 328 01c6 33F82420 		ldrh	r2, [r3, r4, lsl #2]
 329 01ca 92B2     		uxth	r2, r2
 330 01cc 22F4E042 		bic	r2, r2, #28672
 331 01d0 22F07002 		bic	r2, r2, #112
 332 01d4 42F40142 		orr	r2, r2, #33024
 333 01d8 42F08002 		orr	r2, r2, #128
 334 01dc 23F82420 		strh	r2, [r3, r4, lsl #2]	@ movhi
 335 01e0 B3F85020 		ldrh	r2, [r3, #80]
 336 01e4 92B2     		uxth	r2, r2
 337 01e6 1A44     		add	r2, r2, r3
 338 01e8 0C78     		ldrb	r4, [r1]	@ zero_extendqisi2
 339 01ea 02EB0412 		add	r2, r2, r4, lsl #4
 340 01ee 0C89     		ldrh	r4, [r1, #8]
 341 01f0 24F00104 		bic	r4, r4, #1
 342 01f4 A4B2     		uxth	r4, r4
 343 01f6 A2F80044 		strh	r4, [r2, #1024]	@ movhi
 344 01fa B3F85020 		ldrh	r2, [r3, #80]
 345 01fe 92B2     		uxth	r2, r2
 346 0200 1A44     		add	r2, r2, r3
 347 0202 0C78     		ldrb	r4, [r1]	@ zero_extendqisi2
 348 0204 02EB0412 		add	r2, r2, r4, lsl #4
 349 0208 4C89     		ldrh	r4, [r1, #10]
 350 020a 24F00104 		bic	r4, r4, #1
 351 020e A4B2     		uxth	r4, r4
 352 0210 A2F80844 		strh	r4, [r2, #1032]	@ movhi
 353 0214 4A78     		ldrb	r2, [r1, #1]	@ zero_extendqisi2
 354 0216 002A     		cmp	r2, #0
 355 0218 50D1     		bne	.L29
 356 021a 0C78     		ldrb	r4, [r1]	@ zero_extendqisi2
 357 021c 33F82420 		ldrh	r2, [r3, r4, lsl #2]
 358 0220 02F48042 		and	r2, r2, #16384
 359 0224 92B2     		uxth	r2, r2
ARM GAS  /tmp/ccoaqWXd.s 			page 7


 360 0226 62B1     		cbz	r2, .L30
 361 0228 33F82420 		ldrh	r2, [r3, r4, lsl #2]
 362 022c 92B2     		uxth	r2, r2
 363 022e 22F4E042 		bic	r2, r2, #28672
 364 0232 22F07002 		bic	r2, r2, #112
 365 0236 42F44042 		orr	r2, r2, #49152
 366 023a 42F08002 		orr	r2, r2, #128
 367 023e 23F82420 		strh	r2, [r3, r4, lsl #2]	@ movhi
 368              	.L30:
 369 0242 0C78     		ldrb	r4, [r1]	@ zero_extendqisi2
 370 0244 33F82420 		ldrh	r2, [r3, r4, lsl #2]
 371 0248 02F04002 		and	r2, r2, #64
 372 024c 92B2     		uxth	r2, r2
 373 024e 62B1     		cbz	r2, .L31
 374 0250 33F82420 		ldrh	r2, [r3, r4, lsl #2]
 375 0254 92B2     		uxth	r2, r2
 376 0256 22F4E042 		bic	r2, r2, #28672
 377 025a 22F07002 		bic	r2, r2, #112
 378 025e 42F40042 		orr	r2, r2, #32768
 379 0262 42F0C002 		orr	r2, r2, #192
 380 0266 23F82420 		strh	r2, [r3, r4, lsl #2]	@ movhi
 381              	.L31:
 382 026a 0C78     		ldrb	r4, [r1]	@ zero_extendqisi2
 383 026c 33F82420 		ldrh	r2, [r3, r4, lsl #2]
 384 0270 92B2     		uxth	r2, r2
 385 0272 22F4E042 		bic	r2, r2, #28672
 386 0276 22F07002 		bic	r2, r2, #112
 387 027a 42F40042 		orr	r2, r2, #32768
 388 027e 42F0C002 		orr	r2, r2, #192
 389 0282 23F82420 		strh	r2, [r3, r4, lsl #2]	@ movhi
 390 0286 0D78     		ldrb	r5, [r1]	@ zero_extendqisi2
 391 0288 33F82520 		ldrh	r2, [r3, r5, lsl #2]
 392 028c 92B2     		uxth	r2, r2
 393 028e 22F48042 		bic	r2, r2, #16384
 394 0292 22F07002 		bic	r2, r2, #112
 395 0296 82F44052 		eor	r2, r2, #12288
 396 029a 48F28004 		movw	r4, #32896
 397 029e 2243     		orrs	r2, r2, r4
 398 02a0 23F82520 		strh	r2, [r3, r5, lsl #2]	@ movhi
 399 02a4 0978     		ldrb	r1, [r1]	@ zero_extendqisi2
 400 02a6 33F82120 		ldrh	r2, [r3, r1, lsl #2]
 401 02aa 92B2     		uxth	r2, r2
 402 02ac 22F4E042 		bic	r2, r2, #28672
 403 02b0 22F04002 		bic	r2, r2, #64
 404 02b4 2243     		orrs	r2, r2, r4
 405 02b6 23F82120 		strh	r2, [r3, r1, lsl #2]	@ movhi
 406 02ba 65E0     		b	.L22
 407              	.L29:
 408 02bc 0C78     		ldrb	r4, [r1]	@ zero_extendqisi2
 409 02be 33F82420 		ldrh	r2, [r3, r4, lsl #2]
 410 02c2 02F48042 		and	r2, r2, #16384
 411 02c6 92B2     		uxth	r2, r2
 412 02c8 62B1     		cbz	r2, .L32
 413 02ca 33F82420 		ldrh	r2, [r3, r4, lsl #2]
 414 02ce 92B2     		uxth	r2, r2
 415 02d0 22F4E042 		bic	r2, r2, #28672
 416 02d4 22F07002 		bic	r2, r2, #112
ARM GAS  /tmp/ccoaqWXd.s 			page 8


 417 02d8 42F44042 		orr	r2, r2, #49152
 418 02dc 42F08002 		orr	r2, r2, #128
 419 02e0 23F82420 		strh	r2, [r3, r4, lsl #2]	@ movhi
 420              	.L32:
 421 02e4 0C78     		ldrb	r4, [r1]	@ zero_extendqisi2
 422 02e6 33F82420 		ldrh	r2, [r3, r4, lsl #2]
 423 02ea 02F04002 		and	r2, r2, #64
 424 02ee 92B2     		uxth	r2, r2
 425 02f0 62B1     		cbz	r2, .L33
 426 02f2 33F82420 		ldrh	r2, [r3, r4, lsl #2]
 427 02f6 92B2     		uxth	r2, r2
 428 02f8 22F4E042 		bic	r2, r2, #28672
 429 02fc 22F07002 		bic	r2, r2, #112
 430 0300 42F40042 		orr	r2, r2, #32768
 431 0304 42F0C002 		orr	r2, r2, #192
 432 0308 23F82420 		strh	r2, [r3, r4, lsl #2]	@ movhi
 433              	.L33:
 434 030c 0C78     		ldrb	r4, [r1]	@ zero_extendqisi2
 435 030e 33F82420 		ldrh	r2, [r3, r4, lsl #2]
 436 0312 92B2     		uxth	r2, r2
 437 0314 22F4E042 		bic	r2, r2, #28672
 438 0318 22F07002 		bic	r2, r2, #112
 439 031c 42F44042 		orr	r2, r2, #49152
 440 0320 42F08002 		orr	r2, r2, #128
 441 0324 23F82420 		strh	r2, [r3, r4, lsl #2]	@ movhi
 442 0328 CA78     		ldrb	r2, [r1, #3]	@ zero_extendqisi2
 443 032a 012A     		cmp	r2, #1
 444 032c 10D0     		beq	.L34
 445 032e 0C78     		ldrb	r4, [r1]	@ zero_extendqisi2
 446 0330 33F82420 		ldrh	r2, [r3, r4, lsl #2]
 447 0334 92B2     		uxth	r2, r2
 448 0336 22F4E042 		bic	r2, r2, #28672
 449 033a 22F04002 		bic	r2, r2, #64
 450 033e 82F02002 		eor	r2, r2, #32
 451 0342 42F40042 		orr	r2, r2, #32768
 452 0346 42F08002 		orr	r2, r2, #128
 453 034a 23F82420 		strh	r2, [r3, r4, lsl #2]	@ movhi
 454 034e 0DE0     		b	.L35
 455              	.L34:
 456 0350 0C78     		ldrb	r4, [r1]	@ zero_extendqisi2
 457 0352 33F82420 		ldrh	r2, [r3, r4, lsl #2]
 458 0356 92B2     		uxth	r2, r2
 459 0358 22F4E042 		bic	r2, r2, #28672
 460 035c 22F04002 		bic	r2, r2, #64
 461 0360 42F40042 		orr	r2, r2, #32768
 462 0364 42F08002 		orr	r2, r2, #128
 463 0368 23F82420 		strh	r2, [r3, r4, lsl #2]	@ movhi
 464              	.L35:
 465 036c 0978     		ldrb	r1, [r1]	@ zero_extendqisi2
 466 036e 33F82120 		ldrh	r2, [r3, r1, lsl #2]
 467 0372 92B2     		uxth	r2, r2
 468 0374 22F48042 		bic	r2, r2, #16384
 469 0378 22F07002 		bic	r2, r2, #112
 470 037c 42F40042 		orr	r2, r2, #32768
 471 0380 42F08002 		orr	r2, r2, #128
 472 0384 23F82120 		strh	r2, [r3, r1, lsl #2]	@ movhi
 473              	.L22:
ARM GAS  /tmp/ccoaqWXd.s 			page 9


 474 0388 30BC     		pop	{r4, r5}
 475 038a 7047     		bx	lr
 477              		.section	.text.USB_DeactivateEndpoint,"ax",%progbits
 478              		.align	2
 479              		.global	USB_DeactivateEndpoint
 480              		.thumb
 481              		.thumb_func
 483              	USB_DeactivateEndpoint:
 484              		@ args = 0, pretend = 0, frame = 0
 485              		@ frame_needed = 0, uses_anonymous_args = 0
 486              		@ link register save eliminated.
 487 0000 0B7B     		ldrb	r3, [r1, #12]	@ zero_extendqisi2
 488 0002 002B     		cmp	r3, #0
 489 0004 48D1     		bne	.L39
 490 0006 4B78     		ldrb	r3, [r1, #1]	@ zero_extendqisi2
 491 0008 1BB3     		cbz	r3, .L40
 492 000a 0A78     		ldrb	r2, [r1]	@ zero_extendqisi2
 493 000c 30F82230 		ldrh	r3, [r0, r2, lsl #2]
 494 0010 03F04003 		and	r3, r3, #64
 495 0014 9BB2     		uxth	r3, r3
 496 0016 63B1     		cbz	r3, .L41
 497 0018 30F82230 		ldrh	r3, [r0, r2, lsl #2]
 498 001c 9BB2     		uxth	r3, r3
 499 001e 23F4E043 		bic	r3, r3, #28672
 500 0022 23F07003 		bic	r3, r3, #112
 501 0026 43F40043 		orr	r3, r3, #32768
 502 002a 43F0C003 		orr	r3, r3, #192
 503 002e 20F82230 		strh	r3, [r0, r2, lsl #2]	@ movhi
 504              	.L41:
 505 0032 0A78     		ldrb	r2, [r1]	@ zero_extendqisi2
 506 0034 30F82230 		ldrh	r3, [r0, r2, lsl #2]
 507 0038 9BB2     		uxth	r3, r3
 508 003a 23F4E043 		bic	r3, r3, #28672
 509 003e 23F04003 		bic	r3, r3, #64
 510 0042 43F40043 		orr	r3, r3, #32768
 511 0046 43F08003 		orr	r3, r3, #128
 512 004a 20F82230 		strh	r3, [r0, r2, lsl #2]	@ movhi
 513              	.L50:
 514 004e 0020     		movs	r0, #0
 515 0050 7047     		bx	lr
 516              	.L40:
 517 0052 0A78     		ldrb	r2, [r1]	@ zero_extendqisi2
 518 0054 30F82230 		ldrh	r3, [r0, r2, lsl #2]
 519 0058 03F48043 		and	r3, r3, #16384
 520 005c 9BB2     		uxth	r3, r3
 521 005e 63B1     		cbz	r3, .L43
 522 0060 30F82230 		ldrh	r3, [r0, r2, lsl #2]
 523 0064 9BB2     		uxth	r3, r3
 524 0066 23F4E043 		bic	r3, r3, #28672
 525 006a 23F07003 		bic	r3, r3, #112
 526 006e 43F44043 		orr	r3, r3, #49152
 527 0072 43F08003 		orr	r3, r3, #128
 528 0076 20F82230 		strh	r3, [r0, r2, lsl #2]	@ movhi
 529              	.L43:
 530 007a 0A78     		ldrb	r2, [r1]	@ zero_extendqisi2
 531 007c 30F82230 		ldrh	r3, [r0, r2, lsl #2]
 532 0080 9BB2     		uxth	r3, r3
ARM GAS  /tmp/ccoaqWXd.s 			page 10


 533 0082 23F48043 		bic	r3, r3, #16384
 534 0086 23F07003 		bic	r3, r3, #112
 535 008a 43F40043 		orr	r3, r3, #32768
 536 008e 43F08003 		orr	r3, r3, #128
 537 0092 20F82230 		strh	r3, [r0, r2, lsl #2]	@ movhi
 538 0096 DAE7     		b	.L50
 539              	.L39:
 540 0098 10B4     		push	{r4}
 541 009a 4B78     		ldrb	r3, [r1, #1]	@ zero_extendqisi2
 542 009c 002B     		cmp	r3, #0
 543 009e 4ED1     		bne	.L44
 544 00a0 0A78     		ldrb	r2, [r1]	@ zero_extendqisi2
 545 00a2 30F82230 		ldrh	r3, [r0, r2, lsl #2]
 546 00a6 03F48043 		and	r3, r3, #16384
 547 00aa 9BB2     		uxth	r3, r3
 548 00ac 63B1     		cbz	r3, .L45
 549 00ae 30F82230 		ldrh	r3, [r0, r2, lsl #2]
 550 00b2 9BB2     		uxth	r3, r3
 551 00b4 23F4E043 		bic	r3, r3, #28672
 552 00b8 23F07003 		bic	r3, r3, #112
 553 00bc 43F44043 		orr	r3, r3, #49152
 554 00c0 43F08003 		orr	r3, r3, #128
 555 00c4 20F82230 		strh	r3, [r0, r2, lsl #2]	@ movhi
 556              	.L45:
 557 00c8 0A78     		ldrb	r2, [r1]	@ zero_extendqisi2
 558 00ca 30F82230 		ldrh	r3, [r0, r2, lsl #2]
 559 00ce 03F04003 		and	r3, r3, #64
 560 00d2 9BB2     		uxth	r3, r3
 561 00d4 63B1     		cbz	r3, .L46
 562 00d6 30F82230 		ldrh	r3, [r0, r2, lsl #2]
 563 00da 9BB2     		uxth	r3, r3
 564 00dc 23F4E043 		bic	r3, r3, #28672
 565 00e0 23F07003 		bic	r3, r3, #112
 566 00e4 43F40043 		orr	r3, r3, #32768
 567 00e8 43F0C003 		orr	r3, r3, #192
 568 00ec 20F82230 		strh	r3, [r0, r2, lsl #2]	@ movhi
 569              	.L46:
 570 00f0 0A78     		ldrb	r2, [r1]	@ zero_extendqisi2
 571 00f2 30F82230 		ldrh	r3, [r0, r2, lsl #2]
 572 00f6 9BB2     		uxth	r3, r3
 573 00f8 23F4E043 		bic	r3, r3, #28672
 574 00fc 23F07003 		bic	r3, r3, #112
 575 0100 43F40043 		orr	r3, r3, #32768
 576 0104 43F0C003 		orr	r3, r3, #192
 577 0108 20F82230 		strh	r3, [r0, r2, lsl #2]	@ movhi
 578 010c 0C78     		ldrb	r4, [r1]	@ zero_extendqisi2
 579 010e 30F82430 		ldrh	r3, [r0, r4, lsl #2]
 580 0112 9BB2     		uxth	r3, r3
 581 0114 23F48043 		bic	r3, r3, #16384
 582 0118 23F07003 		bic	r3, r3, #112
 583 011c 48F28002 		movw	r2, #32896
 584 0120 1343     		orrs	r3, r3, r2
 585 0122 20F82430 		strh	r3, [r0, r4, lsl #2]	@ movhi
 586 0126 0978     		ldrb	r1, [r1]	@ zero_extendqisi2
 587 0128 30F82130 		ldrh	r3, [r0, r1, lsl #2]
 588 012c 9BB2     		uxth	r3, r3
 589 012e 23F4E043 		bic	r3, r3, #28672
ARM GAS  /tmp/ccoaqWXd.s 			page 11


 590 0132 23F04003 		bic	r3, r3, #64
 591 0136 1343     		orrs	r3, r3, r2
 592 0138 20F82130 		strh	r3, [r0, r1, lsl #2]	@ movhi
 593 013c 4DE0     		b	.L42
 594              	.L44:
 595 013e 0A78     		ldrb	r2, [r1]	@ zero_extendqisi2
 596 0140 30F82230 		ldrh	r3, [r0, r2, lsl #2]
 597 0144 03F48043 		and	r3, r3, #16384
 598 0148 9BB2     		uxth	r3, r3
 599 014a 63B1     		cbz	r3, .L47
 600 014c 30F82230 		ldrh	r3, [r0, r2, lsl #2]
 601 0150 9BB2     		uxth	r3, r3
 602 0152 23F4E043 		bic	r3, r3, #28672
 603 0156 23F07003 		bic	r3, r3, #112
 604 015a 43F44043 		orr	r3, r3, #49152
 605 015e 43F08003 		orr	r3, r3, #128
 606 0162 20F82230 		strh	r3, [r0, r2, lsl #2]	@ movhi
 607              	.L47:
 608 0166 0A78     		ldrb	r2, [r1]	@ zero_extendqisi2
 609 0168 30F82230 		ldrh	r3, [r0, r2, lsl #2]
 610 016c 03F04003 		and	r3, r3, #64
 611 0170 9BB2     		uxth	r3, r3
 612 0172 63B1     		cbz	r3, .L48
 613 0174 30F82230 		ldrh	r3, [r0, r2, lsl #2]
 614 0178 9BB2     		uxth	r3, r3
 615 017a 23F4E043 		bic	r3, r3, #28672
 616 017e 23F07003 		bic	r3, r3, #112
 617 0182 43F40043 		orr	r3, r3, #32768
 618 0186 43F0C003 		orr	r3, r3, #192
 619 018a 20F82230 		strh	r3, [r0, r2, lsl #2]	@ movhi
 620              	.L48:
 621 018e 0A78     		ldrb	r2, [r1]	@ zero_extendqisi2
 622 0190 30F82230 		ldrh	r3, [r0, r2, lsl #2]
 623 0194 9BB2     		uxth	r3, r3
 624 0196 23F4E043 		bic	r3, r3, #28672
 625 019a 23F07003 		bic	r3, r3, #112
 626 019e 43F44043 		orr	r3, r3, #49152
 627 01a2 43F08003 		orr	r3, r3, #128
 628 01a6 20F82230 		strh	r3, [r0, r2, lsl #2]	@ movhi
 629 01aa 0C78     		ldrb	r4, [r1]	@ zero_extendqisi2
 630 01ac 30F82430 		ldrh	r3, [r0, r4, lsl #2]
 631 01b0 9BB2     		uxth	r3, r3
 632 01b2 23F4E043 		bic	r3, r3, #28672
 633 01b6 23F04003 		bic	r3, r3, #64
 634 01ba 48F28002 		movw	r2, #32896
 635 01be 1343     		orrs	r3, r3, r2
 636 01c0 20F82430 		strh	r3, [r0, r4, lsl #2]	@ movhi
 637 01c4 0978     		ldrb	r1, [r1]	@ zero_extendqisi2
 638 01c6 30F82130 		ldrh	r3, [r0, r1, lsl #2]
 639 01ca 9BB2     		uxth	r3, r3
 640 01cc 23F48043 		bic	r3, r3, #16384
 641 01d0 23F07003 		bic	r3, r3, #112
 642 01d4 1343     		orrs	r3, r3, r2
 643 01d6 20F82130 		strh	r3, [r0, r1, lsl #2]	@ movhi
 644              	.L42:
 645 01da 0020     		movs	r0, #0
 646 01dc 5DF8044B 		ldr	r4, [sp], #4
ARM GAS  /tmp/ccoaqWXd.s 			page 12


 647 01e0 7047     		bx	lr
 649 01e2 00BF     		.section	.text.USB_WritePacket,"ax",%progbits
 650              		.align	2
 651              		.global	USB_WritePacket
 652              		.thumb
 653              		.thumb_func
 655              	USB_WritePacket:
 656              		@ args = 0, pretend = 0, frame = 0
 657              		@ frame_needed = 0, uses_anonymous_args = 0
 658              		@ link register save eliminated.
 659 0000 0020     		movs	r0, #0
 660 0002 7047     		bx	lr
 662              		.section	.text.USB_ReadPacket,"ax",%progbits
 663              		.align	2
 664              		.global	USB_ReadPacket
 665              		.thumb
 666              		.thumb_func
 668              	USB_ReadPacket:
 669              		@ args = 0, pretend = 0, frame = 0
 670              		@ frame_needed = 0, uses_anonymous_args = 0
 671              		@ link register save eliminated.
 672 0000 0020     		movs	r0, #0
 673 0002 7047     		bx	lr
 675              		.section	.text.USB_EPSetStall,"ax",%progbits
 676              		.align	2
 677              		.global	USB_EPSetStall
 678              		.thumb
 679              		.thumb_func
 681              	USB_EPSetStall:
 682              		@ args = 0, pretend = 0, frame = 0
 683              		@ frame_needed = 0, uses_anonymous_args = 0
 684              		@ link register save eliminated.
 685 0000 4B78     		ldrb	r3, [r1, #1]	@ zero_extendqisi2
 686 0002 83B1     		cbz	r3, .L54
 687 0004 0A78     		ldrb	r2, [r1]	@ zero_extendqisi2
 688 0006 30F82230 		ldrh	r3, [r0, r2, lsl #2]
 689 000a 9BB2     		uxth	r3, r3
 690 000c 23F4E043 		bic	r3, r3, #28672
 691 0010 23F04003 		bic	r3, r3, #64
 692 0014 83F01003 		eor	r3, r3, #16
 693 0018 43F40043 		orr	r3, r3, #32768
 694 001c 43F08003 		orr	r3, r3, #128
 695 0020 20F82230 		strh	r3, [r0, r2, lsl #2]	@ movhi
 696 0024 0FE0     		b	.L55
 697              	.L54:
 698 0026 0A78     		ldrb	r2, [r1]	@ zero_extendqisi2
 699 0028 30F82230 		ldrh	r3, [r0, r2, lsl #2]
 700 002c 9BB2     		uxth	r3, r3
 701 002e 23F48043 		bic	r3, r3, #16384
 702 0032 23F07003 		bic	r3, r3, #112
 703 0036 83F48053 		eor	r3, r3, #4096
 704 003a 43F40043 		orr	r3, r3, #32768
 705 003e 43F08003 		orr	r3, r3, #128
 706 0042 20F82230 		strh	r3, [r0, r2, lsl #2]	@ movhi
 707              	.L55:
 708 0046 0020     		movs	r0, #0
 709 0048 7047     		bx	lr
ARM GAS  /tmp/ccoaqWXd.s 			page 13


 711 004a 00BF     		.section	.text.USB_EPClearStall,"ax",%progbits
 712              		.align	2
 713              		.global	USB_EPClearStall
 714              		.thumb
 715              		.thumb_func
 717              	USB_EPClearStall:
 718              		@ args = 0, pretend = 0, frame = 0
 719              		@ frame_needed = 0, uses_anonymous_args = 0
 720              		@ link register save eliminated.
 721 0000 0B7B     		ldrb	r3, [r1, #12]	@ zero_extendqisi2
 722 0002 002B     		cmp	r3, #0
 723 0004 4DD1     		bne	.L57
 724 0006 4B78     		ldrb	r3, [r1, #1]	@ zero_extendqisi2
 725 0008 3BB3     		cbz	r3, .L58
 726 000a 0A78     		ldrb	r2, [r1]	@ zero_extendqisi2
 727 000c 30F82230 		ldrh	r3, [r0, r2, lsl #2]
 728 0010 03F04003 		and	r3, r3, #64
 729 0014 9BB2     		uxth	r3, r3
 730 0016 63B1     		cbz	r3, .L59
 731 0018 30F82230 		ldrh	r3, [r0, r2, lsl #2]
 732 001c 9BB2     		uxth	r3, r3
 733 001e 23F4E043 		bic	r3, r3, #28672
 734 0022 23F07003 		bic	r3, r3, #112
 735 0026 43F40043 		orr	r3, r3, #32768
 736 002a 43F0C003 		orr	r3, r3, #192
 737 002e 20F82230 		strh	r3, [r0, r2, lsl #2]	@ movhi
 738              	.L59:
 739 0032 CB78     		ldrb	r3, [r1, #3]	@ zero_extendqisi2
 740 0034 012B     		cmp	r3, #1
 741 0036 34D0     		beq	.L57
 742 0038 0A78     		ldrb	r2, [r1]	@ zero_extendqisi2
 743 003a 30F82230 		ldrh	r3, [r0, r2, lsl #2]
 744 003e 9BB2     		uxth	r3, r3
 745 0040 23F4E043 		bic	r3, r3, #28672
 746 0044 23F04003 		bic	r3, r3, #64
 747 0048 83F02003 		eor	r3, r3, #32
 748 004c 43F40043 		orr	r3, r3, #32768
 749 0050 43F08003 		orr	r3, r3, #128
 750 0054 20F82230 		strh	r3, [r0, r2, lsl #2]	@ movhi
 751 0058 23E0     		b	.L57
 752              	.L58:
 753 005a 0A78     		ldrb	r2, [r1]	@ zero_extendqisi2
 754 005c 30F82230 		ldrh	r3, [r0, r2, lsl #2]
 755 0060 03F48043 		and	r3, r3, #16384
 756 0064 9BB2     		uxth	r3, r3
 757 0066 63B1     		cbz	r3, .L60
 758 0068 30F82230 		ldrh	r3, [r0, r2, lsl #2]
 759 006c 9BB2     		uxth	r3, r3
 760 006e 23F4E043 		bic	r3, r3, #28672
 761 0072 23F07003 		bic	r3, r3, #112
 762 0076 43F44043 		orr	r3, r3, #49152
 763 007a 43F08003 		orr	r3, r3, #128
 764 007e 20F82230 		strh	r3, [r0, r2, lsl #2]	@ movhi
 765              	.L60:
 766 0082 0A78     		ldrb	r2, [r1]	@ zero_extendqisi2
 767 0084 30F82230 		ldrh	r3, [r0, r2, lsl #2]
 768 0088 9BB2     		uxth	r3, r3
ARM GAS  /tmp/ccoaqWXd.s 			page 14


 769 008a 23F48043 		bic	r3, r3, #16384
 770 008e 23F07003 		bic	r3, r3, #112
 771 0092 83F44053 		eor	r3, r3, #12288
 772 0096 43F40043 		orr	r3, r3, #32768
 773 009a 43F08003 		orr	r3, r3, #128
 774 009e 20F82230 		strh	r3, [r0, r2, lsl #2]	@ movhi
 775              	.L57:
 776 00a2 0020     		movs	r0, #0
 777 00a4 7047     		bx	lr
 779 00a6 00BF     		.section	.text.USB_StopDevice,"ax",%progbits
 780              		.align	2
 781              		.global	USB_StopDevice
 782              		.thumb
 783              		.thumb_func
 785              	USB_StopDevice:
 786              		@ args = 0, pretend = 0, frame = 0
 787              		@ frame_needed = 0, uses_anonymous_args = 0
 788              		@ link register save eliminated.
 789 0000 0346     		mov	r3, r0
 790 0002 0122     		movs	r2, #1
 791 0004 A0F84020 		strh	r2, [r0, #64]	@ movhi
 792 0008 0020     		movs	r0, #0
 793 000a A3F84400 		strh	r0, [r3, #68]	@ movhi
 794 000e 0322     		movs	r2, #3
 795 0010 A3F84020 		strh	r2, [r3, #64]	@ movhi
 796 0014 7047     		bx	lr
 798 0016 00BF     		.section	.text.USB_SetDevAddress,"ax",%progbits
 799              		.align	2
 800              		.global	USB_SetDevAddress
 801              		.thumb
 802              		.thumb_func
 804              	USB_SetDevAddress:
 805              		@ args = 0, pretend = 0, frame = 0
 806              		@ frame_needed = 0, uses_anonymous_args = 0
 807              		@ link register save eliminated.
 808 0000 11B9     		cbnz	r1, .L63
 809 0002 8023     		movs	r3, #128
 810 0004 A0F84C30 		strh	r3, [r0, #76]	@ movhi
 811              	.L63:
 812 0008 0020     		movs	r0, #0
 813 000a 7047     		bx	lr
 815              		.section	.text.USB_DevConnect,"ax",%progbits
 816              		.align	2
 817              		.global	USB_DevConnect
 818              		.thumb
 819              		.thumb_func
 821              	USB_DevConnect:
 822              		@ args = 0, pretend = 0, frame = 0
 823              		@ frame_needed = 0, uses_anonymous_args = 0
 824              		@ link register save eliminated.
 825 0000 0020     		movs	r0, #0
 826 0002 7047     		bx	lr
 828              		.section	.text.USB_DevDisconnect,"ax",%progbits
 829              		.align	2
 830              		.global	USB_DevDisconnect
 831              		.thumb
 832              		.thumb_func
ARM GAS  /tmp/ccoaqWXd.s 			page 15


 834              	USB_DevDisconnect:
 835              		@ args = 0, pretend = 0, frame = 0
 836              		@ frame_needed = 0, uses_anonymous_args = 0
 837              		@ link register save eliminated.
 838 0000 0020     		movs	r0, #0
 839 0002 7047     		bx	lr
 841              		.section	.text.USB_ReadInterrupts,"ax",%progbits
 842              		.align	2
 843              		.global	USB_ReadInterrupts
 844              		.thumb
 845              		.thumb_func
 847              	USB_ReadInterrupts:
 848              		@ args = 0, pretend = 0, frame = 0
 849              		@ frame_needed = 0, uses_anonymous_args = 0
 850              		@ link register save eliminated.
 851 0000 B0F84400 		ldrh	r0, [r0, #68]
 852 0004 80B2     		uxth	r0, r0
 853 0006 7047     		bx	lr
 855              		.section	.text.USB_ReadDevAllOutEpInterrupt,"ax",%progbits
 856              		.align	2
 857              		.global	USB_ReadDevAllOutEpInterrupt
 858              		.thumb
 859              		.thumb_func
 861              	USB_ReadDevAllOutEpInterrupt:
 862              		@ args = 0, pretend = 0, frame = 0
 863              		@ frame_needed = 0, uses_anonymous_args = 0
 864              		@ link register save eliminated.
 865 0000 0020     		movs	r0, #0
 866 0002 7047     		bx	lr
 868              		.section	.text.USB_ReadDevAllInEpInterrupt,"ax",%progbits
 869              		.align	2
 870              		.global	USB_ReadDevAllInEpInterrupt
 871              		.thumb
 872              		.thumb_func
 874              	USB_ReadDevAllInEpInterrupt:
 875              		@ args = 0, pretend = 0, frame = 0
 876              		@ frame_needed = 0, uses_anonymous_args = 0
 877              		@ link register save eliminated.
 878 0000 0020     		movs	r0, #0
 879 0002 7047     		bx	lr
 881              		.section	.text.USB_ReadDevOutEPInterrupt,"ax",%progbits
 882              		.align	2
 883              		.global	USB_ReadDevOutEPInterrupt
 884              		.thumb
 885              		.thumb_func
 887              	USB_ReadDevOutEPInterrupt:
 888              		@ args = 0, pretend = 0, frame = 0
 889              		@ frame_needed = 0, uses_anonymous_args = 0
 890              		@ link register save eliminated.
 891 0000 0020     		movs	r0, #0
 892 0002 7047     		bx	lr
 894              		.section	.text.USB_ReadDevInEPInterrupt,"ax",%progbits
 895              		.align	2
 896              		.global	USB_ReadDevInEPInterrupt
 897              		.thumb
 898              		.thumb_func
 900              	USB_ReadDevInEPInterrupt:
ARM GAS  /tmp/ccoaqWXd.s 			page 16


 901              		@ args = 0, pretend = 0, frame = 0
 902              		@ frame_needed = 0, uses_anonymous_args = 0
 903              		@ link register save eliminated.
 904 0000 0020     		movs	r0, #0
 905 0002 7047     		bx	lr
 907              		.section	.text.USB_ClearInterrupts,"ax",%progbits
 908              		.align	2
 909              		.global	USB_ClearInterrupts
 910              		.thumb
 911              		.thumb_func
 913              	USB_ClearInterrupts:
 914              		@ args = 0, pretend = 0, frame = 0
 915              		@ frame_needed = 0, uses_anonymous_args = 0
 916              		@ link register save eliminated.
 917 0000 7047     		bx	lr
 919 0002 00BF     		.section	.text.USB_EP0_OutStart,"ax",%progbits
 920              		.align	2
 921              		.global	USB_EP0_OutStart
 922              		.thumb
 923              		.thumb_func
 925              	USB_EP0_OutStart:
 926              		@ args = 0, pretend = 0, frame = 0
 927              		@ frame_needed = 0, uses_anonymous_args = 0
 928              		@ link register save eliminated.
 929 0000 0020     		movs	r0, #0
 930 0002 7047     		bx	lr
 932              		.section	.text.USB_ActivateRemoteWakeup,"ax",%progbits
 933              		.align	2
 934              		.global	USB_ActivateRemoteWakeup
 935              		.thumb
 936              		.thumb_func
 938              	USB_ActivateRemoteWakeup:
 939              		@ args = 0, pretend = 0, frame = 0
 940              		@ frame_needed = 0, uses_anonymous_args = 0
 941              		@ link register save eliminated.
 942 0000 B0F84030 		ldrh	r3, [r0, #64]
 943 0004 9BB2     		uxth	r3, r3
 944 0006 43F01003 		orr	r3, r3, #16
 945 000a A0F84030 		strh	r3, [r0, #64]	@ movhi
 946 000e 0020     		movs	r0, #0
 947 0010 7047     		bx	lr
 949 0012 00BF     		.section	.text.USB_DeActivateRemoteWakeup,"ax",%progbits
 950              		.align	2
 951              		.global	USB_DeActivateRemoteWakeup
 952              		.thumb
 953              		.thumb_func
 955              	USB_DeActivateRemoteWakeup:
 956              		@ args = 0, pretend = 0, frame = 0
 957              		@ frame_needed = 0, uses_anonymous_args = 0
 958              		@ link register save eliminated.
 959 0000 B0F84030 		ldrh	r3, [r0, #64]
 960 0004 23F01003 		bic	r3, r3, #16
 961 0008 1B04     		lsls	r3, r3, #16
 962 000a 1B0C     		lsrs	r3, r3, #16
 963 000c A0F84030 		strh	r3, [r0, #64]	@ movhi
 964 0010 0020     		movs	r0, #0
 965 0012 7047     		bx	lr
ARM GAS  /tmp/ccoaqWXd.s 			page 17


 967              		.section	.text.USB_WritePMA,"ax",%progbits
 968              		.align	2
 969              		.global	USB_WritePMA
 970              		.thumb
 971              		.thumb_func
 973              	USB_WritePMA:
 974              		@ args = 0, pretend = 0, frame = 0
 975              		@ frame_needed = 0, uses_anonymous_args = 0
 976              		@ link register save eliminated.
 977 0000 10B4     		push	{r4}
 978 0002 0133     		adds	r3, r3, #1
 979 0004 5B08     		lsrs	r3, r3, #1
 980 0006 00EB4202 		add	r2, r0, r2, lsl #1
 981 000a 02F58062 		add	r2, r2, #1024
 982 000e 07E0     		b	.L76
 983              	.L77:
 984 0010 0C78     		ldrb	r4, [r1]	@ zero_extendqisi2
 985 0012 4878     		ldrb	r0, [r1, #1]	@ zero_extendqisi2
 986 0014 44EA0024 		orr	r4, r4, r0, lsl #8
 987 0018 22F8044B 		strh	r4, [r2], #4	@ movhi
 988 001c 0231     		adds	r1, r1, #2
 989 001e 013B     		subs	r3, r3, #1
 990              	.L76:
 991 0020 002B     		cmp	r3, #0
 992 0022 F5D1     		bne	.L77
 993 0024 5DF8044B 		ldr	r4, [sp], #4
 994 0028 7047     		bx	lr
 996 002a 00BF     		.section	.text.USB_EPStartXfer,"ax",%progbits
 997              		.align	2
 998              		.global	USB_EPStartXfer
 999              		.thumb
 1000              		.thumb_func
 1002              	USB_EPStartXfer:
 1003              		@ args = 0, pretend = 0, frame = 0
 1004              		@ frame_needed = 0, uses_anonymous_args = 0
 1005 0000 70B5     		push	{r4, r5, r6, lr}
 1006 0002 4A78     		ldrb	r2, [r1, #1]	@ zero_extendqisi2
 1007 0004 012A     		cmp	r2, #1
 1008 0006 40F0DC80 		bne	.L80
 1009 000a 8B69     		ldr	r3, [r1, #24]
 1010 000c 0C69     		ldr	r4, [r1, #16]
 1011 000e A342     		cmp	r3, r4
 1012 0010 03D9     		bls	.L81
 1013 0012 1B1B     		subs	r3, r3, r4
 1014 0014 8B61     		str	r3, [r1, #24]
 1015 0016 2346     		mov	r3, r4
 1016 0018 01E0     		b	.L82
 1017              	.L81:
 1018 001a 0024     		movs	r4, #0
 1019 001c 8C61     		str	r4, [r1, #24]
 1020              	.L82:
 1021 001e 0D46     		mov	r5, r1
 1022 0020 0446     		mov	r4, r0
 1023 0022 097B     		ldrb	r1, [r1, #12]	@ zero_extendqisi2
 1024 0024 79B9     		cbnz	r1, .L83
 1025 0026 9EB2     		uxth	r6, r3
 1026 0028 6969     		ldr	r1, [r5, #20]
ARM GAS  /tmp/ccoaqWXd.s 			page 18


 1027 002a EA88     		ldrh	r2, [r5, #6]
 1028 002c 3346     		mov	r3, r6
 1029 002e FFF7FEFF 		bl	USB_WritePMA
 1030 0032 B4F85030 		ldrh	r3, [r4, #80]
 1031 0036 9BB2     		uxth	r3, r3
 1032 0038 2344     		add	r3, r3, r4
 1033 003a 2A78     		ldrb	r2, [r5]	@ zero_extendqisi2
 1034 003c 03EB0213 		add	r3, r3, r2, lsl #4
 1035 0040 A3F80464 		strh	r6, [r3, #1028]	@ movhi
 1036 0044 ACE0     		b	.L84
 1037              	.L83:
 1038 0046 2878     		ldrb	r0, [r5]	@ zero_extendqisi2
 1039 0048 34F82010 		ldrh	r1, [r4, r0, lsl #2]
 1040 004c 01F04001 		and	r1, r1, #64
 1041 0050 89B2     		uxth	r1, r1
 1042 0052 0029     		cmp	r1, #0
 1043 0054 3FD0     		beq	.L85
 1044 0056 8ABB     		cbnz	r2, .L86
 1045 0058 B4F85020 		ldrh	r2, [r4, #80]
 1046 005c 92B2     		uxth	r2, r2
 1047 005e 2244     		add	r2, r2, r4
 1048 0060 02EB0010 		add	r0, r2, r0, lsl #4
 1049 0064 8BB9     		cbnz	r3, .L87
 1050 0066 B0F80C24 		ldrh	r2, [r0, #1036]
 1051 006a 22F4F842 		bic	r2, r2, #31744
 1052 006e 1204     		lsls	r2, r2, #16
 1053 0070 120C     		lsrs	r2, r2, #16
 1054 0072 A0F80C24 		strh	r2, [r0, #1036]	@ movhi
 1055 0076 B0F80C24 		ldrh	r2, [r0, #1036]
 1056 007a 6FEA4242 		mvn	r2, r2, lsl #17
 1057 007e 6FEA5242 		mvn	r2, r2, lsr #17
 1058 0082 92B2     		uxth	r2, r2
 1059 0084 A0F80C24 		strh	r2, [r0, #1036]	@ movhi
 1060 0088 23E0     		b	.L88
 1061              	.L87:
 1062 008a 3E2B     		cmp	r3, #62
 1063 008c 09D8     		bhi	.L89
 1064 008e 5A08     		lsrs	r2, r3, #1
 1065 0090 13F0010F 		tst	r3, #1
 1066 0094 00D0     		beq	.L90
 1067 0096 0132     		adds	r2, r2, #1
 1068              	.L90:
 1069 0098 9202     		lsls	r2, r2, #10
 1070 009a 92B2     		uxth	r2, r2
 1071 009c A0F80C24 		strh	r2, [r0, #1036]	@ movhi
 1072 00a0 17E0     		b	.L88
 1073              	.L89:
 1074 00a2 5A09     		lsrs	r2, r3, #5
 1075 00a4 13F01F0F 		tst	r3, #31
 1076 00a8 00D1     		bne	.L91
 1077 00aa 013A     		subs	r2, r2, #1
 1078              	.L91:
 1079 00ac 6FEAC262 		mvn	r2, r2, lsl #27
 1080 00b0 6FEA5242 		mvn	r2, r2, lsr #17
 1081 00b4 92B2     		uxth	r2, r2
 1082 00b6 A0F80C24 		strh	r2, [r0, #1036]	@ movhi
 1083 00ba 0AE0     		b	.L88
ARM GAS  /tmp/ccoaqWXd.s 			page 19


 1084              	.L86:
 1085 00bc 012A     		cmp	r2, #1
 1086 00be 08D1     		bne	.L88
 1087 00c0 B4F85020 		ldrh	r2, [r4, #80]
 1088 00c4 92B2     		uxth	r2, r2
 1089 00c6 2244     		add	r2, r2, r4
 1090 00c8 02EB0010 		add	r0, r2, r0, lsl #4
 1091 00cc 9AB2     		uxth	r2, r3
 1092 00ce A0F80C24 		strh	r2, [r0, #1036]	@ movhi
 1093              	.L88:
 1094 00d2 6A89     		ldrh	r2, [r5, #10]
 1095 00d4 3EE0     		b	.L92
 1096              	.L85:
 1097 00d6 8ABB     		cbnz	r2, .L93
 1098 00d8 B4F85020 		ldrh	r2, [r4, #80]
 1099 00dc 92B2     		uxth	r2, r2
 1100 00de 2244     		add	r2, r2, r4
 1101 00e0 02EB0010 		add	r0, r2, r0, lsl #4
 1102 00e4 8BB9     		cbnz	r3, .L94
 1103 00e6 B0F80424 		ldrh	r2, [r0, #1028]
 1104 00ea 22F4F842 		bic	r2, r2, #31744
 1105 00ee 1204     		lsls	r2, r2, #16
 1106 00f0 120C     		lsrs	r2, r2, #16
 1107 00f2 A0F80424 		strh	r2, [r0, #1028]	@ movhi
 1108 00f6 B0F80424 		ldrh	r2, [r0, #1028]
 1109 00fa 6FEA4242 		mvn	r2, r2, lsl #17
 1110 00fe 6FEA5242 		mvn	r2, r2, lsr #17
 1111 0102 92B2     		uxth	r2, r2
 1112 0104 A0F80424 		strh	r2, [r0, #1028]	@ movhi
 1113 0108 23E0     		b	.L95
 1114              	.L94:
 1115 010a 3E2B     		cmp	r3, #62
 1116 010c 09D8     		bhi	.L96
 1117 010e 5A08     		lsrs	r2, r3, #1
 1118 0110 13F0010F 		tst	r3, #1
 1119 0114 00D0     		beq	.L97
 1120 0116 0132     		adds	r2, r2, #1
 1121              	.L97:
 1122 0118 9202     		lsls	r2, r2, #10
 1123 011a 92B2     		uxth	r2, r2
 1124 011c A0F80424 		strh	r2, [r0, #1028]	@ movhi
 1125 0120 17E0     		b	.L95
 1126              	.L96:
 1127 0122 5A09     		lsrs	r2, r3, #5
 1128 0124 13F01F0F 		tst	r3, #31
 1129 0128 00D1     		bne	.L98
 1130 012a 013A     		subs	r2, r2, #1
 1131              	.L98:
 1132 012c 6FEAC262 		mvn	r2, r2, lsl #27
 1133 0130 6FEA5242 		mvn	r2, r2, lsr #17
 1134 0134 92B2     		uxth	r2, r2
 1135 0136 A0F80424 		strh	r2, [r0, #1028]	@ movhi
 1136 013a 0AE0     		b	.L95
 1137              	.L93:
 1138 013c 012A     		cmp	r2, #1
 1139 013e 08D1     		bne	.L95
 1140 0140 B4F85020 		ldrh	r2, [r4, #80]
ARM GAS  /tmp/ccoaqWXd.s 			page 20


 1141 0144 92B2     		uxth	r2, r2
 1142 0146 2244     		add	r2, r2, r4
 1143 0148 02EB0010 		add	r0, r2, r0, lsl #4
 1144 014c 9AB2     		uxth	r2, r3
 1145 014e A0F80424 		strh	r2, [r0, #1028]	@ movhi
 1146              	.L95:
 1147 0152 2A89     		ldrh	r2, [r5, #8]
 1148              	.L92:
 1149 0154 2046     		mov	r0, r4
 1150 0156 6969     		ldr	r1, [r5, #20]
 1151 0158 9BB2     		uxth	r3, r3
 1152 015a FFF7FEFF 		bl	USB_WritePMA
 1153 015e 6B78     		ldrb	r3, [r5, #1]	@ zero_extendqisi2
 1154 0160 73B9     		cbnz	r3, .L99
 1155 0162 2A78     		ldrb	r2, [r5]	@ zero_extendqisi2
 1156 0164 34F82230 		ldrh	r3, [r4, r2, lsl #2]
 1157 0168 9BB2     		uxth	r3, r3
 1158 016a 23F4E043 		bic	r3, r3, #28672
 1159 016e 23F07003 		bic	r3, r3, #112
 1160 0172 43F40043 		orr	r3, r3, #32768
 1161 0176 43F0C003 		orr	r3, r3, #192
 1162 017a 24F82230 		strh	r3, [r4, r2, lsl #2]	@ movhi
 1163 017e 0FE0     		b	.L84
 1164              	.L99:
 1165 0180 012B     		cmp	r3, #1
 1166 0182 0DD1     		bne	.L84
 1167 0184 2A78     		ldrb	r2, [r5]	@ zero_extendqisi2
 1168 0186 34F82230 		ldrh	r3, [r4, r2, lsl #2]
 1169 018a 9BB2     		uxth	r3, r3
 1170 018c 23F4E043 		bic	r3, r3, #28672
 1171 0190 23F07003 		bic	r3, r3, #112
 1172 0194 43F44043 		orr	r3, r3, #49152
 1173 0198 43F08003 		orr	r3, r3, #128
 1174 019c 24F82230 		strh	r3, [r4, r2, lsl #2]	@ movhi
 1175              	.L84:
 1176 01a0 2A78     		ldrb	r2, [r5]	@ zero_extendqisi2
 1177 01a2 34F82230 		ldrh	r3, [r4, r2, lsl #2]
 1178 01a6 9BB2     		uxth	r3, r3
 1179 01a8 23F4E043 		bic	r3, r3, #28672
 1180 01ac 23F04003 		bic	r3, r3, #64
 1181 01b0 83F03003 		eor	r3, r3, #48
 1182 01b4 43F40043 		orr	r3, r3, #32768
 1183 01b8 43F08003 		orr	r3, r3, #128
 1184 01bc 24F82230 		strh	r3, [r4, r2, lsl #2]	@ movhi
 1185 01c0 CFE0     		b	.L100
 1186              	.L80:
 1187 01c2 8B69     		ldr	r3, [r1, #24]
 1188 01c4 0C69     		ldr	r4, [r1, #16]
 1189 01c6 A342     		cmp	r3, r4
 1190 01c8 03D9     		bls	.L101
 1191 01ca 1B1B     		subs	r3, r3, r4
 1192 01cc 8B61     		str	r3, [r1, #24]
 1193 01ce 2346     		mov	r3, r4
 1194 01d0 01E0     		b	.L102
 1195              	.L101:
 1196 01d2 0024     		movs	r4, #0
 1197 01d4 8C61     		str	r4, [r1, #24]
ARM GAS  /tmp/ccoaqWXd.s 			page 21


 1198              	.L102:
 1199 01d6 0C7B     		ldrb	r4, [r1, #12]	@ zero_extendqisi2
 1200 01d8 94BB     		cbnz	r4, .L103
 1201 01da B0F85020 		ldrh	r2, [r0, #80]
 1202 01de 92B2     		uxth	r2, r2
 1203 01e0 0244     		add	r2, r2, r0
 1204 01e2 0C78     		ldrb	r4, [r1]	@ zero_extendqisi2
 1205 01e4 02EB0412 		add	r2, r2, r4, lsl #4
 1206 01e8 8BB9     		cbnz	r3, .L104
 1207 01ea B2F80C34 		ldrh	r3, [r2, #1036]
 1208 01ee 23F4F843 		bic	r3, r3, #31744
 1209 01f2 1B04     		lsls	r3, r3, #16
 1210 01f4 1B0C     		lsrs	r3, r3, #16
 1211 01f6 A2F80C34 		strh	r3, [r2, #1036]	@ movhi
 1212 01fa B2F80C34 		ldrh	r3, [r2, #1036]
 1213 01fe 6FEA4343 		mvn	r3, r3, lsl #17
 1214 0202 6FEA5343 		mvn	r3, r3, lsr #17
 1215 0206 9BB2     		uxth	r3, r3
 1216 0208 A2F80C34 		strh	r3, [r2, #1036]	@ movhi
 1217 020c 99E0     		b	.L105
 1218              	.L104:
 1219 020e 3E2B     		cmp	r3, #62
 1220 0210 09D8     		bhi	.L106
 1221 0212 5C08     		lsrs	r4, r3, #1
 1222 0214 13F0010F 		tst	r3, #1
 1223 0218 00D0     		beq	.L107
 1224 021a 0134     		adds	r4, r4, #1
 1225              	.L107:
 1226 021c A402     		lsls	r4, r4, #10
 1227 021e A4B2     		uxth	r4, r4
 1228 0220 A2F80C44 		strh	r4, [r2, #1036]	@ movhi
 1229 0224 8DE0     		b	.L105
 1230              	.L106:
 1231 0226 5C09     		lsrs	r4, r3, #5
 1232 0228 13F01F0F 		tst	r3, #31
 1233 022c 00D1     		bne	.L108
 1234 022e 013C     		subs	r4, r4, #1
 1235              	.L108:
 1236 0230 6FEAC464 		mvn	r4, r4, lsl #27
 1237 0234 6FEA5444 		mvn	r4, r4, lsr #17
 1238 0238 A4B2     		uxth	r4, r4
 1239 023a A2F80C44 		strh	r4, [r2, #1036]	@ movhi
 1240 023e 80E0     		b	.L105
 1241              	.L103:
 1242 0240 92BB     		cbnz	r2, .L109
 1243 0242 B0F85020 		ldrh	r2, [r0, #80]
 1244 0246 92B2     		uxth	r2, r2
 1245 0248 0244     		add	r2, r2, r0
 1246 024a 0C78     		ldrb	r4, [r1]	@ zero_extendqisi2
 1247 024c 02EB0412 		add	r2, r2, r4, lsl #4
 1248 0250 8BB9     		cbnz	r3, .L110
 1249 0252 B2F80444 		ldrh	r4, [r2, #1028]
 1250 0256 24F4F844 		bic	r4, r4, #31744
 1251 025a 2404     		lsls	r4, r4, #16
 1252 025c 240C     		lsrs	r4, r4, #16
 1253 025e A2F80444 		strh	r4, [r2, #1028]	@ movhi
 1254 0262 B2F80444 		ldrh	r4, [r2, #1028]
ARM GAS  /tmp/ccoaqWXd.s 			page 22


 1255 0266 6FEA4444 		mvn	r4, r4, lsl #17
 1256 026a 6FEA5444 		mvn	r4, r4, lsr #17
 1257 026e A4B2     		uxth	r4, r4
 1258 0270 A2F80444 		strh	r4, [r2, #1028]	@ movhi
 1259 0274 24E0     		b	.L111
 1260              	.L110:
 1261 0276 3E2B     		cmp	r3, #62
 1262 0278 09D8     		bhi	.L112
 1263 027a 5C08     		lsrs	r4, r3, #1
 1264 027c 13F0010F 		tst	r3, #1
 1265 0280 00D0     		beq	.L113
 1266 0282 0134     		adds	r4, r4, #1
 1267              	.L113:
 1268 0284 A402     		lsls	r4, r4, #10
 1269 0286 A4B2     		uxth	r4, r4
 1270 0288 A2F80444 		strh	r4, [r2, #1028]	@ movhi
 1271 028c 18E0     		b	.L111
 1272              	.L112:
 1273 028e 5C09     		lsrs	r4, r3, #5
 1274 0290 13F01F0F 		tst	r3, #31
 1275 0294 00D1     		bne	.L114
 1276 0296 013C     		subs	r4, r4, #1
 1277              	.L114:
 1278 0298 6FEAC464 		mvn	r4, r4, lsl #27
 1279 029c 6FEA5444 		mvn	r4, r4, lsr #17
 1280 02a0 A4B2     		uxth	r4, r4
 1281 02a2 A2F80444 		strh	r4, [r2, #1028]	@ movhi
 1282 02a6 0BE0     		b	.L111
 1283              	.L109:
 1284 02a8 012A     		cmp	r2, #1
 1285 02aa 09D1     		bne	.L111
 1286 02ac B0F85020 		ldrh	r2, [r0, #80]
 1287 02b0 92B2     		uxth	r2, r2
 1288 02b2 0244     		add	r2, r2, r0
 1289 02b4 0C78     		ldrb	r4, [r1]	@ zero_extendqisi2
 1290 02b6 02EB0412 		add	r2, r2, r4, lsl #4
 1291 02ba 9CB2     		uxth	r4, r3
 1292 02bc A2F80444 		strh	r4, [r2, #1028]	@ movhi
 1293              	.L111:
 1294 02c0 4A78     		ldrb	r2, [r1, #1]	@ zero_extendqisi2
 1295 02c2 92BB     		cbnz	r2, .L115
 1296 02c4 B0F85020 		ldrh	r2, [r0, #80]
 1297 02c8 92B2     		uxth	r2, r2
 1298 02ca 0244     		add	r2, r2, r0
 1299 02cc 0C78     		ldrb	r4, [r1]	@ zero_extendqisi2
 1300 02ce 02EB0412 		add	r2, r2, r4, lsl #4
 1301 02d2 8BB9     		cbnz	r3, .L116
 1302 02d4 B2F80C34 		ldrh	r3, [r2, #1036]
 1303 02d8 23F4F843 		bic	r3, r3, #31744
 1304 02dc 1B04     		lsls	r3, r3, #16
 1305 02de 1B0C     		lsrs	r3, r3, #16
 1306 02e0 A2F80C34 		strh	r3, [r2, #1036]	@ movhi
 1307 02e4 B2F80C34 		ldrh	r3, [r2, #1036]
 1308 02e8 6FEA4343 		mvn	r3, r3, lsl #17
 1309 02ec 6FEA5343 		mvn	r3, r3, lsr #17
 1310 02f0 9BB2     		uxth	r3, r3
 1311 02f2 A2F80C34 		strh	r3, [r2, #1036]	@ movhi
ARM GAS  /tmp/ccoaqWXd.s 			page 23


 1312 02f6 24E0     		b	.L105
 1313              	.L116:
 1314 02f8 3E2B     		cmp	r3, #62
 1315 02fa 09D8     		bhi	.L117
 1316 02fc 5C08     		lsrs	r4, r3, #1
 1317 02fe 13F0010F 		tst	r3, #1
 1318 0302 00D0     		beq	.L118
 1319 0304 0134     		adds	r4, r4, #1
 1320              	.L118:
 1321 0306 A402     		lsls	r4, r4, #10
 1322 0308 A4B2     		uxth	r4, r4
 1323 030a A2F80C44 		strh	r4, [r2, #1036]	@ movhi
 1324 030e 18E0     		b	.L105
 1325              	.L117:
 1326 0310 5C09     		lsrs	r4, r3, #5
 1327 0312 13F01F0F 		tst	r3, #31
 1328 0316 00D1     		bne	.L119
 1329 0318 013C     		subs	r4, r4, #1
 1330              	.L119:
 1331 031a 6FEAC463 		mvn	r3, r4, lsl #27
 1332 031e 6FEA5343 		mvn	r3, r3, lsr #17
 1333 0322 9BB2     		uxth	r3, r3
 1334 0324 A2F80C34 		strh	r3, [r2, #1036]	@ movhi
 1335 0328 0BE0     		b	.L105
 1336              	.L115:
 1337 032a 012A     		cmp	r2, #1
 1338 032c 09D1     		bne	.L105
 1339 032e B0F85020 		ldrh	r2, [r0, #80]
 1340 0332 92B2     		uxth	r2, r2
 1341 0334 0244     		add	r2, r2, r0
 1342 0336 0C78     		ldrb	r4, [r1]	@ zero_extendqisi2
 1343 0338 02EB0412 		add	r2, r2, r4, lsl #4
 1344 033c 9BB2     		uxth	r3, r3
 1345 033e A2F80C34 		strh	r3, [r2, #1036]	@ movhi
 1346              	.L105:
 1347 0342 0A78     		ldrb	r2, [r1]	@ zero_extendqisi2
 1348 0344 30F82230 		ldrh	r3, [r0, r2, lsl #2]
 1349 0348 9BB2     		uxth	r3, r3
 1350 034a 23F48043 		bic	r3, r3, #16384
 1351 034e 23F07003 		bic	r3, r3, #112
 1352 0352 83F44053 		eor	r3, r3, #12288
 1353 0356 43F40043 		orr	r3, r3, #32768
 1354 035a 43F08003 		orr	r3, r3, #128
 1355 035e 20F82230 		strh	r3, [r0, r2, lsl #2]	@ movhi
 1356              	.L100:
 1357 0362 0020     		movs	r0, #0
 1358 0364 70BD     		pop	{r4, r5, r6, pc}
 1360 0366 00BF     		.section	.text.USB_ReadPMA,"ax",%progbits
 1361              		.align	2
 1362              		.global	USB_ReadPMA
 1363              		.thumb
 1364              		.thumb_func
 1366              	USB_ReadPMA:
 1367              		@ args = 0, pretend = 0, frame = 0
 1368              		@ frame_needed = 0, uses_anonymous_args = 0
 1369              		@ link register save eliminated.
 1370 0000 30B4     		push	{r4, r5}
ARM GAS  /tmp/ccoaqWXd.s 			page 24


 1371 0002 5D08     		lsrs	r5, r3, #1
 1372 0004 00EB4202 		add	r2, r0, r2, lsl #1
 1373 0008 02F58062 		add	r2, r2, #1024
 1374 000c 07E0     		b	.L122
 1375              	.L123:
 1376 000e 32F8044B 		ldrh	r4, [r2], #4
 1377 0012 A4B2     		uxth	r4, r4
 1378 0014 0C70     		strb	r4, [r1]
 1379 0016 240A     		lsrs	r4, r4, #8
 1380 0018 4C70     		strb	r4, [r1, #1]
 1381 001a 0231     		adds	r1, r1, #2
 1382 001c 013D     		subs	r5, r5, #1
 1383              	.L122:
 1384 001e 002D     		cmp	r5, #0
 1385 0020 F5D1     		bne	.L123
 1386 0022 13F0010F 		tst	r3, #1
 1387 0026 01D0     		beq	.L121
 1388 0028 1388     		ldrh	r3, [r2]
 1389 002a 0B70     		strb	r3, [r1]
 1390              	.L121:
 1391 002c 30BC     		pop	{r4, r5}
 1392 002e 7047     		bx	lr
 1394              		.ident	"GCC: (15:4.9.3+svn231177-1) 4.9.3 20150529 (prerelease)"
ARM GAS  /tmp/ccoaqWXd.s 			page 25


DEFINED SYMBOLS
                            *ABS*:0000000000000000 stm32f1xx_ll_usb.c
     /tmp/ccoaqWXd.s:16     .text.USB_CoreInit:0000000000000000 $t
     /tmp/ccoaqWXd.s:21     .text.USB_CoreInit:0000000000000000 USB_CoreInit
     /tmp/ccoaqWXd.s:33     .text.USB_EnableGlobalInt:0000000000000000 $t
     /tmp/ccoaqWXd.s:38     .text.USB_EnableGlobalInt:0000000000000000 USB_EnableGlobalInt
     /tmp/ccoaqWXd.s:50     .text.USB_DisableGlobalInt:0000000000000000 $t
     /tmp/ccoaqWXd.s:55     .text.USB_DisableGlobalInt:0000000000000000 USB_DisableGlobalInt
     /tmp/ccoaqWXd.s:68     .text.USB_SetCurrentMode:0000000000000000 $t
     /tmp/ccoaqWXd.s:73     .text.USB_SetCurrentMode:0000000000000000 USB_SetCurrentMode
     /tmp/ccoaqWXd.s:81     .text.USB_DevInit:0000000000000000 $t
     /tmp/ccoaqWXd.s:86     .text.USB_DevInit:0000000000000000 USB_DevInit
     /tmp/ccoaqWXd.s:106    .text.USB_SetDevSpeed:0000000000000000 $t
     /tmp/ccoaqWXd.s:111    .text.USB_SetDevSpeed:0000000000000000 USB_SetDevSpeed
     /tmp/ccoaqWXd.s:119    .text.USB_FlushTxFifo:0000000000000000 $t
     /tmp/ccoaqWXd.s:124    .text.USB_FlushTxFifo:0000000000000000 USB_FlushTxFifo
     /tmp/ccoaqWXd.s:132    .text.USB_FlushRxFifo:0000000000000000 $t
     /tmp/ccoaqWXd.s:137    .text.USB_FlushRxFifo:0000000000000000 USB_FlushRxFifo
     /tmp/ccoaqWXd.s:145    .text.USB_ActivateEndpoint:0000000000000000 $t
     /tmp/ccoaqWXd.s:150    .text.USB_ActivateEndpoint:0000000000000000 USB_ActivateEndpoint
     /tmp/ccoaqWXd.s:167    .text.USB_ActivateEndpoint:0000000000000020 $d
     /tmp/ccoaqWXd.s:171    .text.USB_ActivateEndpoint:0000000000000024 $t
     /tmp/ccoaqWXd.s:478    .text.USB_DeactivateEndpoint:0000000000000000 $t
     /tmp/ccoaqWXd.s:483    .text.USB_DeactivateEndpoint:0000000000000000 USB_DeactivateEndpoint
     /tmp/ccoaqWXd.s:650    .text.USB_WritePacket:0000000000000000 $t
     /tmp/ccoaqWXd.s:655    .text.USB_WritePacket:0000000000000000 USB_WritePacket
     /tmp/ccoaqWXd.s:663    .text.USB_ReadPacket:0000000000000000 $t
     /tmp/ccoaqWXd.s:668    .text.USB_ReadPacket:0000000000000000 USB_ReadPacket
     /tmp/ccoaqWXd.s:676    .text.USB_EPSetStall:0000000000000000 $t
     /tmp/ccoaqWXd.s:681    .text.USB_EPSetStall:0000000000000000 USB_EPSetStall
     /tmp/ccoaqWXd.s:712    .text.USB_EPClearStall:0000000000000000 $t
     /tmp/ccoaqWXd.s:717    .text.USB_EPClearStall:0000000000000000 USB_EPClearStall
     /tmp/ccoaqWXd.s:780    .text.USB_StopDevice:0000000000000000 $t
     /tmp/ccoaqWXd.s:785    .text.USB_StopDevice:0000000000000000 USB_StopDevice
     /tmp/ccoaqWXd.s:799    .text.USB_SetDevAddress:0000000000000000 $t
     /tmp/ccoaqWXd.s:804    .text.USB_SetDevAddress:0000000000000000 USB_SetDevAddress
     /tmp/ccoaqWXd.s:816    .text.USB_DevConnect:0000000000000000 $t
     /tmp/ccoaqWXd.s:821    .text.USB_DevConnect:0000000000000000 USB_DevConnect
     /tmp/ccoaqWXd.s:829    .text.USB_DevDisconnect:0000000000000000 $t
     /tmp/ccoaqWXd.s:834    .text.USB_DevDisconnect:0000000000000000 USB_DevDisconnect
     /tmp/ccoaqWXd.s:842    .text.USB_ReadInterrupts:0000000000000000 $t
     /tmp/ccoaqWXd.s:847    .text.USB_ReadInterrupts:0000000000000000 USB_ReadInterrupts
     /tmp/ccoaqWXd.s:856    .text.USB_ReadDevAllOutEpInterrupt:0000000000000000 $t
     /tmp/ccoaqWXd.s:861    .text.USB_ReadDevAllOutEpInterrupt:0000000000000000 USB_ReadDevAllOutEpInterrupt
     /tmp/ccoaqWXd.s:869    .text.USB_ReadDevAllInEpInterrupt:0000000000000000 $t
     /tmp/ccoaqWXd.s:874    .text.USB_ReadDevAllInEpInterrupt:0000000000000000 USB_ReadDevAllInEpInterrupt
     /tmp/ccoaqWXd.s:882    .text.USB_ReadDevOutEPInterrupt:0000000000000000 $t
     /tmp/ccoaqWXd.s:887    .text.USB_ReadDevOutEPInterrupt:0000000000000000 USB_ReadDevOutEPInterrupt
     /tmp/ccoaqWXd.s:895    .text.USB_ReadDevInEPInterrupt:0000000000000000 $t
     /tmp/ccoaqWXd.s:900    .text.USB_ReadDevInEPInterrupt:0000000000000000 USB_ReadDevInEPInterrupt
     /tmp/ccoaqWXd.s:908    .text.USB_ClearInterrupts:0000000000000000 $t
     /tmp/ccoaqWXd.s:913    .text.USB_ClearInterrupts:0000000000000000 USB_ClearInterrupts
     /tmp/ccoaqWXd.s:920    .text.USB_EP0_OutStart:0000000000000000 $t
     /tmp/ccoaqWXd.s:925    .text.USB_EP0_OutStart:0000000000000000 USB_EP0_OutStart
     /tmp/ccoaqWXd.s:933    .text.USB_ActivateRemoteWakeup:0000000000000000 $t
     /tmp/ccoaqWXd.s:938    .text.USB_ActivateRemoteWakeup:0000000000000000 USB_ActivateRemoteWakeup
     /tmp/ccoaqWXd.s:950    .text.USB_DeActivateRemoteWakeup:0000000000000000 $t
ARM GAS  /tmp/ccoaqWXd.s 			page 26


     /tmp/ccoaqWXd.s:955    .text.USB_DeActivateRemoteWakeup:0000000000000000 USB_DeActivateRemoteWakeup
     /tmp/ccoaqWXd.s:968    .text.USB_WritePMA:0000000000000000 $t
     /tmp/ccoaqWXd.s:973    .text.USB_WritePMA:0000000000000000 USB_WritePMA
     /tmp/ccoaqWXd.s:997    .text.USB_EPStartXfer:0000000000000000 $t
     /tmp/ccoaqWXd.s:1002   .text.USB_EPStartXfer:0000000000000000 USB_EPStartXfer
     /tmp/ccoaqWXd.s:1361   .text.USB_ReadPMA:0000000000000000 $t
     /tmp/ccoaqWXd.s:1366   .text.USB_ReadPMA:0000000000000000 USB_ReadPMA

NO UNDEFINED SYMBOLS
