ARM GAS  /tmp/ccqz4ALL.s 			page 1


   1              		.cpu cortex-m3
   2              		.eabi_attribute 20, 1
   3              		.eabi_attribute 21, 1
   4              		.eabi_attribute 23, 3
   5              		.eabi_attribute 24, 1
   6              		.eabi_attribute 25, 1
   7              		.eabi_attribute 26, 1
   8              		.eabi_attribute 30, 1
   9              		.eabi_attribute 34, 1
  10              		.eabi_attribute 18, 4
  11              		.file	"stm32f1xx_hal_tim.c"
  12              		.section	.text.TIM_OC1_SetConfig,"ax",%progbits
  13              		.align	1
  14              		.syntax unified
  15              		.thumb
  16              		.thumb_func
  17              		.fpu softvfp
  19              	TIM_OC1_SetConfig:
  20              		@ args = 0, pretend = 0, frame = 0
  21              		@ frame_needed = 0, uses_anonymous_args = 0
  22              		@ link register save eliminated.
  23 0000 30B4     		push	{r4, r5}
  24 0002 036A     		ldr	r3, [r0, #32]
  25 0004 23F00103 		bic	r3, r3, #1
  26 0008 0362     		str	r3, [r0, #32]
  27 000a 036A     		ldr	r3, [r0, #32]
  28 000c 4468     		ldr	r4, [r0, #4]
  29 000e 8269     		ldr	r2, [r0, #24]
  30 0010 22F07302 		bic	r2, r2, #115
  31 0014 0D68     		ldr	r5, [r1]
  32 0016 2A43     		orrs	r2, r2, r5
  33 0018 23F00203 		bic	r3, r3, #2
  34 001c 8D68     		ldr	r5, [r1, #8]
  35 001e 2B43     		orrs	r3, r3, r5
  36 0020 0D4D     		ldr	r5, .L7
  37 0022 A842     		cmp	r0, r5
  38 0024 09D0     		beq	.L5
  39              	.L2:
  40 0026 0C4D     		ldr	r5, .L7
  41 0028 A842     		cmp	r0, r5
  42 002a 0DD0     		beq	.L6
  43              	.L3:
  44 002c 4460     		str	r4, [r0, #4]
  45 002e 8261     		str	r2, [r0, #24]
  46 0030 4A68     		ldr	r2, [r1, #4]
  47 0032 4263     		str	r2, [r0, #52]
  48 0034 0362     		str	r3, [r0, #32]
  49 0036 30BC     		pop	{r4, r5}
  50 0038 7047     		bx	lr
  51              	.L5:
  52 003a 23F00803 		bic	r3, r3, #8
  53 003e CD68     		ldr	r5, [r1, #12]
  54 0040 2B43     		orrs	r3, r3, r5
  55 0042 23F00403 		bic	r3, r3, #4
  56 0046 EEE7     		b	.L2
  57              	.L6:
  58 0048 24F44074 		bic	r4, r4, #768
ARM GAS  /tmp/ccqz4ALL.s 			page 2


  59 004c 4D69     		ldr	r5, [r1, #20]
  60 004e 2C43     		orrs	r4, r4, r5
  61 0050 8D69     		ldr	r5, [r1, #24]
  62 0052 2C43     		orrs	r4, r4, r5
  63 0054 EAE7     		b	.L3
  64              	.L8:
  65 0056 00BF     		.align	2
  66              	.L7:
  67 0058 002C0140 		.word	1073818624
  69              		.section	.text.TIM_OC3_SetConfig,"ax",%progbits
  70              		.align	1
  71              		.syntax unified
  72              		.thumb
  73              		.thumb_func
  74              		.fpu softvfp
  76              	TIM_OC3_SetConfig:
  77              		@ args = 0, pretend = 0, frame = 0
  78              		@ frame_needed = 0, uses_anonymous_args = 0
  79              		@ link register save eliminated.
  80 0000 30B4     		push	{r4, r5}
  81 0002 036A     		ldr	r3, [r0, #32]
  82 0004 23F48073 		bic	r3, r3, #256
  83 0008 0362     		str	r3, [r0, #32]
  84 000a 036A     		ldr	r3, [r0, #32]
  85 000c 4468     		ldr	r4, [r0, #4]
  86 000e C269     		ldr	r2, [r0, #28]
  87 0010 22F07302 		bic	r2, r2, #115
  88 0014 0D68     		ldr	r5, [r1]
  89 0016 2A43     		orrs	r2, r2, r5
  90 0018 23F40073 		bic	r3, r3, #512
  91 001c 8D68     		ldr	r5, [r1, #8]
  92 001e 43EA0523 		orr	r3, r3, r5, lsl #8
  93 0022 0F4D     		ldr	r5, .L15
  94 0024 A842     		cmp	r0, r5
  95 0026 09D0     		beq	.L13
  96              	.L10:
  97 0028 0D4D     		ldr	r5, .L15
  98 002a A842     		cmp	r0, r5
  99 002c 0ED0     		beq	.L14
 100              	.L11:
 101 002e 4460     		str	r4, [r0, #4]
 102 0030 C261     		str	r2, [r0, #28]
 103 0032 4A68     		ldr	r2, [r1, #4]
 104 0034 C263     		str	r2, [r0, #60]
 105 0036 0362     		str	r3, [r0, #32]
 106 0038 30BC     		pop	{r4, r5}
 107 003a 7047     		bx	lr
 108              	.L13:
 109 003c 23F40063 		bic	r3, r3, #2048
 110 0040 CD68     		ldr	r5, [r1, #12]
 111 0042 43EA0523 		orr	r3, r3, r5, lsl #8
 112 0046 23F48063 		bic	r3, r3, #1024
 113 004a EDE7     		b	.L10
 114              	.L14:
 115 004c 24F44054 		bic	r4, r4, #12288
 116 0050 4D69     		ldr	r5, [r1, #20]
 117 0052 44EA0514 		orr	r4, r4, r5, lsl #4
ARM GAS  /tmp/ccqz4ALL.s 			page 3


 118 0056 8D69     		ldr	r5, [r1, #24]
 119 0058 44EA0514 		orr	r4, r4, r5, lsl #4
 120 005c E7E7     		b	.L11
 121              	.L16:
 122 005e 00BF     		.align	2
 123              	.L15:
 124 0060 002C0140 		.word	1073818624
 126              		.section	.text.TIM_OC4_SetConfig,"ax",%progbits
 127              		.align	1
 128              		.syntax unified
 129              		.thumb
 130              		.thumb_func
 131              		.fpu softvfp
 133              	TIM_OC4_SetConfig:
 134              		@ args = 0, pretend = 0, frame = 0
 135              		@ frame_needed = 0, uses_anonymous_args = 0
 136              		@ link register save eliminated.
 137 0000 30B4     		push	{r4, r5}
 138 0002 036A     		ldr	r3, [r0, #32]
 139 0004 23F48053 		bic	r3, r3, #4096
 140 0008 0362     		str	r3, [r0, #32]
 141 000a 036A     		ldr	r3, [r0, #32]
 142 000c 4468     		ldr	r4, [r0, #4]
 143 000e C269     		ldr	r2, [r0, #28]
 144 0010 22F4E642 		bic	r2, r2, #29440
 145 0014 0D68     		ldr	r5, [r1]
 146 0016 42EA0522 		orr	r2, r2, r5, lsl #8
 147 001a 23F40053 		bic	r3, r3, #8192
 148 001e 8D68     		ldr	r5, [r1, #8]
 149 0020 43EA0533 		orr	r3, r3, r5, lsl #12
 150 0024 074D     		ldr	r5, .L21
 151 0026 A842     		cmp	r0, r5
 152 0028 06D0     		beq	.L20
 153              	.L18:
 154 002a 4460     		str	r4, [r0, #4]
 155 002c C261     		str	r2, [r0, #28]
 156 002e 4A68     		ldr	r2, [r1, #4]
 157 0030 0264     		str	r2, [r0, #64]
 158 0032 0362     		str	r3, [r0, #32]
 159 0034 30BC     		pop	{r4, r5}
 160 0036 7047     		bx	lr
 161              	.L20:
 162 0038 24F48044 		bic	r4, r4, #16384
 163 003c 4D69     		ldr	r5, [r1, #20]
 164 003e 44EA8514 		orr	r4, r4, r5, lsl #6
 165 0042 F2E7     		b	.L18
 166              	.L22:
 167              		.align	2
 168              	.L21:
 169 0044 002C0140 		.word	1073818624
 171              		.section	.text.TIM_TI1_ConfigInputStage,"ax",%progbits
 172              		.align	1
 173              		.syntax unified
 174              		.thumb
 175              		.thumb_func
 176              		.fpu softvfp
 178              	TIM_TI1_ConfigInputStage:
ARM GAS  /tmp/ccqz4ALL.s 			page 4


 179              		@ args = 0, pretend = 0, frame = 0
 180              		@ frame_needed = 0, uses_anonymous_args = 0
 181              		@ link register save eliminated.
 182 0000 10B4     		push	{r4}
 183 0002 036A     		ldr	r3, [r0, #32]
 184 0004 046A     		ldr	r4, [r0, #32]
 185 0006 24F00104 		bic	r4, r4, #1
 186 000a 0462     		str	r4, [r0, #32]
 187 000c 8469     		ldr	r4, [r0, #24]
 188 000e 24F0F004 		bic	r4, r4, #240
 189 0012 44EA0212 		orr	r2, r4, r2, lsl #4
 190 0016 23F00A03 		bic	r3, r3, #10
 191 001a 0B43     		orrs	r3, r3, r1
 192 001c 8261     		str	r2, [r0, #24]
 193 001e 0362     		str	r3, [r0, #32]
 194 0020 10BC     		pop	{r4}
 195 0022 7047     		bx	lr
 197              		.section	.text.TIM_TI2_SetConfig,"ax",%progbits
 198              		.align	1
 199              		.syntax unified
 200              		.thumb
 201              		.thumb_func
 202              		.fpu softvfp
 204              	TIM_TI2_SetConfig:
 205              		@ args = 0, pretend = 0, frame = 0
 206              		@ frame_needed = 0, uses_anonymous_args = 0
 207              		@ link register save eliminated.
 208 0000 30B4     		push	{r4, r5}
 209 0002 046A     		ldr	r4, [r0, #32]
 210 0004 24F01004 		bic	r4, r4, #16
 211 0008 0462     		str	r4, [r0, #32]
 212 000a 8469     		ldr	r4, [r0, #24]
 213 000c 056A     		ldr	r5, [r0, #32]
 214 000e 24F44074 		bic	r4, r4, #768
 215 0012 44EA0222 		orr	r2, r4, r2, lsl #8
 216 0016 22F47042 		bic	r2, r2, #61440
 217 001a 1B03     		lsls	r3, r3, #12
 218 001c 9BB2     		uxth	r3, r3
 219 001e 1A43     		orrs	r2, r2, r3
 220 0020 25F0A005 		bic	r5, r5, #160
 221 0024 0901     		lsls	r1, r1, #4
 222 0026 01F0A001 		and	r1, r1, #160
 223 002a 0D43     		orrs	r5, r5, r1
 224 002c 8261     		str	r2, [r0, #24]
 225 002e 0562     		str	r5, [r0, #32]
 226 0030 30BC     		pop	{r4, r5}
 227 0032 7047     		bx	lr
 229              		.section	.text.TIM_TI2_ConfigInputStage,"ax",%progbits
 230              		.align	1
 231              		.syntax unified
 232              		.thumb
 233              		.thumb_func
 234              		.fpu softvfp
 236              	TIM_TI2_ConfigInputStage:
 237              		@ args = 0, pretend = 0, frame = 0
 238              		@ frame_needed = 0, uses_anonymous_args = 0
 239              		@ link register save eliminated.
ARM GAS  /tmp/ccqz4ALL.s 			page 5


 240 0000 10B4     		push	{r4}
 241 0002 036A     		ldr	r3, [r0, #32]
 242 0004 23F01003 		bic	r3, r3, #16
 243 0008 0362     		str	r3, [r0, #32]
 244 000a 8469     		ldr	r4, [r0, #24]
 245 000c 036A     		ldr	r3, [r0, #32]
 246 000e 24F47044 		bic	r4, r4, #61440
 247 0012 44EA0232 		orr	r2, r4, r2, lsl #12
 248 0016 23F0A003 		bic	r3, r3, #160
 249 001a 43EA0113 		orr	r3, r3, r1, lsl #4
 250 001e 8261     		str	r2, [r0, #24]
 251 0020 0362     		str	r3, [r0, #32]
 252 0022 10BC     		pop	{r4}
 253 0024 7047     		bx	lr
 255              		.section	.text.TIM_TI3_SetConfig,"ax",%progbits
 256              		.align	1
 257              		.syntax unified
 258              		.thumb
 259              		.thumb_func
 260              		.fpu softvfp
 262              	TIM_TI3_SetConfig:
 263              		@ args = 0, pretend = 0, frame = 0
 264              		@ frame_needed = 0, uses_anonymous_args = 0
 265              		@ link register save eliminated.
 266 0000 30B4     		push	{r4, r5}
 267 0002 046A     		ldr	r4, [r0, #32]
 268 0004 24F48074 		bic	r4, r4, #256
 269 0008 0462     		str	r4, [r0, #32]
 270 000a C469     		ldr	r4, [r0, #28]
 271 000c 056A     		ldr	r5, [r0, #32]
 272 000e 24F00304 		bic	r4, r4, #3
 273 0012 2243     		orrs	r2, r2, r4
 274 0014 22F0F002 		bic	r2, r2, #240
 275 0018 1B01     		lsls	r3, r3, #4
 276 001a DBB2     		uxtb	r3, r3
 277 001c 1A43     		orrs	r2, r2, r3
 278 001e 25F40075 		bic	r5, r5, #512
 279 0022 0902     		lsls	r1, r1, #8
 280 0024 01F40071 		and	r1, r1, #512
 281 0028 0D43     		orrs	r5, r5, r1
 282 002a C261     		str	r2, [r0, #28]
 283 002c 0562     		str	r5, [r0, #32]
 284 002e 30BC     		pop	{r4, r5}
 285 0030 7047     		bx	lr
 287              		.section	.text.TIM_TI4_SetConfig,"ax",%progbits
 288              		.align	1
 289              		.syntax unified
 290              		.thumb
 291              		.thumb_func
 292              		.fpu softvfp
 294              	TIM_TI4_SetConfig:
 295              		@ args = 0, pretend = 0, frame = 0
 296              		@ frame_needed = 0, uses_anonymous_args = 0
 297              		@ link register save eliminated.
 298 0000 30B4     		push	{r4, r5}
 299 0002 046A     		ldr	r4, [r0, #32]
 300 0004 24F48054 		bic	r4, r4, #4096
ARM GAS  /tmp/ccqz4ALL.s 			page 6


 301 0008 0462     		str	r4, [r0, #32]
 302 000a C469     		ldr	r4, [r0, #28]
 303 000c 056A     		ldr	r5, [r0, #32]
 304 000e 24F44074 		bic	r4, r4, #768
 305 0012 44EA0222 		orr	r2, r4, r2, lsl #8
 306 0016 22F47042 		bic	r2, r2, #61440
 307 001a 1B03     		lsls	r3, r3, #12
 308 001c 9BB2     		uxth	r3, r3
 309 001e 1A43     		orrs	r2, r2, r3
 310 0020 25F40055 		bic	r5, r5, #8192
 311 0024 0903     		lsls	r1, r1, #12
 312 0026 01F40051 		and	r1, r1, #8192
 313 002a 0D43     		orrs	r5, r5, r1
 314 002c C261     		str	r2, [r0, #28]
 315 002e 0562     		str	r5, [r0, #32]
 316 0030 30BC     		pop	{r4, r5}
 317 0032 7047     		bx	lr
 319              		.section	.text.TIM_ITRx_SetConfig,"ax",%progbits
 320              		.align	1
 321              		.syntax unified
 322              		.thumb
 323              		.thumb_func
 324              		.fpu softvfp
 326              	TIM_ITRx_SetConfig:
 327              		@ args = 0, pretend = 0, frame = 0
 328              		@ frame_needed = 0, uses_anonymous_args = 0
 329              		@ link register save eliminated.
 330 0000 8368     		ldr	r3, [r0, #8]
 331 0002 23F07003 		bic	r3, r3, #112
 332 0006 1943     		orrs	r1, r1, r3
 333 0008 41F00701 		orr	r1, r1, #7
 334 000c 8160     		str	r1, [r0, #8]
 335 000e 7047     		bx	lr
 337              		.section	.text.HAL_TIM_Base_MspInit,"ax",%progbits
 338              		.align	1
 339              		.weak	HAL_TIM_Base_MspInit
 340              		.syntax unified
 341              		.thumb
 342              		.thumb_func
 343              		.fpu softvfp
 345              	HAL_TIM_Base_MspInit:
 346              		@ args = 0, pretend = 0, frame = 0
 347              		@ frame_needed = 0, uses_anonymous_args = 0
 348              		@ link register save eliminated.
 349 0000 7047     		bx	lr
 351              		.section	.text.HAL_TIM_Base_MspDeInit,"ax",%progbits
 352              		.align	1
 353              		.weak	HAL_TIM_Base_MspDeInit
 354              		.syntax unified
 355              		.thumb
 356              		.thumb_func
 357              		.fpu softvfp
 359              	HAL_TIM_Base_MspDeInit:
 360              		@ args = 0, pretend = 0, frame = 0
 361              		@ frame_needed = 0, uses_anonymous_args = 0
 362              		@ link register save eliminated.
 363 0000 7047     		bx	lr
ARM GAS  /tmp/ccqz4ALL.s 			page 7


 365              		.section	.text.HAL_TIM_Base_DeInit,"ax",%progbits
 366              		.align	1
 367              		.global	HAL_TIM_Base_DeInit
 368              		.syntax unified
 369              		.thumb
 370              		.thumb_func
 371              		.fpu softvfp
 373              	HAL_TIM_Base_DeInit:
 374              		@ args = 0, pretend = 0, frame = 0
 375              		@ frame_needed = 0, uses_anonymous_args = 0
 376 0000 10B5     		push	{r4, lr}
 377 0002 0446     		mov	r4, r0
 378 0004 0223     		movs	r3, #2
 379 0006 80F83D30 		strb	r3, [r0, #61]
 380 000a 0368     		ldr	r3, [r0]
 381 000c 196A     		ldr	r1, [r3, #32]
 382 000e 41F21112 		movw	r2, #4369
 383 0012 1142     		tst	r1, r2
 384 0014 08D1     		bne	.L37
 385 0016 196A     		ldr	r1, [r3, #32]
 386 0018 40F24442 		movw	r2, #1092
 387 001c 1142     		tst	r1, r2
 388 001e 03D1     		bne	.L37
 389 0020 1A68     		ldr	r2, [r3]
 390 0022 22F00102 		bic	r2, r2, #1
 391 0026 1A60     		str	r2, [r3]
 392              	.L37:
 393 0028 2046     		mov	r0, r4
 394 002a FFF7FEFF 		bl	HAL_TIM_Base_MspDeInit
 395 002e 0020     		movs	r0, #0
 396 0030 84F83D00 		strb	r0, [r4, #61]
 397 0034 84F83C00 		strb	r0, [r4, #60]
 398 0038 10BD     		pop	{r4, pc}
 400              		.section	.text.HAL_TIM_Base_Start,"ax",%progbits
 401              		.align	1
 402              		.global	HAL_TIM_Base_Start
 403              		.syntax unified
 404              		.thumb
 405              		.thumb_func
 406              		.fpu softvfp
 408              	HAL_TIM_Base_Start:
 409              		@ args = 0, pretend = 0, frame = 0
 410              		@ frame_needed = 0, uses_anonymous_args = 0
 411              		@ link register save eliminated.
 412 0000 0223     		movs	r3, #2
 413 0002 80F83D30 		strb	r3, [r0, #61]
 414 0006 0268     		ldr	r2, [r0]
 415 0008 9368     		ldr	r3, [r2, #8]
 416 000a 03F00703 		and	r3, r3, #7
 417 000e 062B     		cmp	r3, #6
 418 0010 03D0     		beq	.L40
 419 0012 1368     		ldr	r3, [r2]
 420 0014 43F00103 		orr	r3, r3, #1
 421 0018 1360     		str	r3, [r2]
 422              	.L40:
 423 001a 0123     		movs	r3, #1
 424 001c 80F83D30 		strb	r3, [r0, #61]
ARM GAS  /tmp/ccqz4ALL.s 			page 8


 425 0020 0020     		movs	r0, #0
 426 0022 7047     		bx	lr
 428              		.section	.text.HAL_TIM_Base_Stop,"ax",%progbits
 429              		.align	1
 430              		.global	HAL_TIM_Base_Stop
 431              		.syntax unified
 432              		.thumb
 433              		.thumb_func
 434              		.fpu softvfp
 436              	HAL_TIM_Base_Stop:
 437              		@ args = 0, pretend = 0, frame = 0
 438              		@ frame_needed = 0, uses_anonymous_args = 0
 439              		@ link register save eliminated.
 440 0000 0223     		movs	r3, #2
 441 0002 80F83D30 		strb	r3, [r0, #61]
 442 0006 0368     		ldr	r3, [r0]
 443 0008 196A     		ldr	r1, [r3, #32]
 444 000a 41F21112 		movw	r2, #4369
 445 000e 1142     		tst	r1, r2
 446 0010 08D1     		bne	.L42
 447 0012 196A     		ldr	r1, [r3, #32]
 448 0014 40F24442 		movw	r2, #1092
 449 0018 1142     		tst	r1, r2
 450 001a 03D1     		bne	.L42
 451 001c 1A68     		ldr	r2, [r3]
 452 001e 22F00102 		bic	r2, r2, #1
 453 0022 1A60     		str	r2, [r3]
 454              	.L42:
 455 0024 0123     		movs	r3, #1
 456 0026 80F83D30 		strb	r3, [r0, #61]
 457 002a 0020     		movs	r0, #0
 458 002c 7047     		bx	lr
 460              		.section	.text.HAL_TIM_Base_Start_IT,"ax",%progbits
 461              		.align	1
 462              		.global	HAL_TIM_Base_Start_IT
 463              		.syntax unified
 464              		.thumb
 465              		.thumb_func
 466              		.fpu softvfp
 468              	HAL_TIM_Base_Start_IT:
 469              		@ args = 0, pretend = 0, frame = 0
 470              		@ frame_needed = 0, uses_anonymous_args = 0
 471              		@ link register save eliminated.
 472 0000 0268     		ldr	r2, [r0]
 473 0002 D368     		ldr	r3, [r2, #12]
 474 0004 43F00103 		orr	r3, r3, #1
 475 0008 D360     		str	r3, [r2, #12]
 476 000a 0268     		ldr	r2, [r0]
 477 000c 9368     		ldr	r3, [r2, #8]
 478 000e 03F00703 		and	r3, r3, #7
 479 0012 062B     		cmp	r3, #6
 480 0014 03D0     		beq	.L44
 481 0016 1368     		ldr	r3, [r2]
 482 0018 43F00103 		orr	r3, r3, #1
 483 001c 1360     		str	r3, [r2]
 484              	.L44:
 485 001e 0020     		movs	r0, #0
ARM GAS  /tmp/ccqz4ALL.s 			page 9


 486 0020 7047     		bx	lr
 488              		.section	.text.HAL_TIM_Base_Stop_IT,"ax",%progbits
 489              		.align	1
 490              		.global	HAL_TIM_Base_Stop_IT
 491              		.syntax unified
 492              		.thumb
 493              		.thumb_func
 494              		.fpu softvfp
 496              	HAL_TIM_Base_Stop_IT:
 497              		@ args = 0, pretend = 0, frame = 0
 498              		@ frame_needed = 0, uses_anonymous_args = 0
 499              		@ link register save eliminated.
 500 0000 0268     		ldr	r2, [r0]
 501 0002 D368     		ldr	r3, [r2, #12]
 502 0004 23F00103 		bic	r3, r3, #1
 503 0008 D360     		str	r3, [r2, #12]
 504 000a 0368     		ldr	r3, [r0]
 505 000c 196A     		ldr	r1, [r3, #32]
 506 000e 41F21112 		movw	r2, #4369
 507 0012 1142     		tst	r1, r2
 508 0014 08D1     		bne	.L46
 509 0016 196A     		ldr	r1, [r3, #32]
 510 0018 40F24442 		movw	r2, #1092
 511 001c 1142     		tst	r1, r2
 512 001e 03D1     		bne	.L46
 513 0020 1A68     		ldr	r2, [r3]
 514 0022 22F00102 		bic	r2, r2, #1
 515 0026 1A60     		str	r2, [r3]
 516              	.L46:
 517 0028 0020     		movs	r0, #0
 518 002a 7047     		bx	lr
 520              		.section	.text.HAL_TIM_Base_Start_DMA,"ax",%progbits
 521              		.align	1
 522              		.global	HAL_TIM_Base_Start_DMA
 523              		.syntax unified
 524              		.thumb
 525              		.thumb_func
 526              		.fpu softvfp
 528              	HAL_TIM_Base_Start_DMA:
 529              		@ args = 0, pretend = 0, frame = 0
 530              		@ frame_needed = 0, uses_anonymous_args = 0
 531 0000 38B5     		push	{r3, r4, r5, lr}
 532 0002 90F83D50 		ldrb	r5, [r0, #61]	@ zero_extendqisi2
 533 0006 EDB2     		uxtb	r5, r5
 534 0008 022D     		cmp	r5, #2
 535 000a 2FD0     		beq	.L51
 536 000c 90F83D30 		ldrb	r3, [r0, #61]	@ zero_extendqisi2
 537 0010 DBB2     		uxtb	r3, r3
 538 0012 012B     		cmp	r3, #1
 539 0014 21D0     		beq	.L55
 540              	.L49:
 541 0016 1346     		mov	r3, r2
 542 0018 0446     		mov	r4, r0
 543 001a 026A     		ldr	r2, [r0, #32]
 544 001c 1648     		ldr	r0, .L57
 545 001e 9062     		str	r0, [r2, #40]
 546 0020 226A     		ldr	r2, [r4, #32]
ARM GAS  /tmp/ccqz4ALL.s 			page 10


 547 0022 1648     		ldr	r0, .L57+4
 548 0024 D062     		str	r0, [r2, #44]
 549 0026 226A     		ldr	r2, [r4, #32]
 550 0028 1548     		ldr	r0, .L57+8
 551 002a 1063     		str	r0, [r2, #48]
 552 002c 2268     		ldr	r2, [r4]
 553 002e 2C32     		adds	r2, r2, #44
 554 0030 206A     		ldr	r0, [r4, #32]
 555 0032 FFF7FEFF 		bl	HAL_DMA_Start_IT
 556 0036 0346     		mov	r3, r0
 557 0038 D8B9     		cbnz	r0, .L53
 558 003a 2168     		ldr	r1, [r4]
 559 003c CA68     		ldr	r2, [r1, #12]
 560 003e 42F48072 		orr	r2, r2, #256
 561 0042 CA60     		str	r2, [r1, #12]
 562 0044 2168     		ldr	r1, [r4]
 563 0046 8A68     		ldr	r2, [r1, #8]
 564 0048 02F00702 		and	r2, r2, #7
 565 004c 062A     		cmp	r2, #6
 566 004e 0ED0     		beq	.L48
 567 0050 0A68     		ldr	r2, [r1]
 568 0052 42F00102 		orr	r2, r2, #1
 569 0056 0A60     		str	r2, [r1]
 570 0058 09E0     		b	.L48
 571              	.L55:
 572 005a 19B1     		cbz	r1, .L56
 573              	.L50:
 574 005c 0223     		movs	r3, #2
 575 005e 80F83D30 		strb	r3, [r0, #61]
 576 0062 D8E7     		b	.L49
 577              	.L56:
 578 0064 002A     		cmp	r2, #0
 579 0066 F9D0     		beq	.L50
 580 0068 0123     		movs	r3, #1
 581 006a 00E0     		b	.L48
 582              	.L51:
 583 006c 0223     		movs	r3, #2
 584              	.L48:
 585 006e 1846     		mov	r0, r3
 586 0070 38BD     		pop	{r3, r4, r5, pc}
 587              	.L53:
 588 0072 0123     		movs	r3, #1
 589 0074 FBE7     		b	.L48
 590              	.L58:
 591 0076 00BF     		.align	2
 592              	.L57:
 593 0078 00000000 		.word	TIM_DMAPeriodElapsedCplt
 594 007c 00000000 		.word	TIM_DMAPeriodElapsedHalfCplt
 595 0080 00000000 		.word	TIM_DMAError
 597              		.section	.text.HAL_TIM_Base_Stop_DMA,"ax",%progbits
 598              		.align	1
 599              		.global	HAL_TIM_Base_Stop_DMA
 600              		.syntax unified
 601              		.thumb
 602              		.thumb_func
 603              		.fpu softvfp
 605              	HAL_TIM_Base_Stop_DMA:
ARM GAS  /tmp/ccqz4ALL.s 			page 11


 606              		@ args = 0, pretend = 0, frame = 0
 607              		@ frame_needed = 0, uses_anonymous_args = 0
 608 0000 10B5     		push	{r4, lr}
 609 0002 0446     		mov	r4, r0
 610 0004 0268     		ldr	r2, [r0]
 611 0006 D368     		ldr	r3, [r2, #12]
 612 0008 23F48073 		bic	r3, r3, #256
 613 000c D360     		str	r3, [r2, #12]
 614 000e 006A     		ldr	r0, [r0, #32]
 615 0010 FFF7FEFF 		bl	HAL_DMA_Abort_IT
 616 0014 2368     		ldr	r3, [r4]
 617 0016 196A     		ldr	r1, [r3, #32]
 618 0018 41F21112 		movw	r2, #4369
 619 001c 1142     		tst	r1, r2
 620 001e 08D1     		bne	.L60
 621 0020 196A     		ldr	r1, [r3, #32]
 622 0022 40F24442 		movw	r2, #1092
 623 0026 1142     		tst	r1, r2
 624 0028 03D1     		bne	.L60
 625 002a 1A68     		ldr	r2, [r3]
 626 002c 22F00102 		bic	r2, r2, #1
 627 0030 1A60     		str	r2, [r3]
 628              	.L60:
 629 0032 0123     		movs	r3, #1
 630 0034 84F83D30 		strb	r3, [r4, #61]
 631 0038 0020     		movs	r0, #0
 632 003a 10BD     		pop	{r4, pc}
 634              		.section	.text.HAL_TIM_OC_MspInit,"ax",%progbits
 635              		.align	1
 636              		.weak	HAL_TIM_OC_MspInit
 637              		.syntax unified
 638              		.thumb
 639              		.thumb_func
 640              		.fpu softvfp
 642              	HAL_TIM_OC_MspInit:
 643              		@ args = 0, pretend = 0, frame = 0
 644              		@ frame_needed = 0, uses_anonymous_args = 0
 645              		@ link register save eliminated.
 646 0000 7047     		bx	lr
 648              		.section	.text.HAL_TIM_OC_MspDeInit,"ax",%progbits
 649              		.align	1
 650              		.weak	HAL_TIM_OC_MspDeInit
 651              		.syntax unified
 652              		.thumb
 653              		.thumb_func
 654              		.fpu softvfp
 656              	HAL_TIM_OC_MspDeInit:
 657              		@ args = 0, pretend = 0, frame = 0
 658              		@ frame_needed = 0, uses_anonymous_args = 0
 659              		@ link register save eliminated.
 660 0000 7047     		bx	lr
 662              		.section	.text.HAL_TIM_OC_DeInit,"ax",%progbits
 663              		.align	1
 664              		.global	HAL_TIM_OC_DeInit
 665              		.syntax unified
 666              		.thumb
 667              		.thumb_func
ARM GAS  /tmp/ccqz4ALL.s 			page 12


 668              		.fpu softvfp
 670              	HAL_TIM_OC_DeInit:
 671              		@ args = 0, pretend = 0, frame = 0
 672              		@ frame_needed = 0, uses_anonymous_args = 0
 673 0000 10B5     		push	{r4, lr}
 674 0002 0446     		mov	r4, r0
 675 0004 0223     		movs	r3, #2
 676 0006 80F83D30 		strb	r3, [r0, #61]
 677 000a 0368     		ldr	r3, [r0]
 678 000c 196A     		ldr	r1, [r3, #32]
 679 000e 41F21112 		movw	r2, #4369
 680 0012 1142     		tst	r1, r2
 681 0014 08D1     		bne	.L65
 682 0016 196A     		ldr	r1, [r3, #32]
 683 0018 40F24442 		movw	r2, #1092
 684 001c 1142     		tst	r1, r2
 685 001e 03D1     		bne	.L65
 686 0020 1A68     		ldr	r2, [r3]
 687 0022 22F00102 		bic	r2, r2, #1
 688 0026 1A60     		str	r2, [r3]
 689              	.L65:
 690 0028 2046     		mov	r0, r4
 691 002a FFF7FEFF 		bl	HAL_TIM_OC_MspDeInit
 692 002e 0020     		movs	r0, #0
 693 0030 84F83D00 		strb	r0, [r4, #61]
 694 0034 84F83C00 		strb	r0, [r4, #60]
 695 0038 10BD     		pop	{r4, pc}
 697              		.section	.text.HAL_TIM_PWM_MspInit,"ax",%progbits
 698              		.align	1
 699              		.weak	HAL_TIM_PWM_MspInit
 700              		.syntax unified
 701              		.thumb
 702              		.thumb_func
 703              		.fpu softvfp
 705              	HAL_TIM_PWM_MspInit:
 706              		@ args = 0, pretend = 0, frame = 0
 707              		@ frame_needed = 0, uses_anonymous_args = 0
 708              		@ link register save eliminated.
 709 0000 7047     		bx	lr
 711              		.section	.text.HAL_TIM_PWM_MspDeInit,"ax",%progbits
 712              		.align	1
 713              		.weak	HAL_TIM_PWM_MspDeInit
 714              		.syntax unified
 715              		.thumb
 716              		.thumb_func
 717              		.fpu softvfp
 719              	HAL_TIM_PWM_MspDeInit:
 720              		@ args = 0, pretend = 0, frame = 0
 721              		@ frame_needed = 0, uses_anonymous_args = 0
 722              		@ link register save eliminated.
 723 0000 7047     		bx	lr
 725              		.section	.text.HAL_TIM_PWM_DeInit,"ax",%progbits
 726              		.align	1
 727              		.global	HAL_TIM_PWM_DeInit
 728              		.syntax unified
 729              		.thumb
 730              		.thumb_func
ARM GAS  /tmp/ccqz4ALL.s 			page 13


 731              		.fpu softvfp
 733              	HAL_TIM_PWM_DeInit:
 734              		@ args = 0, pretend = 0, frame = 0
 735              		@ frame_needed = 0, uses_anonymous_args = 0
 736 0000 10B5     		push	{r4, lr}
 737 0002 0446     		mov	r4, r0
 738 0004 0223     		movs	r3, #2
 739 0006 80F83D30 		strb	r3, [r0, #61]
 740 000a 0368     		ldr	r3, [r0]
 741 000c 196A     		ldr	r1, [r3, #32]
 742 000e 41F21112 		movw	r2, #4369
 743 0012 1142     		tst	r1, r2
 744 0014 08D1     		bne	.L70
 745 0016 196A     		ldr	r1, [r3, #32]
 746 0018 40F24442 		movw	r2, #1092
 747 001c 1142     		tst	r1, r2
 748 001e 03D1     		bne	.L70
 749 0020 1A68     		ldr	r2, [r3]
 750 0022 22F00102 		bic	r2, r2, #1
 751 0026 1A60     		str	r2, [r3]
 752              	.L70:
 753 0028 2046     		mov	r0, r4
 754 002a FFF7FEFF 		bl	HAL_TIM_PWM_MspDeInit
 755 002e 0020     		movs	r0, #0
 756 0030 84F83D00 		strb	r0, [r4, #61]
 757 0034 84F83C00 		strb	r0, [r4, #60]
 758 0038 10BD     		pop	{r4, pc}
 760              		.section	.text.HAL_TIM_IC_MspInit,"ax",%progbits
 761              		.align	1
 762              		.weak	HAL_TIM_IC_MspInit
 763              		.syntax unified
 764              		.thumb
 765              		.thumb_func
 766              		.fpu softvfp
 768              	HAL_TIM_IC_MspInit:
 769              		@ args = 0, pretend = 0, frame = 0
 770              		@ frame_needed = 0, uses_anonymous_args = 0
 771              		@ link register save eliminated.
 772 0000 7047     		bx	lr
 774              		.section	.text.HAL_TIM_IC_MspDeInit,"ax",%progbits
 775              		.align	1
 776              		.weak	HAL_TIM_IC_MspDeInit
 777              		.syntax unified
 778              		.thumb
 779              		.thumb_func
 780              		.fpu softvfp
 782              	HAL_TIM_IC_MspDeInit:
 783              		@ args = 0, pretend = 0, frame = 0
 784              		@ frame_needed = 0, uses_anonymous_args = 0
 785              		@ link register save eliminated.
 786 0000 7047     		bx	lr
 788              		.section	.text.HAL_TIM_IC_DeInit,"ax",%progbits
 789              		.align	1
 790              		.global	HAL_TIM_IC_DeInit
 791              		.syntax unified
 792              		.thumb
 793              		.thumb_func
ARM GAS  /tmp/ccqz4ALL.s 			page 14


 794              		.fpu softvfp
 796              	HAL_TIM_IC_DeInit:
 797              		@ args = 0, pretend = 0, frame = 0
 798              		@ frame_needed = 0, uses_anonymous_args = 0
 799 0000 10B5     		push	{r4, lr}
 800 0002 0446     		mov	r4, r0
 801 0004 0223     		movs	r3, #2
 802 0006 80F83D30 		strb	r3, [r0, #61]
 803 000a 0368     		ldr	r3, [r0]
 804 000c 196A     		ldr	r1, [r3, #32]
 805 000e 41F21112 		movw	r2, #4369
 806 0012 1142     		tst	r1, r2
 807 0014 08D1     		bne	.L75
 808 0016 196A     		ldr	r1, [r3, #32]
 809 0018 40F24442 		movw	r2, #1092
 810 001c 1142     		tst	r1, r2
 811 001e 03D1     		bne	.L75
 812 0020 1A68     		ldr	r2, [r3]
 813 0022 22F00102 		bic	r2, r2, #1
 814 0026 1A60     		str	r2, [r3]
 815              	.L75:
 816 0028 2046     		mov	r0, r4
 817 002a FFF7FEFF 		bl	HAL_TIM_IC_MspDeInit
 818 002e 0020     		movs	r0, #0
 819 0030 84F83D00 		strb	r0, [r4, #61]
 820 0034 84F83C00 		strb	r0, [r4, #60]
 821 0038 10BD     		pop	{r4, pc}
 823              		.section	.text.HAL_TIM_OnePulse_MspInit,"ax",%progbits
 824              		.align	1
 825              		.weak	HAL_TIM_OnePulse_MspInit
 826              		.syntax unified
 827              		.thumb
 828              		.thumb_func
 829              		.fpu softvfp
 831              	HAL_TIM_OnePulse_MspInit:
 832              		@ args = 0, pretend = 0, frame = 0
 833              		@ frame_needed = 0, uses_anonymous_args = 0
 834              		@ link register save eliminated.
 835 0000 7047     		bx	lr
 837              		.section	.text.HAL_TIM_OnePulse_MspDeInit,"ax",%progbits
 838              		.align	1
 839              		.weak	HAL_TIM_OnePulse_MspDeInit
 840              		.syntax unified
 841              		.thumb
 842              		.thumb_func
 843              		.fpu softvfp
 845              	HAL_TIM_OnePulse_MspDeInit:
 846              		@ args = 0, pretend = 0, frame = 0
 847              		@ frame_needed = 0, uses_anonymous_args = 0
 848              		@ link register save eliminated.
 849 0000 7047     		bx	lr
 851              		.section	.text.HAL_TIM_OnePulse_DeInit,"ax",%progbits
 852              		.align	1
 853              		.global	HAL_TIM_OnePulse_DeInit
 854              		.syntax unified
 855              		.thumb
 856              		.thumb_func
ARM GAS  /tmp/ccqz4ALL.s 			page 15


 857              		.fpu softvfp
 859              	HAL_TIM_OnePulse_DeInit:
 860              		@ args = 0, pretend = 0, frame = 0
 861              		@ frame_needed = 0, uses_anonymous_args = 0
 862 0000 10B5     		push	{r4, lr}
 863 0002 0446     		mov	r4, r0
 864 0004 0223     		movs	r3, #2
 865 0006 80F83D30 		strb	r3, [r0, #61]
 866 000a 0368     		ldr	r3, [r0]
 867 000c 196A     		ldr	r1, [r3, #32]
 868 000e 41F21112 		movw	r2, #4369
 869 0012 1142     		tst	r1, r2
 870 0014 08D1     		bne	.L80
 871 0016 196A     		ldr	r1, [r3, #32]
 872 0018 40F24442 		movw	r2, #1092
 873 001c 1142     		tst	r1, r2
 874 001e 03D1     		bne	.L80
 875 0020 1A68     		ldr	r2, [r3]
 876 0022 22F00102 		bic	r2, r2, #1
 877 0026 1A60     		str	r2, [r3]
 878              	.L80:
 879 0028 2046     		mov	r0, r4
 880 002a FFF7FEFF 		bl	HAL_TIM_OnePulse_MspDeInit
 881 002e 0020     		movs	r0, #0
 882 0030 84F83D00 		strb	r0, [r4, #61]
 883 0034 84F83C00 		strb	r0, [r4, #60]
 884 0038 10BD     		pop	{r4, pc}
 886              		.section	.text.HAL_TIM_Encoder_MspInit,"ax",%progbits
 887              		.align	1
 888              		.weak	HAL_TIM_Encoder_MspInit
 889              		.syntax unified
 890              		.thumb
 891              		.thumb_func
 892              		.fpu softvfp
 894              	HAL_TIM_Encoder_MspInit:
 895              		@ args = 0, pretend = 0, frame = 0
 896              		@ frame_needed = 0, uses_anonymous_args = 0
 897              		@ link register save eliminated.
 898 0000 7047     		bx	lr
 900              		.section	.text.HAL_TIM_Encoder_MspDeInit,"ax",%progbits
 901              		.align	1
 902              		.weak	HAL_TIM_Encoder_MspDeInit
 903              		.syntax unified
 904              		.thumb
 905              		.thumb_func
 906              		.fpu softvfp
 908              	HAL_TIM_Encoder_MspDeInit:
 909              		@ args = 0, pretend = 0, frame = 0
 910              		@ frame_needed = 0, uses_anonymous_args = 0
 911              		@ link register save eliminated.
 912 0000 7047     		bx	lr
 914              		.section	.text.HAL_TIM_Encoder_DeInit,"ax",%progbits
 915              		.align	1
 916              		.global	HAL_TIM_Encoder_DeInit
 917              		.syntax unified
 918              		.thumb
 919              		.thumb_func
ARM GAS  /tmp/ccqz4ALL.s 			page 16


 920              		.fpu softvfp
 922              	HAL_TIM_Encoder_DeInit:
 923              		@ args = 0, pretend = 0, frame = 0
 924              		@ frame_needed = 0, uses_anonymous_args = 0
 925 0000 10B5     		push	{r4, lr}
 926 0002 0446     		mov	r4, r0
 927 0004 0223     		movs	r3, #2
 928 0006 80F83D30 		strb	r3, [r0, #61]
 929 000a 0368     		ldr	r3, [r0]
 930 000c 196A     		ldr	r1, [r3, #32]
 931 000e 41F21112 		movw	r2, #4369
 932 0012 1142     		tst	r1, r2
 933 0014 08D1     		bne	.L85
 934 0016 196A     		ldr	r1, [r3, #32]
 935 0018 40F24442 		movw	r2, #1092
 936 001c 1142     		tst	r1, r2
 937 001e 03D1     		bne	.L85
 938 0020 1A68     		ldr	r2, [r3]
 939 0022 22F00102 		bic	r2, r2, #1
 940 0026 1A60     		str	r2, [r3]
 941              	.L85:
 942 0028 2046     		mov	r0, r4
 943 002a FFF7FEFF 		bl	HAL_TIM_Encoder_MspDeInit
 944 002e 0020     		movs	r0, #0
 945 0030 84F83D00 		strb	r0, [r4, #61]
 946 0034 84F83C00 		strb	r0, [r4, #60]
 947 0038 10BD     		pop	{r4, pc}
 949              		.section	.text.HAL_TIM_DMABurst_WriteStart,"ax",%progbits
 950              		.align	1
 951              		.global	HAL_TIM_DMABurst_WriteStart
 952              		.syntax unified
 953              		.thumb
 954              		.thumb_func
 955              		.fpu softvfp
 957              	HAL_TIM_DMABurst_WriteStart:
 958              		@ args = 4, pretend = 0, frame = 0
 959              		@ frame_needed = 0, uses_anonymous_args = 0
 960 0000 F8B5     		push	{r3, r4, r5, r6, r7, lr}
 961 0002 90F83D50 		ldrb	r5, [r0, #61]	@ zero_extendqisi2
 962 0006 EDB2     		uxtb	r5, r5
 963 0008 022D     		cmp	r5, #2
 964 000a 00F0D580 		beq	.L100
 965 000e 90F83D40 		ldrb	r4, [r0, #61]	@ zero_extendqisi2
 966 0012 E4B2     		uxtb	r4, r4
 967 0014 012C     		cmp	r4, #1
 968 0016 1ED0     		beq	.L110
 969              	.L89:
 970 0018 1E46     		mov	r6, r3
 971 001a 1546     		mov	r5, r2
 972 001c 0F46     		mov	r7, r1
 973 001e 0446     		mov	r4, r0
 974 0020 B2F5006F 		cmp	r2, #2048
 975 0024 00F08380 		beq	.L92
 976 0028 1FD8     		bhi	.L93
 977 002a B2F5007F 		cmp	r2, #512
 978 002e 52D0     		beq	.L94
 979 0030 B2F5806F 		cmp	r2, #1024
ARM GAS  /tmp/ccqz4ALL.s 			page 17


 980 0034 65D0     		beq	.L95
 981 0036 B2F5807F 		cmp	r2, #256
 982 003a 36D0     		beq	.L111
 983              	.L91:
 984 003c 2368     		ldr	r3, [r4]
 985 003e 069A     		ldr	r2, [sp, #24]
 986 0040 1743     		orrs	r7, r7, r2
 987 0042 9F64     		str	r7, [r3, #72]
 988 0044 2368     		ldr	r3, [r4]
 989 0046 DA68     		ldr	r2, [r3, #12]
 990 0048 2A43     		orrs	r2, r2, r5
 991 004a DA60     		str	r2, [r3, #12]
 992 004c 0123     		movs	r3, #1
 993 004e 84F83D30 		strb	r3, [r4, #61]
 994 0052 0020     		movs	r0, #0
 995 0054 F8BD     		pop	{r3, r4, r5, r6, r7, pc}
 996              	.L110:
 997 0056 1BB1     		cbz	r3, .L112
 998              	.L90:
 999 0058 0224     		movs	r4, #2
 1000 005a 80F83D40 		strb	r4, [r0, #61]
 1001 005e DBE7     		b	.L89
 1002              	.L112:
 1003 0060 069C     		ldr	r4, [sp, #24]
 1004 0062 002C     		cmp	r4, #0
 1005 0064 F8D0     		beq	.L90
 1006 0066 0120     		movs	r0, #1
 1007 0068 F8BD     		pop	{r3, r4, r5, r6, r7, pc}
 1008              	.L93:
 1009 006a B2F5005F 		cmp	r2, #8192
 1010 006e 75D0     		beq	.L97
 1011 0070 B2F5804F 		cmp	r2, #16384
 1012 0074 00F08980 		beq	.L98
 1013 0078 B2F5805F 		cmp	r2, #4096
 1014 007c DED1     		bne	.L91
 1015 007e 036B     		ldr	r3, [r0, #48]
 1016 0080 4E4A     		ldr	r2, .L113
 1017 0082 9A62     		str	r2, [r3, #40]
 1018 0084 036B     		ldr	r3, [r0, #48]
 1019 0086 4E4A     		ldr	r2, .L113+4
 1020 0088 DA62     		str	r2, [r3, #44]
 1021 008a 036B     		ldr	r3, [r0, #48]
 1022 008c 4D4A     		ldr	r2, .L113+8
 1023 008e 1A63     		str	r2, [r3, #48]
 1024 0090 0268     		ldr	r2, [r0]
 1025 0092 069B     		ldr	r3, [sp, #24]
 1026 0094 1B0A     		lsrs	r3, r3, #8
 1027 0096 0133     		adds	r3, r3, #1
 1028 0098 4C32     		adds	r2, r2, #76
 1029 009a 3146     		mov	r1, r6
 1030 009c 006B     		ldr	r0, [r0, #48]
 1031 009e FFF7FEFF 		bl	HAL_DMA_Start_IT
 1032 00a2 0028     		cmp	r0, #0
 1033 00a4 CAD0     		beq	.L91
 1034 00a6 0120     		movs	r0, #1
 1035 00a8 F8BD     		pop	{r3, r4, r5, r6, r7, pc}
 1036              	.L111:
ARM GAS  /tmp/ccqz4ALL.s 			page 18


 1037 00aa 036A     		ldr	r3, [r0, #32]
 1038 00ac 464A     		ldr	r2, .L113+12
 1039 00ae 9A62     		str	r2, [r3, #40]
 1040 00b0 036A     		ldr	r3, [r0, #32]
 1041 00b2 464A     		ldr	r2, .L113+16
 1042 00b4 DA62     		str	r2, [r3, #44]
 1043 00b6 036A     		ldr	r3, [r0, #32]
 1044 00b8 424A     		ldr	r2, .L113+8
 1045 00ba 1A63     		str	r2, [r3, #48]
 1046 00bc 0268     		ldr	r2, [r0]
 1047 00be 069B     		ldr	r3, [sp, #24]
 1048 00c0 1B0A     		lsrs	r3, r3, #8
 1049 00c2 0133     		adds	r3, r3, #1
 1050 00c4 4C32     		adds	r2, r2, #76
 1051 00c6 3146     		mov	r1, r6
 1052 00c8 006A     		ldr	r0, [r0, #32]
 1053 00ca FFF7FEFF 		bl	HAL_DMA_Start_IT
 1054 00ce 0028     		cmp	r0, #0
 1055 00d0 B4D0     		beq	.L91
 1056 00d2 0120     		movs	r0, #1
 1057 00d4 F8BD     		pop	{r3, r4, r5, r6, r7, pc}
 1058              	.L94:
 1059 00d6 436A     		ldr	r3, [r0, #36]
 1060 00d8 384A     		ldr	r2, .L113
 1061 00da 9A62     		str	r2, [r3, #40]
 1062 00dc 436A     		ldr	r3, [r0, #36]
 1063 00de 384A     		ldr	r2, .L113+4
 1064 00e0 DA62     		str	r2, [r3, #44]
 1065 00e2 436A     		ldr	r3, [r0, #36]
 1066 00e4 374A     		ldr	r2, .L113+8
 1067 00e6 1A63     		str	r2, [r3, #48]
 1068 00e8 0268     		ldr	r2, [r0]
 1069 00ea 069B     		ldr	r3, [sp, #24]
 1070 00ec 1B0A     		lsrs	r3, r3, #8
 1071 00ee 0133     		adds	r3, r3, #1
 1072 00f0 4C32     		adds	r2, r2, #76
 1073 00f2 3146     		mov	r1, r6
 1074 00f4 406A     		ldr	r0, [r0, #36]
 1075 00f6 FFF7FEFF 		bl	HAL_DMA_Start_IT
 1076 00fa 0028     		cmp	r0, #0
 1077 00fc 9ED0     		beq	.L91
 1078 00fe 0120     		movs	r0, #1
 1079 0100 F8BD     		pop	{r3, r4, r5, r6, r7, pc}
 1080              	.L95:
 1081 0102 836A     		ldr	r3, [r0, #40]
 1082 0104 2D4A     		ldr	r2, .L113
 1083 0106 9A62     		str	r2, [r3, #40]
 1084 0108 836A     		ldr	r3, [r0, #40]
 1085 010a 2D4A     		ldr	r2, .L113+4
 1086 010c DA62     		str	r2, [r3, #44]
 1087 010e 836A     		ldr	r3, [r0, #40]
 1088 0110 2C4A     		ldr	r2, .L113+8
 1089 0112 1A63     		str	r2, [r3, #48]
 1090 0114 0268     		ldr	r2, [r0]
 1091 0116 069B     		ldr	r3, [sp, #24]
 1092 0118 1B0A     		lsrs	r3, r3, #8
 1093 011a 0133     		adds	r3, r3, #1
ARM GAS  /tmp/ccqz4ALL.s 			page 19


 1094 011c 4C32     		adds	r2, r2, #76
 1095 011e 3146     		mov	r1, r6
 1096 0120 806A     		ldr	r0, [r0, #40]
 1097 0122 FFF7FEFF 		bl	HAL_DMA_Start_IT
 1098 0126 0028     		cmp	r0, #0
 1099 0128 88D0     		beq	.L91
 1100 012a 0120     		movs	r0, #1
 1101 012c F8BD     		pop	{r3, r4, r5, r6, r7, pc}
 1102              	.L92:
 1103 012e C36A     		ldr	r3, [r0, #44]
 1104 0130 224A     		ldr	r2, .L113
 1105 0132 9A62     		str	r2, [r3, #40]
 1106 0134 C36A     		ldr	r3, [r0, #44]
 1107 0136 224A     		ldr	r2, .L113+4
 1108 0138 DA62     		str	r2, [r3, #44]
 1109 013a C36A     		ldr	r3, [r0, #44]
 1110 013c 214A     		ldr	r2, .L113+8
 1111 013e 1A63     		str	r2, [r3, #48]
 1112 0140 0268     		ldr	r2, [r0]
 1113 0142 069B     		ldr	r3, [sp, #24]
 1114 0144 1B0A     		lsrs	r3, r3, #8
 1115 0146 0133     		adds	r3, r3, #1
 1116 0148 4C32     		adds	r2, r2, #76
 1117 014a 3146     		mov	r1, r6
 1118 014c C06A     		ldr	r0, [r0, #44]
 1119 014e FFF7FEFF 		bl	HAL_DMA_Start_IT
 1120 0152 0028     		cmp	r0, #0
 1121 0154 3FF472AF 		beq	.L91
 1122 0158 0120     		movs	r0, #1
 1123 015a F8BD     		pop	{r3, r4, r5, r6, r7, pc}
 1124              	.L97:
 1125 015c 436B     		ldr	r3, [r0, #52]
 1126 015e 1C4A     		ldr	r2, .L113+20
 1127 0160 9A62     		str	r2, [r3, #40]
 1128 0162 436B     		ldr	r3, [r0, #52]
 1129 0164 1B4A     		ldr	r2, .L113+24
 1130 0166 DA62     		str	r2, [r3, #44]
 1131 0168 436B     		ldr	r3, [r0, #52]
 1132 016a 164A     		ldr	r2, .L113+8
 1133 016c 1A63     		str	r2, [r3, #48]
 1134 016e 0268     		ldr	r2, [r0]
 1135 0170 069B     		ldr	r3, [sp, #24]
 1136 0172 1B0A     		lsrs	r3, r3, #8
 1137 0174 0133     		adds	r3, r3, #1
 1138 0176 4C32     		adds	r2, r2, #76
 1139 0178 3146     		mov	r1, r6
 1140 017a 406B     		ldr	r0, [r0, #52]
 1141 017c FFF7FEFF 		bl	HAL_DMA_Start_IT
 1142 0180 0028     		cmp	r0, #0
 1143 0182 3FF45BAF 		beq	.L91
 1144 0186 0120     		movs	r0, #1
 1145 0188 F8BD     		pop	{r3, r4, r5, r6, r7, pc}
 1146              	.L98:
 1147 018a 836B     		ldr	r3, [r0, #56]
 1148 018c 124A     		ldr	r2, .L113+28
 1149 018e 9A62     		str	r2, [r3, #40]
 1150 0190 836B     		ldr	r3, [r0, #56]
ARM GAS  /tmp/ccqz4ALL.s 			page 20


 1151 0192 124A     		ldr	r2, .L113+32
 1152 0194 DA62     		str	r2, [r3, #44]
 1153 0196 836B     		ldr	r3, [r0, #56]
 1154 0198 0A4A     		ldr	r2, .L113+8
 1155 019a 1A63     		str	r2, [r3, #48]
 1156 019c 0268     		ldr	r2, [r0]
 1157 019e 069B     		ldr	r3, [sp, #24]
 1158 01a0 1B0A     		lsrs	r3, r3, #8
 1159 01a2 0133     		adds	r3, r3, #1
 1160 01a4 4C32     		adds	r2, r2, #76
 1161 01a6 3146     		mov	r1, r6
 1162 01a8 806B     		ldr	r0, [r0, #56]
 1163 01aa FFF7FEFF 		bl	HAL_DMA_Start_IT
 1164 01ae 0028     		cmp	r0, #0
 1165 01b0 3FF444AF 		beq	.L91
 1166 01b4 0120     		movs	r0, #1
 1167 01b6 F8BD     		pop	{r3, r4, r5, r6, r7, pc}
 1168              	.L100:
 1169 01b8 0220     		movs	r0, #2
 1170 01ba F8BD     		pop	{r3, r4, r5, r6, r7, pc}
 1171              	.L114:
 1172              		.align	2
 1173              	.L113:
 1174 01bc 00000000 		.word	TIM_DMADelayPulseCplt
 1175 01c0 00000000 		.word	TIM_DMADelayPulseHalfCplt
 1176 01c4 00000000 		.word	TIM_DMAError
 1177 01c8 00000000 		.word	TIM_DMAPeriodElapsedCplt
 1178 01cc 00000000 		.word	TIM_DMAPeriodElapsedHalfCplt
 1179 01d0 00000000 		.word	TIMEx_DMACommutationCplt
 1180 01d4 00000000 		.word	TIMEx_DMACommutationHalfCplt
 1181 01d8 00000000 		.word	TIM_DMATriggerCplt
 1182 01dc 00000000 		.word	TIM_DMATriggerHalfCplt
 1184              		.section	.text.HAL_TIM_DMABurst_WriteStop,"ax",%progbits
 1185              		.align	1
 1186              		.global	HAL_TIM_DMABurst_WriteStop
 1187              		.syntax unified
 1188              		.thumb
 1189              		.thumb_func
 1190              		.fpu softvfp
 1192              	HAL_TIM_DMABurst_WriteStop:
 1193              		@ args = 0, pretend = 0, frame = 0
 1194              		@ frame_needed = 0, uses_anonymous_args = 0
 1195 0000 38B5     		push	{r3, r4, r5, lr}
 1196 0002 0546     		mov	r5, r0
 1197 0004 0C46     		mov	r4, r1
 1198 0006 B1F5006F 		cmp	r1, #2048
 1199 000a 2AD0     		beq	.L117
 1200 000c 0AD8     		bhi	.L118
 1201 000e B1F5007F 		cmp	r1, #512
 1202 0012 1ED0     		beq	.L119
 1203 0014 B1F5806F 		cmp	r1, #1024
 1204 0018 1FD0     		beq	.L120
 1205 001a B1F5807F 		cmp	r1, #256
 1206 001e 0ED0     		beq	.L128
 1207              	.L126:
 1208 0020 0020     		movs	r0, #0
 1209 0022 0FE0     		b	.L116
ARM GAS  /tmp/ccqz4ALL.s 			page 21


 1210              	.L118:
 1211 0024 B1F5005F 		cmp	r1, #8192
 1212 0028 1FD0     		beq	.L122
 1213 002a B1F5804F 		cmp	r1, #16384
 1214 002e 20D0     		beq	.L123
 1215 0030 B1F5805F 		cmp	r1, #4096
 1216 0034 F4D1     		bne	.L126
 1217 0036 006B     		ldr	r0, [r0, #48]
 1218 0038 FFF7FEFF 		bl	HAL_DMA_Abort_IT
 1219 003c 02E0     		b	.L116
 1220              	.L128:
 1221 003e 006A     		ldr	r0, [r0, #32]
 1222 0040 FFF7FEFF 		bl	HAL_DMA_Abort_IT
 1223              	.L116:
 1224 0044 20B9     		cbnz	r0, .L125
 1225 0046 2A68     		ldr	r2, [r5]
 1226 0048 D368     		ldr	r3, [r2, #12]
 1227 004a 23EA0404 		bic	r4, r3, r4
 1228 004e D460     		str	r4, [r2, #12]
 1229              	.L125:
 1230 0050 38BD     		pop	{r3, r4, r5, pc}
 1231              	.L119:
 1232 0052 406A     		ldr	r0, [r0, #36]
 1233 0054 FFF7FEFF 		bl	HAL_DMA_Abort_IT
 1234 0058 F4E7     		b	.L116
 1235              	.L120:
 1236 005a 806A     		ldr	r0, [r0, #40]
 1237 005c FFF7FEFF 		bl	HAL_DMA_Abort_IT
 1238 0060 F0E7     		b	.L116
 1239              	.L117:
 1240 0062 C06A     		ldr	r0, [r0, #44]
 1241 0064 FFF7FEFF 		bl	HAL_DMA_Abort_IT
 1242 0068 ECE7     		b	.L116
 1243              	.L122:
 1244 006a 406B     		ldr	r0, [r0, #52]
 1245 006c FFF7FEFF 		bl	HAL_DMA_Abort_IT
 1246 0070 E8E7     		b	.L116
 1247              	.L123:
 1248 0072 806B     		ldr	r0, [r0, #56]
 1249 0074 FFF7FEFF 		bl	HAL_DMA_Abort_IT
 1250 0078 E4E7     		b	.L116
 1252              		.section	.text.HAL_TIM_DMABurst_ReadStart,"ax",%progbits
 1253              		.align	1
 1254              		.global	HAL_TIM_DMABurst_ReadStart
 1255              		.syntax unified
 1256              		.thumb
 1257              		.thumb_func
 1258              		.fpu softvfp
 1260              	HAL_TIM_DMABurst_ReadStart:
 1261              		@ args = 4, pretend = 0, frame = 0
 1262              		@ frame_needed = 0, uses_anonymous_args = 0
 1263 0000 F8B5     		push	{r3, r4, r5, r6, r7, lr}
 1264 0002 90F83D50 		ldrb	r5, [r0, #61]	@ zero_extendqisi2
 1265 0006 EDB2     		uxtb	r5, r5
 1266 0008 022D     		cmp	r5, #2
 1267 000a 00F0D580 		beq	.L142
 1268 000e 90F83D40 		ldrb	r4, [r0, #61]	@ zero_extendqisi2
ARM GAS  /tmp/ccqz4ALL.s 			page 22


 1269 0012 E4B2     		uxtb	r4, r4
 1270 0014 012C     		cmp	r4, #1
 1271 0016 1ED0     		beq	.L152
 1272              	.L131:
 1273 0018 1E46     		mov	r6, r3
 1274 001a 1546     		mov	r5, r2
 1275 001c 0F46     		mov	r7, r1
 1276 001e 0446     		mov	r4, r0
 1277 0020 B2F5006F 		cmp	r2, #2048
 1278 0024 00F08380 		beq	.L134
 1279 0028 1FD8     		bhi	.L135
 1280 002a B2F5007F 		cmp	r2, #512
 1281 002e 52D0     		beq	.L136
 1282 0030 B2F5806F 		cmp	r2, #1024
 1283 0034 65D0     		beq	.L137
 1284 0036 B2F5807F 		cmp	r2, #256
 1285 003a 36D0     		beq	.L153
 1286              	.L133:
 1287 003c 2368     		ldr	r3, [r4]
 1288 003e 069A     		ldr	r2, [sp, #24]
 1289 0040 1743     		orrs	r7, r7, r2
 1290 0042 9F64     		str	r7, [r3, #72]
 1291 0044 2368     		ldr	r3, [r4]
 1292 0046 DA68     		ldr	r2, [r3, #12]
 1293 0048 2A43     		orrs	r2, r2, r5
 1294 004a DA60     		str	r2, [r3, #12]
 1295 004c 0123     		movs	r3, #1
 1296 004e 84F83D30 		strb	r3, [r4, #61]
 1297 0052 0020     		movs	r0, #0
 1298 0054 F8BD     		pop	{r3, r4, r5, r6, r7, pc}
 1299              	.L152:
 1300 0056 1BB1     		cbz	r3, .L154
 1301              	.L132:
 1302 0058 0224     		movs	r4, #2
 1303 005a 80F83D40 		strb	r4, [r0, #61]
 1304 005e DBE7     		b	.L131
 1305              	.L154:
 1306 0060 069C     		ldr	r4, [sp, #24]
 1307 0062 002C     		cmp	r4, #0
 1308 0064 F8D0     		beq	.L132
 1309 0066 0120     		movs	r0, #1
 1310 0068 F8BD     		pop	{r3, r4, r5, r6, r7, pc}
 1311              	.L135:
 1312 006a B2F5005F 		cmp	r2, #8192
 1313 006e 75D0     		beq	.L139
 1314 0070 B2F5804F 		cmp	r2, #16384
 1315 0074 00F08980 		beq	.L140
 1316 0078 B2F5805F 		cmp	r2, #4096
 1317 007c DED1     		bne	.L133
 1318 007e 036B     		ldr	r3, [r0, #48]
 1319 0080 4E4A     		ldr	r2, .L155
 1320 0082 9A62     		str	r2, [r3, #40]
 1321 0084 036B     		ldr	r3, [r0, #48]
 1322 0086 4E4A     		ldr	r2, .L155+4
 1323 0088 DA62     		str	r2, [r3, #44]
 1324 008a 036B     		ldr	r3, [r0, #48]
 1325 008c 4D4A     		ldr	r2, .L155+8
ARM GAS  /tmp/ccqz4ALL.s 			page 23


 1326 008e 1A63     		str	r2, [r3, #48]
 1327 0090 0168     		ldr	r1, [r0]
 1328 0092 069B     		ldr	r3, [sp, #24]
 1329 0094 1B0A     		lsrs	r3, r3, #8
 1330 0096 0133     		adds	r3, r3, #1
 1331 0098 3246     		mov	r2, r6
 1332 009a 4C31     		adds	r1, r1, #76
 1333 009c 006B     		ldr	r0, [r0, #48]
 1334 009e FFF7FEFF 		bl	HAL_DMA_Start_IT
 1335 00a2 0028     		cmp	r0, #0
 1336 00a4 CAD0     		beq	.L133
 1337 00a6 0120     		movs	r0, #1
 1338 00a8 F8BD     		pop	{r3, r4, r5, r6, r7, pc}
 1339              	.L153:
 1340 00aa 036A     		ldr	r3, [r0, #32]
 1341 00ac 464A     		ldr	r2, .L155+12
 1342 00ae 9A62     		str	r2, [r3, #40]
 1343 00b0 036A     		ldr	r3, [r0, #32]
 1344 00b2 464A     		ldr	r2, .L155+16
 1345 00b4 DA62     		str	r2, [r3, #44]
 1346 00b6 036A     		ldr	r3, [r0, #32]
 1347 00b8 424A     		ldr	r2, .L155+8
 1348 00ba 1A63     		str	r2, [r3, #48]
 1349 00bc 0168     		ldr	r1, [r0]
 1350 00be 069B     		ldr	r3, [sp, #24]
 1351 00c0 1B0A     		lsrs	r3, r3, #8
 1352 00c2 0133     		adds	r3, r3, #1
 1353 00c4 3246     		mov	r2, r6
 1354 00c6 4C31     		adds	r1, r1, #76
 1355 00c8 006A     		ldr	r0, [r0, #32]
 1356 00ca FFF7FEFF 		bl	HAL_DMA_Start_IT
 1357 00ce 0028     		cmp	r0, #0
 1358 00d0 B4D0     		beq	.L133
 1359 00d2 0120     		movs	r0, #1
 1360 00d4 F8BD     		pop	{r3, r4, r5, r6, r7, pc}
 1361              	.L136:
 1362 00d6 436A     		ldr	r3, [r0, #36]
 1363 00d8 384A     		ldr	r2, .L155
 1364 00da 9A62     		str	r2, [r3, #40]
 1365 00dc 436A     		ldr	r3, [r0, #36]
 1366 00de 384A     		ldr	r2, .L155+4
 1367 00e0 DA62     		str	r2, [r3, #44]
 1368 00e2 436A     		ldr	r3, [r0, #36]
 1369 00e4 374A     		ldr	r2, .L155+8
 1370 00e6 1A63     		str	r2, [r3, #48]
 1371 00e8 0168     		ldr	r1, [r0]
 1372 00ea 069B     		ldr	r3, [sp, #24]
 1373 00ec 1B0A     		lsrs	r3, r3, #8
 1374 00ee 0133     		adds	r3, r3, #1
 1375 00f0 3246     		mov	r2, r6
 1376 00f2 4C31     		adds	r1, r1, #76
 1377 00f4 406A     		ldr	r0, [r0, #36]
 1378 00f6 FFF7FEFF 		bl	HAL_DMA_Start_IT
 1379 00fa 0028     		cmp	r0, #0
 1380 00fc 9ED0     		beq	.L133
 1381 00fe 0120     		movs	r0, #1
 1382 0100 F8BD     		pop	{r3, r4, r5, r6, r7, pc}
ARM GAS  /tmp/ccqz4ALL.s 			page 24


 1383              	.L137:
 1384 0102 836A     		ldr	r3, [r0, #40]
 1385 0104 2D4A     		ldr	r2, .L155
 1386 0106 9A62     		str	r2, [r3, #40]
 1387 0108 836A     		ldr	r3, [r0, #40]
 1388 010a 2D4A     		ldr	r2, .L155+4
 1389 010c DA62     		str	r2, [r3, #44]
 1390 010e 836A     		ldr	r3, [r0, #40]
 1391 0110 2C4A     		ldr	r2, .L155+8
 1392 0112 1A63     		str	r2, [r3, #48]
 1393 0114 0168     		ldr	r1, [r0]
 1394 0116 069B     		ldr	r3, [sp, #24]
 1395 0118 1B0A     		lsrs	r3, r3, #8
 1396 011a 0133     		adds	r3, r3, #1
 1397 011c 3246     		mov	r2, r6
 1398 011e 4C31     		adds	r1, r1, #76
 1399 0120 806A     		ldr	r0, [r0, #40]
 1400 0122 FFF7FEFF 		bl	HAL_DMA_Start_IT
 1401 0126 0028     		cmp	r0, #0
 1402 0128 88D0     		beq	.L133
 1403 012a 0120     		movs	r0, #1
 1404 012c F8BD     		pop	{r3, r4, r5, r6, r7, pc}
 1405              	.L134:
 1406 012e C36A     		ldr	r3, [r0, #44]
 1407 0130 224A     		ldr	r2, .L155
 1408 0132 9A62     		str	r2, [r3, #40]
 1409 0134 C36A     		ldr	r3, [r0, #44]
 1410 0136 224A     		ldr	r2, .L155+4
 1411 0138 DA62     		str	r2, [r3, #44]
 1412 013a C36A     		ldr	r3, [r0, #44]
 1413 013c 214A     		ldr	r2, .L155+8
 1414 013e 1A63     		str	r2, [r3, #48]
 1415 0140 0168     		ldr	r1, [r0]
 1416 0142 069B     		ldr	r3, [sp, #24]
 1417 0144 1B0A     		lsrs	r3, r3, #8
 1418 0146 0133     		adds	r3, r3, #1
 1419 0148 3246     		mov	r2, r6
 1420 014a 4C31     		adds	r1, r1, #76
 1421 014c C06A     		ldr	r0, [r0, #44]
 1422 014e FFF7FEFF 		bl	HAL_DMA_Start_IT
 1423 0152 0028     		cmp	r0, #0
 1424 0154 3FF472AF 		beq	.L133
 1425 0158 0120     		movs	r0, #1
 1426 015a F8BD     		pop	{r3, r4, r5, r6, r7, pc}
 1427              	.L139:
 1428 015c 436B     		ldr	r3, [r0, #52]
 1429 015e 1C4A     		ldr	r2, .L155+20
 1430 0160 9A62     		str	r2, [r3, #40]
 1431 0162 436B     		ldr	r3, [r0, #52]
 1432 0164 1B4A     		ldr	r2, .L155+24
 1433 0166 DA62     		str	r2, [r3, #44]
 1434 0168 436B     		ldr	r3, [r0, #52]
 1435 016a 164A     		ldr	r2, .L155+8
 1436 016c 1A63     		str	r2, [r3, #48]
 1437 016e 0168     		ldr	r1, [r0]
 1438 0170 069B     		ldr	r3, [sp, #24]
 1439 0172 1B0A     		lsrs	r3, r3, #8
ARM GAS  /tmp/ccqz4ALL.s 			page 25


 1440 0174 0133     		adds	r3, r3, #1
 1441 0176 3246     		mov	r2, r6
 1442 0178 4C31     		adds	r1, r1, #76
 1443 017a 406B     		ldr	r0, [r0, #52]
 1444 017c FFF7FEFF 		bl	HAL_DMA_Start_IT
 1445 0180 0028     		cmp	r0, #0
 1446 0182 3FF45BAF 		beq	.L133
 1447 0186 0120     		movs	r0, #1
 1448 0188 F8BD     		pop	{r3, r4, r5, r6, r7, pc}
 1449              	.L140:
 1450 018a 836B     		ldr	r3, [r0, #56]
 1451 018c 124A     		ldr	r2, .L155+28
 1452 018e 9A62     		str	r2, [r3, #40]
 1453 0190 836B     		ldr	r3, [r0, #56]
 1454 0192 124A     		ldr	r2, .L155+32
 1455 0194 DA62     		str	r2, [r3, #44]
 1456 0196 836B     		ldr	r3, [r0, #56]
 1457 0198 0A4A     		ldr	r2, .L155+8
 1458 019a 1A63     		str	r2, [r3, #48]
 1459 019c 0168     		ldr	r1, [r0]
 1460 019e 069B     		ldr	r3, [sp, #24]
 1461 01a0 1B0A     		lsrs	r3, r3, #8
 1462 01a2 0133     		adds	r3, r3, #1
 1463 01a4 3246     		mov	r2, r6
 1464 01a6 4C31     		adds	r1, r1, #76
 1465 01a8 806B     		ldr	r0, [r0, #56]
 1466 01aa FFF7FEFF 		bl	HAL_DMA_Start_IT
 1467 01ae 0028     		cmp	r0, #0
 1468 01b0 3FF444AF 		beq	.L133
 1469 01b4 0120     		movs	r0, #1
 1470 01b6 F8BD     		pop	{r3, r4, r5, r6, r7, pc}
 1471              	.L142:
 1472 01b8 0220     		movs	r0, #2
 1473 01ba F8BD     		pop	{r3, r4, r5, r6, r7, pc}
 1474              	.L156:
 1475              		.align	2
 1476              	.L155:
 1477 01bc 00000000 		.word	TIM_DMACaptureCplt
 1478 01c0 00000000 		.word	TIM_DMACaptureHalfCplt
 1479 01c4 00000000 		.word	TIM_DMAError
 1480 01c8 00000000 		.word	TIM_DMAPeriodElapsedCplt
 1481 01cc 00000000 		.word	TIM_DMAPeriodElapsedHalfCplt
 1482 01d0 00000000 		.word	TIMEx_DMACommutationCplt
 1483 01d4 00000000 		.word	TIMEx_DMACommutationHalfCplt
 1484 01d8 00000000 		.word	TIM_DMATriggerCplt
 1485 01dc 00000000 		.word	TIM_DMATriggerHalfCplt
 1487              		.section	.text.HAL_TIM_DMABurst_ReadStop,"ax",%progbits
 1488              		.align	1
 1489              		.global	HAL_TIM_DMABurst_ReadStop
 1490              		.syntax unified
 1491              		.thumb
 1492              		.thumb_func
 1493              		.fpu softvfp
 1495              	HAL_TIM_DMABurst_ReadStop:
 1496              		@ args = 0, pretend = 0, frame = 0
 1497              		@ frame_needed = 0, uses_anonymous_args = 0
 1498 0000 38B5     		push	{r3, r4, r5, lr}
ARM GAS  /tmp/ccqz4ALL.s 			page 26


 1499 0002 0546     		mov	r5, r0
 1500 0004 0C46     		mov	r4, r1
 1501 0006 B1F5006F 		cmp	r1, #2048
 1502 000a 2AD0     		beq	.L159
 1503 000c 0AD8     		bhi	.L160
 1504 000e B1F5007F 		cmp	r1, #512
 1505 0012 1ED0     		beq	.L161
 1506 0014 B1F5806F 		cmp	r1, #1024
 1507 0018 1FD0     		beq	.L162
 1508 001a B1F5807F 		cmp	r1, #256
 1509 001e 0ED0     		beq	.L170
 1510              	.L168:
 1511 0020 0020     		movs	r0, #0
 1512 0022 0FE0     		b	.L158
 1513              	.L160:
 1514 0024 B1F5005F 		cmp	r1, #8192
 1515 0028 1FD0     		beq	.L164
 1516 002a B1F5804F 		cmp	r1, #16384
 1517 002e 20D0     		beq	.L165
 1518 0030 B1F5805F 		cmp	r1, #4096
 1519 0034 F4D1     		bne	.L168
 1520 0036 006B     		ldr	r0, [r0, #48]
 1521 0038 FFF7FEFF 		bl	HAL_DMA_Abort_IT
 1522 003c 02E0     		b	.L158
 1523              	.L170:
 1524 003e 006A     		ldr	r0, [r0, #32]
 1525 0040 FFF7FEFF 		bl	HAL_DMA_Abort_IT
 1526              	.L158:
 1527 0044 20B9     		cbnz	r0, .L167
 1528 0046 2A68     		ldr	r2, [r5]
 1529 0048 D368     		ldr	r3, [r2, #12]
 1530 004a 23EA0404 		bic	r4, r3, r4
 1531 004e D460     		str	r4, [r2, #12]
 1532              	.L167:
 1533 0050 38BD     		pop	{r3, r4, r5, pc}
 1534              	.L161:
 1535 0052 406A     		ldr	r0, [r0, #36]
 1536 0054 FFF7FEFF 		bl	HAL_DMA_Abort_IT
 1537 0058 F4E7     		b	.L158
 1538              	.L162:
 1539 005a 806A     		ldr	r0, [r0, #40]
 1540 005c FFF7FEFF 		bl	HAL_DMA_Abort_IT
 1541 0060 F0E7     		b	.L158
 1542              	.L159:
 1543 0062 C06A     		ldr	r0, [r0, #44]
 1544 0064 FFF7FEFF 		bl	HAL_DMA_Abort_IT
 1545 0068 ECE7     		b	.L158
 1546              	.L164:
 1547 006a 406B     		ldr	r0, [r0, #52]
 1548 006c FFF7FEFF 		bl	HAL_DMA_Abort_IT
 1549 0070 E8E7     		b	.L158
 1550              	.L165:
 1551 0072 806B     		ldr	r0, [r0, #56]
 1552 0074 FFF7FEFF 		bl	HAL_DMA_Abort_IT
 1553 0078 E4E7     		b	.L158
 1555              		.section	.text.HAL_TIM_GenerateEvent,"ax",%progbits
 1556              		.align	1
ARM GAS  /tmp/ccqz4ALL.s 			page 27


 1557              		.global	HAL_TIM_GenerateEvent
 1558              		.syntax unified
 1559              		.thumb
 1560              		.thumb_func
 1561              		.fpu softvfp
 1563              	HAL_TIM_GenerateEvent:
 1564              		@ args = 0, pretend = 0, frame = 0
 1565              		@ frame_needed = 0, uses_anonymous_args = 0
 1566              		@ link register save eliminated.
 1567 0000 90F83C30 		ldrb	r3, [r0, #60]	@ zero_extendqisi2
 1568 0004 012B     		cmp	r3, #1
 1569 0006 0CD0     		beq	.L173
 1570 0008 0223     		movs	r3, #2
 1571 000a 80F83D30 		strb	r3, [r0, #61]
 1572 000e 0368     		ldr	r3, [r0]
 1573 0010 5961     		str	r1, [r3, #20]
 1574 0012 0123     		movs	r3, #1
 1575 0014 80F83D30 		strb	r3, [r0, #61]
 1576 0018 0023     		movs	r3, #0
 1577 001a 80F83C30 		strb	r3, [r0, #60]
 1578 001e 1846     		mov	r0, r3
 1579 0020 7047     		bx	lr
 1580              	.L173:
 1581 0022 0220     		movs	r0, #2
 1582 0024 7047     		bx	lr
 1584              		.section	.text.HAL_TIM_ConfigTI1Input,"ax",%progbits
 1585              		.align	1
 1586              		.global	HAL_TIM_ConfigTI1Input
 1587              		.syntax unified
 1588              		.thumb
 1589              		.thumb_func
 1590              		.fpu softvfp
 1592              	HAL_TIM_ConfigTI1Input:
 1593              		@ args = 0, pretend = 0, frame = 0
 1594              		@ frame_needed = 0, uses_anonymous_args = 0
 1595              		@ link register save eliminated.
 1596 0000 0268     		ldr	r2, [r0]
 1597 0002 5368     		ldr	r3, [r2, #4]
 1598 0004 23F08003 		bic	r3, r3, #128
 1599 0008 1943     		orrs	r1, r1, r3
 1600 000a 5160     		str	r1, [r2, #4]
 1601 000c 0020     		movs	r0, #0
 1602 000e 7047     		bx	lr
 1604              		.section	.text.HAL_TIM_ReadCapturedValue,"ax",%progbits
 1605              		.align	1
 1606              		.global	HAL_TIM_ReadCapturedValue
 1607              		.syntax unified
 1608              		.thumb
 1609              		.thumb_func
 1610              		.fpu softvfp
 1612              	HAL_TIM_ReadCapturedValue:
 1613              		@ args = 0, pretend = 0, frame = 0
 1614              		@ frame_needed = 0, uses_anonymous_args = 0
 1615              		@ link register save eliminated.
 1616 0000 0C29     		cmp	r1, #12
 1617 0002 14D8     		bhi	.L182
 1618 0004 DFE801F0 		tbb	[pc, r1]
ARM GAS  /tmp/ccqz4ALL.s 			page 28


 1619              	.L178:
 1620 0008 07       		.byte	(.L177-.L178)/2
 1621 0009 13       		.byte	(.L182-.L178)/2
 1622 000a 13       		.byte	(.L182-.L178)/2
 1623 000b 13       		.byte	(.L182-.L178)/2
 1624 000c 0A       		.byte	(.L179-.L178)/2
 1625 000d 13       		.byte	(.L182-.L178)/2
 1626 000e 13       		.byte	(.L182-.L178)/2
 1627 000f 13       		.byte	(.L182-.L178)/2
 1628 0010 0D       		.byte	(.L180-.L178)/2
 1629 0011 13       		.byte	(.L182-.L178)/2
 1630 0012 13       		.byte	(.L182-.L178)/2
 1631 0013 13       		.byte	(.L182-.L178)/2
 1632 0014 10       		.byte	(.L181-.L178)/2
 1633 0015 00       		.p2align 1
 1634              	.L177:
 1635 0016 0368     		ldr	r3, [r0]
 1636 0018 586B     		ldr	r0, [r3, #52]
 1637 001a 7047     		bx	lr
 1638              	.L179:
 1639 001c 0368     		ldr	r3, [r0]
 1640 001e 986B     		ldr	r0, [r3, #56]
 1641 0020 7047     		bx	lr
 1642              	.L180:
 1643 0022 0368     		ldr	r3, [r0]
 1644 0024 D86B     		ldr	r0, [r3, #60]
 1645 0026 7047     		bx	lr
 1646              	.L181:
 1647 0028 0368     		ldr	r3, [r0]
 1648 002a 186C     		ldr	r0, [r3, #64]
 1649 002c 7047     		bx	lr
 1650              	.L182:
 1651 002e 0020     		movs	r0, #0
 1652 0030 7047     		bx	lr
 1654              		.section	.text.HAL_TIM_PeriodElapsedCallback,"ax",%progbits
 1655              		.align	1
 1656              		.weak	HAL_TIM_PeriodElapsedCallback
 1657              		.syntax unified
 1658              		.thumb
 1659              		.thumb_func
 1660              		.fpu softvfp
 1662              	HAL_TIM_PeriodElapsedCallback:
 1663              		@ args = 0, pretend = 0, frame = 0
 1664              		@ frame_needed = 0, uses_anonymous_args = 0
 1665              		@ link register save eliminated.
 1666 0000 7047     		bx	lr
 1668              		.section	.text.TIM_DMAPeriodElapsedCplt,"ax",%progbits
 1669              		.align	1
 1670              		.syntax unified
 1671              		.thumb
 1672              		.thumb_func
 1673              		.fpu softvfp
 1675              	TIM_DMAPeriodElapsedCplt:
 1676              		@ args = 0, pretend = 0, frame = 0
 1677              		@ frame_needed = 0, uses_anonymous_args = 0
 1678 0000 08B5     		push	{r3, lr}
 1679 0002 406A     		ldr	r0, [r0, #36]
ARM GAS  /tmp/ccqz4ALL.s 			page 29


 1680 0004 0123     		movs	r3, #1
 1681 0006 80F83D30 		strb	r3, [r0, #61]
 1682 000a FFF7FEFF 		bl	HAL_TIM_PeriodElapsedCallback
 1683 000e 08BD     		pop	{r3, pc}
 1685              		.section	.text.HAL_TIM_PeriodElapsedHalfCpltCallback,"ax",%progbits
 1686              		.align	1
 1687              		.weak	HAL_TIM_PeriodElapsedHalfCpltCallback
 1688              		.syntax unified
 1689              		.thumb
 1690              		.thumb_func
 1691              		.fpu softvfp
 1693              	HAL_TIM_PeriodElapsedHalfCpltCallback:
 1694              		@ args = 0, pretend = 0, frame = 0
 1695              		@ frame_needed = 0, uses_anonymous_args = 0
 1696              		@ link register save eliminated.
 1697 0000 7047     		bx	lr
 1699              		.section	.text.TIM_DMAPeriodElapsedHalfCplt,"ax",%progbits
 1700              		.align	1
 1701              		.syntax unified
 1702              		.thumb
 1703              		.thumb_func
 1704              		.fpu softvfp
 1706              	TIM_DMAPeriodElapsedHalfCplt:
 1707              		@ args = 0, pretend = 0, frame = 0
 1708              		@ frame_needed = 0, uses_anonymous_args = 0
 1709 0000 08B5     		push	{r3, lr}
 1710 0002 406A     		ldr	r0, [r0, #36]
 1711 0004 0123     		movs	r3, #1
 1712 0006 80F83D30 		strb	r3, [r0, #61]
 1713 000a FFF7FEFF 		bl	HAL_TIM_PeriodElapsedHalfCpltCallback
 1714 000e 08BD     		pop	{r3, pc}
 1716              		.section	.text.HAL_TIM_OC_DelayElapsedCallback,"ax",%progbits
 1717              		.align	1
 1718              		.weak	HAL_TIM_OC_DelayElapsedCallback
 1719              		.syntax unified
 1720              		.thumb
 1721              		.thumb_func
 1722              		.fpu softvfp
 1724              	HAL_TIM_OC_DelayElapsedCallback:
 1725              		@ args = 0, pretend = 0, frame = 0
 1726              		@ frame_needed = 0, uses_anonymous_args = 0
 1727              		@ link register save eliminated.
 1728 0000 7047     		bx	lr
 1730              		.section	.text.HAL_TIM_IC_CaptureCallback,"ax",%progbits
 1731              		.align	1
 1732              		.weak	HAL_TIM_IC_CaptureCallback
 1733              		.syntax unified
 1734              		.thumb
 1735              		.thumb_func
 1736              		.fpu softvfp
 1738              	HAL_TIM_IC_CaptureCallback:
 1739              		@ args = 0, pretend = 0, frame = 0
 1740              		@ frame_needed = 0, uses_anonymous_args = 0
 1741              		@ link register save eliminated.
 1742 0000 7047     		bx	lr
 1744              		.section	.text.TIM_DMACaptureCplt,"ax",%progbits
 1745              		.align	1
ARM GAS  /tmp/ccqz4ALL.s 			page 30


 1746              		.global	TIM_DMACaptureCplt
 1747              		.syntax unified
 1748              		.thumb
 1749              		.thumb_func
 1750              		.fpu softvfp
 1752              	TIM_DMACaptureCplt:
 1753              		@ args = 0, pretend = 0, frame = 0
 1754              		@ frame_needed = 0, uses_anonymous_args = 0
 1755 0000 10B5     		push	{r4, lr}
 1756 0002 446A     		ldr	r4, [r0, #36]
 1757 0004 0123     		movs	r3, #1
 1758 0006 84F83D30 		strb	r3, [r4, #61]
 1759 000a 636A     		ldr	r3, [r4, #36]
 1760 000c 9842     		cmp	r0, r3
 1761 000e 0ED0     		beq	.L197
 1762 0010 A36A     		ldr	r3, [r4, #40]
 1763 0012 9842     		cmp	r0, r3
 1764 0014 0ED0     		beq	.L198
 1765 0016 E36A     		ldr	r3, [r4, #44]
 1766 0018 9842     		cmp	r0, r3
 1767 001a 0ED0     		beq	.L199
 1768 001c 236B     		ldr	r3, [r4, #48]
 1769 001e 9842     		cmp	r0, r3
 1770 0020 0ED0     		beq	.L200
 1771              	.L193:
 1772 0022 2046     		mov	r0, r4
 1773 0024 FFF7FEFF 		bl	HAL_TIM_IC_CaptureCallback
 1774 0028 0023     		movs	r3, #0
 1775 002a 2377     		strb	r3, [r4, #28]
 1776 002c 10BD     		pop	{r4, pc}
 1777              	.L197:
 1778 002e 0123     		movs	r3, #1
 1779 0030 2377     		strb	r3, [r4, #28]
 1780 0032 F6E7     		b	.L193
 1781              	.L198:
 1782 0034 0223     		movs	r3, #2
 1783 0036 2377     		strb	r3, [r4, #28]
 1784 0038 F3E7     		b	.L193
 1785              	.L199:
 1786 003a 0423     		movs	r3, #4
 1787 003c 2377     		strb	r3, [r4, #28]
 1788 003e F0E7     		b	.L193
 1789              	.L200:
 1790 0040 0823     		movs	r3, #8
 1791 0042 2377     		strb	r3, [r4, #28]
 1792 0044 EDE7     		b	.L193
 1794              		.section	.text.HAL_TIM_IC_CaptureHalfCpltCallback,"ax",%progbits
 1795              		.align	1
 1796              		.weak	HAL_TIM_IC_CaptureHalfCpltCallback
 1797              		.syntax unified
 1798              		.thumb
 1799              		.thumb_func
 1800              		.fpu softvfp
 1802              	HAL_TIM_IC_CaptureHalfCpltCallback:
 1803              		@ args = 0, pretend = 0, frame = 0
 1804              		@ frame_needed = 0, uses_anonymous_args = 0
 1805              		@ link register save eliminated.
ARM GAS  /tmp/ccqz4ALL.s 			page 31


 1806 0000 7047     		bx	lr
 1808              		.section	.text.TIM_DMACaptureHalfCplt,"ax",%progbits
 1809              		.align	1
 1810              		.global	TIM_DMACaptureHalfCplt
 1811              		.syntax unified
 1812              		.thumb
 1813              		.thumb_func
 1814              		.fpu softvfp
 1816              	TIM_DMACaptureHalfCplt:
 1817              		@ args = 0, pretend = 0, frame = 0
 1818              		@ frame_needed = 0, uses_anonymous_args = 0
 1819 0000 10B5     		push	{r4, lr}
 1820 0002 446A     		ldr	r4, [r0, #36]
 1821 0004 0123     		movs	r3, #1
 1822 0006 84F83D30 		strb	r3, [r4, #61]
 1823 000a 636A     		ldr	r3, [r4, #36]
 1824 000c 9842     		cmp	r0, r3
 1825 000e 0ED0     		beq	.L208
 1826 0010 A36A     		ldr	r3, [r4, #40]
 1827 0012 9842     		cmp	r0, r3
 1828 0014 0ED0     		beq	.L209
 1829 0016 E36A     		ldr	r3, [r4, #44]
 1830 0018 9842     		cmp	r0, r3
 1831 001a 0ED0     		beq	.L210
 1832 001c 236B     		ldr	r3, [r4, #48]
 1833 001e 9842     		cmp	r0, r3
 1834 0020 0ED0     		beq	.L211
 1835              	.L204:
 1836 0022 2046     		mov	r0, r4
 1837 0024 FFF7FEFF 		bl	HAL_TIM_IC_CaptureHalfCpltCallback
 1838 0028 0023     		movs	r3, #0
 1839 002a 2377     		strb	r3, [r4, #28]
 1840 002c 10BD     		pop	{r4, pc}
 1841              	.L208:
 1842 002e 0123     		movs	r3, #1
 1843 0030 2377     		strb	r3, [r4, #28]
 1844 0032 F6E7     		b	.L204
 1845              	.L209:
 1846 0034 0223     		movs	r3, #2
 1847 0036 2377     		strb	r3, [r4, #28]
 1848 0038 F3E7     		b	.L204
 1849              	.L210:
 1850 003a 0423     		movs	r3, #4
 1851 003c 2377     		strb	r3, [r4, #28]
 1852 003e F0E7     		b	.L204
 1853              	.L211:
 1854 0040 0823     		movs	r3, #8
 1855 0042 2377     		strb	r3, [r4, #28]
 1856 0044 EDE7     		b	.L204
 1858              		.section	.text.HAL_TIM_PWM_PulseFinishedCallback,"ax",%progbits
 1859              		.align	1
 1860              		.weak	HAL_TIM_PWM_PulseFinishedCallback
 1861              		.syntax unified
 1862              		.thumb
 1863              		.thumb_func
 1864              		.fpu softvfp
 1866              	HAL_TIM_PWM_PulseFinishedCallback:
ARM GAS  /tmp/ccqz4ALL.s 			page 32


 1867              		@ args = 0, pretend = 0, frame = 0
 1868              		@ frame_needed = 0, uses_anonymous_args = 0
 1869              		@ link register save eliminated.
 1870 0000 7047     		bx	lr
 1872              		.section	.text.TIM_DMADelayPulseCplt,"ax",%progbits
 1873              		.align	1
 1874              		.global	TIM_DMADelayPulseCplt
 1875              		.syntax unified
 1876              		.thumb
 1877              		.thumb_func
 1878              		.fpu softvfp
 1880              	TIM_DMADelayPulseCplt:
 1881              		@ args = 0, pretend = 0, frame = 0
 1882              		@ frame_needed = 0, uses_anonymous_args = 0
 1883 0000 10B5     		push	{r4, lr}
 1884 0002 446A     		ldr	r4, [r0, #36]
 1885 0004 0123     		movs	r3, #1
 1886 0006 84F83D30 		strb	r3, [r4, #61]
 1887 000a 636A     		ldr	r3, [r4, #36]
 1888 000c 9842     		cmp	r0, r3
 1889 000e 0ED0     		beq	.L219
 1890 0010 A36A     		ldr	r3, [r4, #40]
 1891 0012 9842     		cmp	r0, r3
 1892 0014 0ED0     		beq	.L220
 1893 0016 E36A     		ldr	r3, [r4, #44]
 1894 0018 9842     		cmp	r0, r3
 1895 001a 0ED0     		beq	.L221
 1896 001c 236B     		ldr	r3, [r4, #48]
 1897 001e 9842     		cmp	r0, r3
 1898 0020 0ED0     		beq	.L222
 1899              	.L215:
 1900 0022 2046     		mov	r0, r4
 1901 0024 FFF7FEFF 		bl	HAL_TIM_PWM_PulseFinishedCallback
 1902 0028 0023     		movs	r3, #0
 1903 002a 2377     		strb	r3, [r4, #28]
 1904 002c 10BD     		pop	{r4, pc}
 1905              	.L219:
 1906 002e 0123     		movs	r3, #1
 1907 0030 2377     		strb	r3, [r4, #28]
 1908 0032 F6E7     		b	.L215
 1909              	.L220:
 1910 0034 0223     		movs	r3, #2
 1911 0036 2377     		strb	r3, [r4, #28]
 1912 0038 F3E7     		b	.L215
 1913              	.L221:
 1914 003a 0423     		movs	r3, #4
 1915 003c 2377     		strb	r3, [r4, #28]
 1916 003e F0E7     		b	.L215
 1917              	.L222:
 1918 0040 0823     		movs	r3, #8
 1919 0042 2377     		strb	r3, [r4, #28]
 1920 0044 EDE7     		b	.L215
 1922              		.section	.text.HAL_TIM_PWM_PulseFinishedHalfCpltCallback,"ax",%progbits
 1923              		.align	1
 1924              		.weak	HAL_TIM_PWM_PulseFinishedHalfCpltCallback
 1925              		.syntax unified
 1926              		.thumb
ARM GAS  /tmp/ccqz4ALL.s 			page 33


 1927              		.thumb_func
 1928              		.fpu softvfp
 1930              	HAL_TIM_PWM_PulseFinishedHalfCpltCallback:
 1931              		@ args = 0, pretend = 0, frame = 0
 1932              		@ frame_needed = 0, uses_anonymous_args = 0
 1933              		@ link register save eliminated.
 1934 0000 7047     		bx	lr
 1936              		.section	.text.TIM_DMADelayPulseHalfCplt,"ax",%progbits
 1937              		.align	1
 1938              		.global	TIM_DMADelayPulseHalfCplt
 1939              		.syntax unified
 1940              		.thumb
 1941              		.thumb_func
 1942              		.fpu softvfp
 1944              	TIM_DMADelayPulseHalfCplt:
 1945              		@ args = 0, pretend = 0, frame = 0
 1946              		@ frame_needed = 0, uses_anonymous_args = 0
 1947 0000 10B5     		push	{r4, lr}
 1948 0002 446A     		ldr	r4, [r0, #36]
 1949 0004 0123     		movs	r3, #1
 1950 0006 84F83D30 		strb	r3, [r4, #61]
 1951 000a 636A     		ldr	r3, [r4, #36]
 1952 000c 9842     		cmp	r0, r3
 1953 000e 0ED0     		beq	.L230
 1954 0010 A36A     		ldr	r3, [r4, #40]
 1955 0012 9842     		cmp	r0, r3
 1956 0014 0ED0     		beq	.L231
 1957 0016 E36A     		ldr	r3, [r4, #44]
 1958 0018 9842     		cmp	r0, r3
 1959 001a 0ED0     		beq	.L232
 1960 001c 236B     		ldr	r3, [r4, #48]
 1961 001e 9842     		cmp	r0, r3
 1962 0020 0ED0     		beq	.L233
 1963              	.L226:
 1964 0022 2046     		mov	r0, r4
 1965 0024 FFF7FEFF 		bl	HAL_TIM_PWM_PulseFinishedHalfCpltCallback
 1966 0028 0023     		movs	r3, #0
 1967 002a 2377     		strb	r3, [r4, #28]
 1968 002c 10BD     		pop	{r4, pc}
 1969              	.L230:
 1970 002e 0123     		movs	r3, #1
 1971 0030 2377     		strb	r3, [r4, #28]
 1972 0032 F6E7     		b	.L226
 1973              	.L231:
 1974 0034 0223     		movs	r3, #2
 1975 0036 2377     		strb	r3, [r4, #28]
 1976 0038 F3E7     		b	.L226
 1977              	.L232:
 1978 003a 0423     		movs	r3, #4
 1979 003c 2377     		strb	r3, [r4, #28]
 1980 003e F0E7     		b	.L226
 1981              	.L233:
 1982 0040 0823     		movs	r3, #8
 1983 0042 2377     		strb	r3, [r4, #28]
 1984 0044 EDE7     		b	.L226
 1986              		.section	.text.HAL_TIM_TriggerCallback,"ax",%progbits
 1987              		.align	1
ARM GAS  /tmp/ccqz4ALL.s 			page 34


 1988              		.weak	HAL_TIM_TriggerCallback
 1989              		.syntax unified
 1990              		.thumb
 1991              		.thumb_func
 1992              		.fpu softvfp
 1994              	HAL_TIM_TriggerCallback:
 1995              		@ args = 0, pretend = 0, frame = 0
 1996              		@ frame_needed = 0, uses_anonymous_args = 0
 1997              		@ link register save eliminated.
 1998 0000 7047     		bx	lr
 2000              		.section	.text.HAL_TIM_IRQHandler,"ax",%progbits
 2001              		.align	1
 2002              		.global	HAL_TIM_IRQHandler
 2003              		.syntax unified
 2004              		.thumb
 2005              		.thumb_func
 2006              		.fpu softvfp
 2008              	HAL_TIM_IRQHandler:
 2009              		@ args = 0, pretend = 0, frame = 0
 2010              		@ frame_needed = 0, uses_anonymous_args = 0
 2011 0000 10B5     		push	{r4, lr}
 2012 0002 0446     		mov	r4, r0
 2013 0004 0368     		ldr	r3, [r0]
 2014 0006 1A69     		ldr	r2, [r3, #16]
 2015 0008 12F0020F 		tst	r2, #2
 2016 000c 11D0     		beq	.L236
 2017 000e DA68     		ldr	r2, [r3, #12]
 2018 0010 12F0020F 		tst	r2, #2
 2019 0014 0DD0     		beq	.L236
 2020 0016 6FF00202 		mvn	r2, #2
 2021 001a 1A61     		str	r2, [r3, #16]
 2022 001c 0123     		movs	r3, #1
 2023 001e 0377     		strb	r3, [r0, #28]
 2024 0020 0368     		ldr	r3, [r0]
 2025 0022 9B69     		ldr	r3, [r3, #24]
 2026 0024 13F0030F 		tst	r3, #3
 2027 0028 70D0     		beq	.L237
 2028 002a FFF7FEFF 		bl	HAL_TIM_IC_CaptureCallback
 2029              	.L238:
 2030 002e 0023     		movs	r3, #0
 2031 0030 2377     		strb	r3, [r4, #28]
 2032              	.L236:
 2033 0032 2368     		ldr	r3, [r4]
 2034 0034 1A69     		ldr	r2, [r3, #16]
 2035 0036 12F0040F 		tst	r2, #4
 2036 003a 12D0     		beq	.L239
 2037 003c DA68     		ldr	r2, [r3, #12]
 2038 003e 12F0040F 		tst	r2, #4
 2039 0042 0ED0     		beq	.L239
 2040 0044 6FF00402 		mvn	r2, #4
 2041 0048 1A61     		str	r2, [r3, #16]
 2042 004a 0223     		movs	r3, #2
 2043 004c 2377     		strb	r3, [r4, #28]
 2044 004e 2368     		ldr	r3, [r4]
 2045 0050 9B69     		ldr	r3, [r3, #24]
 2046 0052 13F4407F 		tst	r3, #768
 2047 0056 5FD0     		beq	.L240
ARM GAS  /tmp/ccqz4ALL.s 			page 35


 2048 0058 2046     		mov	r0, r4
 2049 005a FFF7FEFF 		bl	HAL_TIM_IC_CaptureCallback
 2050              	.L241:
 2051 005e 0023     		movs	r3, #0
 2052 0060 2377     		strb	r3, [r4, #28]
 2053              	.L239:
 2054 0062 2368     		ldr	r3, [r4]
 2055 0064 1A69     		ldr	r2, [r3, #16]
 2056 0066 12F0080F 		tst	r2, #8
 2057 006a 12D0     		beq	.L242
 2058 006c DA68     		ldr	r2, [r3, #12]
 2059 006e 12F0080F 		tst	r2, #8
 2060 0072 0ED0     		beq	.L242
 2061 0074 6FF00802 		mvn	r2, #8
 2062 0078 1A61     		str	r2, [r3, #16]
 2063 007a 0423     		movs	r3, #4
 2064 007c 2377     		strb	r3, [r4, #28]
 2065 007e 2368     		ldr	r3, [r4]
 2066 0080 DB69     		ldr	r3, [r3, #28]
 2067 0082 13F0030F 		tst	r3, #3
 2068 0086 4ED0     		beq	.L243
 2069 0088 2046     		mov	r0, r4
 2070 008a FFF7FEFF 		bl	HAL_TIM_IC_CaptureCallback
 2071              	.L244:
 2072 008e 0023     		movs	r3, #0
 2073 0090 2377     		strb	r3, [r4, #28]
 2074              	.L242:
 2075 0092 2368     		ldr	r3, [r4]
 2076 0094 1A69     		ldr	r2, [r3, #16]
 2077 0096 12F0100F 		tst	r2, #16
 2078 009a 12D0     		beq	.L245
 2079 009c DA68     		ldr	r2, [r3, #12]
 2080 009e 12F0100F 		tst	r2, #16
 2081 00a2 0ED0     		beq	.L245
 2082 00a4 6FF01002 		mvn	r2, #16
 2083 00a8 1A61     		str	r2, [r3, #16]
 2084 00aa 0823     		movs	r3, #8
 2085 00ac 2377     		strb	r3, [r4, #28]
 2086 00ae 2368     		ldr	r3, [r4]
 2087 00b0 DB69     		ldr	r3, [r3, #28]
 2088 00b2 13F4407F 		tst	r3, #768
 2089 00b6 3DD0     		beq	.L246
 2090 00b8 2046     		mov	r0, r4
 2091 00ba FFF7FEFF 		bl	HAL_TIM_IC_CaptureCallback
 2092              	.L247:
 2093 00be 0023     		movs	r3, #0
 2094 00c0 2377     		strb	r3, [r4, #28]
 2095              	.L245:
 2096 00c2 2368     		ldr	r3, [r4]
 2097 00c4 1A69     		ldr	r2, [r3, #16]
 2098 00c6 12F0010F 		tst	r2, #1
 2099 00ca 03D0     		beq	.L248
 2100 00cc DA68     		ldr	r2, [r3, #12]
 2101 00ce 12F0010F 		tst	r2, #1
 2102 00d2 36D1     		bne	.L253
 2103              	.L248:
 2104 00d4 2368     		ldr	r3, [r4]
ARM GAS  /tmp/ccqz4ALL.s 			page 36


 2105 00d6 1A69     		ldr	r2, [r3, #16]
 2106 00d8 12F0800F 		tst	r2, #128
 2107 00dc 03D0     		beq	.L249
 2108 00de DA68     		ldr	r2, [r3, #12]
 2109 00e0 12F0800F 		tst	r2, #128
 2110 00e4 34D1     		bne	.L254
 2111              	.L249:
 2112 00e6 2368     		ldr	r3, [r4]
 2113 00e8 1A69     		ldr	r2, [r3, #16]
 2114 00ea 12F0400F 		tst	r2, #64
 2115 00ee 03D0     		beq	.L250
 2116 00f0 DA68     		ldr	r2, [r3, #12]
 2117 00f2 12F0400F 		tst	r2, #64
 2118 00f6 32D1     		bne	.L255
 2119              	.L250:
 2120 00f8 2368     		ldr	r3, [r4]
 2121 00fa 1A69     		ldr	r2, [r3, #16]
 2122 00fc 12F0200F 		tst	r2, #32
 2123 0100 03D0     		beq	.L235
 2124 0102 DA68     		ldr	r2, [r3, #12]
 2125 0104 12F0200F 		tst	r2, #32
 2126 0108 30D1     		bne	.L256
 2127              	.L235:
 2128 010a 10BD     		pop	{r4, pc}
 2129              	.L237:
 2130 010c FFF7FEFF 		bl	HAL_TIM_OC_DelayElapsedCallback
 2131 0110 2046     		mov	r0, r4
 2132 0112 FFF7FEFF 		bl	HAL_TIM_PWM_PulseFinishedCallback
 2133 0116 8AE7     		b	.L238
 2134              	.L240:
 2135 0118 2046     		mov	r0, r4
 2136 011a FFF7FEFF 		bl	HAL_TIM_OC_DelayElapsedCallback
 2137 011e 2046     		mov	r0, r4
 2138 0120 FFF7FEFF 		bl	HAL_TIM_PWM_PulseFinishedCallback
 2139 0124 9BE7     		b	.L241
 2140              	.L243:
 2141 0126 2046     		mov	r0, r4
 2142 0128 FFF7FEFF 		bl	HAL_TIM_OC_DelayElapsedCallback
 2143 012c 2046     		mov	r0, r4
 2144 012e FFF7FEFF 		bl	HAL_TIM_PWM_PulseFinishedCallback
 2145 0132 ACE7     		b	.L244
 2146              	.L246:
 2147 0134 2046     		mov	r0, r4
 2148 0136 FFF7FEFF 		bl	HAL_TIM_OC_DelayElapsedCallback
 2149 013a 2046     		mov	r0, r4
 2150 013c FFF7FEFF 		bl	HAL_TIM_PWM_PulseFinishedCallback
 2151 0140 BDE7     		b	.L247
 2152              	.L253:
 2153 0142 6FF00102 		mvn	r2, #1
 2154 0146 1A61     		str	r2, [r3, #16]
 2155 0148 2046     		mov	r0, r4
 2156 014a FFF7FEFF 		bl	HAL_TIM_PeriodElapsedCallback
 2157 014e C1E7     		b	.L248
 2158              	.L254:
 2159 0150 6FF08002 		mvn	r2, #128
 2160 0154 1A61     		str	r2, [r3, #16]
 2161 0156 2046     		mov	r0, r4
ARM GAS  /tmp/ccqz4ALL.s 			page 37


 2162 0158 FFF7FEFF 		bl	HAL_TIMEx_BreakCallback
 2163 015c C3E7     		b	.L249
 2164              	.L255:
 2165 015e 6FF04002 		mvn	r2, #64
 2166 0162 1A61     		str	r2, [r3, #16]
 2167 0164 2046     		mov	r0, r4
 2168 0166 FFF7FEFF 		bl	HAL_TIM_TriggerCallback
 2169 016a C5E7     		b	.L250
 2170              	.L256:
 2171 016c 6FF02002 		mvn	r2, #32
 2172 0170 1A61     		str	r2, [r3, #16]
 2173 0172 2046     		mov	r0, r4
 2174 0174 FFF7FEFF 		bl	HAL_TIMEx_CommutCallback
 2175 0178 C7E7     		b	.L235
 2177              		.section	.text.TIM_DMATriggerCplt,"ax",%progbits
 2178              		.align	1
 2179              		.syntax unified
 2180              		.thumb
 2181              		.thumb_func
 2182              		.fpu softvfp
 2184              	TIM_DMATriggerCplt:
 2185              		@ args = 0, pretend = 0, frame = 0
 2186              		@ frame_needed = 0, uses_anonymous_args = 0
 2187 0000 08B5     		push	{r3, lr}
 2188 0002 406A     		ldr	r0, [r0, #36]
 2189 0004 0123     		movs	r3, #1
 2190 0006 80F83D30 		strb	r3, [r0, #61]
 2191 000a FFF7FEFF 		bl	HAL_TIM_TriggerCallback
 2192 000e 08BD     		pop	{r3, pc}
 2194              		.section	.text.HAL_TIM_TriggerHalfCpltCallback,"ax",%progbits
 2195              		.align	1
 2196              		.weak	HAL_TIM_TriggerHalfCpltCallback
 2197              		.syntax unified
 2198              		.thumb
 2199              		.thumb_func
 2200              		.fpu softvfp
 2202              	HAL_TIM_TriggerHalfCpltCallback:
 2203              		@ args = 0, pretend = 0, frame = 0
 2204              		@ frame_needed = 0, uses_anonymous_args = 0
 2205              		@ link register save eliminated.
 2206 0000 7047     		bx	lr
 2208              		.section	.text.TIM_DMATriggerHalfCplt,"ax",%progbits
 2209              		.align	1
 2210              		.syntax unified
 2211              		.thumb
 2212              		.thumb_func
 2213              		.fpu softvfp
 2215              	TIM_DMATriggerHalfCplt:
 2216              		@ args = 0, pretend = 0, frame = 0
 2217              		@ frame_needed = 0, uses_anonymous_args = 0
 2218 0000 08B5     		push	{r3, lr}
 2219 0002 406A     		ldr	r0, [r0, #36]
 2220 0004 0123     		movs	r3, #1
 2221 0006 80F83D30 		strb	r3, [r0, #61]
 2222 000a FFF7FEFF 		bl	HAL_TIM_TriggerHalfCpltCallback
 2223 000e 08BD     		pop	{r3, pc}
 2225              		.section	.text.HAL_TIM_ErrorCallback,"ax",%progbits
ARM GAS  /tmp/ccqz4ALL.s 			page 38


 2226              		.align	1
 2227              		.weak	HAL_TIM_ErrorCallback
 2228              		.syntax unified
 2229              		.thumb
 2230              		.thumb_func
 2231              		.fpu softvfp
 2233              	HAL_TIM_ErrorCallback:
 2234              		@ args = 0, pretend = 0, frame = 0
 2235              		@ frame_needed = 0, uses_anonymous_args = 0
 2236              		@ link register save eliminated.
 2237 0000 7047     		bx	lr
 2239              		.section	.text.TIM_DMAError,"ax",%progbits
 2240              		.align	1
 2241              		.global	TIM_DMAError
 2242              		.syntax unified
 2243              		.thumb
 2244              		.thumb_func
 2245              		.fpu softvfp
 2247              	TIM_DMAError:
 2248              		@ args = 0, pretend = 0, frame = 0
 2249              		@ frame_needed = 0, uses_anonymous_args = 0
 2250 0000 08B5     		push	{r3, lr}
 2251 0002 406A     		ldr	r0, [r0, #36]
 2252 0004 0123     		movs	r3, #1
 2253 0006 80F83D30 		strb	r3, [r0, #61]
 2254 000a FFF7FEFF 		bl	HAL_TIM_ErrorCallback
 2255 000e 08BD     		pop	{r3, pc}
 2257              		.section	.text.HAL_TIM_Base_GetState,"ax",%progbits
 2258              		.align	1
 2259              		.global	HAL_TIM_Base_GetState
 2260              		.syntax unified
 2261              		.thumb
 2262              		.thumb_func
 2263              		.fpu softvfp
 2265              	HAL_TIM_Base_GetState:
 2266              		@ args = 0, pretend = 0, frame = 0
 2267              		@ frame_needed = 0, uses_anonymous_args = 0
 2268              		@ link register save eliminated.
 2269 0000 90F83D00 		ldrb	r0, [r0, #61]	@ zero_extendqisi2
 2270 0004 7047     		bx	lr
 2272              		.section	.text.HAL_TIM_OC_GetState,"ax",%progbits
 2273              		.align	1
 2274              		.global	HAL_TIM_OC_GetState
 2275              		.syntax unified
 2276              		.thumb
 2277              		.thumb_func
 2278              		.fpu softvfp
 2280              	HAL_TIM_OC_GetState:
 2281              		@ args = 0, pretend = 0, frame = 0
 2282              		@ frame_needed = 0, uses_anonymous_args = 0
 2283              		@ link register save eliminated.
 2284 0000 90F83D00 		ldrb	r0, [r0, #61]	@ zero_extendqisi2
 2285 0004 7047     		bx	lr
 2287              		.section	.text.HAL_TIM_PWM_GetState,"ax",%progbits
 2288              		.align	1
 2289              		.global	HAL_TIM_PWM_GetState
 2290              		.syntax unified
ARM GAS  /tmp/ccqz4ALL.s 			page 39


 2291              		.thumb
 2292              		.thumb_func
 2293              		.fpu softvfp
 2295              	HAL_TIM_PWM_GetState:
 2296              		@ args = 0, pretend = 0, frame = 0
 2297              		@ frame_needed = 0, uses_anonymous_args = 0
 2298              		@ link register save eliminated.
 2299 0000 90F83D00 		ldrb	r0, [r0, #61]	@ zero_extendqisi2
 2300 0004 7047     		bx	lr
 2302              		.section	.text.HAL_TIM_IC_GetState,"ax",%progbits
 2303              		.align	1
 2304              		.global	HAL_TIM_IC_GetState
 2305              		.syntax unified
 2306              		.thumb
 2307              		.thumb_func
 2308              		.fpu softvfp
 2310              	HAL_TIM_IC_GetState:
 2311              		@ args = 0, pretend = 0, frame = 0
 2312              		@ frame_needed = 0, uses_anonymous_args = 0
 2313              		@ link register save eliminated.
 2314 0000 90F83D00 		ldrb	r0, [r0, #61]	@ zero_extendqisi2
 2315 0004 7047     		bx	lr
 2317              		.section	.text.HAL_TIM_OnePulse_GetState,"ax",%progbits
 2318              		.align	1
 2319              		.global	HAL_TIM_OnePulse_GetState
 2320              		.syntax unified
 2321              		.thumb
 2322              		.thumb_func
 2323              		.fpu softvfp
 2325              	HAL_TIM_OnePulse_GetState:
 2326              		@ args = 0, pretend = 0, frame = 0
 2327              		@ frame_needed = 0, uses_anonymous_args = 0
 2328              		@ link register save eliminated.
 2329 0000 90F83D00 		ldrb	r0, [r0, #61]	@ zero_extendqisi2
 2330 0004 7047     		bx	lr
 2332              		.section	.text.HAL_TIM_Encoder_GetState,"ax",%progbits
 2333              		.align	1
 2334              		.global	HAL_TIM_Encoder_GetState
 2335              		.syntax unified
 2336              		.thumb
 2337              		.thumb_func
 2338              		.fpu softvfp
 2340              	HAL_TIM_Encoder_GetState:
 2341              		@ args = 0, pretend = 0, frame = 0
 2342              		@ frame_needed = 0, uses_anonymous_args = 0
 2343              		@ link register save eliminated.
 2344 0000 90F83D00 		ldrb	r0, [r0, #61]	@ zero_extendqisi2
 2345 0004 7047     		bx	lr
 2347              		.section	.text.TIM_Base_SetConfig,"ax",%progbits
 2348              		.align	1
 2349              		.global	TIM_Base_SetConfig
 2350              		.syntax unified
 2351              		.thumb
 2352              		.thumb_func
 2353              		.fpu softvfp
 2355              	TIM_Base_SetConfig:
 2356              		@ args = 0, pretend = 0, frame = 0
ARM GAS  /tmp/ccqz4ALL.s 			page 40


 2357              		@ frame_needed = 0, uses_anonymous_args = 0
 2358              		@ link register save eliminated.
 2359 0000 0368     		ldr	r3, [r0]
 2360 0002 184A     		ldr	r2, .L278
 2361 0004 9042     		cmp	r0, r2
 2362 0006 1FD0     		beq	.L272
 2363 0008 B0F1804F 		cmp	r0, #1073741824
 2364 000c 1CD0     		beq	.L272
 2365 000e A2F59432 		sub	r2, r2, #75776
 2366 0012 9042     		cmp	r0, r2
 2367 0014 18D0     		beq	.L272
 2368              	.L273:
 2369 0016 134A     		ldr	r2, .L278
 2370 0018 9042     		cmp	r0, r2
 2371 001a 1AD0     		beq	.L274
 2372 001c B0F1804F 		cmp	r0, #1073741824
 2373 0020 17D0     		beq	.L274
 2374 0022 A2F59432 		sub	r2, r2, #75776
 2375 0026 9042     		cmp	r0, r2
 2376 0028 13D0     		beq	.L274
 2377              	.L275:
 2378 002a 23F08003 		bic	r3, r3, #128
 2379 002e 4A69     		ldr	r2, [r1, #20]
 2380 0030 1343     		orrs	r3, r3, r2
 2381 0032 0360     		str	r3, [r0]
 2382 0034 8B68     		ldr	r3, [r1, #8]
 2383 0036 C362     		str	r3, [r0, #44]
 2384 0038 0B68     		ldr	r3, [r1]
 2385 003a 8362     		str	r3, [r0, #40]
 2386 003c 094B     		ldr	r3, .L278
 2387 003e 9842     		cmp	r0, r3
 2388 0040 0CD0     		beq	.L277
 2389              	.L276:
 2390 0042 0123     		movs	r3, #1
 2391 0044 4361     		str	r3, [r0, #20]
 2392 0046 7047     		bx	lr
 2393              	.L272:
 2394 0048 23F07003 		bic	r3, r3, #112
 2395 004c 4A68     		ldr	r2, [r1, #4]
 2396 004e 1343     		orrs	r3, r3, r2
 2397 0050 E1E7     		b	.L273
 2398              	.L274:
 2399 0052 23F44073 		bic	r3, r3, #768
 2400 0056 CA68     		ldr	r2, [r1, #12]
 2401 0058 1343     		orrs	r3, r3, r2
 2402 005a E6E7     		b	.L275
 2403              	.L277:
 2404 005c 0B69     		ldr	r3, [r1, #16]
 2405 005e 0363     		str	r3, [r0, #48]
 2406 0060 EFE7     		b	.L276
 2407              	.L279:
 2408 0062 00BF     		.align	2
 2409              	.L278:
 2410 0064 002C0140 		.word	1073818624
 2412              		.section	.text.HAL_TIM_Base_Init,"ax",%progbits
 2413              		.align	1
 2414              		.global	HAL_TIM_Base_Init
ARM GAS  /tmp/ccqz4ALL.s 			page 41


 2415              		.syntax unified
 2416              		.thumb
 2417              		.thumb_func
 2418              		.fpu softvfp
 2420              	HAL_TIM_Base_Init:
 2421              		@ args = 0, pretend = 0, frame = 0
 2422              		@ frame_needed = 0, uses_anonymous_args = 0
 2423 0000 A8B1     		cbz	r0, .L283
 2424 0002 10B5     		push	{r4, lr}
 2425 0004 0446     		mov	r4, r0
 2426 0006 90F83D30 		ldrb	r3, [r0, #61]	@ zero_extendqisi2
 2427 000a 5BB1     		cbz	r3, .L288
 2428              	.L282:
 2429 000c 0223     		movs	r3, #2
 2430 000e 84F83D30 		strb	r3, [r4, #61]
 2431 0012 211D     		adds	r1, r4, #4
 2432 0014 2068     		ldr	r0, [r4]
 2433 0016 FFF7FEFF 		bl	TIM_Base_SetConfig
 2434 001a 0123     		movs	r3, #1
 2435 001c 84F83D30 		strb	r3, [r4, #61]
 2436 0020 0020     		movs	r0, #0
 2437 0022 10BD     		pop	{r4, pc}
 2438              	.L288:
 2439 0024 80F83C30 		strb	r3, [r0, #60]
 2440 0028 FFF7FEFF 		bl	HAL_TIM_Base_MspInit
 2441 002c EEE7     		b	.L282
 2442              	.L283:
 2443 002e 0120     		movs	r0, #1
 2444 0030 7047     		bx	lr
 2446              		.section	.text.HAL_TIM_OC_Init,"ax",%progbits
 2447              		.align	1
 2448              		.global	HAL_TIM_OC_Init
 2449              		.syntax unified
 2450              		.thumb
 2451              		.thumb_func
 2452              		.fpu softvfp
 2454              	HAL_TIM_OC_Init:
 2455              		@ args = 0, pretend = 0, frame = 0
 2456              		@ frame_needed = 0, uses_anonymous_args = 0
 2457 0000 A8B1     		cbz	r0, .L292
 2458 0002 10B5     		push	{r4, lr}
 2459 0004 0446     		mov	r4, r0
 2460 0006 90F83D30 		ldrb	r3, [r0, #61]	@ zero_extendqisi2
 2461 000a 5BB1     		cbz	r3, .L297
 2462              	.L291:
 2463 000c 0223     		movs	r3, #2
 2464 000e 84F83D30 		strb	r3, [r4, #61]
 2465 0012 211D     		adds	r1, r4, #4
 2466 0014 2068     		ldr	r0, [r4]
 2467 0016 FFF7FEFF 		bl	TIM_Base_SetConfig
 2468 001a 0123     		movs	r3, #1
 2469 001c 84F83D30 		strb	r3, [r4, #61]
 2470 0020 0020     		movs	r0, #0
 2471 0022 10BD     		pop	{r4, pc}
 2472              	.L297:
 2473 0024 80F83C30 		strb	r3, [r0, #60]
 2474 0028 FFF7FEFF 		bl	HAL_TIM_OC_MspInit
ARM GAS  /tmp/ccqz4ALL.s 			page 42


 2475 002c EEE7     		b	.L291
 2476              	.L292:
 2477 002e 0120     		movs	r0, #1
 2478 0030 7047     		bx	lr
 2480              		.section	.text.HAL_TIM_PWM_Init,"ax",%progbits
 2481              		.align	1
 2482              		.global	HAL_TIM_PWM_Init
 2483              		.syntax unified
 2484              		.thumb
 2485              		.thumb_func
 2486              		.fpu softvfp
 2488              	HAL_TIM_PWM_Init:
 2489              		@ args = 0, pretend = 0, frame = 0
 2490              		@ frame_needed = 0, uses_anonymous_args = 0
 2491 0000 A8B1     		cbz	r0, .L301
 2492 0002 10B5     		push	{r4, lr}
 2493 0004 0446     		mov	r4, r0
 2494 0006 90F83D30 		ldrb	r3, [r0, #61]	@ zero_extendqisi2
 2495 000a 5BB1     		cbz	r3, .L306
 2496              	.L300:
 2497 000c 0223     		movs	r3, #2
 2498 000e 84F83D30 		strb	r3, [r4, #61]
 2499 0012 211D     		adds	r1, r4, #4
 2500 0014 2068     		ldr	r0, [r4]
 2501 0016 FFF7FEFF 		bl	TIM_Base_SetConfig
 2502 001a 0123     		movs	r3, #1
 2503 001c 84F83D30 		strb	r3, [r4, #61]
 2504 0020 0020     		movs	r0, #0
 2505 0022 10BD     		pop	{r4, pc}
 2506              	.L306:
 2507 0024 80F83C30 		strb	r3, [r0, #60]
 2508 0028 FFF7FEFF 		bl	HAL_TIM_PWM_MspInit
 2509 002c EEE7     		b	.L300
 2510              	.L301:
 2511 002e 0120     		movs	r0, #1
 2512 0030 7047     		bx	lr
 2514              		.section	.text.HAL_TIM_IC_Init,"ax",%progbits
 2515              		.align	1
 2516              		.global	HAL_TIM_IC_Init
 2517              		.syntax unified
 2518              		.thumb
 2519              		.thumb_func
 2520              		.fpu softvfp
 2522              	HAL_TIM_IC_Init:
 2523              		@ args = 0, pretend = 0, frame = 0
 2524              		@ frame_needed = 0, uses_anonymous_args = 0
 2525 0000 A8B1     		cbz	r0, .L310
 2526 0002 10B5     		push	{r4, lr}
 2527 0004 0446     		mov	r4, r0
 2528 0006 90F83D30 		ldrb	r3, [r0, #61]	@ zero_extendqisi2
 2529 000a 5BB1     		cbz	r3, .L315
 2530              	.L309:
 2531 000c 0223     		movs	r3, #2
 2532 000e 84F83D30 		strb	r3, [r4, #61]
 2533 0012 211D     		adds	r1, r4, #4
 2534 0014 2068     		ldr	r0, [r4]
 2535 0016 FFF7FEFF 		bl	TIM_Base_SetConfig
ARM GAS  /tmp/ccqz4ALL.s 			page 43


 2536 001a 0123     		movs	r3, #1
 2537 001c 84F83D30 		strb	r3, [r4, #61]
 2538 0020 0020     		movs	r0, #0
 2539 0022 10BD     		pop	{r4, pc}
 2540              	.L315:
 2541 0024 80F83C30 		strb	r3, [r0, #60]
 2542 0028 FFF7FEFF 		bl	HAL_TIM_IC_MspInit
 2543 002c EEE7     		b	.L309
 2544              	.L310:
 2545 002e 0120     		movs	r0, #1
 2546 0030 7047     		bx	lr
 2548              		.section	.text.HAL_TIM_OnePulse_Init,"ax",%progbits
 2549              		.align	1
 2550              		.global	HAL_TIM_OnePulse_Init
 2551              		.syntax unified
 2552              		.thumb
 2553              		.thumb_func
 2554              		.fpu softvfp
 2556              	HAL_TIM_OnePulse_Init:
 2557              		@ args = 0, pretend = 0, frame = 0
 2558              		@ frame_needed = 0, uses_anonymous_args = 0
 2559 0000 F8B1     		cbz	r0, .L319
 2560 0002 38B5     		push	{r3, r4, r5, lr}
 2561 0004 0446     		mov	r4, r0
 2562 0006 0D46     		mov	r5, r1
 2563 0008 90F83D30 		ldrb	r3, [r0, #61]	@ zero_extendqisi2
 2564 000c A3B1     		cbz	r3, .L324
 2565              	.L318:
 2566 000e 0223     		movs	r3, #2
 2567 0010 84F83D30 		strb	r3, [r4, #61]
 2568 0014 211D     		adds	r1, r4, #4
 2569 0016 2068     		ldr	r0, [r4]
 2570 0018 FFF7FEFF 		bl	TIM_Base_SetConfig
 2571 001c 2268     		ldr	r2, [r4]
 2572 001e 1368     		ldr	r3, [r2]
 2573 0020 23F00803 		bic	r3, r3, #8
 2574 0024 1360     		str	r3, [r2]
 2575 0026 2268     		ldr	r2, [r4]
 2576 0028 1368     		ldr	r3, [r2]
 2577 002a 2B43     		orrs	r3, r3, r5
 2578 002c 1360     		str	r3, [r2]
 2579 002e 0123     		movs	r3, #1
 2580 0030 84F83D30 		strb	r3, [r4, #61]
 2581 0034 0020     		movs	r0, #0
 2582 0036 38BD     		pop	{r3, r4, r5, pc}
 2583              	.L324:
 2584 0038 80F83C30 		strb	r3, [r0, #60]
 2585 003c FFF7FEFF 		bl	HAL_TIM_OnePulse_MspInit
 2586 0040 E5E7     		b	.L318
 2587              	.L319:
 2588 0042 0120     		movs	r0, #1
 2589 0044 7047     		bx	lr
 2591              		.section	.text.HAL_TIM_Encoder_Init,"ax",%progbits
 2592              		.align	1
 2593              		.global	HAL_TIM_Encoder_Init
 2594              		.syntax unified
 2595              		.thumb
ARM GAS  /tmp/ccqz4ALL.s 			page 44


 2596              		.thumb_func
 2597              		.fpu softvfp
 2599              	HAL_TIM_Encoder_Init:
 2600              		@ args = 0, pretend = 0, frame = 0
 2601              		@ frame_needed = 0, uses_anonymous_args = 0
 2602 0000 0028     		cmp	r0, #0
 2603 0002 49D0     		beq	.L328
 2604 0004 F8B5     		push	{r3, r4, r5, r6, r7, lr}
 2605 0006 0546     		mov	r5, r0
 2606 0008 0C46     		mov	r4, r1
 2607 000a 90F83D30 		ldrb	r3, [r0, #61]	@ zero_extendqisi2
 2608 000e 002B     		cmp	r3, #0
 2609 0010 3DD0     		beq	.L333
 2610              	.L327:
 2611 0012 0223     		movs	r3, #2
 2612 0014 85F83D30 		strb	r3, [r5, #61]
 2613 0018 2946     		mov	r1, r5
 2614 001a 51F8042B 		ldr	r2, [r1], #4
 2615 001e 9368     		ldr	r3, [r2, #8]
 2616 0020 23F48043 		bic	r3, r3, #16384
 2617 0024 23F00703 		bic	r3, r3, #7
 2618 0028 9360     		str	r3, [r2, #8]
 2619 002a 2868     		ldr	r0, [r5]
 2620 002c FFF7FEFF 		bl	TIM_Base_SetConfig
 2621 0030 2868     		ldr	r0, [r5]
 2622 0032 8668     		ldr	r6, [r0, #8]
 2623 0034 8369     		ldr	r3, [r0, #24]
 2624 0036 026A     		ldr	r2, [r0, #32]
 2625 0038 2168     		ldr	r1, [r4]
 2626 003a 0E43     		orrs	r6, r6, r1
 2627 003c 23F44073 		bic	r3, r3, #768
 2628 0040 23F00303 		bic	r3, r3, #3
 2629 0044 A168     		ldr	r1, [r4, #8]
 2630 0046 A769     		ldr	r7, [r4, #24]
 2631 0048 41EA0721 		orr	r1, r1, r7, lsl #8
 2632 004c 0B43     		orrs	r3, r3, r1
 2633 004e 23F47C43 		bic	r3, r3, #64512
 2634 0052 23F0FC03 		bic	r3, r3, #252
 2635 0056 E168     		ldr	r1, [r4, #12]
 2636 0058 E769     		ldr	r7, [r4, #28]
 2637 005a 41EA0721 		orr	r1, r1, r7, lsl #8
 2638 005e 0B43     		orrs	r3, r3, r1
 2639 0060 2769     		ldr	r7, [r4, #16]
 2640 0062 216A     		ldr	r1, [r4, #32]
 2641 0064 0903     		lsls	r1, r1, #12
 2642 0066 41EA0711 		orr	r1, r1, r7, lsl #4
 2643 006a 0B43     		orrs	r3, r3, r1
 2644 006c 22F02202 		bic	r2, r2, #34
 2645 0070 6168     		ldr	r1, [r4, #4]
 2646 0072 6469     		ldr	r4, [r4, #20]
 2647 0074 41EA0411 		orr	r1, r1, r4, lsl #4
 2648 0078 0A43     		orrs	r2, r2, r1
 2649 007a 8660     		str	r6, [r0, #8]
 2650 007c 2968     		ldr	r1, [r5]
 2651 007e 8B61     		str	r3, [r1, #24]
 2652 0080 2B68     		ldr	r3, [r5]
 2653 0082 1A62     		str	r2, [r3, #32]
ARM GAS  /tmp/ccqz4ALL.s 			page 45


 2654 0084 0123     		movs	r3, #1
 2655 0086 85F83D30 		strb	r3, [r5, #61]
 2656 008a 0020     		movs	r0, #0
 2657 008c F8BD     		pop	{r3, r4, r5, r6, r7, pc}
 2658              	.L333:
 2659 008e 80F83C30 		strb	r3, [r0, #60]
 2660 0092 FFF7FEFF 		bl	HAL_TIM_Encoder_MspInit
 2661 0096 BCE7     		b	.L327
 2662              	.L328:
 2663 0098 0120     		movs	r0, #1
 2664 009a 7047     		bx	lr
 2666              		.section	.text.TIM_OC2_SetConfig,"ax",%progbits
 2667              		.align	1
 2668              		.global	TIM_OC2_SetConfig
 2669              		.syntax unified
 2670              		.thumb
 2671              		.thumb_func
 2672              		.fpu softvfp
 2674              	TIM_OC2_SetConfig:
 2675              		@ args = 0, pretend = 0, frame = 0
 2676              		@ frame_needed = 0, uses_anonymous_args = 0
 2677              		@ link register save eliminated.
 2678 0000 30B4     		push	{r4, r5}
 2679 0002 036A     		ldr	r3, [r0, #32]
 2680 0004 23F01003 		bic	r3, r3, #16
 2681 0008 0362     		str	r3, [r0, #32]
 2682 000a 036A     		ldr	r3, [r0, #32]
 2683 000c 4468     		ldr	r4, [r0, #4]
 2684 000e 8269     		ldr	r2, [r0, #24]
 2685 0010 22F4E642 		bic	r2, r2, #29440
 2686 0014 0D68     		ldr	r5, [r1]
 2687 0016 42EA0522 		orr	r2, r2, r5, lsl #8
 2688 001a 23F02003 		bic	r3, r3, #32
 2689 001e 8D68     		ldr	r5, [r1, #8]
 2690 0020 43EA0513 		orr	r3, r3, r5, lsl #4
 2691 0024 0E4D     		ldr	r5, .L340
 2692 0026 A842     		cmp	r0, r5
 2693 0028 09D0     		beq	.L338
 2694              	.L335:
 2695 002a 0D4D     		ldr	r5, .L340
 2696 002c A842     		cmp	r0, r5
 2697 002e 0ED0     		beq	.L339
 2698              	.L336:
 2699 0030 4460     		str	r4, [r0, #4]
 2700 0032 8261     		str	r2, [r0, #24]
 2701 0034 4A68     		ldr	r2, [r1, #4]
 2702 0036 8263     		str	r2, [r0, #56]
 2703 0038 0362     		str	r3, [r0, #32]
 2704 003a 30BC     		pop	{r4, r5}
 2705 003c 7047     		bx	lr
 2706              	.L338:
 2707 003e 23F08003 		bic	r3, r3, #128
 2708 0042 CD68     		ldr	r5, [r1, #12]
 2709 0044 43EA0513 		orr	r3, r3, r5, lsl #4
 2710 0048 23F04003 		bic	r3, r3, #64
 2711 004c EDE7     		b	.L335
 2712              	.L339:
ARM GAS  /tmp/ccqz4ALL.s 			page 46


 2713 004e 24F44064 		bic	r4, r4, #3072
 2714 0052 4D69     		ldr	r5, [r1, #20]
 2715 0054 44EA8504 		orr	r4, r4, r5, lsl #2
 2716 0058 8D69     		ldr	r5, [r1, #24]
 2717 005a 44EA8504 		orr	r4, r4, r5, lsl #2
 2718 005e E7E7     		b	.L336
 2719              	.L341:
 2720              		.align	2
 2721              	.L340:
 2722 0060 002C0140 		.word	1073818624
 2724              		.section	.text.HAL_TIM_OC_ConfigChannel,"ax",%progbits
 2725              		.align	1
 2726              		.global	HAL_TIM_OC_ConfigChannel
 2727              		.syntax unified
 2728              		.thumb
 2729              		.thumb_func
 2730              		.fpu softvfp
 2732              	HAL_TIM_OC_ConfigChannel:
 2733              		@ args = 0, pretend = 0, frame = 0
 2734              		@ frame_needed = 0, uses_anonymous_args = 0
 2735 0000 90F83C30 		ldrb	r3, [r0, #60]	@ zero_extendqisi2
 2736 0004 012B     		cmp	r3, #1
 2737 0006 28D0     		beq	.L350
 2738 0008 10B5     		push	{r4, lr}
 2739 000a 0446     		mov	r4, r0
 2740 000c 0123     		movs	r3, #1
 2741 000e 80F83C30 		strb	r3, [r0, #60]
 2742 0012 0223     		movs	r3, #2
 2743 0014 80F83D30 		strb	r3, [r0, #61]
 2744 0018 0C2A     		cmp	r2, #12
 2745 001a 0BD8     		bhi	.L344
 2746 001c DFE802F0 		tbb	[pc, r2]
 2747              	.L346:
 2748 0020 07       		.byte	(.L345-.L346)/2
 2749 0021 0A       		.byte	(.L344-.L346)/2
 2750 0022 0A       		.byte	(.L344-.L346)/2
 2751 0023 0A       		.byte	(.L344-.L346)/2
 2752 0024 11       		.byte	(.L347-.L346)/2
 2753 0025 0A       		.byte	(.L344-.L346)/2
 2754 0026 0A       		.byte	(.L344-.L346)/2
 2755 0027 0A       		.byte	(.L344-.L346)/2
 2756 0028 15       		.byte	(.L348-.L346)/2
 2757 0029 0A       		.byte	(.L344-.L346)/2
 2758 002a 0A       		.byte	(.L344-.L346)/2
 2759 002b 0A       		.byte	(.L344-.L346)/2
 2760 002c 19       		.byte	(.L349-.L346)/2
 2761 002d 00       		.p2align 1
 2762              	.L345:
 2763 002e 0068     		ldr	r0, [r0]
 2764 0030 FFF7FEFF 		bl	TIM_OC1_SetConfig
 2765              	.L344:
 2766 0034 0123     		movs	r3, #1
 2767 0036 84F83D30 		strb	r3, [r4, #61]
 2768 003a 0020     		movs	r0, #0
 2769 003c 84F83C00 		strb	r0, [r4, #60]
 2770 0040 10BD     		pop	{r4, pc}
 2771              	.L347:
ARM GAS  /tmp/ccqz4ALL.s 			page 47


 2772 0042 0068     		ldr	r0, [r0]
 2773 0044 FFF7FEFF 		bl	TIM_OC2_SetConfig
 2774 0048 F4E7     		b	.L344
 2775              	.L348:
 2776 004a 0068     		ldr	r0, [r0]
 2777 004c FFF7FEFF 		bl	TIM_OC3_SetConfig
 2778 0050 F0E7     		b	.L344
 2779              	.L349:
 2780 0052 0068     		ldr	r0, [r0]
 2781 0054 FFF7FEFF 		bl	TIM_OC4_SetConfig
 2782 0058 ECE7     		b	.L344
 2783              	.L350:
 2784 005a 0220     		movs	r0, #2
 2785 005c 7047     		bx	lr
 2787              		.section	.text.HAL_TIM_PWM_ConfigChannel,"ax",%progbits
 2788              		.align	1
 2789              		.global	HAL_TIM_PWM_ConfigChannel
 2790              		.syntax unified
 2791              		.thumb
 2792              		.thumb_func
 2793              		.fpu softvfp
 2795              	HAL_TIM_PWM_ConfigChannel:
 2796              		@ args = 0, pretend = 0, frame = 0
 2797              		@ frame_needed = 0, uses_anonymous_args = 0
 2798 0000 38B5     		push	{r3, r4, r5, lr}
 2799 0002 90F83C30 		ldrb	r3, [r0, #60]	@ zero_extendqisi2
 2800 0006 012B     		cmp	r3, #1
 2801 0008 66D0     		beq	.L363
 2802 000a 0D46     		mov	r5, r1
 2803 000c 0446     		mov	r4, r0
 2804 000e 0123     		movs	r3, #1
 2805 0010 80F83C30 		strb	r3, [r0, #60]
 2806 0014 0223     		movs	r3, #2
 2807 0016 80F83D30 		strb	r3, [r0, #61]
 2808 001a 0C2A     		cmp	r2, #12
 2809 001c 1AD8     		bhi	.L357
 2810 001e DFE802F0 		tbb	[pc, r2]
 2811              	.L359:
 2812 0022 07       		.byte	(.L358-.L359)/2
 2813 0023 19       		.byte	(.L357-.L359)/2
 2814 0024 19       		.byte	(.L357-.L359)/2
 2815 0025 19       		.byte	(.L357-.L359)/2
 2816 0026 20       		.byte	(.L360-.L359)/2
 2817 0027 19       		.byte	(.L357-.L359)/2
 2818 0028 19       		.byte	(.L357-.L359)/2
 2819 0029 19       		.byte	(.L357-.L359)/2
 2820 002a 34       		.byte	(.L361-.L359)/2
 2821 002b 19       		.byte	(.L357-.L359)/2
 2822 002c 19       		.byte	(.L357-.L359)/2
 2823 002d 19       		.byte	(.L357-.L359)/2
 2824 002e 47       		.byte	(.L362-.L359)/2
 2825 002f 00       		.p2align 1
 2826              	.L358:
 2827 0030 0068     		ldr	r0, [r0]
 2828 0032 FFF7FEFF 		bl	TIM_OC1_SetConfig
 2829 0036 2268     		ldr	r2, [r4]
 2830 0038 9369     		ldr	r3, [r2, #24]
ARM GAS  /tmp/ccqz4ALL.s 			page 48


 2831 003a 43F00803 		orr	r3, r3, #8
 2832 003e 9361     		str	r3, [r2, #24]
 2833 0040 2268     		ldr	r2, [r4]
 2834 0042 9369     		ldr	r3, [r2, #24]
 2835 0044 23F00403 		bic	r3, r3, #4
 2836 0048 9361     		str	r3, [r2, #24]
 2837 004a 2268     		ldr	r2, [r4]
 2838 004c 9369     		ldr	r3, [r2, #24]
 2839 004e 2969     		ldr	r1, [r5, #16]
 2840 0050 0B43     		orrs	r3, r3, r1
 2841 0052 9361     		str	r3, [r2, #24]
 2842              	.L357:
 2843 0054 0123     		movs	r3, #1
 2844 0056 84F83D30 		strb	r3, [r4, #61]
 2845 005a 0020     		movs	r0, #0
 2846 005c 84F83C00 		strb	r0, [r4, #60]
 2847 0060 38BD     		pop	{r3, r4, r5, pc}
 2848              	.L360:
 2849 0062 0068     		ldr	r0, [r0]
 2850 0064 FFF7FEFF 		bl	TIM_OC2_SetConfig
 2851 0068 2268     		ldr	r2, [r4]
 2852 006a 9369     		ldr	r3, [r2, #24]
 2853 006c 43F40063 		orr	r3, r3, #2048
 2854 0070 9361     		str	r3, [r2, #24]
 2855 0072 2268     		ldr	r2, [r4]
 2856 0074 9369     		ldr	r3, [r2, #24]
 2857 0076 23F48063 		bic	r3, r3, #1024
 2858 007a 9361     		str	r3, [r2, #24]
 2859 007c 2268     		ldr	r2, [r4]
 2860 007e 9369     		ldr	r3, [r2, #24]
 2861 0080 2969     		ldr	r1, [r5, #16]
 2862 0082 43EA0123 		orr	r3, r3, r1, lsl #8
 2863 0086 9361     		str	r3, [r2, #24]
 2864 0088 E4E7     		b	.L357
 2865              	.L361:
 2866 008a 0068     		ldr	r0, [r0]
 2867 008c FFF7FEFF 		bl	TIM_OC3_SetConfig
 2868 0090 2268     		ldr	r2, [r4]
 2869 0092 D369     		ldr	r3, [r2, #28]
 2870 0094 43F00803 		orr	r3, r3, #8
 2871 0098 D361     		str	r3, [r2, #28]
 2872 009a 2268     		ldr	r2, [r4]
 2873 009c D369     		ldr	r3, [r2, #28]
 2874 009e 23F00403 		bic	r3, r3, #4
 2875 00a2 D361     		str	r3, [r2, #28]
 2876 00a4 2268     		ldr	r2, [r4]
 2877 00a6 D369     		ldr	r3, [r2, #28]
 2878 00a8 2969     		ldr	r1, [r5, #16]
 2879 00aa 0B43     		orrs	r3, r3, r1
 2880 00ac D361     		str	r3, [r2, #28]
 2881 00ae D1E7     		b	.L357
 2882              	.L362:
 2883 00b0 0068     		ldr	r0, [r0]
 2884 00b2 FFF7FEFF 		bl	TIM_OC4_SetConfig
 2885 00b6 2268     		ldr	r2, [r4]
 2886 00b8 D369     		ldr	r3, [r2, #28]
 2887 00ba 43F40063 		orr	r3, r3, #2048
ARM GAS  /tmp/ccqz4ALL.s 			page 49


 2888 00be D361     		str	r3, [r2, #28]
 2889 00c0 2268     		ldr	r2, [r4]
 2890 00c2 D369     		ldr	r3, [r2, #28]
 2891 00c4 23F48063 		bic	r3, r3, #1024
 2892 00c8 D361     		str	r3, [r2, #28]
 2893 00ca 2268     		ldr	r2, [r4]
 2894 00cc D369     		ldr	r3, [r2, #28]
 2895 00ce 2969     		ldr	r1, [r5, #16]
 2896 00d0 43EA0123 		orr	r3, r3, r1, lsl #8
 2897 00d4 D361     		str	r3, [r2, #28]
 2898 00d6 BDE7     		b	.L357
 2899              	.L363:
 2900 00d8 0220     		movs	r0, #2
 2901 00da 38BD     		pop	{r3, r4, r5, pc}
 2903              		.section	.text.TIM_TI1_SetConfig,"ax",%progbits
 2904              		.align	1
 2905              		.global	TIM_TI1_SetConfig
 2906              		.syntax unified
 2907              		.thumb
 2908              		.thumb_func
 2909              		.fpu softvfp
 2911              	TIM_TI1_SetConfig:
 2912              		@ args = 0, pretend = 0, frame = 0
 2913              		@ frame_needed = 0, uses_anonymous_args = 0
 2914              		@ link register save eliminated.
 2915 0000 70B4     		push	{r4, r5, r6}
 2916 0002 046A     		ldr	r4, [r0, #32]
 2917 0004 24F00104 		bic	r4, r4, #1
 2918 0008 0462     		str	r4, [r0, #32]
 2919 000a 8469     		ldr	r4, [r0, #24]
 2920 000c 056A     		ldr	r5, [r0, #32]
 2921 000e 134E     		ldr	r6, .L375
 2922 0010 B042     		cmp	r0, r6
 2923 0012 1AD0     		beq	.L369
 2924 0014 B0F1804F 		cmp	r0, #1073741824
 2925 0018 19D0     		beq	.L370
 2926 001a A6F59436 		sub	r6, r6, #75776
 2927 001e B042     		cmp	r0, r6
 2928 0020 11D0     		beq	.L373
 2929 0022 0026     		movs	r6, #0
 2930              	.L366:
 2931 0024 AEB9     		cbnz	r6, .L374
 2932 0026 44F00102 		orr	r2, r4, #1
 2933              	.L368:
 2934 002a 22F0F002 		bic	r2, r2, #240
 2935 002e 1B01     		lsls	r3, r3, #4
 2936 0030 DBB2     		uxtb	r3, r3
 2937 0032 1343     		orrs	r3, r3, r2
 2938 0034 25F00A02 		bic	r2, r5, #10
 2939 0038 01F00A01 		and	r1, r1, #10
 2940 003c 1143     		orrs	r1, r1, r2
 2941 003e 8361     		str	r3, [r0, #24]
 2942 0040 0162     		str	r1, [r0, #32]
 2943 0042 70BC     		pop	{r4, r5, r6}
 2944 0044 7047     		bx	lr
 2945              	.L373:
 2946 0046 0126     		movs	r6, #1
ARM GAS  /tmp/ccqz4ALL.s 			page 50


 2947 0048 ECE7     		b	.L366
 2948              	.L369:
 2949 004a 0126     		movs	r6, #1
 2950 004c EAE7     		b	.L366
 2951              	.L370:
 2952 004e 0126     		movs	r6, #1
 2953 0050 E8E7     		b	.L366
 2954              	.L374:
 2955 0052 24F00304 		bic	r4, r4, #3
 2956 0056 2243     		orrs	r2, r2, r4
 2957 0058 E7E7     		b	.L368
 2958              	.L376:
 2959 005a 00BF     		.align	2
 2960              	.L375:
 2961 005c 002C0140 		.word	1073818624
 2963              		.section	.text.HAL_TIM_IC_ConfigChannel,"ax",%progbits
 2964              		.align	1
 2965              		.global	HAL_TIM_IC_ConfigChannel
 2966              		.syntax unified
 2967              		.thumb
 2968              		.thumb_func
 2969              		.fpu softvfp
 2971              	HAL_TIM_IC_ConfigChannel:
 2972              		@ args = 0, pretend = 0, frame = 0
 2973              		@ frame_needed = 0, uses_anonymous_args = 0
 2974 0000 38B5     		push	{r3, r4, r5, lr}
 2975 0002 90F83C30 		ldrb	r3, [r0, #60]	@ zero_extendqisi2
 2976 0006 012B     		cmp	r3, #1
 2977 0008 58D0     		beq	.L383
 2978 000a 0D46     		mov	r5, r1
 2979 000c 0446     		mov	r4, r0
 2980 000e 0123     		movs	r3, #1
 2981 0010 80F83C30 		strb	r3, [r0, #60]
 2982 0014 0223     		movs	r3, #2
 2983 0016 80F83D30 		strb	r3, [r0, #61]
 2984 001a DAB1     		cbz	r2, .L385
 2985 001c 042A     		cmp	r2, #4
 2986 001e 2AD0     		beq	.L386
 2987 0020 082A     		cmp	r2, #8
 2988 0022 3AD0     		beq	.L387
 2989 0024 CB68     		ldr	r3, [r1, #12]
 2990 0026 4A68     		ldr	r2, [r1, #4]
 2991 0028 0968     		ldr	r1, [r1]
 2992 002a 0068     		ldr	r0, [r0]
 2993 002c FFF7FEFF 		bl	TIM_TI4_SetConfig
 2994 0030 2268     		ldr	r2, [r4]
 2995 0032 D369     		ldr	r3, [r2, #28]
 2996 0034 23F44063 		bic	r3, r3, #3072
 2997 0038 D361     		str	r3, [r2, #28]
 2998 003a 2268     		ldr	r2, [r4]
 2999 003c D369     		ldr	r3, [r2, #28]
 3000 003e A968     		ldr	r1, [r5, #8]
 3001 0040 43EA0123 		orr	r3, r3, r1, lsl #8
 3002 0044 D361     		str	r3, [r2, #28]
 3003              	.L380:
 3004 0046 0123     		movs	r3, #1
 3005 0048 84F83D30 		strb	r3, [r4, #61]
ARM GAS  /tmp/ccqz4ALL.s 			page 51


 3006 004c 0020     		movs	r0, #0
 3007 004e 84F83C00 		strb	r0, [r4, #60]
 3008 0052 38BD     		pop	{r3, r4, r5, pc}
 3009              	.L385:
 3010 0054 CB68     		ldr	r3, [r1, #12]
 3011 0056 4A68     		ldr	r2, [r1, #4]
 3012 0058 0968     		ldr	r1, [r1]
 3013 005a 0068     		ldr	r0, [r0]
 3014 005c FFF7FEFF 		bl	TIM_TI1_SetConfig
 3015 0060 2268     		ldr	r2, [r4]
 3016 0062 9369     		ldr	r3, [r2, #24]
 3017 0064 23F00C03 		bic	r3, r3, #12
 3018 0068 9361     		str	r3, [r2, #24]
 3019 006a 2268     		ldr	r2, [r4]
 3020 006c 9369     		ldr	r3, [r2, #24]
 3021 006e A968     		ldr	r1, [r5, #8]
 3022 0070 0B43     		orrs	r3, r3, r1
 3023 0072 9361     		str	r3, [r2, #24]
 3024 0074 E7E7     		b	.L380
 3025              	.L386:
 3026 0076 CB68     		ldr	r3, [r1, #12]
 3027 0078 4A68     		ldr	r2, [r1, #4]
 3028 007a 0968     		ldr	r1, [r1]
 3029 007c 0068     		ldr	r0, [r0]
 3030 007e FFF7FEFF 		bl	TIM_TI2_SetConfig
 3031 0082 2268     		ldr	r2, [r4]
 3032 0084 9369     		ldr	r3, [r2, #24]
 3033 0086 23F44063 		bic	r3, r3, #3072
 3034 008a 9361     		str	r3, [r2, #24]
 3035 008c 2268     		ldr	r2, [r4]
 3036 008e 9369     		ldr	r3, [r2, #24]
 3037 0090 A968     		ldr	r1, [r5, #8]
 3038 0092 43EA0123 		orr	r3, r3, r1, lsl #8
 3039 0096 9361     		str	r3, [r2, #24]
 3040 0098 D5E7     		b	.L380
 3041              	.L387:
 3042 009a CB68     		ldr	r3, [r1, #12]
 3043 009c 4A68     		ldr	r2, [r1, #4]
 3044 009e 0968     		ldr	r1, [r1]
 3045 00a0 0068     		ldr	r0, [r0]
 3046 00a2 FFF7FEFF 		bl	TIM_TI3_SetConfig
 3047 00a6 2268     		ldr	r2, [r4]
 3048 00a8 D369     		ldr	r3, [r2, #28]
 3049 00aa 23F00C03 		bic	r3, r3, #12
 3050 00ae D361     		str	r3, [r2, #28]
 3051 00b0 2268     		ldr	r2, [r4]
 3052 00b2 D369     		ldr	r3, [r2, #28]
 3053 00b4 A968     		ldr	r1, [r5, #8]
 3054 00b6 0B43     		orrs	r3, r3, r1
 3055 00b8 D361     		str	r3, [r2, #28]
 3056 00ba C4E7     		b	.L380
 3057              	.L383:
 3058 00bc 0220     		movs	r0, #2
 3059 00be 38BD     		pop	{r3, r4, r5, pc}
 3061              		.section	.text.HAL_TIM_OnePulse_ConfigChannel,"ax",%progbits
 3062              		.align	1
 3063              		.global	HAL_TIM_OnePulse_ConfigChannel
ARM GAS  /tmp/ccqz4ALL.s 			page 52


 3064              		.syntax unified
 3065              		.thumb
 3066              		.thumb_func
 3067              		.fpu softvfp
 3069              	HAL_TIM_OnePulse_ConfigChannel:
 3070              		@ args = 0, pretend = 0, frame = 32
 3071              		@ frame_needed = 0, uses_anonymous_args = 0
 3072 0000 9A42     		cmp	r2, r3
 3073 0002 72D0     		beq	.L396
 3074 0004 70B5     		push	{r4, r5, r6, lr}
 3075 0006 88B0     		sub	sp, sp, #32
 3076 0008 90F83C40 		ldrb	r4, [r0, #60]	@ zero_extendqisi2
 3077 000c 012C     		cmp	r4, #1
 3078 000e 6ED0     		beq	.L397
 3079 0010 1E46     		mov	r6, r3
 3080 0012 0D46     		mov	r5, r1
 3081 0014 0446     		mov	r4, r0
 3082 0016 0123     		movs	r3, #1
 3083 0018 80F83C30 		strb	r3, [r0, #60]
 3084 001c 0223     		movs	r3, #2
 3085 001e 80F83D30 		strb	r3, [r0, #61]
 3086 0022 0B68     		ldr	r3, [r1]
 3087 0024 0193     		str	r3, [sp, #4]
 3088 0026 4B68     		ldr	r3, [r1, #4]
 3089 0028 0293     		str	r3, [sp, #8]
 3090 002a 8B68     		ldr	r3, [r1, #8]
 3091 002c 0393     		str	r3, [sp, #12]
 3092 002e CB68     		ldr	r3, [r1, #12]
 3093 0030 0493     		str	r3, [sp, #16]
 3094 0032 0B69     		ldr	r3, [r1, #16]
 3095 0034 0693     		str	r3, [sp, #24]
 3096 0036 4B69     		ldr	r3, [r1, #20]
 3097 0038 0793     		str	r3, [sp, #28]
 3098 003a 62B1     		cbz	r2, .L391
 3099 003c 042A     		cmp	r2, #4
 3100 003e 0FD0     		beq	.L392
 3101              	.L390:
 3102 0040 9EB1     		cbz	r6, .L394
 3103 0042 042E     		cmp	r6, #4
 3104 0044 31D0     		beq	.L395
 3105              	.L393:
 3106 0046 0123     		movs	r3, #1
 3107 0048 84F83D30 		strb	r3, [r4, #61]
 3108 004c 0020     		movs	r0, #0
 3109 004e 84F83C00 		strb	r0, [r4, #60]
 3110              	.L389:
 3111 0052 08B0     		add	sp, sp, #32
 3112              		@ sp needed
 3113 0054 70BD     		pop	{r4, r5, r6, pc}
 3114              	.L391:
 3115 0056 01A9     		add	r1, sp, #4
 3116 0058 0068     		ldr	r0, [r0]
 3117 005a FFF7FEFF 		bl	TIM_OC1_SetConfig
 3118 005e EFE7     		b	.L390
 3119              	.L392:
 3120 0060 01A9     		add	r1, sp, #4
 3121 0062 0068     		ldr	r0, [r0]
ARM GAS  /tmp/ccqz4ALL.s 			page 53


 3122 0064 FFF7FEFF 		bl	TIM_OC2_SetConfig
 3123 0068 EAE7     		b	.L390
 3124              	.L394:
 3125 006a 2B6A     		ldr	r3, [r5, #32]
 3126 006c EA69     		ldr	r2, [r5, #28]
 3127 006e A969     		ldr	r1, [r5, #24]
 3128 0070 2068     		ldr	r0, [r4]
 3129 0072 FFF7FEFF 		bl	TIM_TI1_SetConfig
 3130 0076 2268     		ldr	r2, [r4]
 3131 0078 9369     		ldr	r3, [r2, #24]
 3132 007a 23F00C03 		bic	r3, r3, #12
 3133 007e 9361     		str	r3, [r2, #24]
 3134 0080 2268     		ldr	r2, [r4]
 3135 0082 9368     		ldr	r3, [r2, #8]
 3136 0084 23F07003 		bic	r3, r3, #112
 3137 0088 9360     		str	r3, [r2, #8]
 3138 008a 2268     		ldr	r2, [r4]
 3139 008c 9368     		ldr	r3, [r2, #8]
 3140 008e 43F05003 		orr	r3, r3, #80
 3141 0092 9360     		str	r3, [r2, #8]
 3142 0094 2268     		ldr	r2, [r4]
 3143 0096 9368     		ldr	r3, [r2, #8]
 3144 0098 23F00703 		bic	r3, r3, #7
 3145 009c 9360     		str	r3, [r2, #8]
 3146 009e 2268     		ldr	r2, [r4]
 3147 00a0 9368     		ldr	r3, [r2, #8]
 3148 00a2 43F00603 		orr	r3, r3, #6
 3149 00a6 9360     		str	r3, [r2, #8]
 3150 00a8 CDE7     		b	.L393
 3151              	.L395:
 3152 00aa 2B6A     		ldr	r3, [r5, #32]
 3153 00ac EA69     		ldr	r2, [r5, #28]
 3154 00ae A969     		ldr	r1, [r5, #24]
 3155 00b0 2068     		ldr	r0, [r4]
 3156 00b2 FFF7FEFF 		bl	TIM_TI2_SetConfig
 3157 00b6 2268     		ldr	r2, [r4]
 3158 00b8 9369     		ldr	r3, [r2, #24]
 3159 00ba 23F44063 		bic	r3, r3, #3072
 3160 00be 9361     		str	r3, [r2, #24]
 3161 00c0 2268     		ldr	r2, [r4]
 3162 00c2 9368     		ldr	r3, [r2, #8]
 3163 00c4 23F07003 		bic	r3, r3, #112
 3164 00c8 9360     		str	r3, [r2, #8]
 3165 00ca 2268     		ldr	r2, [r4]
 3166 00cc 9368     		ldr	r3, [r2, #8]
 3167 00ce 43F06003 		orr	r3, r3, #96
 3168 00d2 9360     		str	r3, [r2, #8]
 3169 00d4 2268     		ldr	r2, [r4]
 3170 00d6 9368     		ldr	r3, [r2, #8]
 3171 00d8 23F00703 		bic	r3, r3, #7
 3172 00dc 9360     		str	r3, [r2, #8]
 3173 00de 2268     		ldr	r2, [r4]
 3174 00e0 9368     		ldr	r3, [r2, #8]
 3175 00e2 43F00603 		orr	r3, r3, #6
 3176 00e6 9360     		str	r3, [r2, #8]
 3177 00e8 ADE7     		b	.L393
 3178              	.L396:
ARM GAS  /tmp/ccqz4ALL.s 			page 54


 3179 00ea 0120     		movs	r0, #1
 3180 00ec 7047     		bx	lr
 3181              	.L397:
 3182 00ee 0220     		movs	r0, #2
 3183 00f0 AFE7     		b	.L389
 3185              		.section	.text.TIM_ETR_SetConfig,"ax",%progbits
 3186              		.align	1
 3187              		.global	TIM_ETR_SetConfig
 3188              		.syntax unified
 3189              		.thumb
 3190              		.thumb_func
 3191              		.fpu softvfp
 3193              	TIM_ETR_SetConfig:
 3194              		@ args = 0, pretend = 0, frame = 0
 3195              		@ frame_needed = 0, uses_anonymous_args = 0
 3196              		@ link register save eliminated.
 3197 0000 10B4     		push	{r4}
 3198 0002 8468     		ldr	r4, [r0, #8]
 3199 0004 24F47F44 		bic	r4, r4, #65280
 3200 0008 42EA0323 		orr	r3, r2, r3, lsl #8
 3201 000c 1943     		orrs	r1, r1, r3
 3202 000e 0C43     		orrs	r4, r4, r1
 3203 0010 8460     		str	r4, [r0, #8]
 3204 0012 10BC     		pop	{r4}
 3205 0014 7047     		bx	lr
 3207              		.section	.text.HAL_TIM_ConfigOCrefClear,"ax",%progbits
 3208              		.align	1
 3209              		.global	HAL_TIM_ConfigOCrefClear
 3210              		.syntax unified
 3211              		.thumb
 3212              		.thumb_func
 3213              		.fpu softvfp
 3215              	HAL_TIM_ConfigOCrefClear:
 3216              		@ args = 0, pretend = 0, frame = 0
 3217              		@ frame_needed = 0, uses_anonymous_args = 0
 3218 0000 90F83C30 		ldrb	r3, [r0, #60]	@ zero_extendqisi2
 3219 0004 012B     		cmp	r3, #1
 3220 0006 6BD0     		beq	.L420
 3221 0008 70B5     		push	{r4, r5, r6, lr}
 3222 000a 1646     		mov	r6, r2
 3223 000c 0D46     		mov	r5, r1
 3224 000e 0446     		mov	r4, r0
 3225 0010 0123     		movs	r3, #1
 3226 0012 80F83C30 		strb	r3, [r0, #60]
 3227 0016 0223     		movs	r3, #2
 3228 0018 80F83D30 		strb	r3, [r0, #61]
 3229 001c 4B68     		ldr	r3, [r1, #4]
 3230 001e 63B1     		cbz	r3, .L407
 3231 0020 012B     		cmp	r3, #1
 3232 0022 10D0     		beq	.L408
 3233              	.L406:
 3234 0024 0C2E     		cmp	r6, #12
 3235 0026 24D8     		bhi	.L410
 3236 0028 DFE806F0 		tbb	[pc, r6]
 3237              	.L412:
 3238 002c 1C       		.byte	(.L411-.L412)/2
 3239 002d 23       		.byte	(.L410-.L412)/2
ARM GAS  /tmp/ccqz4ALL.s 			page 55


 3240 002e 23       		.byte	(.L410-.L412)/2
 3241 002f 23       		.byte	(.L410-.L412)/2
 3242 0030 30       		.byte	(.L413-.L412)/2
 3243 0031 23       		.byte	(.L410-.L412)/2
 3244 0032 23       		.byte	(.L410-.L412)/2
 3245 0033 23       		.byte	(.L410-.L412)/2
 3246 0034 3E       		.byte	(.L414-.L412)/2
 3247 0035 23       		.byte	(.L410-.L412)/2
 3248 0036 23       		.byte	(.L410-.L412)/2
 3249 0037 23       		.byte	(.L410-.L412)/2
 3250 0038 4C       		.byte	(.L415-.L412)/2
 3251 0039 00       		.p2align 1
 3252              	.L407:
 3253 003a 0268     		ldr	r2, [r0]
 3254 003c 9368     		ldr	r3, [r2, #8]
 3255 003e 23F47F43 		bic	r3, r3, #65280
 3256 0042 9360     		str	r3, [r2, #8]
 3257 0044 EEE7     		b	.L406
 3258              	.L408:
 3259 0046 C968     		ldr	r1, [r1, #12]
 3260 0048 31B1     		cbz	r1, .L409
 3261 004a 0120     		movs	r0, #1
 3262 004c 84F83D00 		strb	r0, [r4, #61]
 3263 0050 0023     		movs	r3, #0
 3264 0052 84F83C30 		strb	r3, [r4, #60]
 3265 0056 70BD     		pop	{r4, r5, r6, pc}
 3266              	.L409:
 3267 0058 2B69     		ldr	r3, [r5, #16]
 3268 005a AA68     		ldr	r2, [r5, #8]
 3269 005c 0068     		ldr	r0, [r0]
 3270 005e FFF7FEFF 		bl	TIM_ETR_SetConfig
 3271 0062 DFE7     		b	.L406
 3272              	.L411:
 3273 0064 2B68     		ldr	r3, [r5]
 3274 0066 5BB1     		cbz	r3, .L416
 3275 0068 2268     		ldr	r2, [r4]
 3276 006a 9369     		ldr	r3, [r2, #24]
 3277 006c 43F08003 		orr	r3, r3, #128
 3278 0070 9361     		str	r3, [r2, #24]
 3279              	.L410:
 3280 0072 0123     		movs	r3, #1
 3281 0074 84F83D30 		strb	r3, [r4, #61]
 3282 0078 0020     		movs	r0, #0
 3283 007a 84F83C00 		strb	r0, [r4, #60]
 3284 007e 70BD     		pop	{r4, r5, r6, pc}
 3285              	.L416:
 3286 0080 2268     		ldr	r2, [r4]
 3287 0082 9369     		ldr	r3, [r2, #24]
 3288 0084 23F08003 		bic	r3, r3, #128
 3289 0088 9361     		str	r3, [r2, #24]
 3290 008a F2E7     		b	.L410
 3291              	.L413:
 3292 008c 2B68     		ldr	r3, [r5]
 3293 008e 2BB1     		cbz	r3, .L417
 3294 0090 2268     		ldr	r2, [r4]
 3295 0092 9369     		ldr	r3, [r2, #24]
 3296 0094 43F40043 		orr	r3, r3, #32768
ARM GAS  /tmp/ccqz4ALL.s 			page 56


 3297 0098 9361     		str	r3, [r2, #24]
 3298 009a EAE7     		b	.L410
 3299              	.L417:
 3300 009c 2268     		ldr	r2, [r4]
 3301 009e 9369     		ldr	r3, [r2, #24]
 3302 00a0 23F40043 		bic	r3, r3, #32768
 3303 00a4 9361     		str	r3, [r2, #24]
 3304 00a6 E4E7     		b	.L410
 3305              	.L414:
 3306 00a8 2B68     		ldr	r3, [r5]
 3307 00aa 2BB1     		cbz	r3, .L418
 3308 00ac 2268     		ldr	r2, [r4]
 3309 00ae D369     		ldr	r3, [r2, #28]
 3310 00b0 43F08003 		orr	r3, r3, #128
 3311 00b4 D361     		str	r3, [r2, #28]
 3312 00b6 DCE7     		b	.L410
 3313              	.L418:
 3314 00b8 2268     		ldr	r2, [r4]
 3315 00ba D369     		ldr	r3, [r2, #28]
 3316 00bc 23F08003 		bic	r3, r3, #128
 3317 00c0 D361     		str	r3, [r2, #28]
 3318 00c2 D6E7     		b	.L410
 3319              	.L415:
 3320 00c4 2B68     		ldr	r3, [r5]
 3321 00c6 2BB1     		cbz	r3, .L419
 3322 00c8 2268     		ldr	r2, [r4]
 3323 00ca D369     		ldr	r3, [r2, #28]
 3324 00cc 43F40043 		orr	r3, r3, #32768
 3325 00d0 D361     		str	r3, [r2, #28]
 3326 00d2 CEE7     		b	.L410
 3327              	.L419:
 3328 00d4 2268     		ldr	r2, [r4]
 3329 00d6 D369     		ldr	r3, [r2, #28]
 3330 00d8 23F40043 		bic	r3, r3, #32768
 3331 00dc D361     		str	r3, [r2, #28]
 3332 00de C8E7     		b	.L410
 3333              	.L420:
 3334 00e0 0220     		movs	r0, #2
 3335 00e2 7047     		bx	lr
 3337              		.section	.text.HAL_TIM_ConfigClockSource,"ax",%progbits
 3338              		.align	1
 3339              		.global	HAL_TIM_ConfigClockSource
 3340              		.syntax unified
 3341              		.thumb
 3342              		.thumb_func
 3343              		.fpu softvfp
 3345              	HAL_TIM_ConfigClockSource:
 3346              		@ args = 0, pretend = 0, frame = 0
 3347              		@ frame_needed = 0, uses_anonymous_args = 0
 3348 0000 90F83C30 		ldrb	r3, [r0, #60]	@ zero_extendqisi2
 3349 0004 012B     		cmp	r3, #1
 3350 0006 66D0     		beq	.L437
 3351 0008 10B5     		push	{r4, lr}
 3352 000a 0446     		mov	r4, r0
 3353 000c 0123     		movs	r3, #1
 3354 000e 80F83C30 		strb	r3, [r0, #60]
 3355 0012 0223     		movs	r3, #2
ARM GAS  /tmp/ccqz4ALL.s 			page 57


 3356 0014 80F83D30 		strb	r3, [r0, #61]
 3357 0018 0268     		ldr	r2, [r0]
 3358 001a 9368     		ldr	r3, [r2, #8]
 3359 001c 23F47F43 		bic	r3, r3, #65280
 3360 0020 23F07703 		bic	r3, r3, #119
 3361 0024 9360     		str	r3, [r2, #8]
 3362 0026 0B68     		ldr	r3, [r1]
 3363 0028 402B     		cmp	r3, #64
 3364 002a 4AD0     		beq	.L428
 3365 002c 13D9     		bls	.L442
 3366 002e 602B     		cmp	r3, #96
 3367 0030 3DD0     		beq	.L432
 3368 0032 1ED9     		bls	.L443
 3369 0034 702B     		cmp	r3, #112
 3370 0036 28D0     		beq	.L435
 3371 0038 B3F5005F 		cmp	r3, #8192
 3372 003c 30D1     		bne	.L427
 3373 003e CB68     		ldr	r3, [r1, #12]
 3374 0040 4A68     		ldr	r2, [r1, #4]
 3375 0042 8968     		ldr	r1, [r1, #8]
 3376 0044 0068     		ldr	r0, [r0]
 3377 0046 FFF7FEFF 		bl	TIM_ETR_SetConfig
 3378 004a 2268     		ldr	r2, [r4]
 3379 004c 9368     		ldr	r3, [r2, #8]
 3380 004e 43F48043 		orr	r3, r3, #16384
 3381 0052 9360     		str	r3, [r2, #8]
 3382 0054 24E0     		b	.L427
 3383              	.L442:
 3384 0056 102B     		cmp	r3, #16
 3385 0058 06D0     		beq	.L430
 3386 005a 04D9     		bls	.L444
 3387 005c 202B     		cmp	r3, #32
 3388 005e 03D0     		beq	.L430
 3389 0060 302B     		cmp	r3, #48
 3390 0062 01D0     		beq	.L430
 3391 0064 1CE0     		b	.L427
 3392              	.L444:
 3393 0066 DBB9     		cbnz	r3, .L427
 3394              	.L430:
 3395 0068 1946     		mov	r1, r3
 3396 006a 2068     		ldr	r0, [r4]
 3397 006c FFF7FEFF 		bl	TIM_ITRx_SetConfig
 3398 0070 16E0     		b	.L427
 3399              	.L443:
 3400 0072 502B     		cmp	r3, #80
 3401 0074 14D1     		bne	.L427
 3402 0076 CA68     		ldr	r2, [r1, #12]
 3403 0078 4968     		ldr	r1, [r1, #4]
 3404 007a 0068     		ldr	r0, [r0]
 3405 007c FFF7FEFF 		bl	TIM_TI1_ConfigInputStage
 3406 0080 5021     		movs	r1, #80
 3407 0082 2068     		ldr	r0, [r4]
 3408 0084 FFF7FEFF 		bl	TIM_ITRx_SetConfig
 3409 0088 0AE0     		b	.L427
 3410              	.L435:
 3411 008a CB68     		ldr	r3, [r1, #12]
 3412 008c 4A68     		ldr	r2, [r1, #4]
ARM GAS  /tmp/ccqz4ALL.s 			page 58


 3413 008e 8968     		ldr	r1, [r1, #8]
 3414 0090 0068     		ldr	r0, [r0]
 3415 0092 FFF7FEFF 		bl	TIM_ETR_SetConfig
 3416 0096 2268     		ldr	r2, [r4]
 3417 0098 9368     		ldr	r3, [r2, #8]
 3418 009a 43F07703 		orr	r3, r3, #119
 3419 009e 9360     		str	r3, [r2, #8]
 3420              	.L427:
 3421 00a0 0123     		movs	r3, #1
 3422 00a2 84F83D30 		strb	r3, [r4, #61]
 3423 00a6 0020     		movs	r0, #0
 3424 00a8 84F83C00 		strb	r0, [r4, #60]
 3425 00ac 10BD     		pop	{r4, pc}
 3426              	.L432:
 3427 00ae CA68     		ldr	r2, [r1, #12]
 3428 00b0 4968     		ldr	r1, [r1, #4]
 3429 00b2 0068     		ldr	r0, [r0]
 3430 00b4 FFF7FEFF 		bl	TIM_TI2_ConfigInputStage
 3431 00b8 6021     		movs	r1, #96
 3432 00ba 2068     		ldr	r0, [r4]
 3433 00bc FFF7FEFF 		bl	TIM_ITRx_SetConfig
 3434 00c0 EEE7     		b	.L427
 3435              	.L428:
 3436 00c2 CA68     		ldr	r2, [r1, #12]
 3437 00c4 4968     		ldr	r1, [r1, #4]
 3438 00c6 0068     		ldr	r0, [r0]
 3439 00c8 FFF7FEFF 		bl	TIM_TI1_ConfigInputStage
 3440 00cc 4021     		movs	r1, #64
 3441 00ce 2068     		ldr	r0, [r4]
 3442 00d0 FFF7FEFF 		bl	TIM_ITRx_SetConfig
 3443 00d4 E4E7     		b	.L427
 3444              	.L437:
 3445 00d6 0220     		movs	r0, #2
 3446 00d8 7047     		bx	lr
 3448              		.section	.text.TIM_SlaveTimer_SetConfig,"ax",%progbits
 3449              		.align	1
 3450              		.syntax unified
 3451              		.thumb
 3452              		.thumb_func
 3453              		.fpu softvfp
 3455              	TIM_SlaveTimer_SetConfig:
 3456              		@ args = 0, pretend = 0, frame = 0
 3457              		@ frame_needed = 0, uses_anonymous_args = 0
 3458 0000 10B5     		push	{r4, lr}
 3459 0002 0268     		ldr	r2, [r0]
 3460 0004 9368     		ldr	r3, [r2, #8]
 3461 0006 23F07003 		bic	r3, r3, #112
 3462 000a 4C68     		ldr	r4, [r1, #4]
 3463 000c 2343     		orrs	r3, r3, r4
 3464 000e 23F00703 		bic	r3, r3, #7
 3465 0012 0C68     		ldr	r4, [r1]
 3466 0014 2343     		orrs	r3, r3, r4
 3467 0016 9360     		str	r3, [r2, #8]
 3468 0018 4B68     		ldr	r3, [r1, #4]
 3469 001a 502B     		cmp	r3, #80
 3470 001c 23D0     		beq	.L447
 3471 001e 0BD9     		bls	.L455
ARM GAS  /tmp/ccqz4ALL.s 			page 59


 3472 0020 602B     		cmp	r3, #96
 3473 0022 27D0     		beq	.L450
 3474 0024 702B     		cmp	r3, #112
 3475 0026 2CD1     		bne	.L452
 3476 0028 0B69     		ldr	r3, [r1, #16]
 3477 002a 8A68     		ldr	r2, [r1, #8]
 3478 002c C968     		ldr	r1, [r1, #12]
 3479 002e 0068     		ldr	r0, [r0]
 3480 0030 FFF7FEFF 		bl	TIM_ETR_SetConfig
 3481 0034 0020     		movs	r0, #0
 3482 0036 10BD     		pop	{r4, pc}
 3483              	.L455:
 3484 0038 402B     		cmp	r3, #64
 3485 003a 22D1     		bne	.L452
 3486 003c 0B68     		ldr	r3, [r1]
 3487 003e 052B     		cmp	r3, #5
 3488 0040 21D0     		beq	.L453
 3489 0042 0368     		ldr	r3, [r0]
 3490 0044 1C6A     		ldr	r4, [r3, #32]
 3491 0046 1A6A     		ldr	r2, [r3, #32]
 3492 0048 22F00102 		bic	r2, r2, #1
 3493 004c 1A62     		str	r2, [r3, #32]
 3494 004e 0268     		ldr	r2, [r0]
 3495 0050 9369     		ldr	r3, [r2, #24]
 3496 0052 23F0F003 		bic	r3, r3, #240
 3497 0056 0969     		ldr	r1, [r1, #16]
 3498 0058 43EA0113 		orr	r3, r3, r1, lsl #4
 3499 005c 9361     		str	r3, [r2, #24]
 3500 005e 0368     		ldr	r3, [r0]
 3501 0060 1C62     		str	r4, [r3, #32]
 3502 0062 0020     		movs	r0, #0
 3503 0064 10BD     		pop	{r4, pc}
 3504              	.L447:
 3505 0066 0A69     		ldr	r2, [r1, #16]
 3506 0068 8968     		ldr	r1, [r1, #8]
 3507 006a 0068     		ldr	r0, [r0]
 3508 006c FFF7FEFF 		bl	TIM_TI1_ConfigInputStage
 3509 0070 0020     		movs	r0, #0
 3510 0072 10BD     		pop	{r4, pc}
 3511              	.L450:
 3512 0074 0A69     		ldr	r2, [r1, #16]
 3513 0076 8968     		ldr	r1, [r1, #8]
 3514 0078 0068     		ldr	r0, [r0]
 3515 007a FFF7FEFF 		bl	TIM_TI2_ConfigInputStage
 3516 007e 0020     		movs	r0, #0
 3517 0080 10BD     		pop	{r4, pc}
 3518              	.L452:
 3519 0082 0020     		movs	r0, #0
 3520 0084 10BD     		pop	{r4, pc}
 3521              	.L453:
 3522 0086 0120     		movs	r0, #1
 3523 0088 10BD     		pop	{r4, pc}
 3525              		.section	.text.HAL_TIM_SlaveConfigSynchro,"ax",%progbits
 3526              		.align	1
 3527              		.global	HAL_TIM_SlaveConfigSynchro
 3528              		.syntax unified
 3529              		.thumb
ARM GAS  /tmp/ccqz4ALL.s 			page 60


 3530              		.thumb_func
 3531              		.fpu softvfp
 3533              	HAL_TIM_SlaveConfigSynchro:
 3534              		@ args = 0, pretend = 0, frame = 0
 3535              		@ frame_needed = 0, uses_anonymous_args = 0
 3536 0000 90F83C30 		ldrb	r3, [r0, #60]	@ zero_extendqisi2
 3537 0004 012B     		cmp	r3, #1
 3538 0006 02D1     		bne	.L464
 3539 0008 0223     		movs	r3, #2
 3540 000a 1846     		mov	r0, r3
 3541 000c 7047     		bx	lr
 3542              	.L464:
 3543 000e 10B5     		push	{r4, lr}
 3544 0010 0446     		mov	r4, r0
 3545 0012 0123     		movs	r3, #1
 3546 0014 80F83C30 		strb	r3, [r0, #60]
 3547 0018 0223     		movs	r3, #2
 3548 001a 80F83D30 		strb	r3, [r0, #61]
 3549 001e FFF7FEFF 		bl	TIM_SlaveTimer_SetConfig
 3550 0022 0346     		mov	r3, r0
 3551 0024 88B9     		cbnz	r0, .L465
 3552 0026 2168     		ldr	r1, [r4]
 3553 0028 CA68     		ldr	r2, [r1, #12]
 3554 002a 22F04002 		bic	r2, r2, #64
 3555 002e CA60     		str	r2, [r1, #12]
 3556 0030 2168     		ldr	r1, [r4]
 3557 0032 CA68     		ldr	r2, [r1, #12]
 3558 0034 22F48042 		bic	r2, r2, #16384
 3559 0038 CA60     		str	r2, [r1, #12]
 3560 003a 0122     		movs	r2, #1
 3561 003c 84F83D20 		strb	r2, [r4, #61]
 3562 0040 0022     		movs	r2, #0
 3563 0042 84F83C20 		strb	r2, [r4, #60]
 3564              	.L457:
 3565 0046 1846     		mov	r0, r3
 3566 0048 10BD     		pop	{r4, pc}
 3567              	.L465:
 3568 004a 0123     		movs	r3, #1
 3569 004c 84F83D30 		strb	r3, [r4, #61]
 3570 0050 0022     		movs	r2, #0
 3571 0052 84F83C20 		strb	r2, [r4, #60]
 3572 0056 F6E7     		b	.L457
 3574              		.section	.text.HAL_TIM_SlaveConfigSynchro_IT,"ax",%progbits
 3575              		.align	1
 3576              		.global	HAL_TIM_SlaveConfigSynchro_IT
 3577              		.syntax unified
 3578              		.thumb
 3579              		.thumb_func
 3580              		.fpu softvfp
 3582              	HAL_TIM_SlaveConfigSynchro_IT:
 3583              		@ args = 0, pretend = 0, frame = 0
 3584              		@ frame_needed = 0, uses_anonymous_args = 0
 3585 0000 90F83C30 		ldrb	r3, [r0, #60]	@ zero_extendqisi2
 3586 0004 012B     		cmp	r3, #1
 3587 0006 02D1     		bne	.L474
 3588 0008 0223     		movs	r3, #2
 3589 000a 1846     		mov	r0, r3
ARM GAS  /tmp/ccqz4ALL.s 			page 61


 3590 000c 7047     		bx	lr
 3591              	.L474:
 3592 000e 10B5     		push	{r4, lr}
 3593 0010 0446     		mov	r4, r0
 3594 0012 0123     		movs	r3, #1
 3595 0014 80F83C30 		strb	r3, [r0, #60]
 3596 0018 0223     		movs	r3, #2
 3597 001a 80F83D30 		strb	r3, [r0, #61]
 3598 001e FFF7FEFF 		bl	TIM_SlaveTimer_SetConfig
 3599 0022 0346     		mov	r3, r0
 3600 0024 88B9     		cbnz	r0, .L475
 3601 0026 2168     		ldr	r1, [r4]
 3602 0028 CA68     		ldr	r2, [r1, #12]
 3603 002a 42F04002 		orr	r2, r2, #64
 3604 002e CA60     		str	r2, [r1, #12]
 3605 0030 2168     		ldr	r1, [r4]
 3606 0032 CA68     		ldr	r2, [r1, #12]
 3607 0034 22F48042 		bic	r2, r2, #16384
 3608 0038 CA60     		str	r2, [r1, #12]
 3609 003a 0122     		movs	r2, #1
 3610 003c 84F83D20 		strb	r2, [r4, #61]
 3611 0040 0022     		movs	r2, #0
 3612 0042 84F83C20 		strb	r2, [r4, #60]
 3613              	.L467:
 3614 0046 1846     		mov	r0, r3
 3615 0048 10BD     		pop	{r4, pc}
 3616              	.L475:
 3617 004a 0123     		movs	r3, #1
 3618 004c 84F83D30 		strb	r3, [r4, #61]
 3619 0050 0022     		movs	r2, #0
 3620 0052 84F83C20 		strb	r2, [r4, #60]
 3621 0056 F6E7     		b	.L467
 3623              		.section	.text.TIM_CCxChannelCmd,"ax",%progbits
 3624              		.align	1
 3625              		.global	TIM_CCxChannelCmd
 3626              		.syntax unified
 3627              		.thumb
 3628              		.thumb_func
 3629              		.fpu softvfp
 3631              	TIM_CCxChannelCmd:
 3632              		@ args = 0, pretend = 0, frame = 0
 3633              		@ frame_needed = 0, uses_anonymous_args = 0
 3634              		@ link register save eliminated.
 3635 0000 10B4     		push	{r4}
 3636 0002 01F01F01 		and	r1, r1, #31
 3637 0006 0123     		movs	r3, #1
 3638 0008 03FA01F4 		lsl	r4, r3, r1
 3639 000c 036A     		ldr	r3, [r0, #32]
 3640 000e 23EA0403 		bic	r3, r3, r4
 3641 0012 0362     		str	r3, [r0, #32]
 3642 0014 036A     		ldr	r3, [r0, #32]
 3643 0016 8A40     		lsls	r2, r2, r1
 3644 0018 1343     		orrs	r3, r3, r2
 3645 001a 0362     		str	r3, [r0, #32]
 3646 001c 10BC     		pop	{r4}
 3647 001e 7047     		bx	lr
 3649              		.section	.text.HAL_TIM_OC_Start,"ax",%progbits
ARM GAS  /tmp/ccqz4ALL.s 			page 62


 3650              		.align	1
 3651              		.global	HAL_TIM_OC_Start
 3652              		.syntax unified
 3653              		.thumb
 3654              		.thumb_func
 3655              		.fpu softvfp
 3657              	HAL_TIM_OC_Start:
 3658              		@ args = 0, pretend = 0, frame = 0
 3659              		@ frame_needed = 0, uses_anonymous_args = 0
 3660 0000 10B5     		push	{r4, lr}
 3661 0002 0446     		mov	r4, r0
 3662 0004 0122     		movs	r2, #1
 3663 0006 0068     		ldr	r0, [r0]
 3664 0008 FFF7FEFF 		bl	TIM_CCxChannelCmd
 3665 000c 2368     		ldr	r3, [r4]
 3666 000e 0A4A     		ldr	r2, .L483
 3667 0010 9342     		cmp	r3, r2
 3668 0012 0BD0     		beq	.L482
 3669              	.L479:
 3670 0014 2268     		ldr	r2, [r4]
 3671 0016 9368     		ldr	r3, [r2, #8]
 3672 0018 03F00703 		and	r3, r3, #7
 3673 001c 062B     		cmp	r3, #6
 3674 001e 03D0     		beq	.L480
 3675 0020 1368     		ldr	r3, [r2]
 3676 0022 43F00103 		orr	r3, r3, #1
 3677 0026 1360     		str	r3, [r2]
 3678              	.L480:
 3679 0028 0020     		movs	r0, #0
 3680 002a 10BD     		pop	{r4, pc}
 3681              	.L482:
 3682 002c 5A6C     		ldr	r2, [r3, #68]
 3683 002e 42F40042 		orr	r2, r2, #32768
 3684 0032 5A64     		str	r2, [r3, #68]
 3685 0034 EEE7     		b	.L479
 3686              	.L484:
 3687 0036 00BF     		.align	2
 3688              	.L483:
 3689 0038 002C0140 		.word	1073818624
 3691              		.section	.text.HAL_TIM_OC_Stop,"ax",%progbits
 3692              		.align	1
 3693              		.global	HAL_TIM_OC_Stop
 3694              		.syntax unified
 3695              		.thumb
 3696              		.thumb_func
 3697              		.fpu softvfp
 3699              	HAL_TIM_OC_Stop:
 3700              		@ args = 0, pretend = 0, frame = 0
 3701              		@ frame_needed = 0, uses_anonymous_args = 0
 3702 0000 10B5     		push	{r4, lr}
 3703 0002 0446     		mov	r4, r0
 3704 0004 0022     		movs	r2, #0
 3705 0006 0068     		ldr	r0, [r0]
 3706 0008 FFF7FEFF 		bl	TIM_CCxChannelCmd
 3707 000c 2368     		ldr	r3, [r4]
 3708 000e 114A     		ldr	r2, .L490
 3709 0010 9342     		cmp	r3, r2
ARM GAS  /tmp/ccqz4ALL.s 			page 63


 3710 0012 10D0     		beq	.L489
 3711              	.L486:
 3712 0014 2368     		ldr	r3, [r4]
 3713 0016 196A     		ldr	r1, [r3, #32]
 3714 0018 41F21112 		movw	r2, #4369
 3715 001c 1142     		tst	r1, r2
 3716 001e 08D1     		bne	.L487
 3717 0020 196A     		ldr	r1, [r3, #32]
 3718 0022 40F24442 		movw	r2, #1092
 3719 0026 1142     		tst	r1, r2
 3720 0028 03D1     		bne	.L487
 3721 002a 1A68     		ldr	r2, [r3]
 3722 002c 22F00102 		bic	r2, r2, #1
 3723 0030 1A60     		str	r2, [r3]
 3724              	.L487:
 3725 0032 0020     		movs	r0, #0
 3726 0034 10BD     		pop	{r4, pc}
 3727              	.L489:
 3728 0036 196A     		ldr	r1, [r3, #32]
 3729 0038 41F21112 		movw	r2, #4369
 3730 003c 1142     		tst	r1, r2
 3731 003e E9D1     		bne	.L486
 3732 0040 196A     		ldr	r1, [r3, #32]
 3733 0042 40F24442 		movw	r2, #1092
 3734 0046 1142     		tst	r1, r2
 3735 0048 E4D1     		bne	.L486
 3736 004a 5A6C     		ldr	r2, [r3, #68]
 3737 004c 22F40042 		bic	r2, r2, #32768
 3738 0050 5A64     		str	r2, [r3, #68]
 3739 0052 DFE7     		b	.L486
 3740              	.L491:
 3741              		.align	2
 3742              	.L490:
 3743 0054 002C0140 		.word	1073818624
 3745              		.section	.text.HAL_TIM_OC_Start_IT,"ax",%progbits
 3746              		.align	1
 3747              		.global	HAL_TIM_OC_Start_IT
 3748              		.syntax unified
 3749              		.thumb
 3750              		.thumb_func
 3751              		.fpu softvfp
 3753              	HAL_TIM_OC_Start_IT:
 3754              		@ args = 0, pretend = 0, frame = 0
 3755              		@ frame_needed = 0, uses_anonymous_args = 0
 3756 0000 10B5     		push	{r4, lr}
 3757 0002 0446     		mov	r4, r0
 3758 0004 0C29     		cmp	r1, #12
 3759 0006 0DD8     		bhi	.L493
 3760 0008 DFE801F0 		tbb	[pc, r1]
 3761              	.L495:
 3762 000c 07       		.byte	(.L494-.L495)/2
 3763 000d 0C       		.byte	(.L493-.L495)/2
 3764 000e 0C       		.byte	(.L493-.L495)/2
 3765 000f 0C       		.byte	(.L493-.L495)/2
 3766 0010 20       		.byte	(.L496-.L495)/2
 3767 0011 0C       		.byte	(.L493-.L495)/2
 3768 0012 0C       		.byte	(.L493-.L495)/2
ARM GAS  /tmp/ccqz4ALL.s 			page 64


 3769 0013 0C       		.byte	(.L493-.L495)/2
 3770 0014 26       		.byte	(.L497-.L495)/2
 3771 0015 0C       		.byte	(.L493-.L495)/2
 3772 0016 0C       		.byte	(.L493-.L495)/2
 3773 0017 0C       		.byte	(.L493-.L495)/2
 3774 0018 2C       		.byte	(.L498-.L495)/2
 3775 0019 00       		.p2align 1
 3776              	.L494:
 3777 001a 0268     		ldr	r2, [r0]
 3778 001c D368     		ldr	r3, [r2, #12]
 3779 001e 43F00203 		orr	r3, r3, #2
 3780 0022 D360     		str	r3, [r2, #12]
 3781              	.L493:
 3782 0024 0122     		movs	r2, #1
 3783 0026 2068     		ldr	r0, [r4]
 3784 0028 FFF7FEFF 		bl	TIM_CCxChannelCmd
 3785 002c 2368     		ldr	r3, [r4]
 3786 002e 134A     		ldr	r2, .L503
 3787 0030 9342     		cmp	r3, r2
 3788 0032 1DD0     		beq	.L502
 3789              	.L499:
 3790 0034 2268     		ldr	r2, [r4]
 3791 0036 9368     		ldr	r3, [r2, #8]
 3792 0038 03F00703 		and	r3, r3, #7
 3793 003c 062B     		cmp	r3, #6
 3794 003e 03D0     		beq	.L500
 3795 0040 1368     		ldr	r3, [r2]
 3796 0042 43F00103 		orr	r3, r3, #1
 3797 0046 1360     		str	r3, [r2]
 3798              	.L500:
 3799 0048 0020     		movs	r0, #0
 3800 004a 10BD     		pop	{r4, pc}
 3801              	.L496:
 3802 004c 0268     		ldr	r2, [r0]
 3803 004e D368     		ldr	r3, [r2, #12]
 3804 0050 43F00403 		orr	r3, r3, #4
 3805 0054 D360     		str	r3, [r2, #12]
 3806 0056 E5E7     		b	.L493
 3807              	.L497:
 3808 0058 0268     		ldr	r2, [r0]
 3809 005a D368     		ldr	r3, [r2, #12]
 3810 005c 43F00803 		orr	r3, r3, #8
 3811 0060 D360     		str	r3, [r2, #12]
 3812 0062 DFE7     		b	.L493
 3813              	.L498:
 3814 0064 0268     		ldr	r2, [r0]
 3815 0066 D368     		ldr	r3, [r2, #12]
 3816 0068 43F01003 		orr	r3, r3, #16
 3817 006c D360     		str	r3, [r2, #12]
 3818 006e D9E7     		b	.L493
 3819              	.L502:
 3820 0070 5A6C     		ldr	r2, [r3, #68]
 3821 0072 42F40042 		orr	r2, r2, #32768
 3822 0076 5A64     		str	r2, [r3, #68]
 3823 0078 DCE7     		b	.L499
 3824              	.L504:
 3825 007a 00BF     		.align	2
ARM GAS  /tmp/ccqz4ALL.s 			page 65


 3826              	.L503:
 3827 007c 002C0140 		.word	1073818624
 3829              		.section	.text.HAL_TIM_OC_Stop_IT,"ax",%progbits
 3830              		.align	1
 3831              		.global	HAL_TIM_OC_Stop_IT
 3832              		.syntax unified
 3833              		.thumb
 3834              		.thumb_func
 3835              		.fpu softvfp
 3837              	HAL_TIM_OC_Stop_IT:
 3838              		@ args = 0, pretend = 0, frame = 0
 3839              		@ frame_needed = 0, uses_anonymous_args = 0
 3840 0000 10B5     		push	{r4, lr}
 3841 0002 0446     		mov	r4, r0
 3842 0004 0C29     		cmp	r1, #12
 3843 0006 0DD8     		bhi	.L506
 3844 0008 DFE801F0 		tbb	[pc, r1]
 3845              	.L508:
 3846 000c 07       		.byte	(.L507-.L508)/2
 3847 000d 0C       		.byte	(.L506-.L508)/2
 3848 000e 0C       		.byte	(.L506-.L508)/2
 3849 000f 0C       		.byte	(.L506-.L508)/2
 3850 0010 25       		.byte	(.L509-.L508)/2
 3851 0011 0C       		.byte	(.L506-.L508)/2
 3852 0012 0C       		.byte	(.L506-.L508)/2
 3853 0013 0C       		.byte	(.L506-.L508)/2
 3854 0014 2B       		.byte	(.L510-.L508)/2
 3855 0015 0C       		.byte	(.L506-.L508)/2
 3856 0016 0C       		.byte	(.L506-.L508)/2
 3857 0017 0C       		.byte	(.L506-.L508)/2
 3858 0018 31       		.byte	(.L511-.L508)/2
 3859 0019 00       		.p2align 1
 3860              	.L507:
 3861 001a 0268     		ldr	r2, [r0]
 3862 001c D368     		ldr	r3, [r2, #12]
 3863 001e 23F00203 		bic	r3, r3, #2
 3864 0022 D360     		str	r3, [r2, #12]
 3865              	.L506:
 3866 0024 0022     		movs	r2, #0
 3867 0026 2068     		ldr	r0, [r4]
 3868 0028 FFF7FEFF 		bl	TIM_CCxChannelCmd
 3869 002c 2368     		ldr	r3, [r4]
 3870 002e 1A4A     		ldr	r2, .L516
 3871 0030 9342     		cmp	r3, r2
 3872 0032 22D0     		beq	.L515
 3873              	.L512:
 3874 0034 2368     		ldr	r3, [r4]
 3875 0036 196A     		ldr	r1, [r3, #32]
 3876 0038 41F21112 		movw	r2, #4369
 3877 003c 1142     		tst	r1, r2
 3878 003e 08D1     		bne	.L513
 3879 0040 196A     		ldr	r1, [r3, #32]
 3880 0042 40F24442 		movw	r2, #1092
 3881 0046 1142     		tst	r1, r2
 3882 0048 03D1     		bne	.L513
 3883 004a 1A68     		ldr	r2, [r3]
 3884 004c 22F00102 		bic	r2, r2, #1
ARM GAS  /tmp/ccqz4ALL.s 			page 66


 3885 0050 1A60     		str	r2, [r3]
 3886              	.L513:
 3887 0052 0020     		movs	r0, #0
 3888 0054 10BD     		pop	{r4, pc}
 3889              	.L509:
 3890 0056 0268     		ldr	r2, [r0]
 3891 0058 D368     		ldr	r3, [r2, #12]
 3892 005a 23F00403 		bic	r3, r3, #4
 3893 005e D360     		str	r3, [r2, #12]
 3894 0060 E0E7     		b	.L506
 3895              	.L510:
 3896 0062 0268     		ldr	r2, [r0]
 3897 0064 D368     		ldr	r3, [r2, #12]
 3898 0066 23F00803 		bic	r3, r3, #8
 3899 006a D360     		str	r3, [r2, #12]
 3900 006c DAE7     		b	.L506
 3901              	.L511:
 3902 006e 0268     		ldr	r2, [r0]
 3903 0070 D368     		ldr	r3, [r2, #12]
 3904 0072 23F01003 		bic	r3, r3, #16
 3905 0076 D360     		str	r3, [r2, #12]
 3906 0078 D4E7     		b	.L506
 3907              	.L515:
 3908 007a 196A     		ldr	r1, [r3, #32]
 3909 007c 41F21112 		movw	r2, #4369
 3910 0080 1142     		tst	r1, r2
 3911 0082 D7D1     		bne	.L512
 3912 0084 196A     		ldr	r1, [r3, #32]
 3913 0086 40F24442 		movw	r2, #1092
 3914 008a 1142     		tst	r1, r2
 3915 008c D2D1     		bne	.L512
 3916 008e 5A6C     		ldr	r2, [r3, #68]
 3917 0090 22F40042 		bic	r2, r2, #32768
 3918 0094 5A64     		str	r2, [r3, #68]
 3919 0096 CDE7     		b	.L512
 3920              	.L517:
 3921              		.align	2
 3922              	.L516:
 3923 0098 002C0140 		.word	1073818624
 3925              		.section	.text.HAL_TIM_OC_Start_DMA,"ax",%progbits
 3926              		.align	1
 3927              		.global	HAL_TIM_OC_Start_DMA
 3928              		.syntax unified
 3929              		.thumb
 3930              		.thumb_func
 3931              		.fpu softvfp
 3933              	HAL_TIM_OC_Start_DMA:
 3934              		@ args = 0, pretend = 0, frame = 0
 3935              		@ frame_needed = 0, uses_anonymous_args = 0
 3936 0000 70B5     		push	{r4, r5, r6, lr}
 3937 0002 90F83D40 		ldrb	r4, [r0, #61]	@ zero_extendqisi2
 3938 0006 E4B2     		uxtb	r4, r4
 3939 0008 022C     		cmp	r4, #2
 3940 000a 00F08F80 		beq	.L529
 3941 000e 90F83D40 		ldrb	r4, [r0, #61]	@ zero_extendqisi2
 3942 0012 E4B2     		uxtb	r4, r4
 3943 0014 012C     		cmp	r4, #1
ARM GAS  /tmp/ccqz4ALL.s 			page 67


 3944 0016 0DD0     		beq	.L537
 3945              	.L520:
 3946 0018 1646     		mov	r6, r2
 3947 001a 0D46     		mov	r5, r1
 3948 001c 0446     		mov	r4, r0
 3949 001e 0C29     		cmp	r1, #12
 3950 0020 27D8     		bhi	.L522
 3951 0022 DFE801F0 		tbb	[pc, r1]
 3952              	.L524:
 3953 0026 10       		.byte	(.L523-.L524)/2
 3954 0027 26       		.byte	(.L522-.L524)/2
 3955 0028 26       		.byte	(.L522-.L524)/2
 3956 0029 26       		.byte	(.L522-.L524)/2
 3957 002a 3B       		.byte	(.L525-.L524)/2
 3958 002b 26       		.byte	(.L522-.L524)/2
 3959 002c 26       		.byte	(.L522-.L524)/2
 3960 002d 26       		.byte	(.L522-.L524)/2
 3961 002e 52       		.byte	(.L526-.L524)/2
 3962 002f 26       		.byte	(.L522-.L524)/2
 3963 0030 26       		.byte	(.L522-.L524)/2
 3964 0031 26       		.byte	(.L522-.L524)/2
 3965 0032 68       		.byte	(.L527-.L524)/2
 3966 0033 00       		.p2align 1
 3967              	.L537:
 3968 0034 1AB1     		cbz	r2, .L538
 3969              	.L521:
 3970 0036 0224     		movs	r4, #2
 3971 0038 80F83D40 		strb	r4, [r0, #61]
 3972 003c ECE7     		b	.L520
 3973              	.L538:
 3974 003e 002B     		cmp	r3, #0
 3975 0040 F9D0     		beq	.L521
 3976 0042 0120     		movs	r0, #1
 3977 0044 70BD     		pop	{r4, r5, r6, pc}
 3978              	.L523:
 3979 0046 426A     		ldr	r2, [r0, #36]
 3980 0048 3E49     		ldr	r1, .L540
 3981 004a 9162     		str	r1, [r2, #40]
 3982 004c 426A     		ldr	r2, [r0, #36]
 3983 004e 3E49     		ldr	r1, .L540+4
 3984 0050 D162     		str	r1, [r2, #44]
 3985 0052 426A     		ldr	r2, [r0, #36]
 3986 0054 3D49     		ldr	r1, .L540+8
 3987 0056 1163     		str	r1, [r2, #48]
 3988 0058 0268     		ldr	r2, [r0]
 3989 005a 3432     		adds	r2, r2, #52
 3990 005c 3146     		mov	r1, r6
 3991 005e 406A     		ldr	r0, [r0, #36]
 3992 0060 FFF7FEFF 		bl	HAL_DMA_Start_IT
 3993 0064 0028     		cmp	r0, #0
 3994 0066 63D1     		bne	.L531
 3995 0068 2268     		ldr	r2, [r4]
 3996 006a D368     		ldr	r3, [r2, #12]
 3997 006c 43F40073 		orr	r3, r3, #512
 3998 0070 D360     		str	r3, [r2, #12]
 3999              	.L522:
 4000 0072 0122     		movs	r2, #1
ARM GAS  /tmp/ccqz4ALL.s 			page 68


 4001 0074 2946     		mov	r1, r5
 4002 0076 2068     		ldr	r0, [r4]
 4003 0078 FFF7FEFF 		bl	TIM_CCxChannelCmd
 4004 007c 2368     		ldr	r3, [r4]
 4005 007e 344A     		ldr	r2, .L540+12
 4006 0080 9342     		cmp	r3, r2
 4007 0082 4ED0     		beq	.L539
 4008              	.L528:
 4009 0084 2268     		ldr	r2, [r4]
 4010 0086 9368     		ldr	r3, [r2, #8]
 4011 0088 03F00703 		and	r3, r3, #7
 4012 008c 062B     		cmp	r3, #6
 4013 008e 57D0     		beq	.L535
 4014 0090 1368     		ldr	r3, [r2]
 4015 0092 43F00103 		orr	r3, r3, #1
 4016 0096 1360     		str	r3, [r2]
 4017 0098 0020     		movs	r0, #0
 4018 009a 70BD     		pop	{r4, r5, r6, pc}
 4019              	.L525:
 4020 009c 826A     		ldr	r2, [r0, #40]
 4021 009e 2949     		ldr	r1, .L540
 4022 00a0 9162     		str	r1, [r2, #40]
 4023 00a2 826A     		ldr	r2, [r0, #40]
 4024 00a4 2849     		ldr	r1, .L540+4
 4025 00a6 D162     		str	r1, [r2, #44]
 4026 00a8 826A     		ldr	r2, [r0, #40]
 4027 00aa 2849     		ldr	r1, .L540+8
 4028 00ac 1163     		str	r1, [r2, #48]
 4029 00ae 0268     		ldr	r2, [r0]
 4030 00b0 3832     		adds	r2, r2, #56
 4031 00b2 3146     		mov	r1, r6
 4032 00b4 806A     		ldr	r0, [r0, #40]
 4033 00b6 FFF7FEFF 		bl	HAL_DMA_Start_IT
 4034 00ba 0028     		cmp	r0, #0
 4035 00bc 3AD1     		bne	.L532
 4036 00be 2268     		ldr	r2, [r4]
 4037 00c0 D368     		ldr	r3, [r2, #12]
 4038 00c2 43F48063 		orr	r3, r3, #1024
 4039 00c6 D360     		str	r3, [r2, #12]
 4040 00c8 D3E7     		b	.L522
 4041              	.L526:
 4042 00ca C26A     		ldr	r2, [r0, #44]
 4043 00cc 1D49     		ldr	r1, .L540
 4044 00ce 9162     		str	r1, [r2, #40]
 4045 00d0 C26A     		ldr	r2, [r0, #44]
 4046 00d2 1D49     		ldr	r1, .L540+4
 4047 00d4 D162     		str	r1, [r2, #44]
 4048 00d6 C26A     		ldr	r2, [r0, #44]
 4049 00d8 1C49     		ldr	r1, .L540+8
 4050 00da 1163     		str	r1, [r2, #48]
 4051 00dc 0268     		ldr	r2, [r0]
 4052 00de 3C32     		adds	r2, r2, #60
 4053 00e0 3146     		mov	r1, r6
 4054 00e2 C06A     		ldr	r0, [r0, #44]
 4055 00e4 FFF7FEFF 		bl	HAL_DMA_Start_IT
 4056 00e8 30BB     		cbnz	r0, .L533
 4057 00ea 2268     		ldr	r2, [r4]
ARM GAS  /tmp/ccqz4ALL.s 			page 69


 4058 00ec D368     		ldr	r3, [r2, #12]
 4059 00ee 43F40063 		orr	r3, r3, #2048
 4060 00f2 D360     		str	r3, [r2, #12]
 4061 00f4 BDE7     		b	.L522
 4062              	.L527:
 4063 00f6 026B     		ldr	r2, [r0, #48]
 4064 00f8 1249     		ldr	r1, .L540
 4065 00fa 9162     		str	r1, [r2, #40]
 4066 00fc 026B     		ldr	r2, [r0, #48]
 4067 00fe 1249     		ldr	r1, .L540+4
 4068 0100 D162     		str	r1, [r2, #44]
 4069 0102 026B     		ldr	r2, [r0, #48]
 4070 0104 1149     		ldr	r1, .L540+8
 4071 0106 1163     		str	r1, [r2, #48]
 4072 0108 0268     		ldr	r2, [r0]
 4073 010a 4032     		adds	r2, r2, #64
 4074 010c 3146     		mov	r1, r6
 4075 010e 006B     		ldr	r0, [r0, #48]
 4076 0110 FFF7FEFF 		bl	HAL_DMA_Start_IT
 4077 0114 90B9     		cbnz	r0, .L534
 4078 0116 2268     		ldr	r2, [r4]
 4079 0118 D368     		ldr	r3, [r2, #12]
 4080 011a 43F48053 		orr	r3, r3, #4096
 4081 011e D360     		str	r3, [r2, #12]
 4082 0120 A7E7     		b	.L522
 4083              	.L539:
 4084 0122 5A6C     		ldr	r2, [r3, #68]
 4085 0124 42F40042 		orr	r2, r2, #32768
 4086 0128 5A64     		str	r2, [r3, #68]
 4087 012a ABE7     		b	.L528
 4088              	.L529:
 4089 012c 0220     		movs	r0, #2
 4090 012e 70BD     		pop	{r4, r5, r6, pc}
 4091              	.L531:
 4092 0130 0120     		movs	r0, #1
 4093 0132 70BD     		pop	{r4, r5, r6, pc}
 4094              	.L532:
 4095 0134 0120     		movs	r0, #1
 4096 0136 70BD     		pop	{r4, r5, r6, pc}
 4097              	.L533:
 4098 0138 0120     		movs	r0, #1
 4099 013a 70BD     		pop	{r4, r5, r6, pc}
 4100              	.L534:
 4101 013c 0120     		movs	r0, #1
 4102 013e 70BD     		pop	{r4, r5, r6, pc}
 4103              	.L535:
 4104 0140 0020     		movs	r0, #0
 4105 0142 70BD     		pop	{r4, r5, r6, pc}
 4106              	.L541:
 4107              		.align	2
 4108              	.L540:
 4109 0144 00000000 		.word	TIM_DMADelayPulseCplt
 4110 0148 00000000 		.word	TIM_DMADelayPulseHalfCplt
 4111 014c 00000000 		.word	TIM_DMAError
 4112 0150 002C0140 		.word	1073818624
 4114              		.section	.text.HAL_TIM_OC_Stop_DMA,"ax",%progbits
 4115              		.align	1
ARM GAS  /tmp/ccqz4ALL.s 			page 70


 4116              		.global	HAL_TIM_OC_Stop_DMA
 4117              		.syntax unified
 4118              		.thumb
 4119              		.thumb_func
 4120              		.fpu softvfp
 4122              	HAL_TIM_OC_Stop_DMA:
 4123              		@ args = 0, pretend = 0, frame = 0
 4124              		@ frame_needed = 0, uses_anonymous_args = 0
 4125 0000 38B5     		push	{r3, r4, r5, lr}
 4126 0002 0446     		mov	r4, r0
 4127 0004 0D46     		mov	r5, r1
 4128 0006 0C29     		cmp	r1, #12
 4129 0008 10D8     		bhi	.L543
 4130 000a DFE801F0 		tbb	[pc, r1]
 4131              	.L545:
 4132 000e 07       		.byte	(.L544-.L545)/2
 4133 000f 0F       		.byte	(.L543-.L545)/2
 4134 0010 0F       		.byte	(.L543-.L545)/2
 4135 0011 0F       		.byte	(.L543-.L545)/2
 4136 0012 2C       		.byte	(.L546-.L545)/2
 4137 0013 0F       		.byte	(.L543-.L545)/2
 4138 0014 0F       		.byte	(.L543-.L545)/2
 4139 0015 0F       		.byte	(.L543-.L545)/2
 4140 0016 35       		.byte	(.L547-.L545)/2
 4141 0017 0F       		.byte	(.L543-.L545)/2
 4142 0018 0F       		.byte	(.L543-.L545)/2
 4143 0019 0F       		.byte	(.L543-.L545)/2
 4144 001a 3E       		.byte	(.L548-.L545)/2
 4145 001b 00       		.p2align 1
 4146              	.L544:
 4147 001c 0268     		ldr	r2, [r0]
 4148 001e D368     		ldr	r3, [r2, #12]
 4149 0020 23F40073 		bic	r3, r3, #512
 4150 0024 D360     		str	r3, [r2, #12]
 4151 0026 406A     		ldr	r0, [r0, #36]
 4152 0028 FFF7FEFF 		bl	HAL_DMA_Abort_IT
 4153              	.L543:
 4154 002c 0022     		movs	r2, #0
 4155 002e 2946     		mov	r1, r5
 4156 0030 2068     		ldr	r0, [r4]
 4157 0032 FFF7FEFF 		bl	TIM_CCxChannelCmd
 4158 0036 2368     		ldr	r3, [r4]
 4159 0038 204A     		ldr	r2, .L553
 4160 003a 9342     		cmp	r3, r2
 4161 003c 2ED0     		beq	.L552
 4162              	.L549:
 4163 003e 2368     		ldr	r3, [r4]
 4164 0040 196A     		ldr	r1, [r3, #32]
 4165 0042 41F21112 		movw	r2, #4369
 4166 0046 1142     		tst	r1, r2
 4167 0048 08D1     		bne	.L550
 4168 004a 196A     		ldr	r1, [r3, #32]
 4169 004c 40F24442 		movw	r2, #1092
 4170 0050 1142     		tst	r1, r2
 4171 0052 03D1     		bne	.L550
 4172 0054 1A68     		ldr	r2, [r3]
 4173 0056 22F00102 		bic	r2, r2, #1
ARM GAS  /tmp/ccqz4ALL.s 			page 71


 4174 005a 1A60     		str	r2, [r3]
 4175              	.L550:
 4176 005c 0123     		movs	r3, #1
 4177 005e 84F83D30 		strb	r3, [r4, #61]
 4178 0062 0020     		movs	r0, #0
 4179 0064 38BD     		pop	{r3, r4, r5, pc}
 4180              	.L546:
 4181 0066 0268     		ldr	r2, [r0]
 4182 0068 D368     		ldr	r3, [r2, #12]
 4183 006a 23F48063 		bic	r3, r3, #1024
 4184 006e D360     		str	r3, [r2, #12]
 4185 0070 806A     		ldr	r0, [r0, #40]
 4186 0072 FFF7FEFF 		bl	HAL_DMA_Abort_IT
 4187 0076 D9E7     		b	.L543
 4188              	.L547:
 4189 0078 0268     		ldr	r2, [r0]
 4190 007a D368     		ldr	r3, [r2, #12]
 4191 007c 23F40063 		bic	r3, r3, #2048
 4192 0080 D360     		str	r3, [r2, #12]
 4193 0082 C06A     		ldr	r0, [r0, #44]
 4194 0084 FFF7FEFF 		bl	HAL_DMA_Abort_IT
 4195 0088 D0E7     		b	.L543
 4196              	.L548:
 4197 008a 0268     		ldr	r2, [r0]
 4198 008c D368     		ldr	r3, [r2, #12]
 4199 008e 23F48053 		bic	r3, r3, #4096
 4200 0092 D360     		str	r3, [r2, #12]
 4201 0094 006B     		ldr	r0, [r0, #48]
 4202 0096 FFF7FEFF 		bl	HAL_DMA_Abort_IT
 4203 009a C7E7     		b	.L543
 4204              	.L552:
 4205 009c 196A     		ldr	r1, [r3, #32]
 4206 009e 41F21112 		movw	r2, #4369
 4207 00a2 1142     		tst	r1, r2
 4208 00a4 CBD1     		bne	.L549
 4209 00a6 196A     		ldr	r1, [r3, #32]
 4210 00a8 40F24442 		movw	r2, #1092
 4211 00ac 1142     		tst	r1, r2
 4212 00ae C6D1     		bne	.L549
 4213 00b0 5A6C     		ldr	r2, [r3, #68]
 4214 00b2 22F40042 		bic	r2, r2, #32768
 4215 00b6 5A64     		str	r2, [r3, #68]
 4216 00b8 C1E7     		b	.L549
 4217              	.L554:
 4218 00ba 00BF     		.align	2
 4219              	.L553:
 4220 00bc 002C0140 		.word	1073818624
 4222              		.section	.text.HAL_TIM_PWM_Start,"ax",%progbits
 4223              		.align	1
 4224              		.global	HAL_TIM_PWM_Start
 4225              		.syntax unified
 4226              		.thumb
 4227              		.thumb_func
 4228              		.fpu softvfp
 4230              	HAL_TIM_PWM_Start:
 4231              		@ args = 0, pretend = 0, frame = 0
 4232              		@ frame_needed = 0, uses_anonymous_args = 0
ARM GAS  /tmp/ccqz4ALL.s 			page 72


 4233 0000 10B5     		push	{r4, lr}
 4234 0002 0446     		mov	r4, r0
 4235 0004 0122     		movs	r2, #1
 4236 0006 0068     		ldr	r0, [r0]
 4237 0008 FFF7FEFF 		bl	TIM_CCxChannelCmd
 4238 000c 2368     		ldr	r3, [r4]
 4239 000e 0A4A     		ldr	r2, .L560
 4240 0010 9342     		cmp	r3, r2
 4241 0012 0BD0     		beq	.L559
 4242              	.L556:
 4243 0014 2268     		ldr	r2, [r4]
 4244 0016 9368     		ldr	r3, [r2, #8]
 4245 0018 03F00703 		and	r3, r3, #7
 4246 001c 062B     		cmp	r3, #6
 4247 001e 03D0     		beq	.L557
 4248 0020 1368     		ldr	r3, [r2]
 4249 0022 43F00103 		orr	r3, r3, #1
 4250 0026 1360     		str	r3, [r2]
 4251              	.L557:
 4252 0028 0020     		movs	r0, #0
 4253 002a 10BD     		pop	{r4, pc}
 4254              	.L559:
 4255 002c 5A6C     		ldr	r2, [r3, #68]
 4256 002e 42F40042 		orr	r2, r2, #32768
 4257 0032 5A64     		str	r2, [r3, #68]
 4258 0034 EEE7     		b	.L556
 4259              	.L561:
 4260 0036 00BF     		.align	2
 4261              	.L560:
 4262 0038 002C0140 		.word	1073818624
 4264              		.section	.text.HAL_TIM_PWM_Stop,"ax",%progbits
 4265              		.align	1
 4266              		.global	HAL_TIM_PWM_Stop
 4267              		.syntax unified
 4268              		.thumb
 4269              		.thumb_func
 4270              		.fpu softvfp
 4272              	HAL_TIM_PWM_Stop:
 4273              		@ args = 0, pretend = 0, frame = 0
 4274              		@ frame_needed = 0, uses_anonymous_args = 0
 4275 0000 10B5     		push	{r4, lr}
 4276 0002 0446     		mov	r4, r0
 4277 0004 0022     		movs	r2, #0
 4278 0006 0068     		ldr	r0, [r0]
 4279 0008 FFF7FEFF 		bl	TIM_CCxChannelCmd
 4280 000c 2368     		ldr	r3, [r4]
 4281 000e 134A     		ldr	r2, .L567
 4282 0010 9342     		cmp	r3, r2
 4283 0012 13D0     		beq	.L566
 4284              	.L563:
 4285 0014 2368     		ldr	r3, [r4]
 4286 0016 196A     		ldr	r1, [r3, #32]
 4287 0018 41F21112 		movw	r2, #4369
 4288 001c 1142     		tst	r1, r2
 4289 001e 08D1     		bne	.L564
 4290 0020 196A     		ldr	r1, [r3, #32]
 4291 0022 40F24442 		movw	r2, #1092
ARM GAS  /tmp/ccqz4ALL.s 			page 73


 4292 0026 1142     		tst	r1, r2
 4293 0028 03D1     		bne	.L564
 4294 002a 1A68     		ldr	r2, [r3]
 4295 002c 22F00102 		bic	r2, r2, #1
 4296 0030 1A60     		str	r2, [r3]
 4297              	.L564:
 4298 0032 0123     		movs	r3, #1
 4299 0034 84F83D30 		strb	r3, [r4, #61]
 4300 0038 0020     		movs	r0, #0
 4301 003a 10BD     		pop	{r4, pc}
 4302              	.L566:
 4303 003c 196A     		ldr	r1, [r3, #32]
 4304 003e 41F21112 		movw	r2, #4369
 4305 0042 1142     		tst	r1, r2
 4306 0044 E6D1     		bne	.L563
 4307 0046 196A     		ldr	r1, [r3, #32]
 4308 0048 40F24442 		movw	r2, #1092
 4309 004c 1142     		tst	r1, r2
 4310 004e E1D1     		bne	.L563
 4311 0050 5A6C     		ldr	r2, [r3, #68]
 4312 0052 22F40042 		bic	r2, r2, #32768
 4313 0056 5A64     		str	r2, [r3, #68]
 4314 0058 DCE7     		b	.L563
 4315              	.L568:
 4316 005a 00BF     		.align	2
 4317              	.L567:
 4318 005c 002C0140 		.word	1073818624
 4320              		.section	.text.HAL_TIM_PWM_Start_IT,"ax",%progbits
 4321              		.align	1
 4322              		.global	HAL_TIM_PWM_Start_IT
 4323              		.syntax unified
 4324              		.thumb
 4325              		.thumb_func
 4326              		.fpu softvfp
 4328              	HAL_TIM_PWM_Start_IT:
 4329              		@ args = 0, pretend = 0, frame = 0
 4330              		@ frame_needed = 0, uses_anonymous_args = 0
 4331 0000 10B5     		push	{r4, lr}
 4332 0002 0446     		mov	r4, r0
 4333 0004 0C29     		cmp	r1, #12
 4334 0006 0DD8     		bhi	.L570
 4335 0008 DFE801F0 		tbb	[pc, r1]
 4336              	.L572:
 4337 000c 07       		.byte	(.L571-.L572)/2
 4338 000d 0C       		.byte	(.L570-.L572)/2
 4339 000e 0C       		.byte	(.L570-.L572)/2
 4340 000f 0C       		.byte	(.L570-.L572)/2
 4341 0010 20       		.byte	(.L573-.L572)/2
 4342 0011 0C       		.byte	(.L570-.L572)/2
 4343 0012 0C       		.byte	(.L570-.L572)/2
 4344 0013 0C       		.byte	(.L570-.L572)/2
 4345 0014 26       		.byte	(.L574-.L572)/2
 4346 0015 0C       		.byte	(.L570-.L572)/2
 4347 0016 0C       		.byte	(.L570-.L572)/2
 4348 0017 0C       		.byte	(.L570-.L572)/2
 4349 0018 2C       		.byte	(.L575-.L572)/2
 4350 0019 00       		.p2align 1
ARM GAS  /tmp/ccqz4ALL.s 			page 74


 4351              	.L571:
 4352 001a 0268     		ldr	r2, [r0]
 4353 001c D368     		ldr	r3, [r2, #12]
 4354 001e 43F00203 		orr	r3, r3, #2
 4355 0022 D360     		str	r3, [r2, #12]
 4356              	.L570:
 4357 0024 0122     		movs	r2, #1
 4358 0026 2068     		ldr	r0, [r4]
 4359 0028 FFF7FEFF 		bl	TIM_CCxChannelCmd
 4360 002c 2368     		ldr	r3, [r4]
 4361 002e 134A     		ldr	r2, .L580
 4362 0030 9342     		cmp	r3, r2
 4363 0032 1DD0     		beq	.L579
 4364              	.L576:
 4365 0034 2268     		ldr	r2, [r4]
 4366 0036 9368     		ldr	r3, [r2, #8]
 4367 0038 03F00703 		and	r3, r3, #7
 4368 003c 062B     		cmp	r3, #6
 4369 003e 03D0     		beq	.L577
 4370 0040 1368     		ldr	r3, [r2]
 4371 0042 43F00103 		orr	r3, r3, #1
 4372 0046 1360     		str	r3, [r2]
 4373              	.L577:
 4374 0048 0020     		movs	r0, #0
 4375 004a 10BD     		pop	{r4, pc}
 4376              	.L573:
 4377 004c 0268     		ldr	r2, [r0]
 4378 004e D368     		ldr	r3, [r2, #12]
 4379 0050 43F00403 		orr	r3, r3, #4
 4380 0054 D360     		str	r3, [r2, #12]
 4381 0056 E5E7     		b	.L570
 4382              	.L574:
 4383 0058 0268     		ldr	r2, [r0]
 4384 005a D368     		ldr	r3, [r2, #12]
 4385 005c 43F00803 		orr	r3, r3, #8
 4386 0060 D360     		str	r3, [r2, #12]
 4387 0062 DFE7     		b	.L570
 4388              	.L575:
 4389 0064 0268     		ldr	r2, [r0]
 4390 0066 D368     		ldr	r3, [r2, #12]
 4391 0068 43F01003 		orr	r3, r3, #16
 4392 006c D360     		str	r3, [r2, #12]
 4393 006e D9E7     		b	.L570
 4394              	.L579:
 4395 0070 5A6C     		ldr	r2, [r3, #68]
 4396 0072 42F40042 		orr	r2, r2, #32768
 4397 0076 5A64     		str	r2, [r3, #68]
 4398 0078 DCE7     		b	.L576
 4399              	.L581:
 4400 007a 00BF     		.align	2
 4401              	.L580:
 4402 007c 002C0140 		.word	1073818624
 4404              		.section	.text.HAL_TIM_PWM_Stop_IT,"ax",%progbits
 4405              		.align	1
 4406              		.global	HAL_TIM_PWM_Stop_IT
 4407              		.syntax unified
 4408              		.thumb
ARM GAS  /tmp/ccqz4ALL.s 			page 75


 4409              		.thumb_func
 4410              		.fpu softvfp
 4412              	HAL_TIM_PWM_Stop_IT:
 4413              		@ args = 0, pretend = 0, frame = 0
 4414              		@ frame_needed = 0, uses_anonymous_args = 0
 4415 0000 10B5     		push	{r4, lr}
 4416 0002 0446     		mov	r4, r0
 4417 0004 0C29     		cmp	r1, #12
 4418 0006 0DD8     		bhi	.L583
 4419 0008 DFE801F0 		tbb	[pc, r1]
 4420              	.L585:
 4421 000c 07       		.byte	(.L584-.L585)/2
 4422 000d 0C       		.byte	(.L583-.L585)/2
 4423 000e 0C       		.byte	(.L583-.L585)/2
 4424 000f 0C       		.byte	(.L583-.L585)/2
 4425 0010 25       		.byte	(.L586-.L585)/2
 4426 0011 0C       		.byte	(.L583-.L585)/2
 4427 0012 0C       		.byte	(.L583-.L585)/2
 4428 0013 0C       		.byte	(.L583-.L585)/2
 4429 0014 2B       		.byte	(.L587-.L585)/2
 4430 0015 0C       		.byte	(.L583-.L585)/2
 4431 0016 0C       		.byte	(.L583-.L585)/2
 4432 0017 0C       		.byte	(.L583-.L585)/2
 4433 0018 31       		.byte	(.L588-.L585)/2
 4434 0019 00       		.p2align 1
 4435              	.L584:
 4436 001a 0268     		ldr	r2, [r0]
 4437 001c D368     		ldr	r3, [r2, #12]
 4438 001e 23F00203 		bic	r3, r3, #2
 4439 0022 D360     		str	r3, [r2, #12]
 4440              	.L583:
 4441 0024 0022     		movs	r2, #0
 4442 0026 2068     		ldr	r0, [r4]
 4443 0028 FFF7FEFF 		bl	TIM_CCxChannelCmd
 4444 002c 2368     		ldr	r3, [r4]
 4445 002e 1A4A     		ldr	r2, .L593
 4446 0030 9342     		cmp	r3, r2
 4447 0032 22D0     		beq	.L592
 4448              	.L589:
 4449 0034 2368     		ldr	r3, [r4]
 4450 0036 196A     		ldr	r1, [r3, #32]
 4451 0038 41F21112 		movw	r2, #4369
 4452 003c 1142     		tst	r1, r2
 4453 003e 08D1     		bne	.L590
 4454 0040 196A     		ldr	r1, [r3, #32]
 4455 0042 40F24442 		movw	r2, #1092
 4456 0046 1142     		tst	r1, r2
 4457 0048 03D1     		bne	.L590
 4458 004a 1A68     		ldr	r2, [r3]
 4459 004c 22F00102 		bic	r2, r2, #1
 4460 0050 1A60     		str	r2, [r3]
 4461              	.L590:
 4462 0052 0020     		movs	r0, #0
 4463 0054 10BD     		pop	{r4, pc}
 4464              	.L586:
 4465 0056 0268     		ldr	r2, [r0]
 4466 0058 D368     		ldr	r3, [r2, #12]
ARM GAS  /tmp/ccqz4ALL.s 			page 76


 4467 005a 23F00403 		bic	r3, r3, #4
 4468 005e D360     		str	r3, [r2, #12]
 4469 0060 E0E7     		b	.L583
 4470              	.L587:
 4471 0062 0268     		ldr	r2, [r0]
 4472 0064 D368     		ldr	r3, [r2, #12]
 4473 0066 23F00803 		bic	r3, r3, #8
 4474 006a D360     		str	r3, [r2, #12]
 4475 006c DAE7     		b	.L583
 4476              	.L588:
 4477 006e 0268     		ldr	r2, [r0]
 4478 0070 D368     		ldr	r3, [r2, #12]
 4479 0072 23F01003 		bic	r3, r3, #16
 4480 0076 D360     		str	r3, [r2, #12]
 4481 0078 D4E7     		b	.L583
 4482              	.L592:
 4483 007a 196A     		ldr	r1, [r3, #32]
 4484 007c 41F21112 		movw	r2, #4369
 4485 0080 1142     		tst	r1, r2
 4486 0082 D7D1     		bne	.L589
 4487 0084 196A     		ldr	r1, [r3, #32]
 4488 0086 40F24442 		movw	r2, #1092
 4489 008a 1142     		tst	r1, r2
 4490 008c D2D1     		bne	.L589
 4491 008e 5A6C     		ldr	r2, [r3, #68]
 4492 0090 22F40042 		bic	r2, r2, #32768
 4493 0094 5A64     		str	r2, [r3, #68]
 4494 0096 CDE7     		b	.L589
 4495              	.L594:
 4496              		.align	2
 4497              	.L593:
 4498 0098 002C0140 		.word	1073818624
 4500              		.section	.text.HAL_TIM_PWM_Start_DMA,"ax",%progbits
 4501              		.align	1
 4502              		.global	HAL_TIM_PWM_Start_DMA
 4503              		.syntax unified
 4504              		.thumb
 4505              		.thumb_func
 4506              		.fpu softvfp
 4508              	HAL_TIM_PWM_Start_DMA:
 4509              		@ args = 0, pretend = 0, frame = 0
 4510              		@ frame_needed = 0, uses_anonymous_args = 0
 4511 0000 70B5     		push	{r4, r5, r6, lr}
 4512 0002 90F83D40 		ldrb	r4, [r0, #61]	@ zero_extendqisi2
 4513 0006 E4B2     		uxtb	r4, r4
 4514 0008 022C     		cmp	r4, #2
 4515 000a 00F08F80 		beq	.L606
 4516 000e 90F83D40 		ldrb	r4, [r0, #61]	@ zero_extendqisi2
 4517 0012 E4B2     		uxtb	r4, r4
 4518 0014 012C     		cmp	r4, #1
 4519 0016 0DD0     		beq	.L614
 4520              	.L597:
 4521 0018 1646     		mov	r6, r2
 4522 001a 0D46     		mov	r5, r1
 4523 001c 0446     		mov	r4, r0
 4524 001e 0C29     		cmp	r1, #12
 4525 0020 27D8     		bhi	.L599
ARM GAS  /tmp/ccqz4ALL.s 			page 77


 4526 0022 DFE801F0 		tbb	[pc, r1]
 4527              	.L601:
 4528 0026 10       		.byte	(.L600-.L601)/2
 4529 0027 26       		.byte	(.L599-.L601)/2
 4530 0028 26       		.byte	(.L599-.L601)/2
 4531 0029 26       		.byte	(.L599-.L601)/2
 4532 002a 3B       		.byte	(.L602-.L601)/2
 4533 002b 26       		.byte	(.L599-.L601)/2
 4534 002c 26       		.byte	(.L599-.L601)/2
 4535 002d 26       		.byte	(.L599-.L601)/2
 4536 002e 52       		.byte	(.L603-.L601)/2
 4537 002f 26       		.byte	(.L599-.L601)/2
 4538 0030 26       		.byte	(.L599-.L601)/2
 4539 0031 26       		.byte	(.L599-.L601)/2
 4540 0032 68       		.byte	(.L604-.L601)/2
 4541 0033 00       		.p2align 1
 4542              	.L614:
 4543 0034 1AB1     		cbz	r2, .L615
 4544              	.L598:
 4545 0036 0224     		movs	r4, #2
 4546 0038 80F83D40 		strb	r4, [r0, #61]
 4547 003c ECE7     		b	.L597
 4548              	.L615:
 4549 003e 002B     		cmp	r3, #0
 4550 0040 F9D0     		beq	.L598
 4551 0042 0120     		movs	r0, #1
 4552 0044 70BD     		pop	{r4, r5, r6, pc}
 4553              	.L600:
 4554 0046 426A     		ldr	r2, [r0, #36]
 4555 0048 3E49     		ldr	r1, .L617
 4556 004a 9162     		str	r1, [r2, #40]
 4557 004c 426A     		ldr	r2, [r0, #36]
 4558 004e 3E49     		ldr	r1, .L617+4
 4559 0050 D162     		str	r1, [r2, #44]
 4560 0052 426A     		ldr	r2, [r0, #36]
 4561 0054 3D49     		ldr	r1, .L617+8
 4562 0056 1163     		str	r1, [r2, #48]
 4563 0058 0268     		ldr	r2, [r0]
 4564 005a 3432     		adds	r2, r2, #52
 4565 005c 3146     		mov	r1, r6
 4566 005e 406A     		ldr	r0, [r0, #36]
 4567 0060 FFF7FEFF 		bl	HAL_DMA_Start_IT
 4568 0064 0028     		cmp	r0, #0
 4569 0066 63D1     		bne	.L608
 4570 0068 2268     		ldr	r2, [r4]
 4571 006a D368     		ldr	r3, [r2, #12]
 4572 006c 43F40073 		orr	r3, r3, #512
 4573 0070 D360     		str	r3, [r2, #12]
 4574              	.L599:
 4575 0072 0122     		movs	r2, #1
 4576 0074 2946     		mov	r1, r5
 4577 0076 2068     		ldr	r0, [r4]
 4578 0078 FFF7FEFF 		bl	TIM_CCxChannelCmd
 4579 007c 2368     		ldr	r3, [r4]
 4580 007e 344A     		ldr	r2, .L617+12
 4581 0080 9342     		cmp	r3, r2
 4582 0082 4ED0     		beq	.L616
ARM GAS  /tmp/ccqz4ALL.s 			page 78


 4583              	.L605:
 4584 0084 2268     		ldr	r2, [r4]
 4585 0086 9368     		ldr	r3, [r2, #8]
 4586 0088 03F00703 		and	r3, r3, #7
 4587 008c 062B     		cmp	r3, #6
 4588 008e 57D0     		beq	.L612
 4589 0090 1368     		ldr	r3, [r2]
 4590 0092 43F00103 		orr	r3, r3, #1
 4591 0096 1360     		str	r3, [r2]
 4592 0098 0020     		movs	r0, #0
 4593 009a 70BD     		pop	{r4, r5, r6, pc}
 4594              	.L602:
 4595 009c 826A     		ldr	r2, [r0, #40]
 4596 009e 2949     		ldr	r1, .L617
 4597 00a0 9162     		str	r1, [r2, #40]
 4598 00a2 826A     		ldr	r2, [r0, #40]
 4599 00a4 2849     		ldr	r1, .L617+4
 4600 00a6 D162     		str	r1, [r2, #44]
 4601 00a8 826A     		ldr	r2, [r0, #40]
 4602 00aa 2849     		ldr	r1, .L617+8
 4603 00ac 1163     		str	r1, [r2, #48]
 4604 00ae 0268     		ldr	r2, [r0]
 4605 00b0 3832     		adds	r2, r2, #56
 4606 00b2 3146     		mov	r1, r6
 4607 00b4 806A     		ldr	r0, [r0, #40]
 4608 00b6 FFF7FEFF 		bl	HAL_DMA_Start_IT
 4609 00ba 0028     		cmp	r0, #0
 4610 00bc 3AD1     		bne	.L609
 4611 00be 2268     		ldr	r2, [r4]
 4612 00c0 D368     		ldr	r3, [r2, #12]
 4613 00c2 43F48063 		orr	r3, r3, #1024
 4614 00c6 D360     		str	r3, [r2, #12]
 4615 00c8 D3E7     		b	.L599
 4616              	.L603:
 4617 00ca C26A     		ldr	r2, [r0, #44]
 4618 00cc 1D49     		ldr	r1, .L617
 4619 00ce 9162     		str	r1, [r2, #40]
 4620 00d0 C26A     		ldr	r2, [r0, #44]
 4621 00d2 1D49     		ldr	r1, .L617+4
 4622 00d4 D162     		str	r1, [r2, #44]
 4623 00d6 C26A     		ldr	r2, [r0, #44]
 4624 00d8 1C49     		ldr	r1, .L617+8
 4625 00da 1163     		str	r1, [r2, #48]
 4626 00dc 0268     		ldr	r2, [r0]
 4627 00de 3C32     		adds	r2, r2, #60
 4628 00e0 3146     		mov	r1, r6
 4629 00e2 C06A     		ldr	r0, [r0, #44]
 4630 00e4 FFF7FEFF 		bl	HAL_DMA_Start_IT
 4631 00e8 30BB     		cbnz	r0, .L610
 4632 00ea 2268     		ldr	r2, [r4]
 4633 00ec D368     		ldr	r3, [r2, #12]
 4634 00ee 43F40063 		orr	r3, r3, #2048
 4635 00f2 D360     		str	r3, [r2, #12]
 4636 00f4 BDE7     		b	.L599
 4637              	.L604:
 4638 00f6 026B     		ldr	r2, [r0, #48]
 4639 00f8 1249     		ldr	r1, .L617
ARM GAS  /tmp/ccqz4ALL.s 			page 79


 4640 00fa 9162     		str	r1, [r2, #40]
 4641 00fc 026B     		ldr	r2, [r0, #48]
 4642 00fe 1249     		ldr	r1, .L617+4
 4643 0100 D162     		str	r1, [r2, #44]
 4644 0102 026B     		ldr	r2, [r0, #48]
 4645 0104 1149     		ldr	r1, .L617+8
 4646 0106 1163     		str	r1, [r2, #48]
 4647 0108 0268     		ldr	r2, [r0]
 4648 010a 4032     		adds	r2, r2, #64
 4649 010c 3146     		mov	r1, r6
 4650 010e 006B     		ldr	r0, [r0, #48]
 4651 0110 FFF7FEFF 		bl	HAL_DMA_Start_IT
 4652 0114 90B9     		cbnz	r0, .L611
 4653 0116 2268     		ldr	r2, [r4]
 4654 0118 D368     		ldr	r3, [r2, #12]
 4655 011a 43F48053 		orr	r3, r3, #4096
 4656 011e D360     		str	r3, [r2, #12]
 4657 0120 A7E7     		b	.L599
 4658              	.L616:
 4659 0122 5A6C     		ldr	r2, [r3, #68]
 4660 0124 42F40042 		orr	r2, r2, #32768
 4661 0128 5A64     		str	r2, [r3, #68]
 4662 012a ABE7     		b	.L605
 4663              	.L606:
 4664 012c 0220     		movs	r0, #2
 4665 012e 70BD     		pop	{r4, r5, r6, pc}
 4666              	.L608:
 4667 0130 0120     		movs	r0, #1
 4668 0132 70BD     		pop	{r4, r5, r6, pc}
 4669              	.L609:
 4670 0134 0120     		movs	r0, #1
 4671 0136 70BD     		pop	{r4, r5, r6, pc}
 4672              	.L610:
 4673 0138 0120     		movs	r0, #1
 4674 013a 70BD     		pop	{r4, r5, r6, pc}
 4675              	.L611:
 4676 013c 0120     		movs	r0, #1
 4677 013e 70BD     		pop	{r4, r5, r6, pc}
 4678              	.L612:
 4679 0140 0020     		movs	r0, #0
 4680 0142 70BD     		pop	{r4, r5, r6, pc}
 4681              	.L618:
 4682              		.align	2
 4683              	.L617:
 4684 0144 00000000 		.word	TIM_DMADelayPulseCplt
 4685 0148 00000000 		.word	TIM_DMADelayPulseHalfCplt
 4686 014c 00000000 		.word	TIM_DMAError
 4687 0150 002C0140 		.word	1073818624
 4689              		.section	.text.HAL_TIM_PWM_Stop_DMA,"ax",%progbits
 4690              		.align	1
 4691              		.global	HAL_TIM_PWM_Stop_DMA
 4692              		.syntax unified
 4693              		.thumb
 4694              		.thumb_func
 4695              		.fpu softvfp
 4697              	HAL_TIM_PWM_Stop_DMA:
 4698              		@ args = 0, pretend = 0, frame = 0
ARM GAS  /tmp/ccqz4ALL.s 			page 80


 4699              		@ frame_needed = 0, uses_anonymous_args = 0
 4700 0000 38B5     		push	{r3, r4, r5, lr}
 4701 0002 0446     		mov	r4, r0
 4702 0004 0D46     		mov	r5, r1
 4703 0006 0C29     		cmp	r1, #12
 4704 0008 10D8     		bhi	.L620
 4705 000a DFE801F0 		tbb	[pc, r1]
 4706              	.L622:
 4707 000e 07       		.byte	(.L621-.L622)/2
 4708 000f 0F       		.byte	(.L620-.L622)/2
 4709 0010 0F       		.byte	(.L620-.L622)/2
 4710 0011 0F       		.byte	(.L620-.L622)/2
 4711 0012 2C       		.byte	(.L623-.L622)/2
 4712 0013 0F       		.byte	(.L620-.L622)/2
 4713 0014 0F       		.byte	(.L620-.L622)/2
 4714 0015 0F       		.byte	(.L620-.L622)/2
 4715 0016 35       		.byte	(.L624-.L622)/2
 4716 0017 0F       		.byte	(.L620-.L622)/2
 4717 0018 0F       		.byte	(.L620-.L622)/2
 4718 0019 0F       		.byte	(.L620-.L622)/2
 4719 001a 3E       		.byte	(.L625-.L622)/2
 4720 001b 00       		.p2align 1
 4721              	.L621:
 4722 001c 0268     		ldr	r2, [r0]
 4723 001e D368     		ldr	r3, [r2, #12]
 4724 0020 23F40073 		bic	r3, r3, #512
 4725 0024 D360     		str	r3, [r2, #12]
 4726 0026 406A     		ldr	r0, [r0, #36]
 4727 0028 FFF7FEFF 		bl	HAL_DMA_Abort_IT
 4728              	.L620:
 4729 002c 0022     		movs	r2, #0
 4730 002e 2946     		mov	r1, r5
 4731 0030 2068     		ldr	r0, [r4]
 4732 0032 FFF7FEFF 		bl	TIM_CCxChannelCmd
 4733 0036 2368     		ldr	r3, [r4]
 4734 0038 204A     		ldr	r2, .L630
 4735 003a 9342     		cmp	r3, r2
 4736 003c 2ED0     		beq	.L629
 4737              	.L626:
 4738 003e 2368     		ldr	r3, [r4]
 4739 0040 196A     		ldr	r1, [r3, #32]
 4740 0042 41F21112 		movw	r2, #4369
 4741 0046 1142     		tst	r1, r2
 4742 0048 08D1     		bne	.L627
 4743 004a 196A     		ldr	r1, [r3, #32]
 4744 004c 40F24442 		movw	r2, #1092
 4745 0050 1142     		tst	r1, r2
 4746 0052 03D1     		bne	.L627
 4747 0054 1A68     		ldr	r2, [r3]
 4748 0056 22F00102 		bic	r2, r2, #1
 4749 005a 1A60     		str	r2, [r3]
 4750              	.L627:
 4751 005c 0123     		movs	r3, #1
 4752 005e 84F83D30 		strb	r3, [r4, #61]
 4753 0062 0020     		movs	r0, #0
 4754 0064 38BD     		pop	{r3, r4, r5, pc}
 4755              	.L623:
ARM GAS  /tmp/ccqz4ALL.s 			page 81


 4756 0066 0268     		ldr	r2, [r0]
 4757 0068 D368     		ldr	r3, [r2, #12]
 4758 006a 23F48063 		bic	r3, r3, #1024
 4759 006e D360     		str	r3, [r2, #12]
 4760 0070 806A     		ldr	r0, [r0, #40]
 4761 0072 FFF7FEFF 		bl	HAL_DMA_Abort_IT
 4762 0076 D9E7     		b	.L620
 4763              	.L624:
 4764 0078 0268     		ldr	r2, [r0]
 4765 007a D368     		ldr	r3, [r2, #12]
 4766 007c 23F40063 		bic	r3, r3, #2048
 4767 0080 D360     		str	r3, [r2, #12]
 4768 0082 C06A     		ldr	r0, [r0, #44]
 4769 0084 FFF7FEFF 		bl	HAL_DMA_Abort_IT
 4770 0088 D0E7     		b	.L620
 4771              	.L625:
 4772 008a 0268     		ldr	r2, [r0]
 4773 008c D368     		ldr	r3, [r2, #12]
 4774 008e 23F48053 		bic	r3, r3, #4096
 4775 0092 D360     		str	r3, [r2, #12]
 4776 0094 006B     		ldr	r0, [r0, #48]
 4777 0096 FFF7FEFF 		bl	HAL_DMA_Abort_IT
 4778 009a C7E7     		b	.L620
 4779              	.L629:
 4780 009c 196A     		ldr	r1, [r3, #32]
 4781 009e 41F21112 		movw	r2, #4369
 4782 00a2 1142     		tst	r1, r2
 4783 00a4 CBD1     		bne	.L626
 4784 00a6 196A     		ldr	r1, [r3, #32]
 4785 00a8 40F24442 		movw	r2, #1092
 4786 00ac 1142     		tst	r1, r2
 4787 00ae C6D1     		bne	.L626
 4788 00b0 5A6C     		ldr	r2, [r3, #68]
 4789 00b2 22F40042 		bic	r2, r2, #32768
 4790 00b6 5A64     		str	r2, [r3, #68]
 4791 00b8 C1E7     		b	.L626
 4792              	.L631:
 4793 00ba 00BF     		.align	2
 4794              	.L630:
 4795 00bc 002C0140 		.word	1073818624
 4797              		.section	.text.HAL_TIM_IC_Start,"ax",%progbits
 4798              		.align	1
 4799              		.global	HAL_TIM_IC_Start
 4800              		.syntax unified
 4801              		.thumb
 4802              		.thumb_func
 4803              		.fpu softvfp
 4805              	HAL_TIM_IC_Start:
 4806              		@ args = 0, pretend = 0, frame = 0
 4807              		@ frame_needed = 0, uses_anonymous_args = 0
 4808 0000 10B5     		push	{r4, lr}
 4809 0002 0446     		mov	r4, r0
 4810 0004 0122     		movs	r2, #1
 4811 0006 0068     		ldr	r0, [r0]
 4812 0008 FFF7FEFF 		bl	TIM_CCxChannelCmd
 4813 000c 2268     		ldr	r2, [r4]
 4814 000e 9368     		ldr	r3, [r2, #8]
ARM GAS  /tmp/ccqz4ALL.s 			page 82


 4815 0010 03F00703 		and	r3, r3, #7
 4816 0014 062B     		cmp	r3, #6
 4817 0016 03D0     		beq	.L633
 4818 0018 1368     		ldr	r3, [r2]
 4819 001a 43F00103 		orr	r3, r3, #1
 4820 001e 1360     		str	r3, [r2]
 4821              	.L633:
 4822 0020 0020     		movs	r0, #0
 4823 0022 10BD     		pop	{r4, pc}
 4825              		.section	.text.HAL_TIM_IC_Stop,"ax",%progbits
 4826              		.align	1
 4827              		.global	HAL_TIM_IC_Stop
 4828              		.syntax unified
 4829              		.thumb
 4830              		.thumb_func
 4831              		.fpu softvfp
 4833              	HAL_TIM_IC_Stop:
 4834              		@ args = 0, pretend = 0, frame = 0
 4835              		@ frame_needed = 0, uses_anonymous_args = 0
 4836 0000 10B5     		push	{r4, lr}
 4837 0002 0446     		mov	r4, r0
 4838 0004 0022     		movs	r2, #0
 4839 0006 0068     		ldr	r0, [r0]
 4840 0008 FFF7FEFF 		bl	TIM_CCxChannelCmd
 4841 000c 2368     		ldr	r3, [r4]
 4842 000e 196A     		ldr	r1, [r3, #32]
 4843 0010 41F21112 		movw	r2, #4369
 4844 0014 1142     		tst	r1, r2
 4845 0016 08D1     		bne	.L636
 4846 0018 196A     		ldr	r1, [r3, #32]
 4847 001a 40F24442 		movw	r2, #1092
 4848 001e 1142     		tst	r1, r2
 4849 0020 03D1     		bne	.L636
 4850 0022 1A68     		ldr	r2, [r3]
 4851 0024 22F00102 		bic	r2, r2, #1
 4852 0028 1A60     		str	r2, [r3]
 4853              	.L636:
 4854 002a 0020     		movs	r0, #0
 4855 002c 10BD     		pop	{r4, pc}
 4857              		.section	.text.HAL_TIM_IC_Start_IT,"ax",%progbits
 4858              		.align	1
 4859              		.global	HAL_TIM_IC_Start_IT
 4860              		.syntax unified
 4861              		.thumb
 4862              		.thumb_func
 4863              		.fpu softvfp
 4865              	HAL_TIM_IC_Start_IT:
 4866              		@ args = 0, pretend = 0, frame = 0
 4867              		@ frame_needed = 0, uses_anonymous_args = 0
 4868 0000 10B5     		push	{r4, lr}
 4869 0002 0446     		mov	r4, r0
 4870 0004 0C29     		cmp	r1, #12
 4871 0006 0DD8     		bhi	.L639
 4872 0008 DFE801F0 		tbb	[pc, r1]
 4873              	.L641:
 4874 000c 07       		.byte	(.L640-.L641)/2
 4875 000d 0C       		.byte	(.L639-.L641)/2
ARM GAS  /tmp/ccqz4ALL.s 			page 83


 4876 000e 0C       		.byte	(.L639-.L641)/2
 4877 000f 0C       		.byte	(.L639-.L641)/2
 4878 0010 1C       		.byte	(.L642-.L641)/2
 4879 0011 0C       		.byte	(.L639-.L641)/2
 4880 0012 0C       		.byte	(.L639-.L641)/2
 4881 0013 0C       		.byte	(.L639-.L641)/2
 4882 0014 22       		.byte	(.L643-.L641)/2
 4883 0015 0C       		.byte	(.L639-.L641)/2
 4884 0016 0C       		.byte	(.L639-.L641)/2
 4885 0017 0C       		.byte	(.L639-.L641)/2
 4886 0018 28       		.byte	(.L644-.L641)/2
 4887 0019 00       		.p2align 1
 4888              	.L640:
 4889 001a 0268     		ldr	r2, [r0]
 4890 001c D368     		ldr	r3, [r2, #12]
 4891 001e 43F00203 		orr	r3, r3, #2
 4892 0022 D360     		str	r3, [r2, #12]
 4893              	.L639:
 4894 0024 0122     		movs	r2, #1
 4895 0026 2068     		ldr	r0, [r4]
 4896 0028 FFF7FEFF 		bl	TIM_CCxChannelCmd
 4897 002c 2268     		ldr	r2, [r4]
 4898 002e 9368     		ldr	r3, [r2, #8]
 4899 0030 03F00703 		and	r3, r3, #7
 4900 0034 062B     		cmp	r3, #6
 4901 0036 03D0     		beq	.L645
 4902 0038 1368     		ldr	r3, [r2]
 4903 003a 43F00103 		orr	r3, r3, #1
 4904 003e 1360     		str	r3, [r2]
 4905              	.L645:
 4906 0040 0020     		movs	r0, #0
 4907 0042 10BD     		pop	{r4, pc}
 4908              	.L642:
 4909 0044 0268     		ldr	r2, [r0]
 4910 0046 D368     		ldr	r3, [r2, #12]
 4911 0048 43F00403 		orr	r3, r3, #4
 4912 004c D360     		str	r3, [r2, #12]
 4913 004e E9E7     		b	.L639
 4914              	.L643:
 4915 0050 0268     		ldr	r2, [r0]
 4916 0052 D368     		ldr	r3, [r2, #12]
 4917 0054 43F00803 		orr	r3, r3, #8
 4918 0058 D360     		str	r3, [r2, #12]
 4919 005a E3E7     		b	.L639
 4920              	.L644:
 4921 005c 0268     		ldr	r2, [r0]
 4922 005e D368     		ldr	r3, [r2, #12]
 4923 0060 43F01003 		orr	r3, r3, #16
 4924 0064 D360     		str	r3, [r2, #12]
 4925 0066 DDE7     		b	.L639
 4927              		.section	.text.HAL_TIM_IC_Stop_IT,"ax",%progbits
 4928              		.align	1
 4929              		.global	HAL_TIM_IC_Stop_IT
 4930              		.syntax unified
 4931              		.thumb
 4932              		.thumb_func
 4933              		.fpu softvfp
ARM GAS  /tmp/ccqz4ALL.s 			page 84


 4935              	HAL_TIM_IC_Stop_IT:
 4936              		@ args = 0, pretend = 0, frame = 0
 4937              		@ frame_needed = 0, uses_anonymous_args = 0
 4938 0000 10B5     		push	{r4, lr}
 4939 0002 0446     		mov	r4, r0
 4940 0004 0C29     		cmp	r1, #12
 4941 0006 0DD8     		bhi	.L648
 4942 0008 DFE801F0 		tbb	[pc, r1]
 4943              	.L650:
 4944 000c 07       		.byte	(.L649-.L650)/2
 4945 000d 0C       		.byte	(.L648-.L650)/2
 4946 000e 0C       		.byte	(.L648-.L650)/2
 4947 000f 0C       		.byte	(.L648-.L650)/2
 4948 0010 21       		.byte	(.L651-.L650)/2
 4949 0011 0C       		.byte	(.L648-.L650)/2
 4950 0012 0C       		.byte	(.L648-.L650)/2
 4951 0013 0C       		.byte	(.L648-.L650)/2
 4952 0014 27       		.byte	(.L652-.L650)/2
 4953 0015 0C       		.byte	(.L648-.L650)/2
 4954 0016 0C       		.byte	(.L648-.L650)/2
 4955 0017 0C       		.byte	(.L648-.L650)/2
 4956 0018 2D       		.byte	(.L653-.L650)/2
 4957 0019 00       		.p2align 1
 4958              	.L649:
 4959 001a 0268     		ldr	r2, [r0]
 4960 001c D368     		ldr	r3, [r2, #12]
 4961 001e 23F00203 		bic	r3, r3, #2
 4962 0022 D360     		str	r3, [r2, #12]
 4963              	.L648:
 4964 0024 0022     		movs	r2, #0
 4965 0026 2068     		ldr	r0, [r4]
 4966 0028 FFF7FEFF 		bl	TIM_CCxChannelCmd
 4967 002c 2368     		ldr	r3, [r4]
 4968 002e 196A     		ldr	r1, [r3, #32]
 4969 0030 41F21112 		movw	r2, #4369
 4970 0034 1142     		tst	r1, r2
 4971 0036 08D1     		bne	.L654
 4972 0038 196A     		ldr	r1, [r3, #32]
 4973 003a 40F24442 		movw	r2, #1092
 4974 003e 1142     		tst	r1, r2
 4975 0040 03D1     		bne	.L654
 4976 0042 1A68     		ldr	r2, [r3]
 4977 0044 22F00102 		bic	r2, r2, #1
 4978 0048 1A60     		str	r2, [r3]
 4979              	.L654:
 4980 004a 0020     		movs	r0, #0
 4981 004c 10BD     		pop	{r4, pc}
 4982              	.L651:
 4983 004e 0268     		ldr	r2, [r0]
 4984 0050 D368     		ldr	r3, [r2, #12]
 4985 0052 23F00403 		bic	r3, r3, #4
 4986 0056 D360     		str	r3, [r2, #12]
 4987 0058 E4E7     		b	.L648
 4988              	.L652:
 4989 005a 0268     		ldr	r2, [r0]
 4990 005c D368     		ldr	r3, [r2, #12]
 4991 005e 23F00803 		bic	r3, r3, #8
ARM GAS  /tmp/ccqz4ALL.s 			page 85


 4992 0062 D360     		str	r3, [r2, #12]
 4993 0064 DEE7     		b	.L648
 4994              	.L653:
 4995 0066 0268     		ldr	r2, [r0]
 4996 0068 D368     		ldr	r3, [r2, #12]
 4997 006a 23F01003 		bic	r3, r3, #16
 4998 006e D360     		str	r3, [r2, #12]
 4999 0070 D8E7     		b	.L648
 5001              		.section	.text.HAL_TIM_IC_Start_DMA,"ax",%progbits
 5002              		.align	1
 5003              		.global	HAL_TIM_IC_Start_DMA
 5004              		.syntax unified
 5005              		.thumb
 5006              		.thumb_func
 5007              		.fpu softvfp
 5009              	HAL_TIM_IC_Start_DMA:
 5010              		@ args = 0, pretend = 0, frame = 0
 5011              		@ frame_needed = 0, uses_anonymous_args = 0
 5012 0000 38B5     		push	{r3, r4, r5, lr}
 5013 0002 90F83D40 		ldrb	r4, [r0, #61]	@ zero_extendqisi2
 5014 0006 E4B2     		uxtb	r4, r4
 5015 0008 022C     		cmp	r4, #2
 5016 000a 00F08180 		beq	.L666
 5017 000e 90F83D40 		ldrb	r4, [r0, #61]	@ zero_extendqisi2
 5018 0012 E4B2     		uxtb	r4, r4
 5019 0014 012C     		cmp	r4, #1
 5020 0016 0CD0     		beq	.L674
 5021              	.L658:
 5022 0018 0D46     		mov	r5, r1
 5023 001a 0446     		mov	r4, r0
 5024 001c 0C2D     		cmp	r5, #12
 5025 001e 26D8     		bhi	.L660
 5026 0020 DFE805F0 		tbb	[pc, r5]
 5027              	.L662:
 5028 0024 10       		.byte	(.L661-.L662)/2
 5029 0025 25       		.byte	(.L660-.L662)/2
 5030 0026 25       		.byte	(.L660-.L662)/2
 5031 0027 25       		.byte	(.L660-.L662)/2
 5032 0028 36       		.byte	(.L663-.L662)/2
 5033 0029 25       		.byte	(.L660-.L662)/2
 5034 002a 25       		.byte	(.L660-.L662)/2
 5035 002b 25       		.byte	(.L660-.L662)/2
 5036 002c 4C       		.byte	(.L664-.L662)/2
 5037 002d 25       		.byte	(.L660-.L662)/2
 5038 002e 25       		.byte	(.L660-.L662)/2
 5039 002f 25       		.byte	(.L660-.L662)/2
 5040 0030 61       		.byte	(.L665-.L662)/2
 5041 0031 00       		.p2align 1
 5042              	.L674:
 5043 0032 1AB1     		cbz	r2, .L675
 5044              	.L659:
 5045 0034 0224     		movs	r4, #2
 5046 0036 80F83D40 		strb	r4, [r0, #61]
 5047 003a EDE7     		b	.L658
 5048              	.L675:
 5049 003c 002B     		cmp	r3, #0
 5050 003e F9D0     		beq	.L659
ARM GAS  /tmp/ccqz4ALL.s 			page 86


 5051 0040 0120     		movs	r0, #1
 5052 0042 38BD     		pop	{r3, r4, r5, pc}
 5053              	.L661:
 5054 0044 416A     		ldr	r1, [r0, #36]
 5055 0046 3848     		ldr	r0, .L676
 5056 0048 8862     		str	r0, [r1, #40]
 5057 004a 616A     		ldr	r1, [r4, #36]
 5058 004c 3748     		ldr	r0, .L676+4
 5059 004e C862     		str	r0, [r1, #44]
 5060 0050 616A     		ldr	r1, [r4, #36]
 5061 0052 3748     		ldr	r0, .L676+8
 5062 0054 0863     		str	r0, [r1, #48]
 5063 0056 2168     		ldr	r1, [r4]
 5064 0058 3431     		adds	r1, r1, #52
 5065 005a 606A     		ldr	r0, [r4, #36]
 5066 005c FFF7FEFF 		bl	HAL_DMA_Start_IT
 5067 0060 0028     		cmp	r0, #0
 5068 0062 57D1     		bne	.L668
 5069 0064 2268     		ldr	r2, [r4]
 5070 0066 D368     		ldr	r3, [r2, #12]
 5071 0068 43F40073 		orr	r3, r3, #512
 5072 006c D360     		str	r3, [r2, #12]
 5073              	.L660:
 5074 006e 0122     		movs	r2, #1
 5075 0070 2946     		mov	r1, r5
 5076 0072 2068     		ldr	r0, [r4]
 5077 0074 FFF7FEFF 		bl	TIM_CCxChannelCmd
 5078 0078 2268     		ldr	r2, [r4]
 5079 007a 9368     		ldr	r3, [r2, #8]
 5080 007c 03F00703 		and	r3, r3, #7
 5081 0080 062B     		cmp	r3, #6
 5082 0082 4FD0     		beq	.L672
 5083 0084 1368     		ldr	r3, [r2]
 5084 0086 43F00103 		orr	r3, r3, #1
 5085 008a 1360     		str	r3, [r2]
 5086 008c 0020     		movs	r0, #0
 5087 008e 38BD     		pop	{r3, r4, r5, pc}
 5088              	.L663:
 5089 0090 816A     		ldr	r1, [r0, #40]
 5090 0092 2548     		ldr	r0, .L676
 5091 0094 8862     		str	r0, [r1, #40]
 5092 0096 A16A     		ldr	r1, [r4, #40]
 5093 0098 2448     		ldr	r0, .L676+4
 5094 009a C862     		str	r0, [r1, #44]
 5095 009c A16A     		ldr	r1, [r4, #40]
 5096 009e 2448     		ldr	r0, .L676+8
 5097 00a0 0863     		str	r0, [r1, #48]
 5098 00a2 2168     		ldr	r1, [r4]
 5099 00a4 3831     		adds	r1, r1, #56
 5100 00a6 A06A     		ldr	r0, [r4, #40]
 5101 00a8 FFF7FEFF 		bl	HAL_DMA_Start_IT
 5102 00ac 0028     		cmp	r0, #0
 5103 00ae 33D1     		bne	.L669
 5104 00b0 2268     		ldr	r2, [r4]
 5105 00b2 D368     		ldr	r3, [r2, #12]
 5106 00b4 43F48063 		orr	r3, r3, #1024
 5107 00b8 D360     		str	r3, [r2, #12]
ARM GAS  /tmp/ccqz4ALL.s 			page 87


 5108 00ba D8E7     		b	.L660
 5109              	.L664:
 5110 00bc C16A     		ldr	r1, [r0, #44]
 5111 00be 1A48     		ldr	r0, .L676
 5112 00c0 8862     		str	r0, [r1, #40]
 5113 00c2 E16A     		ldr	r1, [r4, #44]
 5114 00c4 1948     		ldr	r0, .L676+4
 5115 00c6 C862     		str	r0, [r1, #44]
 5116 00c8 E16A     		ldr	r1, [r4, #44]
 5117 00ca 1948     		ldr	r0, .L676+8
 5118 00cc 0863     		str	r0, [r1, #48]
 5119 00ce 2168     		ldr	r1, [r4]
 5120 00d0 3C31     		adds	r1, r1, #60
 5121 00d2 E06A     		ldr	r0, [r4, #44]
 5122 00d4 FFF7FEFF 		bl	HAL_DMA_Start_IT
 5123 00d8 00BB     		cbnz	r0, .L670
 5124 00da 2268     		ldr	r2, [r4]
 5125 00dc D368     		ldr	r3, [r2, #12]
 5126 00de 43F40063 		orr	r3, r3, #2048
 5127 00e2 D360     		str	r3, [r2, #12]
 5128 00e4 C3E7     		b	.L660
 5129              	.L665:
 5130 00e6 016B     		ldr	r1, [r0, #48]
 5131 00e8 0F48     		ldr	r0, .L676
 5132 00ea 8862     		str	r0, [r1, #40]
 5133 00ec 216B     		ldr	r1, [r4, #48]
 5134 00ee 0F48     		ldr	r0, .L676+4
 5135 00f0 C862     		str	r0, [r1, #44]
 5136 00f2 216B     		ldr	r1, [r4, #48]
 5137 00f4 0E48     		ldr	r0, .L676+8
 5138 00f6 0863     		str	r0, [r1, #48]
 5139 00f8 2168     		ldr	r1, [r4]
 5140 00fa 4031     		adds	r1, r1, #64
 5141 00fc 206B     		ldr	r0, [r4, #48]
 5142 00fe FFF7FEFF 		bl	HAL_DMA_Start_IT
 5143 0102 68B9     		cbnz	r0, .L671
 5144 0104 2268     		ldr	r2, [r4]
 5145 0106 D368     		ldr	r3, [r2, #12]
 5146 0108 43F48053 		orr	r3, r3, #4096
 5147 010c D360     		str	r3, [r2, #12]
 5148 010e AEE7     		b	.L660
 5149              	.L666:
 5150 0110 0220     		movs	r0, #2
 5151 0112 38BD     		pop	{r3, r4, r5, pc}
 5152              	.L668:
 5153 0114 0120     		movs	r0, #1
 5154 0116 38BD     		pop	{r3, r4, r5, pc}
 5155              	.L669:
 5156 0118 0120     		movs	r0, #1
 5157 011a 38BD     		pop	{r3, r4, r5, pc}
 5158              	.L670:
 5159 011c 0120     		movs	r0, #1
 5160 011e 38BD     		pop	{r3, r4, r5, pc}
 5161              	.L671:
 5162 0120 0120     		movs	r0, #1
 5163 0122 38BD     		pop	{r3, r4, r5, pc}
 5164              	.L672:
ARM GAS  /tmp/ccqz4ALL.s 			page 88


 5165 0124 0020     		movs	r0, #0
 5166 0126 38BD     		pop	{r3, r4, r5, pc}
 5167              	.L677:
 5168              		.align	2
 5169              	.L676:
 5170 0128 00000000 		.word	TIM_DMACaptureCplt
 5171 012c 00000000 		.word	TIM_DMACaptureHalfCplt
 5172 0130 00000000 		.word	TIM_DMAError
 5174              		.section	.text.HAL_TIM_IC_Stop_DMA,"ax",%progbits
 5175              		.align	1
 5176              		.global	HAL_TIM_IC_Stop_DMA
 5177              		.syntax unified
 5178              		.thumb
 5179              		.thumb_func
 5180              		.fpu softvfp
 5182              	HAL_TIM_IC_Stop_DMA:
 5183              		@ args = 0, pretend = 0, frame = 0
 5184              		@ frame_needed = 0, uses_anonymous_args = 0
 5185 0000 38B5     		push	{r3, r4, r5, lr}
 5186 0002 0446     		mov	r4, r0
 5187 0004 0D46     		mov	r5, r1
 5188 0006 0C29     		cmp	r1, #12
 5189 0008 10D8     		bhi	.L679
 5190 000a DFE801F0 		tbb	[pc, r1]
 5191              	.L681:
 5192 000e 07       		.byte	(.L680-.L681)/2
 5193 000f 0F       		.byte	(.L679-.L681)/2
 5194 0010 0F       		.byte	(.L679-.L681)/2
 5195 0011 0F       		.byte	(.L679-.L681)/2
 5196 0012 28       		.byte	(.L682-.L681)/2
 5197 0013 0F       		.byte	(.L679-.L681)/2
 5198 0014 0F       		.byte	(.L679-.L681)/2
 5199 0015 0F       		.byte	(.L679-.L681)/2
 5200 0016 31       		.byte	(.L683-.L681)/2
 5201 0017 0F       		.byte	(.L679-.L681)/2
 5202 0018 0F       		.byte	(.L679-.L681)/2
 5203 0019 0F       		.byte	(.L679-.L681)/2
 5204 001a 3A       		.byte	(.L684-.L681)/2
 5205 001b 00       		.p2align 1
 5206              	.L680:
 5207 001c 0268     		ldr	r2, [r0]
 5208 001e D368     		ldr	r3, [r2, #12]
 5209 0020 23F40073 		bic	r3, r3, #512
 5210 0024 D360     		str	r3, [r2, #12]
 5211 0026 406A     		ldr	r0, [r0, #36]
 5212 0028 FFF7FEFF 		bl	HAL_DMA_Abort_IT
 5213              	.L679:
 5214 002c 0022     		movs	r2, #0
 5215 002e 2946     		mov	r1, r5
 5216 0030 2068     		ldr	r0, [r4]
 5217 0032 FFF7FEFF 		bl	TIM_CCxChannelCmd
 5218 0036 2368     		ldr	r3, [r4]
 5219 0038 196A     		ldr	r1, [r3, #32]
 5220 003a 41F21112 		movw	r2, #4369
 5221 003e 1142     		tst	r1, r2
 5222 0040 08D1     		bne	.L685
 5223 0042 196A     		ldr	r1, [r3, #32]
ARM GAS  /tmp/ccqz4ALL.s 			page 89


 5224 0044 40F24442 		movw	r2, #1092
 5225 0048 1142     		tst	r1, r2
 5226 004a 03D1     		bne	.L685
 5227 004c 1A68     		ldr	r2, [r3]
 5228 004e 22F00102 		bic	r2, r2, #1
 5229 0052 1A60     		str	r2, [r3]
 5230              	.L685:
 5231 0054 0123     		movs	r3, #1
 5232 0056 84F83D30 		strb	r3, [r4, #61]
 5233 005a 0020     		movs	r0, #0
 5234 005c 38BD     		pop	{r3, r4, r5, pc}
 5235              	.L682:
 5236 005e 0268     		ldr	r2, [r0]
 5237 0060 D368     		ldr	r3, [r2, #12]
 5238 0062 23F48063 		bic	r3, r3, #1024
 5239 0066 D360     		str	r3, [r2, #12]
 5240 0068 806A     		ldr	r0, [r0, #40]
 5241 006a FFF7FEFF 		bl	HAL_DMA_Abort_IT
 5242 006e DDE7     		b	.L679
 5243              	.L683:
 5244 0070 0268     		ldr	r2, [r0]
 5245 0072 D368     		ldr	r3, [r2, #12]
 5246 0074 23F40063 		bic	r3, r3, #2048
 5247 0078 D360     		str	r3, [r2, #12]
 5248 007a C06A     		ldr	r0, [r0, #44]
 5249 007c FFF7FEFF 		bl	HAL_DMA_Abort_IT
 5250 0080 D4E7     		b	.L679
 5251              	.L684:
 5252 0082 0268     		ldr	r2, [r0]
 5253 0084 D368     		ldr	r3, [r2, #12]
 5254 0086 23F48053 		bic	r3, r3, #4096
 5255 008a D360     		str	r3, [r2, #12]
 5256 008c 006B     		ldr	r0, [r0, #48]
 5257 008e FFF7FEFF 		bl	HAL_DMA_Abort_IT
 5258 0092 CBE7     		b	.L679
 5260              		.section	.text.HAL_TIM_OnePulse_Start,"ax",%progbits
 5261              		.align	1
 5262              		.global	HAL_TIM_OnePulse_Start
 5263              		.syntax unified
 5264              		.thumb
 5265              		.thumb_func
 5266              		.fpu softvfp
 5268              	HAL_TIM_OnePulse_Start:
 5269              		@ args = 0, pretend = 0, frame = 0
 5270              		@ frame_needed = 0, uses_anonymous_args = 0
 5271 0000 10B5     		push	{r4, lr}
 5272 0002 0446     		mov	r4, r0
 5273 0004 0122     		movs	r2, #1
 5274 0006 0021     		movs	r1, #0
 5275 0008 0068     		ldr	r0, [r0]
 5276 000a FFF7FEFF 		bl	TIM_CCxChannelCmd
 5277 000e 0122     		movs	r2, #1
 5278 0010 0421     		movs	r1, #4
 5279 0012 2068     		ldr	r0, [r4]
 5280 0014 FFF7FEFF 		bl	TIM_CCxChannelCmd
 5281 0018 2368     		ldr	r3, [r4]
 5282 001a 054A     		ldr	r2, .L691
ARM GAS  /tmp/ccqz4ALL.s 			page 90


 5283 001c 9342     		cmp	r3, r2
 5284 001e 01D0     		beq	.L690
 5285              	.L688:
 5286 0020 0020     		movs	r0, #0
 5287 0022 10BD     		pop	{r4, pc}
 5288              	.L690:
 5289 0024 5A6C     		ldr	r2, [r3, #68]
 5290 0026 42F40042 		orr	r2, r2, #32768
 5291 002a 5A64     		str	r2, [r3, #68]
 5292 002c F8E7     		b	.L688
 5293              	.L692:
 5294 002e 00BF     		.align	2
 5295              	.L691:
 5296 0030 002C0140 		.word	1073818624
 5298              		.section	.text.HAL_TIM_OnePulse_Stop,"ax",%progbits
 5299              		.align	1
 5300              		.global	HAL_TIM_OnePulse_Stop
 5301              		.syntax unified
 5302              		.thumb
 5303              		.thumb_func
 5304              		.fpu softvfp
 5306              	HAL_TIM_OnePulse_Stop:
 5307              		@ args = 0, pretend = 0, frame = 0
 5308              		@ frame_needed = 0, uses_anonymous_args = 0
 5309 0000 10B5     		push	{r4, lr}
 5310 0002 0446     		mov	r4, r0
 5311 0004 0022     		movs	r2, #0
 5312 0006 1146     		mov	r1, r2
 5313 0008 0068     		ldr	r0, [r0]
 5314 000a FFF7FEFF 		bl	TIM_CCxChannelCmd
 5315 000e 0022     		movs	r2, #0
 5316 0010 0421     		movs	r1, #4
 5317 0012 2068     		ldr	r0, [r4]
 5318 0014 FFF7FEFF 		bl	TIM_CCxChannelCmd
 5319 0018 2368     		ldr	r3, [r4]
 5320 001a 114A     		ldr	r2, .L698
 5321 001c 9342     		cmp	r3, r2
 5322 001e 10D0     		beq	.L697
 5323              	.L694:
 5324 0020 2368     		ldr	r3, [r4]
 5325 0022 196A     		ldr	r1, [r3, #32]
 5326 0024 41F21112 		movw	r2, #4369
 5327 0028 1142     		tst	r1, r2
 5328 002a 08D1     		bne	.L695
 5329 002c 196A     		ldr	r1, [r3, #32]
 5330 002e 40F24442 		movw	r2, #1092
 5331 0032 1142     		tst	r1, r2
 5332 0034 03D1     		bne	.L695
 5333 0036 1A68     		ldr	r2, [r3]
 5334 0038 22F00102 		bic	r2, r2, #1
 5335 003c 1A60     		str	r2, [r3]
 5336              	.L695:
 5337 003e 0020     		movs	r0, #0
 5338 0040 10BD     		pop	{r4, pc}
 5339              	.L697:
 5340 0042 196A     		ldr	r1, [r3, #32]
 5341 0044 41F21112 		movw	r2, #4369
ARM GAS  /tmp/ccqz4ALL.s 			page 91


 5342 0048 1142     		tst	r1, r2
 5343 004a E9D1     		bne	.L694
 5344 004c 196A     		ldr	r1, [r3, #32]
 5345 004e 40F24442 		movw	r2, #1092
 5346 0052 1142     		tst	r1, r2
 5347 0054 E4D1     		bne	.L694
 5348 0056 5A6C     		ldr	r2, [r3, #68]
 5349 0058 22F40042 		bic	r2, r2, #32768
 5350 005c 5A64     		str	r2, [r3, #68]
 5351 005e DFE7     		b	.L694
 5352              	.L699:
 5353              		.align	2
 5354              	.L698:
 5355 0060 002C0140 		.word	1073818624
 5357              		.section	.text.HAL_TIM_OnePulse_Start_IT,"ax",%progbits
 5358              		.align	1
 5359              		.global	HAL_TIM_OnePulse_Start_IT
 5360              		.syntax unified
 5361              		.thumb
 5362              		.thumb_func
 5363              		.fpu softvfp
 5365              	HAL_TIM_OnePulse_Start_IT:
 5366              		@ args = 0, pretend = 0, frame = 0
 5367              		@ frame_needed = 0, uses_anonymous_args = 0
 5368 0000 10B5     		push	{r4, lr}
 5369 0002 0446     		mov	r4, r0
 5370 0004 0268     		ldr	r2, [r0]
 5371 0006 D368     		ldr	r3, [r2, #12]
 5372 0008 43F00203 		orr	r3, r3, #2
 5373 000c D360     		str	r3, [r2, #12]
 5374 000e 0268     		ldr	r2, [r0]
 5375 0010 D368     		ldr	r3, [r2, #12]
 5376 0012 43F00403 		orr	r3, r3, #4
 5377 0016 D360     		str	r3, [r2, #12]
 5378 0018 0122     		movs	r2, #1
 5379 001a 0021     		movs	r1, #0
 5380 001c 0068     		ldr	r0, [r0]
 5381 001e FFF7FEFF 		bl	TIM_CCxChannelCmd
 5382 0022 0122     		movs	r2, #1
 5383 0024 0421     		movs	r1, #4
 5384 0026 2068     		ldr	r0, [r4]
 5385 0028 FFF7FEFF 		bl	TIM_CCxChannelCmd
 5386 002c 2368     		ldr	r3, [r4]
 5387 002e 054A     		ldr	r2, .L704
 5388 0030 9342     		cmp	r3, r2
 5389 0032 01D0     		beq	.L703
 5390              	.L701:
 5391 0034 0020     		movs	r0, #0
 5392 0036 10BD     		pop	{r4, pc}
 5393              	.L703:
 5394 0038 5A6C     		ldr	r2, [r3, #68]
 5395 003a 42F40042 		orr	r2, r2, #32768
 5396 003e 5A64     		str	r2, [r3, #68]
 5397 0040 F8E7     		b	.L701
 5398              	.L705:
 5399 0042 00BF     		.align	2
 5400              	.L704:
ARM GAS  /tmp/ccqz4ALL.s 			page 92


 5401 0044 002C0140 		.word	1073818624
 5403              		.section	.text.HAL_TIM_OnePulse_Stop_IT,"ax",%progbits
 5404              		.align	1
 5405              		.global	HAL_TIM_OnePulse_Stop_IT
 5406              		.syntax unified
 5407              		.thumb
 5408              		.thumb_func
 5409              		.fpu softvfp
 5411              	HAL_TIM_OnePulse_Stop_IT:
 5412              		@ args = 0, pretend = 0, frame = 0
 5413              		@ frame_needed = 0, uses_anonymous_args = 0
 5414 0000 10B5     		push	{r4, lr}
 5415 0002 0446     		mov	r4, r0
 5416 0004 0268     		ldr	r2, [r0]
 5417 0006 D368     		ldr	r3, [r2, #12]
 5418 0008 23F00203 		bic	r3, r3, #2
 5419 000c D360     		str	r3, [r2, #12]
 5420 000e 0268     		ldr	r2, [r0]
 5421 0010 D368     		ldr	r3, [r2, #12]
 5422 0012 23F00403 		bic	r3, r3, #4
 5423 0016 D360     		str	r3, [r2, #12]
 5424 0018 0022     		movs	r2, #0
 5425 001a 1146     		mov	r1, r2
 5426 001c 0068     		ldr	r0, [r0]
 5427 001e FFF7FEFF 		bl	TIM_CCxChannelCmd
 5428 0022 0022     		movs	r2, #0
 5429 0024 0421     		movs	r1, #4
 5430 0026 2068     		ldr	r0, [r4]
 5431 0028 FFF7FEFF 		bl	TIM_CCxChannelCmd
 5432 002c 2368     		ldr	r3, [r4]
 5433 002e 114A     		ldr	r2, .L711
 5434 0030 9342     		cmp	r3, r2
 5435 0032 10D0     		beq	.L710
 5436              	.L707:
 5437 0034 2368     		ldr	r3, [r4]
 5438 0036 196A     		ldr	r1, [r3, #32]
 5439 0038 41F21112 		movw	r2, #4369
 5440 003c 1142     		tst	r1, r2
 5441 003e 08D1     		bne	.L708
 5442 0040 196A     		ldr	r1, [r3, #32]
 5443 0042 40F24442 		movw	r2, #1092
 5444 0046 1142     		tst	r1, r2
 5445 0048 03D1     		bne	.L708
 5446 004a 1A68     		ldr	r2, [r3]
 5447 004c 22F00102 		bic	r2, r2, #1
 5448 0050 1A60     		str	r2, [r3]
 5449              	.L708:
 5450 0052 0020     		movs	r0, #0
 5451 0054 10BD     		pop	{r4, pc}
 5452              	.L710:
 5453 0056 196A     		ldr	r1, [r3, #32]
 5454 0058 41F21112 		movw	r2, #4369
 5455 005c 1142     		tst	r1, r2
 5456 005e E9D1     		bne	.L707
 5457 0060 196A     		ldr	r1, [r3, #32]
 5458 0062 40F24442 		movw	r2, #1092
 5459 0066 1142     		tst	r1, r2
ARM GAS  /tmp/ccqz4ALL.s 			page 93


 5460 0068 E4D1     		bne	.L707
 5461 006a 5A6C     		ldr	r2, [r3, #68]
 5462 006c 22F40042 		bic	r2, r2, #32768
 5463 0070 5A64     		str	r2, [r3, #68]
 5464 0072 DFE7     		b	.L707
 5465              	.L712:
 5466              		.align	2
 5467              	.L711:
 5468 0074 002C0140 		.word	1073818624
 5470              		.section	.text.HAL_TIM_Encoder_Start,"ax",%progbits
 5471              		.align	1
 5472              		.global	HAL_TIM_Encoder_Start
 5473              		.syntax unified
 5474              		.thumb
 5475              		.thumb_func
 5476              		.fpu softvfp
 5478              	HAL_TIM_Encoder_Start:
 5479              		@ args = 0, pretend = 0, frame = 0
 5480              		@ frame_needed = 0, uses_anonymous_args = 0
 5481 0000 10B5     		push	{r4, lr}
 5482 0002 0446     		mov	r4, r0
 5483 0004 61B1     		cbz	r1, .L715
 5484 0006 0429     		cmp	r1, #4
 5485 0008 16D0     		beq	.L716
 5486 000a 0122     		movs	r2, #1
 5487 000c 0021     		movs	r1, #0
 5488 000e 0068     		ldr	r0, [r0]
 5489 0010 FFF7FEFF 		bl	TIM_CCxChannelCmd
 5490 0014 0122     		movs	r2, #1
 5491 0016 0421     		movs	r1, #4
 5492 0018 2068     		ldr	r0, [r4]
 5493 001a FFF7FEFF 		bl	TIM_CCxChannelCmd
 5494 001e 04E0     		b	.L717
 5495              	.L715:
 5496 0020 0122     		movs	r2, #1
 5497 0022 0021     		movs	r1, #0
 5498 0024 0068     		ldr	r0, [r0]
 5499 0026 FFF7FEFF 		bl	TIM_CCxChannelCmd
 5500              	.L717:
 5501 002a 2268     		ldr	r2, [r4]
 5502 002c 1368     		ldr	r3, [r2]
 5503 002e 43F00103 		orr	r3, r3, #1
 5504 0032 1360     		str	r3, [r2]
 5505 0034 0020     		movs	r0, #0
 5506 0036 10BD     		pop	{r4, pc}
 5507              	.L716:
 5508 0038 0122     		movs	r2, #1
 5509 003a 0421     		movs	r1, #4
 5510 003c 0068     		ldr	r0, [r0]
 5511 003e FFF7FEFF 		bl	TIM_CCxChannelCmd
 5512 0042 F2E7     		b	.L717
 5514              		.section	.text.HAL_TIM_Encoder_Stop,"ax",%progbits
 5515              		.align	1
 5516              		.global	HAL_TIM_Encoder_Stop
 5517              		.syntax unified
 5518              		.thumb
 5519              		.thumb_func
ARM GAS  /tmp/ccqz4ALL.s 			page 94


 5520              		.fpu softvfp
 5522              	HAL_TIM_Encoder_Stop:
 5523              		@ args = 0, pretend = 0, frame = 0
 5524              		@ frame_needed = 0, uses_anonymous_args = 0
 5525 0000 10B5     		push	{r4, lr}
 5526 0002 0446     		mov	r4, r0
 5527 0004 61B1     		cbz	r1, .L722
 5528 0006 0429     		cmp	r1, #4
 5529 0008 20D0     		beq	.L723
 5530 000a 0022     		movs	r2, #0
 5531 000c 1146     		mov	r1, r2
 5532 000e 0068     		ldr	r0, [r0]
 5533 0010 FFF7FEFF 		bl	TIM_CCxChannelCmd
 5534 0014 0022     		movs	r2, #0
 5535 0016 0421     		movs	r1, #4
 5536 0018 2068     		ldr	r0, [r4]
 5537 001a FFF7FEFF 		bl	TIM_CCxChannelCmd
 5538 001e 04E0     		b	.L724
 5539              	.L722:
 5540 0020 0022     		movs	r2, #0
 5541 0022 1146     		mov	r1, r2
 5542 0024 0068     		ldr	r0, [r0]
 5543 0026 FFF7FEFF 		bl	TIM_CCxChannelCmd
 5544              	.L724:
 5545 002a 2368     		ldr	r3, [r4]
 5546 002c 196A     		ldr	r1, [r3, #32]
 5547 002e 41F21112 		movw	r2, #4369
 5548 0032 1142     		tst	r1, r2
 5549 0034 08D1     		bne	.L725
 5550 0036 196A     		ldr	r1, [r3, #32]
 5551 0038 40F24442 		movw	r2, #1092
 5552 003c 1142     		tst	r1, r2
 5553 003e 03D1     		bne	.L725
 5554 0040 1A68     		ldr	r2, [r3]
 5555 0042 22F00102 		bic	r2, r2, #1
 5556 0046 1A60     		str	r2, [r3]
 5557              	.L725:
 5558 0048 0020     		movs	r0, #0
 5559 004a 10BD     		pop	{r4, pc}
 5560              	.L723:
 5561 004c 0022     		movs	r2, #0
 5562 004e 0421     		movs	r1, #4
 5563 0050 0068     		ldr	r0, [r0]
 5564 0052 FFF7FEFF 		bl	TIM_CCxChannelCmd
 5565 0056 E8E7     		b	.L724
 5567              		.section	.text.HAL_TIM_Encoder_Start_IT,"ax",%progbits
 5568              		.align	1
 5569              		.global	HAL_TIM_Encoder_Start_IT
 5570              		.syntax unified
 5571              		.thumb
 5572              		.thumb_func
 5573              		.fpu softvfp
 5575              	HAL_TIM_Encoder_Start_IT:
 5576              		@ args = 0, pretend = 0, frame = 0
 5577              		@ frame_needed = 0, uses_anonymous_args = 0
 5578 0000 10B5     		push	{r4, lr}
 5579 0002 0446     		mov	r4, r0
ARM GAS  /tmp/ccqz4ALL.s 			page 95


 5580 0004 B1B1     		cbz	r1, .L730
 5581 0006 0429     		cmp	r1, #4
 5582 0008 25D0     		beq	.L731
 5583 000a 0122     		movs	r2, #1
 5584 000c 0021     		movs	r1, #0
 5585 000e 0068     		ldr	r0, [r0]
 5586 0010 FFF7FEFF 		bl	TIM_CCxChannelCmd
 5587 0014 0122     		movs	r2, #1
 5588 0016 0421     		movs	r1, #4
 5589 0018 2068     		ldr	r0, [r4]
 5590 001a FFF7FEFF 		bl	TIM_CCxChannelCmd
 5591 001e 2268     		ldr	r2, [r4]
 5592 0020 D368     		ldr	r3, [r2, #12]
 5593 0022 43F00203 		orr	r3, r3, #2
 5594 0026 D360     		str	r3, [r2, #12]
 5595 0028 2268     		ldr	r2, [r4]
 5596 002a D368     		ldr	r3, [r2, #12]
 5597 002c 43F00403 		orr	r3, r3, #4
 5598 0030 D360     		str	r3, [r2, #12]
 5599 0032 09E0     		b	.L732
 5600              	.L730:
 5601 0034 0122     		movs	r2, #1
 5602 0036 0021     		movs	r1, #0
 5603 0038 0068     		ldr	r0, [r0]
 5604 003a FFF7FEFF 		bl	TIM_CCxChannelCmd
 5605 003e 2268     		ldr	r2, [r4]
 5606 0040 D368     		ldr	r3, [r2, #12]
 5607 0042 43F00203 		orr	r3, r3, #2
 5608 0046 D360     		str	r3, [r2, #12]
 5609              	.L732:
 5610 0048 2268     		ldr	r2, [r4]
 5611 004a 1368     		ldr	r3, [r2]
 5612 004c 43F00103 		orr	r3, r3, #1
 5613 0050 1360     		str	r3, [r2]
 5614 0052 0020     		movs	r0, #0
 5615 0054 10BD     		pop	{r4, pc}
 5616              	.L731:
 5617 0056 0122     		movs	r2, #1
 5618 0058 0421     		movs	r1, #4
 5619 005a 0068     		ldr	r0, [r0]
 5620 005c FFF7FEFF 		bl	TIM_CCxChannelCmd
 5621 0060 2268     		ldr	r2, [r4]
 5622 0062 D368     		ldr	r3, [r2, #12]
 5623 0064 43F00403 		orr	r3, r3, #4
 5624 0068 D360     		str	r3, [r2, #12]
 5625 006a EDE7     		b	.L732
 5627              		.section	.text.HAL_TIM_Encoder_Stop_IT,"ax",%progbits
 5628              		.align	1
 5629              		.global	HAL_TIM_Encoder_Stop_IT
 5630              		.syntax unified
 5631              		.thumb
 5632              		.thumb_func
 5633              		.fpu softvfp
 5635              	HAL_TIM_Encoder_Stop_IT:
 5636              		@ args = 0, pretend = 0, frame = 0
 5637              		@ frame_needed = 0, uses_anonymous_args = 0
 5638 0000 10B5     		push	{r4, lr}
ARM GAS  /tmp/ccqz4ALL.s 			page 96


 5639 0002 0446     		mov	r4, r0
 5640 0004 49B3     		cbz	r1, .L741
 5641 0006 0429     		cmp	r1, #4
 5642 0008 32D0     		beq	.L742
 5643 000a 0022     		movs	r2, #0
 5644 000c 1146     		mov	r1, r2
 5645 000e 0068     		ldr	r0, [r0]
 5646 0010 FFF7FEFF 		bl	TIM_CCxChannelCmd
 5647 0014 0022     		movs	r2, #0
 5648 0016 0421     		movs	r1, #4
 5649 0018 2068     		ldr	r0, [r4]
 5650 001a FFF7FEFF 		bl	TIM_CCxChannelCmd
 5651 001e 2268     		ldr	r2, [r4]
 5652 0020 D368     		ldr	r3, [r2, #12]
 5653 0022 23F00203 		bic	r3, r3, #2
 5654 0026 D360     		str	r3, [r2, #12]
 5655 0028 2268     		ldr	r2, [r4]
 5656 002a D368     		ldr	r3, [r2, #12]
 5657 002c 23F00403 		bic	r3, r3, #4
 5658 0030 D360     		str	r3, [r2, #12]
 5659              	.L737:
 5660 0032 2368     		ldr	r3, [r4]
 5661 0034 196A     		ldr	r1, [r3, #32]
 5662 0036 41F21112 		movw	r2, #4369
 5663 003a 1142     		tst	r1, r2
 5664 003c 08D1     		bne	.L739
 5665 003e 196A     		ldr	r1, [r3, #32]
 5666 0040 40F24442 		movw	r2, #1092
 5667 0044 1142     		tst	r1, r2
 5668 0046 03D1     		bne	.L739
 5669 0048 1A68     		ldr	r2, [r3]
 5670 004a 22F00102 		bic	r2, r2, #1
 5671 004e 1A60     		str	r2, [r3]
 5672              	.L739:
 5673 0050 0123     		movs	r3, #1
 5674 0052 84F83D30 		strb	r3, [r4, #61]
 5675 0056 0020     		movs	r0, #0
 5676 0058 10BD     		pop	{r4, pc}
 5677              	.L741:
 5678 005a 0022     		movs	r2, #0
 5679 005c 1146     		mov	r1, r2
 5680 005e 0068     		ldr	r0, [r0]
 5681 0060 FFF7FEFF 		bl	TIM_CCxChannelCmd
 5682 0064 2268     		ldr	r2, [r4]
 5683 0066 D368     		ldr	r3, [r2, #12]
 5684 0068 23F00203 		bic	r3, r3, #2
 5685 006c D360     		str	r3, [r2, #12]
 5686 006e E0E7     		b	.L737
 5687              	.L742:
 5688 0070 0022     		movs	r2, #0
 5689 0072 0421     		movs	r1, #4
 5690 0074 0068     		ldr	r0, [r0]
 5691 0076 FFF7FEFF 		bl	TIM_CCxChannelCmd
 5692 007a 2268     		ldr	r2, [r4]
 5693 007c D368     		ldr	r3, [r2, #12]
 5694 007e 23F00403 		bic	r3, r3, #4
 5695 0082 D360     		str	r3, [r2, #12]
ARM GAS  /tmp/ccqz4ALL.s 			page 97


 5696 0084 D5E7     		b	.L737
 5698              		.section	.text.HAL_TIM_Encoder_Start_DMA,"ax",%progbits
 5699              		.align	1
 5700              		.global	HAL_TIM_Encoder_Start_DMA
 5701              		.syntax unified
 5702              		.thumb
 5703              		.thumb_func
 5704              		.fpu softvfp
 5706              	HAL_TIM_Encoder_Start_DMA:
 5707              		@ args = 4, pretend = 0, frame = 0
 5708              		@ frame_needed = 0, uses_anonymous_args = 0
 5709 0000 70B5     		push	{r4, r5, r6, lr}
 5710 0002 BDF81050 		ldrh	r5, [sp, #16]
 5711 0006 90F83D40 		ldrb	r4, [r0, #61]	@ zero_extendqisi2
 5712 000a E4B2     		uxtb	r4, r4
 5713 000c 022C     		cmp	r4, #2
 5714 000e 00F09F80 		beq	.L751
 5715 0012 90F83D40 		ldrb	r4, [r0, #61]	@ zero_extendqisi2
 5716 0016 E4B2     		uxtb	r4, r4
 5717 0018 012C     		cmp	r4, #1
 5718 001a 08D0     		beq	.L760
 5719              	.L745:
 5720 001c 1E46     		mov	r6, r3
 5721 001e 0446     		mov	r4, r0
 5722 0020 0429     		cmp	r1, #4
 5723 0022 31D0     		beq	.L748
 5724 0024 3C29     		cmp	r1, #60
 5725 0026 53D0     		beq	.L749
 5726 0028 59B1     		cbz	r1, .L761
 5727 002a 0025     		movs	r5, #0
 5728 002c 91E0     		b	.L744
 5729              	.L760:
 5730 002e 22B1     		cbz	r2, .L746
 5731 0030 1BB1     		cbz	r3, .L746
 5732              	.L747:
 5733 0032 0224     		movs	r4, #2
 5734 0034 80F83D40 		strb	r4, [r0, #61]
 5735 0038 F0E7     		b	.L745
 5736              	.L746:
 5737 003a 002D     		cmp	r5, #0
 5738 003c F9D0     		beq	.L747
 5739 003e 0125     		movs	r5, #1
 5740 0040 87E0     		b	.L744
 5741              	.L761:
 5742 0042 436A     		ldr	r3, [r0, #36]
 5743 0044 4449     		ldr	r1, .L766
 5744 0046 9962     		str	r1, [r3, #40]
 5745 0048 436A     		ldr	r3, [r0, #36]
 5746 004a 4449     		ldr	r1, .L766+4
 5747 004c D962     		str	r1, [r3, #44]
 5748 004e 436A     		ldr	r3, [r0, #36]
 5749 0050 4349     		ldr	r1, .L766+8
 5750 0052 1963     		str	r1, [r3, #48]
 5751 0054 0168     		ldr	r1, [r0]
 5752 0056 2B46     		mov	r3, r5
 5753 0058 3431     		adds	r1, r1, #52
 5754 005a 406A     		ldr	r0, [r0, #36]
ARM GAS  /tmp/ccqz4ALL.s 			page 98


 5755 005c FFF7FEFF 		bl	HAL_DMA_Start_IT
 5756 0060 0546     		mov	r5, r0
 5757 0062 08B1     		cbz	r0, .L762
 5758 0064 0125     		movs	r5, #1
 5759 0066 74E0     		b	.L744
 5760              	.L762:
 5761 0068 2268     		ldr	r2, [r4]
 5762 006a D368     		ldr	r3, [r2, #12]
 5763 006c 43F40073 		orr	r3, r3, #512
 5764 0070 D360     		str	r3, [r2, #12]
 5765 0072 2268     		ldr	r2, [r4]
 5766 0074 1368     		ldr	r3, [r2]
 5767 0076 43F00103 		orr	r3, r3, #1
 5768 007a 1360     		str	r3, [r2]
 5769 007c 0122     		movs	r2, #1
 5770 007e 0021     		movs	r1, #0
 5771 0080 2068     		ldr	r0, [r4]
 5772 0082 FFF7FEFF 		bl	TIM_CCxChannelCmd
 5773 0086 64E0     		b	.L744
 5774              	.L748:
 5775 0088 836A     		ldr	r3, [r0, #40]
 5776 008a 334A     		ldr	r2, .L766
 5777 008c 9A62     		str	r2, [r3, #40]
 5778 008e 836A     		ldr	r3, [r0, #40]
 5779 0090 324A     		ldr	r2, .L766+4
 5780 0092 DA62     		str	r2, [r3, #44]
 5781 0094 836A     		ldr	r3, [r0, #40]
 5782 0096 324A     		ldr	r2, .L766+8
 5783 0098 1A63     		str	r2, [r3, #48]
 5784 009a 0168     		ldr	r1, [r0]
 5785 009c 2B46     		mov	r3, r5
 5786 009e 3246     		mov	r2, r6
 5787 00a0 3831     		adds	r1, r1, #56
 5788 00a2 806A     		ldr	r0, [r0, #40]
 5789 00a4 FFF7FEFF 		bl	HAL_DMA_Start_IT
 5790 00a8 0546     		mov	r5, r0
 5791 00aa 08B1     		cbz	r0, .L763
 5792 00ac 0125     		movs	r5, #1
 5793 00ae 50E0     		b	.L744
 5794              	.L763:
 5795 00b0 2268     		ldr	r2, [r4]
 5796 00b2 D368     		ldr	r3, [r2, #12]
 5797 00b4 43F48063 		orr	r3, r3, #1024
 5798 00b8 D360     		str	r3, [r2, #12]
 5799 00ba 2268     		ldr	r2, [r4]
 5800 00bc 1368     		ldr	r3, [r2]
 5801 00be 43F00103 		orr	r3, r3, #1
 5802 00c2 1360     		str	r3, [r2]
 5803 00c4 0122     		movs	r2, #1
 5804 00c6 0421     		movs	r1, #4
 5805 00c8 2068     		ldr	r0, [r4]
 5806 00ca FFF7FEFF 		bl	TIM_CCxChannelCmd
 5807 00ce 40E0     		b	.L744
 5808              	.L749:
 5809 00d0 436A     		ldr	r3, [r0, #36]
 5810 00d2 2149     		ldr	r1, .L766
 5811 00d4 9962     		str	r1, [r3, #40]
ARM GAS  /tmp/ccqz4ALL.s 			page 99


 5812 00d6 436A     		ldr	r3, [r0, #36]
 5813 00d8 2049     		ldr	r1, .L766+4
 5814 00da D962     		str	r1, [r3, #44]
 5815 00dc 436A     		ldr	r3, [r0, #36]
 5816 00de 2049     		ldr	r1, .L766+8
 5817 00e0 1963     		str	r1, [r3, #48]
 5818 00e2 0168     		ldr	r1, [r0]
 5819 00e4 2B46     		mov	r3, r5
 5820 00e6 3431     		adds	r1, r1, #52
 5821 00e8 406A     		ldr	r0, [r0, #36]
 5822 00ea FFF7FEFF 		bl	HAL_DMA_Start_IT
 5823 00ee 08B1     		cbz	r0, .L764
 5824 00f0 0125     		movs	r5, #1
 5825 00f2 2EE0     		b	.L744
 5826              	.L764:
 5827 00f4 A36A     		ldr	r3, [r4, #40]
 5828 00f6 184A     		ldr	r2, .L766
 5829 00f8 9A62     		str	r2, [r3, #40]
 5830 00fa A36A     		ldr	r3, [r4, #40]
 5831 00fc 174A     		ldr	r2, .L766+4
 5832 00fe DA62     		str	r2, [r3, #44]
 5833 0100 A36A     		ldr	r3, [r4, #40]
 5834 0102 174A     		ldr	r2, .L766+8
 5835 0104 1A63     		str	r2, [r3, #48]
 5836 0106 2168     		ldr	r1, [r4]
 5837 0108 2B46     		mov	r3, r5
 5838 010a 3246     		mov	r2, r6
 5839 010c 3831     		adds	r1, r1, #56
 5840 010e A06A     		ldr	r0, [r4, #40]
 5841 0110 FFF7FEFF 		bl	HAL_DMA_Start_IT
 5842 0114 0546     		mov	r5, r0
 5843 0116 08B1     		cbz	r0, .L765
 5844 0118 0125     		movs	r5, #1
 5845 011a 1AE0     		b	.L744
 5846              	.L765:
 5847 011c 2268     		ldr	r2, [r4]
 5848 011e 1368     		ldr	r3, [r2]
 5849 0120 43F00103 		orr	r3, r3, #1
 5850 0124 1360     		str	r3, [r2]
 5851 0126 0122     		movs	r2, #1
 5852 0128 0021     		movs	r1, #0
 5853 012a 2068     		ldr	r0, [r4]
 5854 012c FFF7FEFF 		bl	TIM_CCxChannelCmd
 5855 0130 0122     		movs	r2, #1
 5856 0132 0421     		movs	r1, #4
 5857 0134 2068     		ldr	r0, [r4]
 5858 0136 FFF7FEFF 		bl	TIM_CCxChannelCmd
 5859 013a 2268     		ldr	r2, [r4]
 5860 013c D368     		ldr	r3, [r2, #12]
 5861 013e 43F40073 		orr	r3, r3, #512
 5862 0142 D360     		str	r3, [r2, #12]
 5863 0144 2268     		ldr	r2, [r4]
 5864 0146 D368     		ldr	r3, [r2, #12]
 5865 0148 43F48063 		orr	r3, r3, #1024
 5866 014c D360     		str	r3, [r2, #12]
 5867 014e 00E0     		b	.L744
 5868              	.L751:
ARM GAS  /tmp/ccqz4ALL.s 			page 100


 5869 0150 0225     		movs	r5, #2
 5870              	.L744:
 5871 0152 2846     		mov	r0, r5
 5872 0154 70BD     		pop	{r4, r5, r6, pc}
 5873              	.L767:
 5874 0156 00BF     		.align	2
 5875              	.L766:
 5876 0158 00000000 		.word	TIM_DMACaptureCplt
 5877 015c 00000000 		.word	TIM_DMACaptureHalfCplt
 5878 0160 00000000 		.word	TIM_DMAError
 5880              		.section	.text.HAL_TIM_Encoder_Stop_DMA,"ax",%progbits
 5881              		.align	1
 5882              		.global	HAL_TIM_Encoder_Stop_DMA
 5883              		.syntax unified
 5884              		.thumb
 5885              		.thumb_func
 5886              		.fpu softvfp
 5888              	HAL_TIM_Encoder_Stop_DMA:
 5889              		@ args = 0, pretend = 0, frame = 0
 5890              		@ frame_needed = 0, uses_anonymous_args = 0
 5891 0000 10B5     		push	{r4, lr}
 5892 0002 0446     		mov	r4, r0
 5893 0004 0029     		cmp	r1, #0
 5894 0006 2FD0     		beq	.L774
 5895 0008 0429     		cmp	r1, #4
 5896 000a 3BD0     		beq	.L775
 5897 000c 0022     		movs	r2, #0
 5898 000e 1146     		mov	r1, r2
 5899 0010 0068     		ldr	r0, [r0]
 5900 0012 FFF7FEFF 		bl	TIM_CCxChannelCmd
 5901 0016 0022     		movs	r2, #0
 5902 0018 0421     		movs	r1, #4
 5903 001a 2068     		ldr	r0, [r4]
 5904 001c FFF7FEFF 		bl	TIM_CCxChannelCmd
 5905 0020 2268     		ldr	r2, [r4]
 5906 0022 D368     		ldr	r3, [r2, #12]
 5907 0024 23F40073 		bic	r3, r3, #512
 5908 0028 D360     		str	r3, [r2, #12]
 5909 002a 2268     		ldr	r2, [r4]
 5910 002c D368     		ldr	r3, [r2, #12]
 5911 002e 23F48063 		bic	r3, r3, #1024
 5912 0032 D360     		str	r3, [r2, #12]
 5913 0034 606A     		ldr	r0, [r4, #36]
 5914 0036 FFF7FEFF 		bl	HAL_DMA_Abort_IT
 5915 003a A06A     		ldr	r0, [r4, #40]
 5916 003c FFF7FEFF 		bl	HAL_DMA_Abort_IT
 5917              	.L770:
 5918 0040 2368     		ldr	r3, [r4]
 5919 0042 196A     		ldr	r1, [r3, #32]
 5920 0044 41F21112 		movw	r2, #4369
 5921 0048 1142     		tst	r1, r2
 5922 004a 08D1     		bne	.L772
 5923 004c 196A     		ldr	r1, [r3, #32]
 5924 004e 40F24442 		movw	r2, #1092
 5925 0052 1142     		tst	r1, r2
 5926 0054 03D1     		bne	.L772
 5927 0056 1A68     		ldr	r2, [r3]
ARM GAS  /tmp/ccqz4ALL.s 			page 101


 5928 0058 22F00102 		bic	r2, r2, #1
 5929 005c 1A60     		str	r2, [r3]
 5930              	.L772:
 5931 005e 0123     		movs	r3, #1
 5932 0060 84F83D30 		strb	r3, [r4, #61]
 5933 0064 0020     		movs	r0, #0
 5934 0066 10BD     		pop	{r4, pc}
 5935              	.L774:
 5936 0068 0022     		movs	r2, #0
 5937 006a 1146     		mov	r1, r2
 5938 006c 0068     		ldr	r0, [r0]
 5939 006e FFF7FEFF 		bl	TIM_CCxChannelCmd
 5940 0072 2268     		ldr	r2, [r4]
 5941 0074 D368     		ldr	r3, [r2, #12]
 5942 0076 23F40073 		bic	r3, r3, #512
 5943 007a D360     		str	r3, [r2, #12]
 5944 007c 606A     		ldr	r0, [r4, #36]
 5945 007e FFF7FEFF 		bl	HAL_DMA_Abort_IT
 5946 0082 DDE7     		b	.L770
 5947              	.L775:
 5948 0084 0022     		movs	r2, #0
 5949 0086 0421     		movs	r1, #4
 5950 0088 0068     		ldr	r0, [r0]
 5951 008a FFF7FEFF 		bl	TIM_CCxChannelCmd
 5952 008e 2268     		ldr	r2, [r4]
 5953 0090 D368     		ldr	r3, [r2, #12]
 5954 0092 23F48063 		bic	r3, r3, #1024
 5955 0096 D360     		str	r3, [r2, #12]
 5956 0098 A06A     		ldr	r0, [r4, #40]
 5957 009a FFF7FEFF 		bl	HAL_DMA_Abort_IT
 5958 009e CFE7     		b	.L770
 5960              		.ident	"GCC: (15:6.3.1+svn253039-1build1) 6.3.1 20170620"
ARM GAS  /tmp/ccqz4ALL.s 			page 102

