ARM GAS  /tmp/ccpccbuu.s 			page 1


   1              		.syntax unified
   2              		.cpu cortex-m3
   3              		.fpu softvfp
   4              		.eabi_attribute 20, 1
   5              		.eabi_attribute 21, 1
   6              		.eabi_attribute 23, 3
   7              		.eabi_attribute 24, 1
   8              		.eabi_attribute 25, 1
   9              		.eabi_attribute 26, 1
  10              		.eabi_attribute 30, 1
  11              		.eabi_attribute 34, 1
  12              		.eabi_attribute 18, 4
  13              		.thumb
  14              		.file	"stm32f1xx_hal_rcc.c"
  15              		.section	.text.RCC_Delay,"ax",%progbits
  16              		.align	2
  17              		.thumb
  18              		.thumb_func
  20              	RCC_Delay:
  21              		@ args = 0, pretend = 0, frame = 8
  22              		@ frame_needed = 0, uses_anonymous_args = 0
  23              		@ link register save eliminated.
  24 0000 82B0     		sub	sp, sp, #8
  25 0002 084B     		ldr	r3, .L4
  26 0004 1B68     		ldr	r3, [r3]
  27 0006 084A     		ldr	r2, .L4+4
  28 0008 A2FB0323 		umull	r2, r3, r2, r3
  29 000c 5B0A     		lsrs	r3, r3, #9
  30 000e 00FB03F0 		mul	r0, r0, r3
  31 0012 0190     		str	r0, [sp, #4]
  32              	.L2:
  33              	@ 1370 "src/stm32f1xx_hal_rcc.c" 1
  34 0014 00BF     		nop
  35              	@ 0 "" 2
  36              		.thumb
  37 0016 019B     		ldr	r3, [sp, #4]
  38 0018 5A1E     		subs	r2, r3, #1
  39 001a 0192     		str	r2, [sp, #4]
  40 001c 002B     		cmp	r3, #0
  41 001e F9D1     		bne	.L2
  42 0020 02B0     		add	sp, sp, #8
  43              		@ sp needed
  44 0022 7047     		bx	lr
  45              	.L5:
  46              		.align	2
  47              	.L4:
  48 0024 00000000 		.word	SystemCoreClock
  49 0028 D34D6210 		.word	274877907
  51              		.section	.text.HAL_RCC_DeInit,"ax",%progbits
  52              		.align	2
  53              		.global	HAL_RCC_DeInit
  54              		.thumb
  55              		.thumb_func
  57              	HAL_RCC_DeInit:
  58              		@ args = 0, pretend = 0, frame = 0
  59              		@ frame_needed = 0, uses_anonymous_args = 0
  60 0000 70B5     		push	{r4, r5, r6, lr}
ARM GAS  /tmp/ccpccbuu.s 			page 2


  61 0002 FFF7FEFF 		bl	HAL_GetTick
  62 0006 0446     		mov	r4, r0
  63 0008 384A     		ldr	r2, .L22
  64 000a 1368     		ldr	r3, [r2]
  65 000c 43F00103 		orr	r3, r3, #1
  66 0010 1360     		str	r3, [r2]
  67 0012 04E0     		b	.L7
  68              	.L9:
  69 0014 FFF7FEFF 		bl	HAL_GetTick
  70 0018 001B     		subs	r0, r0, r4
  71 001a 0228     		cmp	r0, #2
  72 001c 5BD8     		bhi	.L16
  73              	.L7:
  74 001e 334B     		ldr	r3, .L22
  75 0020 1B68     		ldr	r3, [r3]
  76 0022 13F0020F 		tst	r3, #2
  77 0026 F5D0     		beq	.L9
  78 0028 304D     		ldr	r5, .L22
  79 002a 2B68     		ldr	r3, [r5]
  80 002c 23F0F803 		bic	r3, r3, #248
  81 0030 43F08003 		orr	r3, r3, #128
  82 0034 2B60     		str	r3, [r5]
  83 0036 FFF7FEFF 		bl	HAL_GetTick
  84 003a 0446     		mov	r4, r0
  85 003c 0023     		movs	r3, #0
  86 003e 6B60     		str	r3, [r5, #4]
  87 0040 06E0     		b	.L10
  88              	.L11:
  89 0042 FFF7FEFF 		bl	HAL_GetTick
  90 0046 001B     		subs	r0, r0, r4
  91 0048 41F28833 		movw	r3, #5000
  92 004c 9842     		cmp	r0, r3
  93 004e 44D8     		bhi	.L17
  94              	.L10:
  95 0050 264B     		ldr	r3, .L22
  96 0052 5B68     		ldr	r3, [r3, #4]
  97 0054 13F00C0F 		tst	r3, #12
  98 0058 F3D1     		bne	.L11
  99 005a 254A     		ldr	r2, .L22+4
 100 005c 254B     		ldr	r3, .L22+8
 101 005e 1A60     		str	r2, [r3]
 102 0060 254B     		ldr	r3, .L22+12
 103 0062 1868     		ldr	r0, [r3]
 104 0064 FFF7FEFF 		bl	HAL_InitTick
 105 0068 0446     		mov	r4, r0
 106 006a 0028     		cmp	r0, #0
 107 006c 37D1     		bne	.L18
 108 006e FFF7FEFF 		bl	HAL_GetTick
 109 0072 0546     		mov	r5, r0
 110 0074 1D4A     		ldr	r2, .L22
 111 0076 1368     		ldr	r3, [r2]
 112 0078 23F08073 		bic	r3, r3, #16777216
 113 007c 1360     		str	r3, [r2]
 114 007e 04E0     		b	.L12
 115              	.L13:
 116 0080 FFF7FEFF 		bl	HAL_GetTick
 117 0084 401B     		subs	r0, r0, r5
ARM GAS  /tmp/ccpccbuu.s 			page 3


 118 0086 0228     		cmp	r0, #2
 119 0088 2BD8     		bhi	.L19
 120              	.L12:
 121 008a 184B     		ldr	r3, .L22
 122 008c 1B68     		ldr	r3, [r3]
 123 008e 13F0007F 		tst	r3, #33554432
 124 0092 F5D1     		bne	.L13
 125 0094 154E     		ldr	r6, .L22
 126 0096 0023     		movs	r3, #0
 127 0098 7360     		str	r3, [r6, #4]
 128 009a FFF7FEFF 		bl	HAL_GetTick
 129 009e 0546     		mov	r5, r0
 130 00a0 3368     		ldr	r3, [r6]
 131 00a2 23F41023 		bic	r3, r3, #589824
 132 00a6 3360     		str	r3, [r6]
 133 00a8 04E0     		b	.L14
 134              	.L15:
 135 00aa FFF7FEFF 		bl	HAL_GetTick
 136 00ae 401B     		subs	r0, r0, r5
 137 00b0 6428     		cmp	r0, #100
 138 00b2 18D8     		bhi	.L20
 139              	.L14:
 140 00b4 0D4B     		ldr	r3, .L22
 141 00b6 1B68     		ldr	r3, [r3]
 142 00b8 13F4003F 		tst	r3, #131072
 143 00bc F5D1     		bne	.L15
 144 00be 0B4B     		ldr	r3, .L22
 145 00c0 1A68     		ldr	r2, [r3]
 146 00c2 22F48022 		bic	r2, r2, #262144
 147 00c6 1A60     		str	r2, [r3]
 148 00c8 5A6A     		ldr	r2, [r3, #36]
 149 00ca 42F08072 		orr	r2, r2, #16777216
 150 00ce 5A62     		str	r2, [r3, #36]
 151 00d0 0022     		movs	r2, #0
 152 00d2 9A60     		str	r2, [r3, #8]
 153 00d4 08E0     		b	.L8
 154              	.L16:
 155 00d6 0324     		movs	r4, #3
 156 00d8 06E0     		b	.L8
 157              	.L17:
 158 00da 0324     		movs	r4, #3
 159 00dc 04E0     		b	.L8
 160              	.L18:
 161 00de 0124     		movs	r4, #1
 162 00e0 02E0     		b	.L8
 163              	.L19:
 164 00e2 0324     		movs	r4, #3
 165 00e4 00E0     		b	.L8
 166              	.L20:
 167 00e6 0324     		movs	r4, #3
 168              	.L8:
 169 00e8 2046     		mov	r0, r4
 170 00ea 70BD     		pop	{r4, r5, r6, pc}
 171              	.L23:
 172              		.align	2
 173              	.L22:
 174 00ec 00100240 		.word	1073876992
ARM GAS  /tmp/ccpccbuu.s 			page 4


 175 00f0 00127A00 		.word	8000000
 176 00f4 00000000 		.word	SystemCoreClock
 177 00f8 00000000 		.word	uwTickPrio
 179              		.section	.text.HAL_RCC_OscConfig,"ax",%progbits
 180              		.align	2
 181              		.global	HAL_RCC_OscConfig
 182              		.thumb
 183              		.thumb_func
 185              	HAL_RCC_OscConfig:
 186              		@ args = 0, pretend = 0, frame = 8
 187              		@ frame_needed = 0, uses_anonymous_args = 0
 188 0000 0028     		cmp	r0, #0
 189 0002 00F0EC81 		beq	.L77
 190 0006 70B5     		push	{r4, r5, r6, lr}
 191 0008 82B0     		sub	sp, sp, #8
 192 000a 0446     		mov	r4, r0
 193 000c 0368     		ldr	r3, [r0]
 194 000e 13F0010F 		tst	r3, #1
 195 0012 6BD0     		beq	.L26
 196 0014 A84B     		ldr	r3, .L98
 197 0016 5B68     		ldr	r3, [r3, #4]
 198 0018 03F00C03 		and	r3, r3, #12
 199 001c 042B     		cmp	r3, #4
 200 001e 0AD0     		beq	.L27
 201 0020 A54B     		ldr	r3, .L98
 202 0022 5B68     		ldr	r3, [r3, #4]
 203 0024 03F00C03 		and	r3, r3, #12
 204 0028 082B     		cmp	r3, #8
 205 002a 0DD1     		bne	.L28
 206 002c A24B     		ldr	r3, .L98
 207 002e 5B68     		ldr	r3, [r3, #4]
 208 0030 13F4803F 		tst	r3, #65536
 209 0034 08D0     		beq	.L28
 210              	.L27:
 211 0036 A04B     		ldr	r3, .L98
 212 0038 1B68     		ldr	r3, [r3]
 213 003a 13F4003F 		tst	r3, #131072
 214 003e 55D0     		beq	.L26
 215 0040 6368     		ldr	r3, [r4, #4]
 216 0042 002B     		cmp	r3, #0
 217 0044 52D1     		bne	.L26
 218 0046 CCE1     		b	.L78
 219              	.L28:
 220 0048 6368     		ldr	r3, [r4, #4]
 221 004a B3F5803F 		cmp	r3, #65536
 222 004e 05D1     		bne	.L29
 223 0050 994A     		ldr	r2, .L98
 224 0052 1368     		ldr	r3, [r2]
 225 0054 43F48033 		orr	r3, r3, #65536
 226 0058 1360     		str	r3, [r2]
 227 005a 26E0     		b	.L30
 228              	.L29:
 229 005c 63B9     		cbnz	r3, .L31
 230 005e 03F18043 		add	r3, r3, #1073741824
 231 0062 03F50433 		add	r3, r3, #135168
 232 0066 1A68     		ldr	r2, [r3]
 233 0068 22F48032 		bic	r2, r2, #65536
ARM GAS  /tmp/ccpccbuu.s 			page 5


 234 006c 1A60     		str	r2, [r3]
 235 006e 1A68     		ldr	r2, [r3]
 236 0070 22F48022 		bic	r2, r2, #262144
 237 0074 1A60     		str	r2, [r3]
 238 0076 18E0     		b	.L30
 239              	.L31:
 240 0078 B3F5A02F 		cmp	r3, #327680
 241 007c 0CD1     		bne	.L32
 242 007e 03F18043 		add	r3, r3, #1073741824
 243 0082 A3F53C33 		sub	r3, r3, #192512
 244 0086 1A68     		ldr	r2, [r3]
 245 0088 42F48022 		orr	r2, r2, #262144
 246 008c 1A60     		str	r2, [r3]
 247 008e 1A68     		ldr	r2, [r3]
 248 0090 42F48032 		orr	r2, r2, #65536
 249 0094 1A60     		str	r2, [r3]
 250 0096 08E0     		b	.L30
 251              	.L32:
 252 0098 874B     		ldr	r3, .L98
 253 009a 1A68     		ldr	r2, [r3]
 254 009c 22F48032 		bic	r2, r2, #65536
 255 00a0 1A60     		str	r2, [r3]
 256 00a2 1A68     		ldr	r2, [r3]
 257 00a4 22F48022 		bic	r2, r2, #262144
 258 00a8 1A60     		str	r2, [r3]
 259              	.L30:
 260 00aa 6368     		ldr	r3, [r4, #4]
 261 00ac 7BB1     		cbz	r3, .L33
 262 00ae FFF7FEFF 		bl	HAL_GetTick
 263 00b2 0546     		mov	r5, r0
 264 00b4 05E0     		b	.L34
 265              	.L35:
 266 00b6 FFF7FEFF 		bl	HAL_GetTick
 267 00ba 401B     		subs	r0, r0, r5
 268 00bc 6428     		cmp	r0, #100
 269 00be 00F29281 		bhi	.L79
 270              	.L34:
 271 00c2 7D4B     		ldr	r3, .L98
 272 00c4 1B68     		ldr	r3, [r3]
 273 00c6 13F4003F 		tst	r3, #131072
 274 00ca F4D0     		beq	.L35
 275 00cc 0EE0     		b	.L26
 276              	.L33:
 277 00ce FFF7FEFF 		bl	HAL_GetTick
 278 00d2 0546     		mov	r5, r0
 279 00d4 05E0     		b	.L36
 280              	.L37:
 281 00d6 FFF7FEFF 		bl	HAL_GetTick
 282 00da 401B     		subs	r0, r0, r5
 283 00dc 6428     		cmp	r0, #100
 284 00de 00F28481 		bhi	.L80
 285              	.L36:
 286 00e2 754B     		ldr	r3, .L98
 287 00e4 1B68     		ldr	r3, [r3]
 288 00e6 13F4003F 		tst	r3, #131072
 289 00ea F4D1     		bne	.L37
 290              	.L26:
ARM GAS  /tmp/ccpccbuu.s 			page 6


 291 00ec 2368     		ldr	r3, [r4]
 292 00ee 13F0020F 		tst	r3, #2
 293 00f2 50D0     		beq	.L38
 294 00f4 704B     		ldr	r3, .L98
 295 00f6 5B68     		ldr	r3, [r3, #4]
 296 00f8 13F00C0F 		tst	r3, #12
 297 00fc 0AD0     		beq	.L39
 298 00fe 6E4B     		ldr	r3, .L98
 299 0100 5B68     		ldr	r3, [r3, #4]
 300 0102 03F00C03 		and	r3, r3, #12
 301 0106 082B     		cmp	r3, #8
 302 0108 16D1     		bne	.L40
 303 010a 6B4B     		ldr	r3, .L98
 304 010c 5B68     		ldr	r3, [r3, #4]
 305 010e 13F4803F 		tst	r3, #65536
 306 0112 11D1     		bne	.L40
 307              	.L39:
 308 0114 684B     		ldr	r3, .L98
 309 0116 1B68     		ldr	r3, [r3]
 310 0118 13F0020F 		tst	r3, #2
 311 011c 03D0     		beq	.L41
 312 011e 2369     		ldr	r3, [r4, #16]
 313 0120 012B     		cmp	r3, #1
 314 0122 40F06481 		bne	.L81
 315              	.L41:
 316 0126 644A     		ldr	r2, .L98
 317 0128 1368     		ldr	r3, [r2]
 318 012a 23F0F803 		bic	r3, r3, #248
 319 012e 6169     		ldr	r1, [r4, #20]
 320 0130 43EAC103 		orr	r3, r3, r1, lsl #3
 321 0134 1360     		str	r3, [r2]
 322 0136 2EE0     		b	.L38
 323              	.L40:
 324 0138 2369     		ldr	r3, [r4, #16]
 325 013a D3B1     		cbz	r3, .L42
 326 013c 0122     		movs	r2, #1
 327 013e 5F4B     		ldr	r3, .L98+4
 328 0140 1A60     		str	r2, [r3]
 329 0142 FFF7FEFF 		bl	HAL_GetTick
 330 0146 0546     		mov	r5, r0
 331 0148 05E0     		b	.L43
 332              	.L44:
 333 014a FFF7FEFF 		bl	HAL_GetTick
 334 014e 401B     		subs	r0, r0, r5
 335 0150 0228     		cmp	r0, #2
 336 0152 00F24E81 		bhi	.L82
 337              	.L43:
 338 0156 584B     		ldr	r3, .L98
 339 0158 1B68     		ldr	r3, [r3]
 340 015a 13F0020F 		tst	r3, #2
 341 015e F4D0     		beq	.L44
 342 0160 554A     		ldr	r2, .L98
 343 0162 1368     		ldr	r3, [r2]
 344 0164 23F0F803 		bic	r3, r3, #248
 345 0168 6169     		ldr	r1, [r4, #20]
 346 016a 43EAC103 		orr	r3, r3, r1, lsl #3
 347 016e 1360     		str	r3, [r2]
ARM GAS  /tmp/ccpccbuu.s 			page 7


 348 0170 11E0     		b	.L38
 349              	.L42:
 350 0172 0022     		movs	r2, #0
 351 0174 514B     		ldr	r3, .L98+4
 352 0176 1A60     		str	r2, [r3]
 353 0178 FFF7FEFF 		bl	HAL_GetTick
 354 017c 0546     		mov	r5, r0
 355 017e 05E0     		b	.L45
 356              	.L46:
 357 0180 FFF7FEFF 		bl	HAL_GetTick
 358 0184 401B     		subs	r0, r0, r5
 359 0186 0228     		cmp	r0, #2
 360 0188 00F23581 		bhi	.L83
 361              	.L45:
 362 018c 4A4B     		ldr	r3, .L98
 363 018e 1B68     		ldr	r3, [r3]
 364 0190 13F0020F 		tst	r3, #2
 365 0194 F4D1     		bne	.L46
 366              	.L38:
 367 0196 2368     		ldr	r3, [r4]
 368 0198 13F0080F 		tst	r3, #8
 369 019c 29D0     		beq	.L47
 370 019e A369     		ldr	r3, [r4, #24]
 371 01a0 ABB1     		cbz	r3, .L48
 372 01a2 0122     		movs	r2, #1
 373 01a4 464B     		ldr	r3, .L98+8
 374 01a6 1A60     		str	r2, [r3]
 375 01a8 FFF7FEFF 		bl	HAL_GetTick
 376 01ac 0546     		mov	r5, r0
 377 01ae 05E0     		b	.L49
 378              	.L50:
 379 01b0 FFF7FEFF 		bl	HAL_GetTick
 380 01b4 401B     		subs	r0, r0, r5
 381 01b6 0228     		cmp	r0, #2
 382 01b8 00F21F81 		bhi	.L84
 383              	.L49:
 384 01bc 3E4B     		ldr	r3, .L98
 385 01be 5B6A     		ldr	r3, [r3, #36]
 386 01c0 13F0020F 		tst	r3, #2
 387 01c4 F4D0     		beq	.L50
 388 01c6 0120     		movs	r0, #1
 389 01c8 FFF7FEFF 		bl	RCC_Delay
 390 01cc 11E0     		b	.L47
 391              	.L48:
 392 01ce 0022     		movs	r2, #0
 393 01d0 3B4B     		ldr	r3, .L98+8
 394 01d2 1A60     		str	r2, [r3]
 395 01d4 FFF7FEFF 		bl	HAL_GetTick
 396 01d8 0546     		mov	r5, r0
 397 01da 05E0     		b	.L51
 398              	.L52:
 399 01dc FFF7FEFF 		bl	HAL_GetTick
 400 01e0 401B     		subs	r0, r0, r5
 401 01e2 0228     		cmp	r0, #2
 402 01e4 00F20B81 		bhi	.L85
 403              	.L51:
 404 01e8 334B     		ldr	r3, .L98
ARM GAS  /tmp/ccpccbuu.s 			page 8


 405 01ea 5B6A     		ldr	r3, [r3, #36]
 406 01ec 13F0020F 		tst	r3, #2
 407 01f0 F4D1     		bne	.L52
 408              	.L47:
 409 01f2 2368     		ldr	r3, [r4]
 410 01f4 13F0040F 		tst	r3, #4
 411 01f8 00F08B80 		beq	.L53
 412 01fc 2E4B     		ldr	r3, .L98
 413 01fe DB69     		ldr	r3, [r3, #28]
 414 0200 13F0805F 		tst	r3, #268435456
 415 0204 0BD1     		bne	.L86
 416 0206 2C4B     		ldr	r3, .L98
 417 0208 DA69     		ldr	r2, [r3, #28]
 418 020a 42F08052 		orr	r2, r2, #268435456
 419 020e DA61     		str	r2, [r3, #28]
 420 0210 DB69     		ldr	r3, [r3, #28]
 421 0212 03F08053 		and	r3, r3, #268435456
 422 0216 0193     		str	r3, [sp, #4]
 423 0218 019B     		ldr	r3, [sp, #4]
 424 021a 0125     		movs	r5, #1
 425 021c 00E0     		b	.L54
 426              	.L86:
 427 021e 0025     		movs	r5, #0
 428              	.L54:
 429 0220 284B     		ldr	r3, .L98+12
 430 0222 1B68     		ldr	r3, [r3]
 431 0224 13F4807F 		tst	r3, #256
 432 0228 13D1     		bne	.L55
 433 022a 264A     		ldr	r2, .L98+12
 434 022c 1368     		ldr	r3, [r2]
 435 022e 43F48073 		orr	r3, r3, #256
 436 0232 1360     		str	r3, [r2]
 437 0234 FFF7FEFF 		bl	HAL_GetTick
 438 0238 0646     		mov	r6, r0
 439 023a 05E0     		b	.L56
 440              	.L57:
 441 023c FFF7FEFF 		bl	HAL_GetTick
 442 0240 801B     		subs	r0, r0, r6
 443 0242 6428     		cmp	r0, #100
 444 0244 00F2DD80 		bhi	.L87
 445              	.L56:
 446 0248 1E4B     		ldr	r3, .L98+12
 447 024a 1B68     		ldr	r3, [r3]
 448 024c 13F4807F 		tst	r3, #256
 449 0250 F4D0     		beq	.L57
 450              	.L55:
 451 0252 E368     		ldr	r3, [r4, #12]
 452 0254 012B     		cmp	r3, #1
 453 0256 05D1     		bne	.L58
 454 0258 174A     		ldr	r2, .L98
 455 025a 136A     		ldr	r3, [r2, #32]
 456 025c 43F00103 		orr	r3, r3, #1
 457 0260 1362     		str	r3, [r2, #32]
 458 0262 22E0     		b	.L59
 459              	.L58:
 460 0264 63B9     		cbnz	r3, .L60
 461 0266 03F18043 		add	r3, r3, #1073741824
ARM GAS  /tmp/ccpccbuu.s 			page 9


 462 026a 03F50433 		add	r3, r3, #135168
 463 026e 1A6A     		ldr	r2, [r3, #32]
 464 0270 22F00102 		bic	r2, r2, #1
 465 0274 1A62     		str	r2, [r3, #32]
 466 0276 1A6A     		ldr	r2, [r3, #32]
 467 0278 22F00402 		bic	r2, r2, #4
 468 027c 1A62     		str	r2, [r3, #32]
 469 027e 14E0     		b	.L59
 470              	.L60:
 471 0280 052B     		cmp	r3, #5
 472 0282 09D1     		bne	.L61
 473 0284 0C4B     		ldr	r3, .L98
 474 0286 1A6A     		ldr	r2, [r3, #32]
 475 0288 42F00402 		orr	r2, r2, #4
 476 028c 1A62     		str	r2, [r3, #32]
 477 028e 1A6A     		ldr	r2, [r3, #32]
 478 0290 42F00102 		orr	r2, r2, #1
 479 0294 1A62     		str	r2, [r3, #32]
 480 0296 08E0     		b	.L59
 481              	.L61:
 482 0298 074B     		ldr	r3, .L98
 483 029a 1A6A     		ldr	r2, [r3, #32]
 484 029c 22F00102 		bic	r2, r2, #1
 485 02a0 1A62     		str	r2, [r3, #32]
 486 02a2 1A6A     		ldr	r2, [r3, #32]
 487 02a4 22F00402 		bic	r2, r2, #4
 488 02a8 1A62     		str	r2, [r3, #32]
 489              	.L59:
 490 02aa E368     		ldr	r3, [r4, #12]
 491 02ac D3B1     		cbz	r3, .L62
 492 02ae FFF7FEFF 		bl	HAL_GetTick
 493 02b2 0646     		mov	r6, r0
 494 02b4 10E0     		b	.L63
 495              	.L99:
 496 02b6 00BF     		.align	2
 497              	.L98:
 498 02b8 00100240 		.word	1073876992
 499 02bc 00004242 		.word	1111621632
 500 02c0 80044242 		.word	1111622784
 501 02c4 00700040 		.word	1073770496
 502              	.L64:
 503 02c8 FFF7FEFF 		bl	HAL_GetTick
 504 02cc 801B     		subs	r0, r0, r6
 505 02ce 41F28833 		movw	r3, #5000
 506 02d2 9842     		cmp	r0, r3
 507 02d4 00F29780 		bhi	.L88
 508              	.L63:
 509 02d8 544B     		ldr	r3, .L100
 510 02da 1B6A     		ldr	r3, [r3, #32]
 511 02dc 13F0020F 		tst	r3, #2
 512 02e0 F2D0     		beq	.L64
 513 02e2 10E0     		b	.L65
 514              	.L62:
 515 02e4 FFF7FEFF 		bl	HAL_GetTick
 516 02e8 0646     		mov	r6, r0
 517 02ea 07E0     		b	.L66
 518              	.L67:
ARM GAS  /tmp/ccpccbuu.s 			page 10


 519 02ec FFF7FEFF 		bl	HAL_GetTick
 520 02f0 801B     		subs	r0, r0, r6
 521 02f2 41F28833 		movw	r3, #5000
 522 02f6 9842     		cmp	r0, r3
 523 02f8 00F28780 		bhi	.L89
 524              	.L66:
 525 02fc 4B4B     		ldr	r3, .L100
 526 02fe 1B6A     		ldr	r3, [r3, #32]
 527 0300 13F0020F 		tst	r3, #2
 528 0304 F2D1     		bne	.L67
 529              	.L65:
 530 0306 25B1     		cbz	r5, .L53
 531 0308 484A     		ldr	r2, .L100
 532 030a D369     		ldr	r3, [r2, #28]
 533 030c 23F08053 		bic	r3, r3, #268435456
 534 0310 D361     		str	r3, [r2, #28]
 535              	.L53:
 536 0312 E369     		ldr	r3, [r4, #28]
 537 0314 002B     		cmp	r3, #0
 538 0316 7AD0     		beq	.L90
 539 0318 444A     		ldr	r2, .L100
 540 031a 5268     		ldr	r2, [r2, #4]
 541 031c 02F00C02 		and	r2, r2, #12
 542 0320 082A     		cmp	r2, #8
 543 0322 4CD0     		beq	.L68
 544 0324 022B     		cmp	r3, #2
 545 0326 37D1     		bne	.L69
 546 0328 0022     		movs	r2, #0
 547 032a 414B     		ldr	r3, .L100+4
 548 032c 1A60     		str	r2, [r3]
 549 032e FFF7FEFF 		bl	HAL_GetTick
 550 0332 0546     		mov	r5, r0
 551 0334 04E0     		b	.L70
 552              	.L71:
 553 0336 FFF7FEFF 		bl	HAL_GetTick
 554 033a 401B     		subs	r0, r0, r5
 555 033c 0228     		cmp	r0, #2
 556 033e 68D8     		bhi	.L91
 557              	.L70:
 558 0340 3A4B     		ldr	r3, .L100
 559 0342 1B68     		ldr	r3, [r3]
 560 0344 13F0007F 		tst	r3, #33554432
 561 0348 F5D1     		bne	.L71
 562 034a 236A     		ldr	r3, [r4, #32]
 563 034c B3F5803F 		cmp	r3, #65536
 564 0350 06D1     		bne	.L72
 565 0352 3649     		ldr	r1, .L100
 566 0354 4B68     		ldr	r3, [r1, #4]
 567 0356 23F40032 		bic	r2, r3, #131072
 568 035a A368     		ldr	r3, [r4, #8]
 569 035c 1343     		orrs	r3, r3, r2
 570 035e 4B60     		str	r3, [r1, #4]
 571              	.L72:
 572 0360 3248     		ldr	r0, .L100
 573 0362 4368     		ldr	r3, [r0, #4]
 574 0364 23F47411 		bic	r1, r3, #3997696
 575 0368 236A     		ldr	r3, [r4, #32]
ARM GAS  /tmp/ccpccbuu.s 			page 11


 576 036a 626A     		ldr	r2, [r4, #36]
 577 036c 1343     		orrs	r3, r3, r2
 578 036e 0B43     		orrs	r3, r3, r1
 579 0370 4360     		str	r3, [r0, #4]
 580 0372 0122     		movs	r2, #1
 581 0374 2E4B     		ldr	r3, .L100+4
 582 0376 1A60     		str	r2, [r3]
 583 0378 FFF7FEFF 		bl	HAL_GetTick
 584 037c 0446     		mov	r4, r0
 585 037e 04E0     		b	.L73
 586              	.L74:
 587 0380 FFF7FEFF 		bl	HAL_GetTick
 588 0384 001B     		subs	r0, r0, r4
 589 0386 0228     		cmp	r0, #2
 590 0388 45D8     		bhi	.L92
 591              	.L73:
 592 038a 284B     		ldr	r3, .L100
 593 038c 1B68     		ldr	r3, [r3]
 594 038e 13F0007F 		tst	r3, #33554432
 595 0392 F5D0     		beq	.L74
 596 0394 0020     		movs	r0, #0
 597 0396 47E0     		b	.L25
 598              	.L69:
 599 0398 0022     		movs	r2, #0
 600 039a 254B     		ldr	r3, .L100+4
 601 039c 1A60     		str	r2, [r3]
 602 039e FFF7FEFF 		bl	HAL_GetTick
 603 03a2 0446     		mov	r4, r0
 604 03a4 04E0     		b	.L75
 605              	.L76:
 606 03a6 FFF7FEFF 		bl	HAL_GetTick
 607 03aa 001B     		subs	r0, r0, r4
 608 03ac 0228     		cmp	r0, #2
 609 03ae 34D8     		bhi	.L93
 610              	.L75:
 611 03b0 1E4B     		ldr	r3, .L100
 612 03b2 1B68     		ldr	r3, [r3]
 613 03b4 13F0007F 		tst	r3, #33554432
 614 03b8 F5D1     		bne	.L76
 615 03ba 0020     		movs	r0, #0
 616 03bc 34E0     		b	.L25
 617              	.L68:
 618 03be 012B     		cmp	r3, #1
 619 03c0 2DD0     		beq	.L94
 620 03c2 1A4B     		ldr	r3, .L100
 621 03c4 5B68     		ldr	r3, [r3, #4]
 622 03c6 03F48031 		and	r1, r3, #65536
 623 03ca 226A     		ldr	r2, [r4, #32]
 624 03cc 9142     		cmp	r1, r2
 625 03ce 28D1     		bne	.L95
 626 03d0 03F47013 		and	r3, r3, #3932160
 627 03d4 626A     		ldr	r2, [r4, #36]
 628 03d6 9342     		cmp	r3, r2
 629 03d8 25D0     		beq	.L96
 630 03da 0120     		movs	r0, #1
 631 03dc 24E0     		b	.L25
 632              	.L77:
ARM GAS  /tmp/ccpccbuu.s 			page 12


 633 03de 0120     		movs	r0, #1
 634 03e0 7047     		bx	lr
 635              	.L78:
 636 03e2 0120     		movs	r0, #1
 637 03e4 20E0     		b	.L25
 638              	.L79:
 639 03e6 0320     		movs	r0, #3
 640 03e8 1EE0     		b	.L25
 641              	.L80:
 642 03ea 0320     		movs	r0, #3
 643 03ec 1CE0     		b	.L25
 644              	.L81:
 645 03ee 0120     		movs	r0, #1
 646 03f0 1AE0     		b	.L25
 647              	.L82:
 648 03f2 0320     		movs	r0, #3
 649 03f4 18E0     		b	.L25
 650              	.L83:
 651 03f6 0320     		movs	r0, #3
 652 03f8 16E0     		b	.L25
 653              	.L84:
 654 03fa 0320     		movs	r0, #3
 655 03fc 14E0     		b	.L25
 656              	.L85:
 657 03fe 0320     		movs	r0, #3
 658 0400 12E0     		b	.L25
 659              	.L87:
 660 0402 0320     		movs	r0, #3
 661 0404 10E0     		b	.L25
 662              	.L88:
 663 0406 0320     		movs	r0, #3
 664 0408 0EE0     		b	.L25
 665              	.L89:
 666 040a 0320     		movs	r0, #3
 667 040c 0CE0     		b	.L25
 668              	.L90:
 669 040e 0020     		movs	r0, #0
 670 0410 0AE0     		b	.L25
 671              	.L91:
 672 0412 0320     		movs	r0, #3
 673 0414 08E0     		b	.L25
 674              	.L92:
 675 0416 0320     		movs	r0, #3
 676 0418 06E0     		b	.L25
 677              	.L93:
 678 041a 0320     		movs	r0, #3
 679 041c 04E0     		b	.L25
 680              	.L94:
 681 041e 0120     		movs	r0, #1
 682 0420 02E0     		b	.L25
 683              	.L95:
 684 0422 0120     		movs	r0, #1
 685 0424 00E0     		b	.L25
 686              	.L96:
 687 0426 0020     		movs	r0, #0
 688              	.L25:
 689 0428 02B0     		add	sp, sp, #8
ARM GAS  /tmp/ccpccbuu.s 			page 13


 690              		@ sp needed
 691 042a 70BD     		pop	{r4, r5, r6, pc}
 692              	.L101:
 693              		.align	2
 694              	.L100:
 695 042c 00100240 		.word	1073876992
 696 0430 60004242 		.word	1111621728
 698              		.section	.text.HAL_RCC_MCOConfig,"ax",%progbits
 699              		.align	2
 700              		.global	HAL_RCC_MCOConfig
 701              		.thumb
 702              		.thumb_func
 704              	HAL_RCC_MCOConfig:
 705              		@ args = 0, pretend = 0, frame = 24
 706              		@ frame_needed = 0, uses_anonymous_args = 0
 707 0000 30B5     		push	{r4, r5, lr}
 708 0002 87B0     		sub	sp, sp, #28
 709 0004 0D46     		mov	r5, r1
 710 0006 0023     		movs	r3, #0
 711 0008 0493     		str	r3, [sp, #16]
 712 000a 0223     		movs	r3, #2
 713 000c 0393     		str	r3, [sp, #12]
 714 000e 0323     		movs	r3, #3
 715 0010 0593     		str	r3, [sp, #20]
 716 0012 4FF48073 		mov	r3, #256
 717 0016 0293     		str	r3, [sp, #8]
 718 0018 0A4C     		ldr	r4, .L104
 719 001a A369     		ldr	r3, [r4, #24]
 720 001c 43F00403 		orr	r3, r3, #4
 721 0020 A361     		str	r3, [r4, #24]
 722 0022 A369     		ldr	r3, [r4, #24]
 723 0024 03F00403 		and	r3, r3, #4
 724 0028 0193     		str	r3, [sp, #4]
 725 002a 019B     		ldr	r3, [sp, #4]
 726 002c 0648     		ldr	r0, .L104+4
 727 002e 02A9     		add	r1, sp, #8
 728 0030 FFF7FEFF 		bl	HAL_GPIO_Init
 729 0034 6368     		ldr	r3, [r4, #4]
 730 0036 23F0E063 		bic	r3, r3, #117440512
 731 003a 1D43     		orrs	r5, r5, r3
 732 003c 6560     		str	r5, [r4, #4]
 733 003e 07B0     		add	sp, sp, #28
 734              		@ sp needed
 735 0040 30BD     		pop	{r4, r5, pc}
 736              	.L105:
 737 0042 00BF     		.align	2
 738              	.L104:
 739 0044 00100240 		.word	1073876992
 740 0048 00080140 		.word	1073809408
 742              		.section	.text.HAL_RCC_EnableCSS,"ax",%progbits
 743              		.align	2
 744              		.global	HAL_RCC_EnableCSS
 745              		.thumb
 746              		.thumb_func
 748              	HAL_RCC_EnableCSS:
 749              		@ args = 0, pretend = 0, frame = 0
 750              		@ frame_needed = 0, uses_anonymous_args = 0
ARM GAS  /tmp/ccpccbuu.s 			page 14


 751              		@ link register save eliminated.
 752 0000 0122     		movs	r2, #1
 753 0002 014B     		ldr	r3, .L107
 754 0004 1A60     		str	r2, [r3]
 755 0006 7047     		bx	lr
 756              	.L108:
 757              		.align	2
 758              	.L107:
 759 0008 4C004242 		.word	1111621708
 761              		.section	.text.HAL_RCC_DisableCSS,"ax",%progbits
 762              		.align	2
 763              		.global	HAL_RCC_DisableCSS
 764              		.thumb
 765              		.thumb_func
 767              	HAL_RCC_DisableCSS:
 768              		@ args = 0, pretend = 0, frame = 0
 769              		@ frame_needed = 0, uses_anonymous_args = 0
 770              		@ link register save eliminated.
 771 0000 0022     		movs	r2, #0
 772 0002 014B     		ldr	r3, .L110
 773 0004 1A60     		str	r2, [r3]
 774 0006 7047     		bx	lr
 775              	.L111:
 776              		.align	2
 777              	.L110:
 778 0008 4C004242 		.word	1111621708
 780              		.section	.text.HAL_RCC_GetSysClockFreq,"ax",%progbits
 781              		.align	2
 782              		.global	HAL_RCC_GetSysClockFreq
 783              		.thumb
 784              		.thumb_func
 786              	HAL_RCC_GetSysClockFreq:
 787              		@ args = 0, pretend = 0, frame = 24
 788              		@ frame_needed = 0, uses_anonymous_args = 0
 789              		@ link register save eliminated.
 790 0000 30B4     		push	{r4, r5}
 791 0002 86B0     		sub	sp, sp, #24
 792 0004 164D     		ldr	r5, .L120
 793 0006 02AC     		add	r4, sp, #8
 794 0008 2868     		ldr	r0, [r5]	@ unaligned
 795 000a 6968     		ldr	r1, [r5, #4]	@ unaligned
 796 000c AA68     		ldr	r2, [r5, #8]	@ unaligned
 797 000e EB68     		ldr	r3, [r5, #12]	@ unaligned
 798 0010 0FC4     		stmia	r4!, {r0, r1, r2, r3}
 799 0012 2B8A     		ldrh	r3, [r5, #16]	@ unaligned
 800 0014 ADF80430 		strh	r3, [sp, #4]	@ unaligned
 801 0018 124B     		ldr	r3, .L120+4
 802 001a 5B68     		ldr	r3, [r3, #4]
 803 001c 03F00C02 		and	r2, r3, #12
 804 0020 082A     		cmp	r2, #8
 805 0022 19D1     		bne	.L118
 806 0024 C3F38342 		ubfx	r2, r3, #18, #4
 807 0028 06A9     		add	r1, sp, #24
 808 002a 0A44     		add	r2, r2, r1
 809 002c 12F8100C 		ldrb	r0, [r2, #-16]	@ zero_extendqisi2
 810 0030 13F4803F 		tst	r3, #65536
 811 0034 0CD0     		beq	.L115
ARM GAS  /tmp/ccpccbuu.s 			page 15


 812 0036 0B4B     		ldr	r3, .L120+4
 813 0038 5B68     		ldr	r3, [r3, #4]
 814 003a C3F34043 		ubfx	r3, r3, #17, #1
 815 003e 0B44     		add	r3, r3, r1
 816 0040 13F8142C 		ldrb	r2, [r3, #-20]	@ zero_extendqisi2
 817 0044 084B     		ldr	r3, .L120+8
 818 0046 03FB00F0 		mul	r0, r3, r0
 819 004a B0FBF2F0 		udiv	r0, r0, r2
 820 004e 04E0     		b	.L113
 821              	.L115:
 822 0050 064B     		ldr	r3, .L120+12
 823 0052 03FB00F0 		mul	r0, r3, r0
 824 0056 00E0     		b	.L113
 825              	.L118:
 826 0058 0348     		ldr	r0, .L120+8
 827              	.L113:
 828 005a 06B0     		add	sp, sp, #24
 829              		@ sp needed
 830 005c 30BC     		pop	{r4, r5}
 831 005e 7047     		bx	lr
 832              	.L121:
 833              		.align	2
 834              	.L120:
 835 0060 00000000 		.word	.LANCHOR0
 836 0064 00100240 		.word	1073876992
 837 0068 00127A00 		.word	8000000
 838 006c 00093D00 		.word	4000000
 840              		.section	.text.HAL_RCC_ClockConfig,"ax",%progbits
 841              		.align	2
 842              		.global	HAL_RCC_ClockConfig
 843              		.thumb
 844              		.thumb_func
 846              	HAL_RCC_ClockConfig:
 847              		@ args = 0, pretend = 0, frame = 0
 848              		@ frame_needed = 0, uses_anonymous_args = 0
 849 0000 0028     		cmp	r0, #0
 850 0002 00F09D80 		beq	.L137
 851 0006 70B5     		push	{r4, r5, r6, lr}
 852 0008 0446     		mov	r4, r0
 853 000a 544B     		ldr	r3, .L145
 854 000c 1B68     		ldr	r3, [r3]
 855 000e 03F00703 		and	r3, r3, #7
 856 0012 8B42     		cmp	r3, r1
 857 0014 0BD2     		bcs	.L124
 858 0016 514A     		ldr	r2, .L145
 859 0018 1368     		ldr	r3, [r2]
 860 001a 23F00703 		bic	r3, r3, #7
 861 001e 0B43     		orrs	r3, r3, r1
 862 0020 1360     		str	r3, [r2]
 863 0022 1368     		ldr	r3, [r2]
 864 0024 03F00703 		and	r3, r3, #7
 865 0028 8B42     		cmp	r3, r1
 866 002a 40F08B80 		bne	.L138
 867              	.L124:
 868 002e 2368     		ldr	r3, [r4]
 869 0030 13F0020F 		tst	r3, #2
 870 0034 17D0     		beq	.L125
ARM GAS  /tmp/ccpccbuu.s 			page 16


 871 0036 13F0040F 		tst	r3, #4
 872 003a 04D0     		beq	.L126
 873 003c 484A     		ldr	r2, .L145+4
 874 003e 5368     		ldr	r3, [r2, #4]
 875 0040 43F4E063 		orr	r3, r3, #1792
 876 0044 5360     		str	r3, [r2, #4]
 877              	.L126:
 878 0046 2368     		ldr	r3, [r4]
 879 0048 13F0080F 		tst	r3, #8
 880 004c 04D0     		beq	.L127
 881 004e 444A     		ldr	r2, .L145+4
 882 0050 5368     		ldr	r3, [r2, #4]
 883 0052 43F46053 		orr	r3, r3, #14336
 884 0056 5360     		str	r3, [r2, #4]
 885              	.L127:
 886 0058 4148     		ldr	r0, .L145+4
 887 005a 4368     		ldr	r3, [r0, #4]
 888 005c 23F0F002 		bic	r2, r3, #240
 889 0060 A368     		ldr	r3, [r4, #8]
 890 0062 1343     		orrs	r3, r3, r2
 891 0064 4360     		str	r3, [r0, #4]
 892              	.L125:
 893 0066 0D46     		mov	r5, r1
 894 0068 2368     		ldr	r3, [r4]
 895 006a 13F0010F 		tst	r3, #1
 896 006e 2ED0     		beq	.L128
 897 0070 6268     		ldr	r2, [r4, #4]
 898 0072 012A     		cmp	r2, #1
 899 0074 05D1     		bne	.L129
 900 0076 3A4B     		ldr	r3, .L145+4
 901 0078 1B68     		ldr	r3, [r3]
 902 007a 13F4003F 		tst	r3, #131072
 903 007e 0DD1     		bne	.L130
 904 0080 62E0     		b	.L139
 905              	.L129:
 906 0082 022A     		cmp	r2, #2
 907 0084 05D1     		bne	.L131
 908 0086 364B     		ldr	r3, .L145+4
 909 0088 1B68     		ldr	r3, [r3]
 910 008a 13F0007F 		tst	r3, #33554432
 911 008e 05D1     		bne	.L130
 912 0090 5CE0     		b	.L140
 913              	.L131:
 914 0092 334B     		ldr	r3, .L145+4
 915 0094 1B68     		ldr	r3, [r3]
 916 0096 13F0020F 		tst	r3, #2
 917 009a 59D0     		beq	.L141
 918              	.L130:
 919 009c 3049     		ldr	r1, .L145+4
 920 009e 4B68     		ldr	r3, [r1, #4]
 921 00a0 23F00303 		bic	r3, r3, #3
 922 00a4 1343     		orrs	r3, r3, r2
 923 00a6 4B60     		str	r3, [r1, #4]
 924 00a8 FFF7FEFF 		bl	HAL_GetTick
 925 00ac 0646     		mov	r6, r0
 926 00ae 06E0     		b	.L132
 927              	.L133:
ARM GAS  /tmp/ccpccbuu.s 			page 17


 928 00b0 FFF7FEFF 		bl	HAL_GetTick
 929 00b4 801B     		subs	r0, r0, r6
 930 00b6 41F28833 		movw	r3, #5000
 931 00ba 9842     		cmp	r0, r3
 932 00bc 4AD8     		bhi	.L142
 933              	.L132:
 934 00be 284B     		ldr	r3, .L145+4
 935 00c0 5B68     		ldr	r3, [r3, #4]
 936 00c2 03F00C03 		and	r3, r3, #12
 937 00c6 6268     		ldr	r2, [r4, #4]
 938 00c8 B3EB820F 		cmp	r3, r2, lsl #2
 939 00cc F0D1     		bne	.L133
 940              	.L128:
 941 00ce 234B     		ldr	r3, .L145
 942 00d0 1B68     		ldr	r3, [r3]
 943 00d2 03F00703 		and	r3, r3, #7
 944 00d6 AB42     		cmp	r3, r5
 945 00d8 0AD9     		bls	.L134
 946 00da 204A     		ldr	r2, .L145
 947 00dc 1368     		ldr	r3, [r2]
 948 00de 23F00703 		bic	r3, r3, #7
 949 00e2 2B43     		orrs	r3, r3, r5
 950 00e4 1360     		str	r3, [r2]
 951 00e6 1368     		ldr	r3, [r2]
 952 00e8 03F00703 		and	r3, r3, #7
 953 00ec AB42     		cmp	r3, r5
 954 00ee 33D1     		bne	.L143
 955              	.L134:
 956 00f0 2368     		ldr	r3, [r4]
 957 00f2 13F0040F 		tst	r3, #4
 958 00f6 06D0     		beq	.L135
 959 00f8 1949     		ldr	r1, .L145+4
 960 00fa 4B68     		ldr	r3, [r1, #4]
 961 00fc 23F4E062 		bic	r2, r3, #1792
 962 0100 E368     		ldr	r3, [r4, #12]
 963 0102 1343     		orrs	r3, r3, r2
 964 0104 4B60     		str	r3, [r1, #4]
 965              	.L135:
 966 0106 2368     		ldr	r3, [r4]
 967 0108 13F0080F 		tst	r3, #8
 968 010c 07D0     		beq	.L136
 969 010e 144A     		ldr	r2, .L145+4
 970 0110 5368     		ldr	r3, [r2, #4]
 971 0112 23F46053 		bic	r3, r3, #14336
 972 0116 2169     		ldr	r1, [r4, #16]
 973 0118 43EAC103 		orr	r3, r3, r1, lsl #3
 974 011c 5360     		str	r3, [r2, #4]
 975              	.L136:
 976 011e FFF7FEFF 		bl	HAL_RCC_GetSysClockFreq
 977 0122 0F4B     		ldr	r3, .L145+4
 978 0124 5B68     		ldr	r3, [r3, #4]
 979 0126 C3F30313 		ubfx	r3, r3, #4, #4
 980 012a 0E4A     		ldr	r2, .L145+8
 981 012c D35C     		ldrb	r3, [r2, r3]	@ zero_extendqisi2
 982 012e D840     		lsrs	r0, r0, r3
 983 0130 0D4B     		ldr	r3, .L145+12
 984 0132 1860     		str	r0, [r3]
ARM GAS  /tmp/ccpccbuu.s 			page 18


 985 0134 0D4B     		ldr	r3, .L145+16
 986 0136 1868     		ldr	r0, [r3]
 987 0138 FFF7FEFF 		bl	HAL_InitTick
 988 013c 0020     		movs	r0, #0
 989 013e 70BD     		pop	{r4, r5, r6, pc}
 990              	.L137:
 991 0140 0120     		movs	r0, #1
 992 0142 7047     		bx	lr
 993              	.L138:
 994 0144 0120     		movs	r0, #1
 995 0146 70BD     		pop	{r4, r5, r6, pc}
 996              	.L139:
 997 0148 0120     		movs	r0, #1
 998 014a 70BD     		pop	{r4, r5, r6, pc}
 999              	.L140:
 1000 014c 0120     		movs	r0, #1
 1001 014e 70BD     		pop	{r4, r5, r6, pc}
 1002              	.L141:
 1003 0150 0120     		movs	r0, #1
 1004 0152 70BD     		pop	{r4, r5, r6, pc}
 1005              	.L142:
 1006 0154 0320     		movs	r0, #3
 1007 0156 70BD     		pop	{r4, r5, r6, pc}
 1008              	.L143:
 1009 0158 0120     		movs	r0, #1
 1010 015a 70BD     		pop	{r4, r5, r6, pc}
 1011              	.L146:
 1012              		.align	2
 1013              	.L145:
 1014 015c 00200240 		.word	1073881088
 1015 0160 00100240 		.word	1073876992
 1016 0164 00000000 		.word	AHBPrescTable
 1017 0168 00000000 		.word	SystemCoreClock
 1018 016c 00000000 		.word	uwTickPrio
 1020              		.section	.text.HAL_RCC_GetHCLKFreq,"ax",%progbits
 1021              		.align	2
 1022              		.global	HAL_RCC_GetHCLKFreq
 1023              		.thumb
 1024              		.thumb_func
 1026              	HAL_RCC_GetHCLKFreq:
 1027              		@ args = 0, pretend = 0, frame = 0
 1028              		@ frame_needed = 0, uses_anonymous_args = 0
 1029              		@ link register save eliminated.
 1030 0000 014B     		ldr	r3, .L148
 1031 0002 1868     		ldr	r0, [r3]
 1032 0004 7047     		bx	lr
 1033              	.L149:
 1034 0006 00BF     		.align	2
 1035              	.L148:
 1036 0008 00000000 		.word	SystemCoreClock
 1038              		.section	.text.HAL_RCC_GetPCLK1Freq,"ax",%progbits
 1039              		.align	2
 1040              		.global	HAL_RCC_GetPCLK1Freq
 1041              		.thumb
 1042              		.thumb_func
 1044              	HAL_RCC_GetPCLK1Freq:
 1045              		@ args = 0, pretend = 0, frame = 0
ARM GAS  /tmp/ccpccbuu.s 			page 19


 1046              		@ frame_needed = 0, uses_anonymous_args = 0
 1047 0000 08B5     		push	{r3, lr}
 1048 0002 FFF7FEFF 		bl	HAL_RCC_GetHCLKFreq
 1049 0006 044B     		ldr	r3, .L152
 1050 0008 5B68     		ldr	r3, [r3, #4]
 1051 000a C3F30223 		ubfx	r3, r3, #8, #3
 1052 000e 034A     		ldr	r2, .L152+4
 1053 0010 D35C     		ldrb	r3, [r2, r3]	@ zero_extendqisi2
 1054 0012 D840     		lsrs	r0, r0, r3
 1055 0014 08BD     		pop	{r3, pc}
 1056              	.L153:
 1057 0016 00BF     		.align	2
 1058              	.L152:
 1059 0018 00100240 		.word	1073876992
 1060 001c 00000000 		.word	APBPrescTable
 1062              		.section	.text.HAL_RCC_GetPCLK2Freq,"ax",%progbits
 1063              		.align	2
 1064              		.global	HAL_RCC_GetPCLK2Freq
 1065              		.thumb
 1066              		.thumb_func
 1068              	HAL_RCC_GetPCLK2Freq:
 1069              		@ args = 0, pretend = 0, frame = 0
 1070              		@ frame_needed = 0, uses_anonymous_args = 0
 1071 0000 08B5     		push	{r3, lr}
 1072 0002 FFF7FEFF 		bl	HAL_RCC_GetHCLKFreq
 1073 0006 044B     		ldr	r3, .L156
 1074 0008 5B68     		ldr	r3, [r3, #4]
 1075 000a C3F3C223 		ubfx	r3, r3, #11, #3
 1076 000e 034A     		ldr	r2, .L156+4
 1077 0010 D35C     		ldrb	r3, [r2, r3]	@ zero_extendqisi2
 1078 0012 D840     		lsrs	r0, r0, r3
 1079 0014 08BD     		pop	{r3, pc}
 1080              	.L157:
 1081 0016 00BF     		.align	2
 1082              	.L156:
 1083 0018 00100240 		.word	1073876992
 1084 001c 00000000 		.word	APBPrescTable
 1086              		.section	.text.HAL_RCC_GetOscConfig,"ax",%progbits
 1087              		.align	2
 1088              		.global	HAL_RCC_GetOscConfig
 1089              		.thumb
 1090              		.thumb_func
 1092              	HAL_RCC_GetOscConfig:
 1093              		@ args = 0, pretend = 0, frame = 0
 1094              		@ frame_needed = 0, uses_anonymous_args = 0
 1095              		@ link register save eliminated.
 1096 0000 0F23     		movs	r3, #15
 1097 0002 0360     		str	r3, [r0]
 1098 0004 2A4B     		ldr	r3, .L171
 1099 0006 1B68     		ldr	r3, [r3]
 1100 0008 13F4802F 		tst	r3, #262144
 1101 000c 03D0     		beq	.L159
 1102 000e 4FF4A023 		mov	r3, #327680
 1103 0012 4360     		str	r3, [r0, #4]
 1104 0014 0AE0     		b	.L160
 1105              	.L159:
 1106 0016 264B     		ldr	r3, .L171
ARM GAS  /tmp/ccpccbuu.s 			page 20


 1107 0018 1B68     		ldr	r3, [r3]
 1108 001a 13F4803F 		tst	r3, #65536
 1109 001e 03D0     		beq	.L161
 1110 0020 4FF48033 		mov	r3, #65536
 1111 0024 4360     		str	r3, [r0, #4]
 1112 0026 01E0     		b	.L160
 1113              	.L161:
 1114 0028 0023     		movs	r3, #0
 1115 002a 4360     		str	r3, [r0, #4]
 1116              	.L160:
 1117 002c 204A     		ldr	r2, .L171
 1118 002e 5368     		ldr	r3, [r2, #4]
 1119 0030 03F40033 		and	r3, r3, #131072
 1120 0034 8360     		str	r3, [r0, #8]
 1121 0036 1368     		ldr	r3, [r2]
 1122 0038 13F0010F 		tst	r3, #1
 1123 003c 02D0     		beq	.L162
 1124 003e 0123     		movs	r3, #1
 1125 0040 0361     		str	r3, [r0, #16]
 1126 0042 01E0     		b	.L163
 1127              	.L162:
 1128 0044 0023     		movs	r3, #0
 1129 0046 0361     		str	r3, [r0, #16]
 1130              	.L163:
 1131 0048 194A     		ldr	r2, .L171
 1132 004a 1368     		ldr	r3, [r2]
 1133 004c C3F3C403 		ubfx	r3, r3, #3, #5
 1134 0050 4361     		str	r3, [r0, #20]
 1135 0052 136A     		ldr	r3, [r2, #32]
 1136 0054 13F0040F 		tst	r3, #4
 1137 0058 02D0     		beq	.L164
 1138 005a 0523     		movs	r3, #5
 1139 005c C360     		str	r3, [r0, #12]
 1140 005e 09E0     		b	.L165
 1141              	.L164:
 1142 0060 134B     		ldr	r3, .L171
 1143 0062 1B6A     		ldr	r3, [r3, #32]
 1144 0064 13F0010F 		tst	r3, #1
 1145 0068 02D0     		beq	.L166
 1146 006a 0123     		movs	r3, #1
 1147 006c C360     		str	r3, [r0, #12]
 1148 006e 01E0     		b	.L165
 1149              	.L166:
 1150 0070 0023     		movs	r3, #0
 1151 0072 C360     		str	r3, [r0, #12]
 1152              	.L165:
 1153 0074 0E4B     		ldr	r3, .L171
 1154 0076 5B6A     		ldr	r3, [r3, #36]
 1155 0078 13F0010F 		tst	r3, #1
 1156 007c 02D0     		beq	.L167
 1157 007e 0123     		movs	r3, #1
 1158 0080 8361     		str	r3, [r0, #24]
 1159 0082 01E0     		b	.L168
 1160              	.L167:
 1161 0084 0023     		movs	r3, #0
 1162 0086 8361     		str	r3, [r0, #24]
 1163              	.L168:
ARM GAS  /tmp/ccpccbuu.s 			page 21


 1164 0088 094B     		ldr	r3, .L171
 1165 008a 1B68     		ldr	r3, [r3]
 1166 008c 13F0807F 		tst	r3, #16777216
 1167 0090 02D0     		beq	.L169
 1168 0092 0223     		movs	r3, #2
 1169 0094 C361     		str	r3, [r0, #28]
 1170 0096 01E0     		b	.L170
 1171              	.L169:
 1172 0098 0123     		movs	r3, #1
 1173 009a C361     		str	r3, [r0, #28]
 1174              	.L170:
 1175 009c 044A     		ldr	r2, .L171
 1176 009e 5368     		ldr	r3, [r2, #4]
 1177 00a0 03F48033 		and	r3, r3, #65536
 1178 00a4 0362     		str	r3, [r0, #32]
 1179 00a6 5368     		ldr	r3, [r2, #4]
 1180 00a8 03F47013 		and	r3, r3, #3932160
 1181 00ac 4362     		str	r3, [r0, #36]
 1182 00ae 7047     		bx	lr
 1183              	.L172:
 1184              		.align	2
 1185              	.L171:
 1186 00b0 00100240 		.word	1073876992
 1188              		.section	.text.HAL_RCC_GetClockConfig,"ax",%progbits
 1189              		.align	2
 1190              		.global	HAL_RCC_GetClockConfig
 1191              		.thumb
 1192              		.thumb_func
 1194              	HAL_RCC_GetClockConfig:
 1195              		@ args = 0, pretend = 0, frame = 0
 1196              		@ frame_needed = 0, uses_anonymous_args = 0
 1197              		@ link register save eliminated.
 1198 0000 0F23     		movs	r3, #15
 1199 0002 0360     		str	r3, [r0]
 1200 0004 0B4B     		ldr	r3, .L174
 1201 0006 5A68     		ldr	r2, [r3, #4]
 1202 0008 02F00302 		and	r2, r2, #3
 1203 000c 4260     		str	r2, [r0, #4]
 1204 000e 5A68     		ldr	r2, [r3, #4]
 1205 0010 02F0F002 		and	r2, r2, #240
 1206 0014 8260     		str	r2, [r0, #8]
 1207 0016 5A68     		ldr	r2, [r3, #4]
 1208 0018 02F4E062 		and	r2, r2, #1792
 1209 001c C260     		str	r2, [r0, #12]
 1210 001e 5B68     		ldr	r3, [r3, #4]
 1211 0020 03F46053 		and	r3, r3, #14336
 1212 0024 DB08     		lsrs	r3, r3, #3
 1213 0026 0361     		str	r3, [r0, #16]
 1214 0028 034B     		ldr	r3, .L174+4
 1215 002a 1B68     		ldr	r3, [r3]
 1216 002c 03F00703 		and	r3, r3, #7
 1217 0030 0B60     		str	r3, [r1]
 1218 0032 7047     		bx	lr
 1219              	.L175:
 1220              		.align	2
 1221              	.L174:
 1222 0034 00100240 		.word	1073876992
ARM GAS  /tmp/ccpccbuu.s 			page 22


 1223 0038 00200240 		.word	1073881088
 1225              		.section	.text.HAL_RCC_CSSCallback,"ax",%progbits
 1226              		.align	2
 1227              		.weak	HAL_RCC_CSSCallback
 1228              		.thumb
 1229              		.thumb_func
 1231              	HAL_RCC_CSSCallback:
 1232              		@ args = 0, pretend = 0, frame = 0
 1233              		@ frame_needed = 0, uses_anonymous_args = 0
 1234              		@ link register save eliminated.
 1235 0000 7047     		bx	lr
 1237 0002 00BF     		.section	.text.HAL_RCC_NMI_IRQHandler,"ax",%progbits
 1238              		.align	2
 1239              		.global	HAL_RCC_NMI_IRQHandler
 1240              		.thumb
 1241              		.thumb_func
 1243              	HAL_RCC_NMI_IRQHandler:
 1244              		@ args = 0, pretend = 0, frame = 0
 1245              		@ frame_needed = 0, uses_anonymous_args = 0
 1246 0000 08B5     		push	{r3, lr}
 1247 0002 054B     		ldr	r3, .L180
 1248 0004 9B68     		ldr	r3, [r3, #8]
 1249 0006 13F0800F 		tst	r3, #128
 1250 000a 04D0     		beq	.L177
 1251 000c FFF7FEFF 		bl	HAL_RCC_CSSCallback
 1252 0010 8022     		movs	r2, #128
 1253 0012 024B     		ldr	r3, .L180+4
 1254 0014 1A70     		strb	r2, [r3]
 1255              	.L177:
 1256 0016 08BD     		pop	{r3, pc}
 1257              	.L181:
 1258              		.align	2
 1259              	.L180:
 1260 0018 00100240 		.word	1073876992
 1261 001c 0A100240 		.word	1073877002
 1263              		.section	.rodata
 1264              		.align	2
 1265              		.set	.LANCHOR0,. + 0
 1266              	.LC0:
 1267 0000 02       		.byte	2
 1268 0001 03       		.byte	3
 1269 0002 04       		.byte	4
 1270 0003 05       		.byte	5
 1271 0004 06       		.byte	6
 1272 0005 07       		.byte	7
 1273 0006 08       		.byte	8
 1274 0007 09       		.byte	9
 1275 0008 0A       		.byte	10
 1276 0009 0B       		.byte	11
 1277 000a 0C       		.byte	12
 1278 000b 0D       		.byte	13
 1279 000c 0E       		.byte	14
 1280 000d 0F       		.byte	15
 1281 000e 10       		.byte	16
 1282 000f 10       		.byte	16
 1283              	.LC1:
 1284 0010 01       		.byte	1
ARM GAS  /tmp/ccpccbuu.s 			page 23


 1285 0011 02       		.byte	2
 1286              		.ident	"GCC: (15:4.9.3+svn231177-1) 4.9.3 20150529 (prerelease)"
ARM GAS  /tmp/ccpccbuu.s 			page 24

