ARM GAS  /tmp/ccLux9B2.s 			page 1


   1              		.cpu cortex-m3
   2              		.eabi_attribute 20, 1	@ Tag_ABI_FP_denormal
   3              		.eabi_attribute 21, 1	@ Tag_ABI_FP_exceptions
   4              		.eabi_attribute 23, 3	@ Tag_ABI_FP_number_model
   5              		.eabi_attribute 24, 1	@ Tag_ABI_align8_needed
   6              		.eabi_attribute 25, 1	@ Tag_ABI_align8_preserved
   7              		.eabi_attribute 26, 1	@ Tag_ABI_enum_size
   8              		.eabi_attribute 30, 4	@ Tag_ABI_optimization_goals
   9              		.eabi_attribute 34, 1	@ Tag_CPU_unaligned_access
  10              		.eabi_attribute 18, 4	@ Tag_ABI_PCS_wchar_t
  11              		.file	"stm32f1xx_hal_msp_template.c"
  12              	@ GNU C11 (15:6.3.1+svn253039-1build1) version 6.3.1 20170620 (arm-none-eabi)
  13              	@	compiled by GNU C version 7.2.0, GMP version 6.1.2, MPFR version 4.0.1-rc1, MPC version 1.1.0, is
  14              	@ warning: MPFR header version 4.0.1-rc1 differs from library version 4.0.1.
  15              	@ GGC heuristics: --param ggc-min-expand=100 --param ggc-min-heapsize=131072
  16              	@ options passed:  -I ./inc -I ./inc/Legacy -I ../cmsisstm32f1xx/inc
  17              	@ -I ../cmsiscore/inc -imultilib thumb/v7-m -D__USES_INITFINI__
  18              	@ -D STM32F103x6 -D RUN_FROM_FLASH=1 src/stm32f1xx_hal_msp_template.c
  19              	@ -mcpu=cortex-m3 -mthumb -auxbase-strip bin/stm32f1xx_hal_msp_template.o
  20              	@ -g -gdwarf-2 -Os -Wall -fomit-frame-pointer -fverbose-asm
  21              	@ options enabled:  -faggressive-loop-optimizations -falign-jumps
  22              	@ -falign-labels -falign-loops -fauto-inc-dec -fbranch-count-reg
  23              	@ -fcaller-saves -fchkp-check-incomplete-type -fchkp-check-read
  24              	@ -fchkp-check-write -fchkp-instrument-calls -fchkp-narrow-bounds
  25              	@ -fchkp-optimize -fchkp-store-bounds -fchkp-use-static-bounds
  26              	@ -fchkp-use-static-const-bounds -fchkp-use-wrappers
  27              	@ -fcombine-stack-adjustments -fcommon -fcompare-elim -fcprop-registers
  28              	@ -fcrossjumping -fcse-follow-jumps -fdefer-pop
  29              	@ -fdelete-null-pointer-checks -fdevirtualize -fdevirtualize-speculatively
  30              	@ -fdwarf2-cfi-asm -fearly-inlining -feliminate-unused-debug-types
  31              	@ -fexpensive-optimizations -fforward-propagate -ffunction-cse -fgcse
  32              	@ -fgcse-lm -fgnu-runtime -fgnu-unique -fguess-branch-probability
  33              	@ -fhoist-adjacent-loads -fident -fif-conversion -fif-conversion2
  34              	@ -findirect-inlining -finline -finline-atomics -finline-functions
  35              	@ -finline-functions-called-once -finline-small-functions -fipa-cp
  36              	@ -fipa-cp-alignment -fipa-icf -fipa-icf-functions -fipa-icf-variables
  37              	@ -fipa-profile -fipa-pure-const -fipa-ra -fipa-reference -fipa-sra
  38              	@ -fira-hoist-pressure -fira-share-save-slots -fira-share-spill-slots
  39              	@ -fisolate-erroneous-paths-dereference -fivopts -fkeep-static-consts
  40              	@ -fleading-underscore -flifetime-dse -flra-remat -flto-odr-type-merging
  41              	@ -fmath-errno -fmerge-constants -fmerge-debug-strings
  42              	@ -fmove-loop-invariants -fomit-frame-pointer -foptimize-sibling-calls
  43              	@ -fpartial-inlining -fpeephole -fpeephole2 -fplt -fprefetch-loop-arrays
  44              	@ -freg-struct-return -freorder-blocks -freorder-functions
  45              	@ -frerun-cse-after-loop -fsched-critical-path-heuristic
  46              	@ -fsched-dep-count-heuristic -fsched-group-heuristic -fsched-interblock
  47              	@ -fsched-last-insn-heuristic -fsched-pressure -fsched-rank-heuristic
  48              	@ -fsched-spec -fsched-spec-insn-heuristic -fsched-stalled-insns-dep
  49              	@ -fschedule-insns2 -fsection-anchors -fsemantic-interposition
  50              	@ -fshow-column -fsigned-zeros -fsplit-ivs-in-unroller -fsplit-wide-types
  51              	@ -fssa-backprop -fssa-phiopt -fstdarg-opt -fstrict-aliasing
  52              	@ -fstrict-overflow -fstrict-volatile-bitfields -fsync-libcalls
  53              	@ -fthread-jumps -ftoplevel-reorder -ftrapping-math -ftree-bit-ccp
  54              	@ -ftree-builtin-call-dce -ftree-ccp -ftree-ch -ftree-coalesce-vars
  55              	@ -ftree-copy-prop -ftree-cselim -ftree-dce -ftree-dominator-opts
  56              	@ -ftree-dse -ftree-forwprop -ftree-fre -ftree-loop-if-convert
  57              	@ -ftree-loop-im -ftree-loop-ivcanon -ftree-loop-optimize
ARM GAS  /tmp/ccLux9B2.s 			page 2


  58              	@ -ftree-parallelize-loops= -ftree-phiprop -ftree-pre -ftree-pta
  59              	@ -ftree-reassoc -ftree-scev-cprop -ftree-sink -ftree-slsr -ftree-sra
  60              	@ -ftree-switch-conversion -ftree-tail-merge -ftree-ter -ftree-vrp
  61              	@ -funit-at-a-time -fvar-tracking -fvar-tracking-assignments -fverbose-asm
  62              	@ -fzero-initialized-in-bss -masm-syntax-unified -mfix-cortex-m3-ldrd
  63              	@ -mlittle-endian -mpic-data-is-text-relative -msched-prolog -mthumb
  64              	@ -munaligned-access -mvectorize-with-neon-quad
  65              	
  66              		.text
  67              	.Ltext0:
  68              		.cfi_sections	.debug_frame
  69              		.align	1
  70              		.global	HAL_MspInit
  71              		.syntax unified
  72              		.thumb
  73              		.thumb_func
  74              		.fpu softvfp
  75              		.type	HAL_MspInit, %function
  76              	HAL_MspInit:
  77              	.LFB74:
  78              		.cfi_startproc
  79              		@ args = 0, pretend = 0, frame = 0
  80              		@ frame_needed = 0, uses_anonymous_args = 0
  81              		@ link register save eliminated.
  82 0000 7047     		bx	lr	@
  83              		.cfi_endproc
  84              	.LFE74:
  85              		.size	HAL_MspInit, .-HAL_MspInit
  86              		.align	1
  87              		.global	HAL_MspDeInit
  88              		.syntax unified
  89              		.thumb
  90              		.thumb_func
  91              		.fpu softvfp
  92              		.type	HAL_MspDeInit, %function
  93              	HAL_MspDeInit:
  94              	.LFB72:
  95              		.cfi_startproc
  96              		@ args = 0, pretend = 0, frame = 0
  97              		@ frame_needed = 0, uses_anonymous_args = 0
  98              		@ link register save eliminated.
  99 0002 7047     		bx	lr	@
 100              		.cfi_endproc
 101              	.LFE72:
 102              		.size	HAL_MspDeInit, .-HAL_MspDeInit
 103              		.align	1
 104              		.global	HAL_PPP_MspInit
 105              		.syntax unified
 106              		.thumb
 107              		.thumb_func
 108              		.fpu softvfp
 109              		.type	HAL_PPP_MspInit, %function
 110              	HAL_PPP_MspInit:
 111              	.LFB70:
 112              		.cfi_startproc
 113              		@ args = 0, pretend = 0, frame = 0
 114              		@ frame_needed = 0, uses_anonymous_args = 0
ARM GAS  /tmp/ccLux9B2.s 			page 3


 115              		@ link register save eliminated.
 116 0004 7047     		bx	lr	@
 117              		.cfi_endproc
 118              	.LFE70:
 119              		.size	HAL_PPP_MspInit, .-HAL_PPP_MspInit
 120              		.align	1
 121              		.global	HAL_PPP_MspDeInit
 122              		.syntax unified
 123              		.thumb
 124              		.thumb_func
 125              		.fpu softvfp
 126              		.type	HAL_PPP_MspDeInit, %function
 127              	HAL_PPP_MspDeInit:
 128              	.LFB68:
 129              		.file 1 "src/stm32f1xx_hal_msp_template.c"
   1:src/stm32f1xx_hal_msp_template.c **** /**
   2:src/stm32f1xx_hal_msp_template.c ****   ******************************************************************************
   3:src/stm32f1xx_hal_msp_template.c ****   * @file    stm32f1xx_hal_msp_template.c
   4:src/stm32f1xx_hal_msp_template.c ****   * @author  MCD Application Team
   5:src/stm32f1xx_hal_msp_template.c ****   * @brief   HAL BSP module.
   6:src/stm32f1xx_hal_msp_template.c ****   *          This file template is located in the HAL folder and should be copied
   7:src/stm32f1xx_hal_msp_template.c ****   *          to the user folder.
   8:src/stm32f1xx_hal_msp_template.c ****   ******************************************************************************
   9:src/stm32f1xx_hal_msp_template.c ****   * @attention
  10:src/stm32f1xx_hal_msp_template.c ****   *
  11:src/stm32f1xx_hal_msp_template.c ****   * <h2><center>&copy; Copyright (c) 2016 STMicroelectronics.
  12:src/stm32f1xx_hal_msp_template.c ****   * All rights reserved.</center></h2>
  13:src/stm32f1xx_hal_msp_template.c ****   *
  14:src/stm32f1xx_hal_msp_template.c ****   * This software component is licensed by ST under BSD 3-Clause license,
  15:src/stm32f1xx_hal_msp_template.c ****   * the "License"; You may not use this file except in compliance with the
  16:src/stm32f1xx_hal_msp_template.c ****   * License. You may obtain a copy of the License at:
  17:src/stm32f1xx_hal_msp_template.c ****   *                        opensource.org/licenses/BSD-3-Clause
  18:src/stm32f1xx_hal_msp_template.c ****   *
  19:src/stm32f1xx_hal_msp_template.c ****   ******************************************************************************
  20:src/stm32f1xx_hal_msp_template.c ****   */
  21:src/stm32f1xx_hal_msp_template.c **** 
  22:src/stm32f1xx_hal_msp_template.c **** /* Includes ------------------------------------------------------------------*/
  23:src/stm32f1xx_hal_msp_template.c **** #include "stm32f1xx_hal.h"
  24:src/stm32f1xx_hal_msp_template.c **** 
  25:src/stm32f1xx_hal_msp_template.c **** /** @addtogroup STM32F1xx_HAL_Driver
  26:src/stm32f1xx_hal_msp_template.c ****   * @{
  27:src/stm32f1xx_hal_msp_template.c ****   */
  28:src/stm32f1xx_hal_msp_template.c **** 
  29:src/stm32f1xx_hal_msp_template.c **** /** @defgroup HAL_MSP HAL_MSP
  30:src/stm32f1xx_hal_msp_template.c ****   * @brief HAL MSP module.
  31:src/stm32f1xx_hal_msp_template.c ****   * @{
  32:src/stm32f1xx_hal_msp_template.c ****   */
  33:src/stm32f1xx_hal_msp_template.c **** 
  34:src/stm32f1xx_hal_msp_template.c **** /* Private typedef -----------------------------------------------------------*/
  35:src/stm32f1xx_hal_msp_template.c **** /* Private define ------------------------------------------------------------*/
  36:src/stm32f1xx_hal_msp_template.c **** /* Private macro -------------------------------------------------------------*/
  37:src/stm32f1xx_hal_msp_template.c **** /* Private variables ---------------------------------------------------------*/
  38:src/stm32f1xx_hal_msp_template.c **** /* Private function prototypes -----------------------------------------------*/
  39:src/stm32f1xx_hal_msp_template.c **** /* Private functions ---------------------------------------------------------*/
  40:src/stm32f1xx_hal_msp_template.c **** 
  41:src/stm32f1xx_hal_msp_template.c **** /** @defgroup HAL_MSP_Exported_Functions HAL MSP Exported Functions
  42:src/stm32f1xx_hal_msp_template.c ****   * @{
ARM GAS  /tmp/ccLux9B2.s 			page 4


  43:src/stm32f1xx_hal_msp_template.c ****   */
  44:src/stm32f1xx_hal_msp_template.c **** 
  45:src/stm32f1xx_hal_msp_template.c **** /**
  46:src/stm32f1xx_hal_msp_template.c ****   * @brief  Initializes the Global MSP.
  47:src/stm32f1xx_hal_msp_template.c ****   * @retval None
  48:src/stm32f1xx_hal_msp_template.c ****   */
  49:src/stm32f1xx_hal_msp_template.c **** void HAL_MspInit(void)
  50:src/stm32f1xx_hal_msp_template.c **** {
  51:src/stm32f1xx_hal_msp_template.c **** 
  52:src/stm32f1xx_hal_msp_template.c **** }
  53:src/stm32f1xx_hal_msp_template.c **** 
  54:src/stm32f1xx_hal_msp_template.c **** /**
  55:src/stm32f1xx_hal_msp_template.c ****   * @brief  DeInitializes the Global MSP.
  56:src/stm32f1xx_hal_msp_template.c ****   * @retval None
  57:src/stm32f1xx_hal_msp_template.c ****   */
  58:src/stm32f1xx_hal_msp_template.c **** void HAL_MspDeInit(void)
  59:src/stm32f1xx_hal_msp_template.c **** {
  60:src/stm32f1xx_hal_msp_template.c **** 
  61:src/stm32f1xx_hal_msp_template.c **** }
  62:src/stm32f1xx_hal_msp_template.c **** 
  63:src/stm32f1xx_hal_msp_template.c **** /**
  64:src/stm32f1xx_hal_msp_template.c ****   * @brief  Initializes the PPP MSP.
  65:src/stm32f1xx_hal_msp_template.c ****   * @retval None
  66:src/stm32f1xx_hal_msp_template.c ****   */
  67:src/stm32f1xx_hal_msp_template.c **** void HAL_PPP_MspInit(void)
  68:src/stm32f1xx_hal_msp_template.c **** {
  69:src/stm32f1xx_hal_msp_template.c **** 
  70:src/stm32f1xx_hal_msp_template.c **** }
  71:src/stm32f1xx_hal_msp_template.c **** 
  72:src/stm32f1xx_hal_msp_template.c **** /**
  73:src/stm32f1xx_hal_msp_template.c ****   * @brief  DeInitializes the PPP MSP.
  74:src/stm32f1xx_hal_msp_template.c ****   * @retval None
  75:src/stm32f1xx_hal_msp_template.c ****   */
  76:src/stm32f1xx_hal_msp_template.c **** void HAL_PPP_MspDeInit(void)
  77:src/stm32f1xx_hal_msp_template.c **** {
 130              		.loc 1 77 0
 131              		.cfi_startproc
 132              		@ args = 0, pretend = 0, frame = 0
 133              		@ frame_needed = 0, uses_anonymous_args = 0
 134              		@ link register save eliminated.
 135 0006 7047     		bx	lr	@
 136              		.cfi_endproc
 137              	.LFE68:
 138              		.size	HAL_PPP_MspDeInit, .-HAL_PPP_MspDeInit
 139              	.Letext0:
 140              		.file 2 "/usr/include/newlib/machine/_default_types.h"
 141              		.file 3 "/usr/include/newlib/sys/_stdint.h"
 142              		.file 4 "../cmsiscore/inc/core_cm3.h"
 143              		.file 5 "../cmsisstm32f1xx/inc/system_stm32f1xx.h"
 144              		.file 6 "./inc/stm32f1xx_hal.h"