ARM GAS  /tmp/ccMfNiPt.s 			page 1


   1              		.syntax unified
   2              		.cpu cortex-m3
   3              		.fpu softvfp
   4              		.eabi_attribute 20, 1
   5              		.eabi_attribute 21, 1
   6              		.eabi_attribute 23, 3
   7              		.eabi_attribute 24, 1
   8              		.eabi_attribute 25, 1
   9              		.eabi_attribute 26, 1
  10              		.eabi_attribute 30, 1
  11              		.eabi_attribute 34, 1
  12              		.eabi_attribute 18, 4
  13              		.thumb
  14              		.file	"stm32f1xx_hal_spi.c"
  15              		.section	.text.SPI_AbortRx_ISR,"ax",%progbits
  16              		.align	2
  17              		.thumb
  18              		.thumb_func
  20              	SPI_AbortRx_ISR:
  21              		@ args = 0, pretend = 0, frame = 8
  22              		@ frame_needed = 0, uses_anonymous_args = 0
  23              		@ link register save eliminated.
  24 0000 82B0     		sub	sp, sp, #8
  25 0002 154B     		ldr	r3, .L6
  26 0004 1B68     		ldr	r3, [r3]
  27 0006 154A     		ldr	r2, .L6+4
  28 0008 A2FB0323 		umull	r2, r3, r2, r3
  29 000c 5B0A     		lsrs	r3, r3, #9
  30 000e 6422     		movs	r2, #100
  31 0010 02FB03F3 		mul	r3, r2, r3
  32 0014 0193     		str	r3, [sp, #4]
  33              	.L4:
  34 0016 019B     		ldr	r3, [sp, #4]
  35 0018 23B9     		cbnz	r3, .L2
  36 001a 436D     		ldr	r3, [r0, #84]
  37 001c 43F04003 		orr	r3, r3, #64
  38 0020 4365     		str	r3, [r0, #84]
  39 0022 07E0     		b	.L3
  40              	.L2:
  41 0024 019B     		ldr	r3, [sp, #4]
  42 0026 013B     		subs	r3, r3, #1
  43 0028 0193     		str	r3, [sp, #4]
  44 002a 0368     		ldr	r3, [r0]
  45 002c 9B68     		ldr	r3, [r3, #8]
  46 002e 13F0020F 		tst	r3, #2
  47 0032 F0D0     		beq	.L4
  48              	.L3:
  49 0034 0268     		ldr	r2, [r0]
  50 0036 1368     		ldr	r3, [r2]
  51 0038 23F04003 		bic	r3, r3, #64
  52 003c 1360     		str	r3, [r2]
  53 003e 0268     		ldr	r2, [r0]
  54 0040 5368     		ldr	r3, [r2, #4]
  55 0042 23F0E003 		bic	r3, r3, #224
  56 0046 5360     		str	r3, [r2, #4]
  57 0048 0368     		ldr	r3, [r0]
  58 004a DB68     		ldr	r3, [r3, #12]
ARM GAS  /tmp/ccMfNiPt.s 			page 2


  59 004c 0723     		movs	r3, #7
  60 004e 80F85130 		strb	r3, [r0, #81]
  61 0052 02B0     		add	sp, sp, #8
  62              		@ sp needed
  63 0054 7047     		bx	lr
  64              	.L7:
  65 0056 00BF     		.align	2
  66              	.L6:
  67 0058 00000000 		.word	SystemCoreClock
  68 005c F1197605 		.word	91625969
  70              		.section	.text.SPI_AbortTx_ISR,"ax",%progbits
  71              		.align	2
  72              		.thumb
  73              		.thumb_func
  75              	SPI_AbortTx_ISR:
  76              		@ args = 0, pretend = 0, frame = 0
  77              		@ frame_needed = 0, uses_anonymous_args = 0
  78              		@ link register save eliminated.
  79 0000 0268     		ldr	r2, [r0]
  80 0002 5368     		ldr	r3, [r2, #4]
  81 0004 23F08003 		bic	r3, r3, #128
  82 0008 5360     		str	r3, [r2, #4]
  83 000a 0268     		ldr	r2, [r0]
  84 000c 1368     		ldr	r3, [r2]
  85 000e 23F04003 		bic	r3, r3, #64
  86 0012 1360     		str	r3, [r2]
  87 0014 0723     		movs	r3, #7
  88 0016 80F85130 		strb	r3, [r0, #81]
  89 001a 7047     		bx	lr
  91              		.section	.text.SPI_WaitFlagStateUntilTimeout,"ax",%progbits
  92              		.align	2
  93              		.thumb
  94              		.thumb_func
  96              	SPI_WaitFlagStateUntilTimeout:
  97              		@ args = 4, pretend = 0, frame = 0
  98              		@ frame_needed = 0, uses_anonymous_args = 0
  99 0000 F8B5     		push	{r3, r4, r5, r6, r7, lr}
 100 0002 0646     		mov	r6, r0
 101 0004 0C46     		mov	r4, r1
 102 0006 1746     		mov	r7, r2
 103 0008 1D46     		mov	r5, r3
 104 000a 34E0     		b	.L11
 105              	.L17:
 106 000c B5F1FF3F 		cmp	r5, #-1
 107 0010 31D0     		beq	.L11
 108 0012 FFF7FEFF 		bl	HAL_GetTick
 109 0016 069B     		ldr	r3, [sp, #24]
 110 0018 C01A     		subs	r0, r0, r3
 111 001a A842     		cmp	r0, r5
 112 001c 00D2     		bcs	.L12
 113 001e 55BB     		cbnz	r5, .L11
 114              	.L12:
 115 0020 3268     		ldr	r2, [r6]
 116 0022 5368     		ldr	r3, [r2, #4]
 117 0024 23F0E003 		bic	r3, r3, #224
 118 0028 5360     		str	r3, [r2, #4]
 119 002a 7368     		ldr	r3, [r6, #4]
ARM GAS  /tmp/ccMfNiPt.s 			page 3


 120 002c B3F5827F 		cmp	r3, #260
 121 0030 0BD1     		bne	.L13
 122 0032 B368     		ldr	r3, [r6, #8]
 123 0034 B3F5004F 		cmp	r3, #32768
 124 0038 02D0     		beq	.L14
 125 003a B3F5806F 		cmp	r3, #1024
 126 003e 04D1     		bne	.L13
 127              	.L14:
 128 0040 3268     		ldr	r2, [r6]
 129 0042 1368     		ldr	r3, [r2]
 130 0044 23F04003 		bic	r3, r3, #64
 131 0048 1360     		str	r3, [r2]
 132              	.L13:
 133 004a B36A     		ldr	r3, [r6, #40]
 134 004c B3F5005F 		cmp	r3, #8192
 135 0050 09D1     		bne	.L15
 136 0052 3268     		ldr	r2, [r6]
 137 0054 1368     		ldr	r3, [r2]
 138 0056 23F40053 		bic	r3, r3, #8192
 139 005a 1360     		str	r3, [r2]
 140 005c 3268     		ldr	r2, [r6]
 141 005e 1368     		ldr	r3, [r2]
 142 0060 43F40053 		orr	r3, r3, #8192
 143 0064 1360     		str	r3, [r2]
 144              	.L15:
 145 0066 0123     		movs	r3, #1
 146 0068 86F85130 		strb	r3, [r6, #81]
 147 006c 0023     		movs	r3, #0
 148 006e 86F85030 		strb	r3, [r6, #80]
 149 0072 0320     		movs	r0, #3
 150 0074 F8BD     		pop	{r3, r4, r5, r6, r7, pc}
 151              	.L11:
 152 0076 3368     		ldr	r3, [r6]
 153 0078 9B68     		ldr	r3, [r3, #8]
 154 007a 2340     		ands	r3, r3, r4
 155 007c A342     		cmp	r3, r4
 156 007e 14BF     		ite	ne
 157 0080 0023     		movne	r3, #0
 158 0082 0123     		moveq	r3, #1
 159 0084 BB42     		cmp	r3, r7
 160 0086 C1D1     		bne	.L17
 161 0088 0020     		movs	r0, #0
 162 008a F8BD     		pop	{r3, r4, r5, r6, r7, pc}
 164              		.section	.text.SPI_EndRxTxTransaction,"ax",%progbits
 165              		.align	2
 166              		.thumb
 167              		.thumb_func
 169              	SPI_EndRxTxTransaction:
 170              		@ args = 0, pretend = 0, frame = 0
 171              		@ frame_needed = 0, uses_anonymous_args = 0
 172 0000 10B5     		push	{r4, lr}
 173 0002 82B0     		sub	sp, sp, #8
 174 0004 0446     		mov	r4, r0
 175 0006 0B46     		mov	r3, r1
 176 0008 0092     		str	r2, [sp]
 177 000a 8021     		movs	r1, #128
 178 000c 0022     		movs	r2, #0
ARM GAS  /tmp/ccMfNiPt.s 			page 4


 179 000e FFF7FEFF 		bl	SPI_WaitFlagStateUntilTimeout
 180 0012 0346     		mov	r3, r0
 181 0014 20B1     		cbz	r0, .L20
 182 0016 636D     		ldr	r3, [r4, #84]
 183 0018 43F02003 		orr	r3, r3, #32
 184 001c 6365     		str	r3, [r4, #84]
 185 001e 0323     		movs	r3, #3
 186              	.L20:
 187 0020 1846     		mov	r0, r3
 188 0022 02B0     		add	sp, sp, #8
 189              		@ sp needed
 190 0024 10BD     		pop	{r4, pc}
 192 0026 00BF     		.section	.text.SPI_EndRxTransaction,"ax",%progbits
 193              		.align	2
 194              		.thumb
 195              		.thumb_func
 197              	SPI_EndRxTransaction:
 198              		@ args = 0, pretend = 0, frame = 0
 199              		@ frame_needed = 0, uses_anonymous_args = 0
 200 0000 10B5     		push	{r4, lr}
 201 0002 82B0     		sub	sp, sp, #8
 202 0004 0446     		mov	r4, r0
 203 0006 0B46     		mov	r3, r1
 204 0008 4168     		ldr	r1, [r0, #4]
 205 000a B1F5827F 		cmp	r1, #260
 206 000e 0BD1     		bne	.L23
 207 0010 8168     		ldr	r1, [r0, #8]
 208 0012 B1F5004F 		cmp	r1, #32768
 209 0016 02D0     		beq	.L24
 210 0018 B1F5806F 		cmp	r1, #1024
 211 001c 04D1     		bne	.L23
 212              	.L24:
 213 001e 2068     		ldr	r0, [r4]
 214 0020 0168     		ldr	r1, [r0]
 215 0022 21F04001 		bic	r1, r1, #64
 216 0026 0160     		str	r1, [r0]
 217              	.L23:
 218 0028 6168     		ldr	r1, [r4, #4]
 219 002a B1F5827F 		cmp	r1, #260
 220 002e 11D1     		bne	.L25
 221 0030 A168     		ldr	r1, [r4, #8]
 222 0032 B1F5806F 		cmp	r1, #1024
 223 0036 0DD1     		bne	.L25
 224 0038 0092     		str	r2, [sp]
 225 003a 2046     		mov	r0, r4
 226 003c 0121     		movs	r1, #1
 227 003e 0022     		movs	r2, #0
 228 0040 FFF7FEFF 		bl	SPI_WaitFlagStateUntilTimeout
 229 0044 0346     		mov	r3, r0
 230 0046 90B1     		cbz	r0, .L26
 231 0048 636D     		ldr	r3, [r4, #84]
 232 004a 43F02003 		orr	r3, r3, #32
 233 004e 6365     		str	r3, [r4, #84]
 234 0050 0323     		movs	r3, #3
 235 0052 0CE0     		b	.L26
 236              	.L25:
 237 0054 0092     		str	r2, [sp]
ARM GAS  /tmp/ccMfNiPt.s 			page 5


 238 0056 2046     		mov	r0, r4
 239 0058 8021     		movs	r1, #128
 240 005a 0022     		movs	r2, #0
 241 005c FFF7FEFF 		bl	SPI_WaitFlagStateUntilTimeout
 242 0060 0346     		mov	r3, r0
 243 0062 20B1     		cbz	r0, .L26
 244 0064 636D     		ldr	r3, [r4, #84]
 245 0066 43F02003 		orr	r3, r3, #32
 246 006a 6365     		str	r3, [r4, #84]
 247 006c 0323     		movs	r3, #3
 248              	.L26:
 249 006e 1846     		mov	r0, r3
 250 0070 02B0     		add	sp, sp, #8
 251              		@ sp needed
 252 0072 10BD     		pop	{r4, pc}
 254              		.section	.text.HAL_SPI_MspInit,"ax",%progbits
 255              		.align	2
 256              		.weak	HAL_SPI_MspInit
 257              		.thumb
 258              		.thumb_func
 260              	HAL_SPI_MspInit:
 261              		@ args = 0, pretend = 0, frame = 0
 262              		@ frame_needed = 0, uses_anonymous_args = 0
 263              		@ link register save eliminated.
 264 0000 7047     		bx	lr
 266 0002 00BF     		.section	.text.HAL_SPI_Init,"ax",%progbits
 267              		.align	2
 268              		.global	HAL_SPI_Init
 269              		.thumb
 270              		.thumb_func
 272              	HAL_SPI_Init:
 273              		@ args = 0, pretend = 0, frame = 0
 274              		@ frame_needed = 0, uses_anonymous_args = 0
 275 0000 0028     		cmp	r0, #0
 276 0002 3FD0     		beq	.L33
 277 0004 10B5     		push	{r4, lr}
 278 0006 0446     		mov	r4, r0
 279 0008 90F85130 		ldrb	r3, [r0, #81]	@ zero_extendqisi2
 280 000c 13F0FF0F 		tst	r3, #255
 281 0010 04D1     		bne	.L31
 282 0012 0023     		movs	r3, #0
 283 0014 80F85030 		strb	r3, [r0, #80]
 284 0018 FFF7FEFF 		bl	HAL_SPI_MspInit
 285              	.L31:
 286 001c 0223     		movs	r3, #2
 287 001e 84F85130 		strb	r3, [r4, #81]
 288 0022 2268     		ldr	r2, [r4]
 289 0024 1368     		ldr	r3, [r2]
 290 0026 23F04003 		bic	r3, r3, #64
 291 002a 1360     		str	r3, [r2]
 292 002c 2168     		ldr	r1, [r4]
 293 002e 6268     		ldr	r2, [r4, #4]
 294 0030 A368     		ldr	r3, [r4, #8]
 295 0032 1A43     		orrs	r2, r2, r3
 296 0034 E368     		ldr	r3, [r4, #12]
 297 0036 1A43     		orrs	r2, r2, r3
 298 0038 2369     		ldr	r3, [r4, #16]
ARM GAS  /tmp/ccMfNiPt.s 			page 6


 299 003a 1A43     		orrs	r2, r2, r3
 300 003c 6369     		ldr	r3, [r4, #20]
 301 003e 1A43     		orrs	r2, r2, r3
 302 0040 A369     		ldr	r3, [r4, #24]
 303 0042 03F40073 		and	r3, r3, #512
 304 0046 1343     		orrs	r3, r3, r2
 305 0048 E269     		ldr	r2, [r4, #28]
 306 004a 1343     		orrs	r3, r3, r2
 307 004c 226A     		ldr	r2, [r4, #32]
 308 004e 1343     		orrs	r3, r3, r2
 309 0050 A26A     		ldr	r2, [r4, #40]
 310 0052 1A43     		orrs	r2, r2, r3
 311 0054 0A60     		str	r2, [r1]
 312 0056 2268     		ldr	r2, [r4]
 313 0058 638B     		ldrh	r3, [r4, #26]
 314 005a 03F00403 		and	r3, r3, #4
 315 005e 5360     		str	r3, [r2, #4]
 316 0060 A36A     		ldr	r3, [r4, #40]
 317 0062 B3F5005F 		cmp	r3, #8192
 318 0066 02D1     		bne	.L32
 319 0068 2368     		ldr	r3, [r4]
 320 006a E26A     		ldr	r2, [r4, #44]
 321 006c 1A61     		str	r2, [r3, #16]
 322              	.L32:
 323 006e 2268     		ldr	r2, [r4]
 324 0070 D369     		ldr	r3, [r2, #28]
 325 0072 23F40063 		bic	r3, r3, #2048
 326 0076 D361     		str	r3, [r2, #28]
 327 0078 0020     		movs	r0, #0
 328 007a 6065     		str	r0, [r4, #84]
 329 007c 0123     		movs	r3, #1
 330 007e 84F85130 		strb	r3, [r4, #81]
 331 0082 10BD     		pop	{r4, pc}
 332              	.L33:
 333 0084 0120     		movs	r0, #1
 334 0086 7047     		bx	lr
 336              		.section	.text.HAL_SPI_MspDeInit,"ax",%progbits
 337              		.align	2
 338              		.weak	HAL_SPI_MspDeInit
 339              		.thumb
 340              		.thumb_func
 342              	HAL_SPI_MspDeInit:
 343              		@ args = 0, pretend = 0, frame = 0
 344              		@ frame_needed = 0, uses_anonymous_args = 0
 345              		@ link register save eliminated.
 346 0000 7047     		bx	lr
 348 0002 00BF     		.section	.text.HAL_SPI_DeInit,"ax",%progbits
 349              		.align	2
 350              		.global	HAL_SPI_DeInit
 351              		.thumb
 352              		.thumb_func
 354              	HAL_SPI_DeInit:
 355              		@ args = 0, pretend = 0, frame = 0
 356              		@ frame_needed = 0, uses_anonymous_args = 0
 357 0000 90B1     		cbz	r0, .L39
 358 0002 10B5     		push	{r4, lr}
 359 0004 0446     		mov	r4, r0
ARM GAS  /tmp/ccMfNiPt.s 			page 7


 360 0006 0223     		movs	r3, #2
 361 0008 80F85130 		strb	r3, [r0, #81]
 362 000c 0268     		ldr	r2, [r0]
 363 000e 1368     		ldr	r3, [r2]
 364 0010 23F04003 		bic	r3, r3, #64
 365 0014 1360     		str	r3, [r2]
 366 0016 FFF7FEFF 		bl	HAL_SPI_MspDeInit
 367 001a 0020     		movs	r0, #0
 368 001c 6065     		str	r0, [r4, #84]
 369 001e 84F85100 		strb	r0, [r4, #81]
 370 0022 84F85000 		strb	r0, [r4, #80]
 371 0026 10BD     		pop	{r4, pc}
 372              	.L39:
 373 0028 0120     		movs	r0, #1
 374 002a 7047     		bx	lr
 376              		.section	.text.HAL_SPI_Transmit,"ax",%progbits
 377              		.align	2
 378              		.global	HAL_SPI_Transmit
 379              		.thumb
 380              		.thumb_func
 382              	HAL_SPI_Transmit:
 383              		@ args = 0, pretend = 0, frame = 8
 384              		@ frame_needed = 0, uses_anonymous_args = 0
 385 0000 2DE9F041 		push	{r4, r5, r6, r7, r8, lr}
 386 0004 82B0     		sub	sp, sp, #8
 387 0006 0446     		mov	r4, r0
 388 0008 1D46     		mov	r5, r3
 389 000a 90F85030 		ldrb	r3, [r0, #80]	@ zero_extendqisi2
 390 000e 012B     		cmp	r3, #1
 391 0010 00F0D780 		beq	.L67
 392 0014 8846     		mov	r8, r1
 393 0016 1746     		mov	r7, r2
 394 0018 0123     		movs	r3, #1
 395 001a 80F85030 		strb	r3, [r0, #80]
 396 001e FFF7FEFF 		bl	HAL_GetTick
 397 0022 0646     		mov	r6, r0
 398 0024 94F85130 		ldrb	r3, [r4, #81]	@ zero_extendqisi2
 399 0028 DBB2     		uxtb	r3, r3
 400 002a 012B     		cmp	r3, #1
 401 002c 40F0B380 		bne	.L68
 402 0030 B8F1000F 		cmp	r8, #0
 403 0034 00F0B180 		beq	.L69
 404 0038 002F     		cmp	r7, #0
 405 003a 00F0B080 		beq	.L70
 406 003e 0323     		movs	r3, #3
 407 0040 84F85130 		strb	r3, [r4, #81]
 408 0044 0023     		movs	r3, #0
 409 0046 6365     		str	r3, [r4, #84]
 410 0048 C4F83080 		str	r8, [r4, #48]
 411 004c A786     		strh	r7, [r4, #52]	@ movhi
 412 004e E786     		strh	r7, [r4, #54]	@ movhi
 413 0050 A363     		str	r3, [r4, #56]
 414 0052 A387     		strh	r3, [r4, #60]	@ movhi
 415 0054 E387     		strh	r3, [r4, #62]	@ movhi
 416 0056 6364     		str	r3, [r4, #68]
 417 0058 2364     		str	r3, [r4, #64]
 418 005a A368     		ldr	r3, [r4, #8]
ARM GAS  /tmp/ccMfNiPt.s 			page 8


 419 005c B3F5004F 		cmp	r3, #32768
 420 0060 04D1     		bne	.L45
 421 0062 2268     		ldr	r2, [r4]
 422 0064 1368     		ldr	r3, [r2]
 423 0066 43F48043 		orr	r3, r3, #16384
 424 006a 1360     		str	r3, [r2]
 425              	.L45:
 426 006c A36A     		ldr	r3, [r4, #40]
 427 006e B3F5005F 		cmp	r3, #8192
 428 0072 09D1     		bne	.L46
 429 0074 2268     		ldr	r2, [r4]
 430 0076 1368     		ldr	r3, [r2]
 431 0078 23F40053 		bic	r3, r3, #8192
 432 007c 1360     		str	r3, [r2]
 433 007e 2268     		ldr	r2, [r4]
 434 0080 1368     		ldr	r3, [r2]
 435 0082 43F40053 		orr	r3, r3, #8192
 436 0086 1360     		str	r3, [r2]
 437              	.L46:
 438 0088 2368     		ldr	r3, [r4]
 439 008a 1A68     		ldr	r2, [r3]
 440 008c 12F0400F 		tst	r2, #64
 441 0090 03D1     		bne	.L47
 442 0092 1A68     		ldr	r2, [r3]
 443 0094 42F04002 		orr	r2, r2, #64
 444 0098 1A60     		str	r2, [r3]
 445              	.L47:
 446 009a E368     		ldr	r3, [r4, #12]
 447 009c B3F5006F 		cmp	r3, #2048
 448 00a0 2ED1     		bne	.L48
 449 00a2 6368     		ldr	r3, [r4, #4]
 450 00a4 0BB1     		cbz	r3, .L49
 451 00a6 012F     		cmp	r7, #1
 452 00a8 25D1     		bne	.L51
 453              	.L49:
 454 00aa 2368     		ldr	r3, [r4]
 455 00ac 226B     		ldr	r2, [r4, #48]
 456 00ae 1288     		ldrh	r2, [r2]
 457 00b0 DA60     		str	r2, [r3, #12]
 458 00b2 236B     		ldr	r3, [r4, #48]
 459 00b4 0233     		adds	r3, r3, #2
 460 00b6 2363     		str	r3, [r4, #48]
 461 00b8 E38E     		ldrh	r3, [r4, #54]
 462 00ba 013B     		subs	r3, r3, #1
 463 00bc 9BB2     		uxth	r3, r3
 464 00be E386     		strh	r3, [r4, #54]	@ movhi
 465 00c0 19E0     		b	.L51
 466              	.L55:
 467 00c2 2368     		ldr	r3, [r4]
 468 00c4 9A68     		ldr	r2, [r3, #8]
 469 00c6 12F0020F 		tst	r2, #2
 470 00ca 0AD0     		beq	.L52
 471 00cc 226B     		ldr	r2, [r4, #48]
 472 00ce 1288     		ldrh	r2, [r2]
 473 00d0 DA60     		str	r2, [r3, #12]
 474 00d2 236B     		ldr	r3, [r4, #48]
 475 00d4 0233     		adds	r3, r3, #2
ARM GAS  /tmp/ccMfNiPt.s 			page 9


 476 00d6 2363     		str	r3, [r4, #48]
 477 00d8 E38E     		ldrh	r3, [r4, #54]
 478 00da 013B     		subs	r3, r3, #1
 479 00dc 9BB2     		uxth	r3, r3
 480 00de E386     		strh	r3, [r4, #54]	@ movhi
 481 00e0 09E0     		b	.L51
 482              	.L52:
 483 00e2 FFF7FEFF 		bl	HAL_GetTick
 484 00e6 801B     		subs	r0, r0, r6
 485 00e8 A842     		cmp	r0, r5
 486 00ea 02D3     		bcc	.L54
 487 00ec B5F1FF3F 		cmp	r5, #-1
 488 00f0 57D1     		bne	.L71
 489              	.L54:
 490 00f2 002D     		cmp	r5, #0
 491 00f4 57D0     		beq	.L72
 492              	.L51:
 493 00f6 E38E     		ldrh	r3, [r4, #54]
 494 00f8 9BB2     		uxth	r3, r3
 495 00fa 002B     		cmp	r3, #0
 496 00fc E1D1     		bne	.L55
 497 00fe 2CE0     		b	.L56
 498              	.L48:
 499 0100 6368     		ldr	r3, [r4, #4]
 500 0102 0BB1     		cbz	r3, .L57
 501 0104 012F     		cmp	r7, #1
 502 0106 24D1     		bne	.L59
 503              	.L57:
 504 0108 2368     		ldr	r3, [r4]
 505 010a 226B     		ldr	r2, [r4, #48]
 506 010c 1278     		ldrb	r2, [r2]	@ zero_extendqisi2
 507 010e 1A73     		strb	r2, [r3, #12]
 508 0110 236B     		ldr	r3, [r4, #48]
 509 0112 0133     		adds	r3, r3, #1
 510 0114 2363     		str	r3, [r4, #48]
 511 0116 E38E     		ldrh	r3, [r4, #54]
 512 0118 013B     		subs	r3, r3, #1
 513 011a 9BB2     		uxth	r3, r3
 514 011c E386     		strh	r3, [r4, #54]	@ movhi
 515 011e 18E0     		b	.L59
 516              	.L63:
 517 0120 2368     		ldr	r3, [r4]
 518 0122 9A68     		ldr	r2, [r3, #8]
 519 0124 12F0020F 		tst	r2, #2
 520 0128 0AD0     		beq	.L60
 521 012a 226B     		ldr	r2, [r4, #48]
 522 012c 1278     		ldrb	r2, [r2]	@ zero_extendqisi2
 523 012e 1A73     		strb	r2, [r3, #12]
 524 0130 236B     		ldr	r3, [r4, #48]
 525 0132 0133     		adds	r3, r3, #1
 526 0134 2363     		str	r3, [r4, #48]
 527 0136 E38E     		ldrh	r3, [r4, #54]
 528 0138 013B     		subs	r3, r3, #1
 529 013a 9BB2     		uxth	r3, r3
 530 013c E386     		strh	r3, [r4, #54]	@ movhi
 531 013e 08E0     		b	.L59
 532              	.L60:
ARM GAS  /tmp/ccMfNiPt.s 			page 10


 533 0140 FFF7FEFF 		bl	HAL_GetTick
 534 0144 801B     		subs	r0, r0, r6
 535 0146 A842     		cmp	r0, r5
 536 0148 02D3     		bcc	.L62
 537 014a B5F1FF3F 		cmp	r5, #-1
 538 014e 2CD1     		bne	.L73
 539              	.L62:
 540 0150 6DB3     		cbz	r5, .L74
 541              	.L59:
 542 0152 E38E     		ldrh	r3, [r4, #54]
 543 0154 9BB2     		uxth	r3, r3
 544 0156 002B     		cmp	r3, #0
 545 0158 E2D1     		bne	.L63
 546              	.L56:
 547 015a A36A     		ldr	r3, [r4, #40]
 548 015c B3F5005F 		cmp	r3, #8192
 549 0160 04D1     		bne	.L64
 550 0162 2268     		ldr	r2, [r4]
 551 0164 1368     		ldr	r3, [r2]
 552 0166 43F48053 		orr	r3, r3, #4096
 553 016a 1360     		str	r3, [r2]
 554              	.L64:
 555 016c 2046     		mov	r0, r4
 556 016e 2946     		mov	r1, r5
 557 0170 3246     		mov	r2, r6
 558 0172 FFF7FEFF 		bl	SPI_EndRxTxTransaction
 559 0176 08B1     		cbz	r0, .L65
 560 0178 2023     		movs	r3, #32
 561 017a 6365     		str	r3, [r4, #84]
 562              	.L65:
 563 017c A368     		ldr	r3, [r4, #8]
 564 017e 33B9     		cbnz	r3, .L66
 565 0180 0193     		str	r3, [sp, #4]
 566 0182 2368     		ldr	r3, [r4]
 567 0184 DA68     		ldr	r2, [r3, #12]
 568 0186 0192     		str	r2, [sp, #4]
 569 0188 9B68     		ldr	r3, [r3, #8]
 570 018a 0193     		str	r3, [sp, #4]
 571 018c 019B     		ldr	r3, [sp, #4]
 572              	.L66:
 573 018e 636D     		ldr	r3, [r4, #84]
 574 0190 7BB9     		cbnz	r3, .L75
 575 0192 0020     		movs	r0, #0
 576 0194 0EE0     		b	.L44
 577              	.L68:
 578 0196 0220     		movs	r0, #2
 579 0198 0CE0     		b	.L44
 580              	.L69:
 581 019a 0120     		movs	r0, #1
 582 019c 0AE0     		b	.L44
 583              	.L70:
 584 019e 0120     		movs	r0, #1
 585 01a0 08E0     		b	.L44
 586              	.L71:
 587 01a2 0320     		movs	r0, #3
 588 01a4 06E0     		b	.L44
 589              	.L72:
ARM GAS  /tmp/ccMfNiPt.s 			page 11


 590 01a6 0320     		movs	r0, #3
 591 01a8 04E0     		b	.L44
 592              	.L73:
 593 01aa 0320     		movs	r0, #3
 594 01ac 02E0     		b	.L44
 595              	.L74:
 596 01ae 0320     		movs	r0, #3
 597 01b0 00E0     		b	.L44
 598              	.L75:
 599 01b2 0120     		movs	r0, #1
 600              	.L44:
 601 01b4 0123     		movs	r3, #1
 602 01b6 84F85130 		strb	r3, [r4, #81]
 603 01ba 0023     		movs	r3, #0
 604 01bc 84F85030 		strb	r3, [r4, #80]
 605 01c0 00E0     		b	.L43
 606              	.L67:
 607 01c2 0220     		movs	r0, #2
 608              	.L43:
 609 01c4 02B0     		add	sp, sp, #8
 610              		@ sp needed
 611 01c6 BDE8F081 		pop	{r4, r5, r6, r7, r8, pc}
 613 01ca 00BF     		.section	.text.HAL_SPI_Transmit_IT,"ax",%progbits
 614              		.align	2
 615              		.global	HAL_SPI_Transmit_IT
 616              		.thumb
 617              		.thumb_func
 619              	HAL_SPI_Transmit_IT:
 620              		@ args = 0, pretend = 0, frame = 0
 621              		@ frame_needed = 0, uses_anonymous_args = 0
 622              		@ link register save eliminated.
 623 0000 90F85030 		ldrb	r3, [r0, #80]	@ zero_extendqisi2
 624 0004 012B     		cmp	r3, #1
 625 0006 51D0     		beq	.L84
 626 0008 0123     		movs	r3, #1
 627 000a 80F85030 		strb	r3, [r0, #80]
 628 000e 0029     		cmp	r1, #0
 629 0010 40D0     		beq	.L85
 630 0012 002A     		cmp	r2, #0
 631 0014 40D0     		beq	.L86
 632 0016 90F85130 		ldrb	r3, [r0, #81]	@ zero_extendqisi2
 633 001a DBB2     		uxtb	r3, r3
 634 001c 012B     		cmp	r3, #1
 635 001e 3DD1     		bne	.L87
 636 0020 0323     		movs	r3, #3
 637 0022 80F85130 		strb	r3, [r0, #81]
 638 0026 0023     		movs	r3, #0
 639 0028 4365     		str	r3, [r0, #84]
 640 002a 0163     		str	r1, [r0, #48]
 641 002c 8286     		strh	r2, [r0, #52]	@ movhi
 642 002e C286     		strh	r2, [r0, #54]	@ movhi
 643 0030 8363     		str	r3, [r0, #56]
 644 0032 8387     		strh	r3, [r0, #60]	@ movhi
 645 0034 C387     		strh	r3, [r0, #62]	@ movhi
 646 0036 0364     		str	r3, [r0, #64]
 647 0038 C368     		ldr	r3, [r0, #12]
 648 003a 13B1     		cbz	r3, .L80
ARM GAS  /tmp/ccMfNiPt.s 			page 12


 649 003c 1C4B     		ldr	r3, .L89
 650 003e 4364     		str	r3, [r0, #68]
 651 0040 01E0     		b	.L81
 652              	.L80:
 653 0042 1C4B     		ldr	r3, .L89+4
 654 0044 4364     		str	r3, [r0, #68]
 655              	.L81:
 656 0046 8368     		ldr	r3, [r0, #8]
 657 0048 B3F5004F 		cmp	r3, #32768
 658 004c 04D1     		bne	.L82
 659 004e 0268     		ldr	r2, [r0]
 660 0050 1368     		ldr	r3, [r2]
 661 0052 43F48043 		orr	r3, r3, #16384
 662 0056 1360     		str	r3, [r2]
 663              	.L82:
 664 0058 836A     		ldr	r3, [r0, #40]
 665 005a B3F5005F 		cmp	r3, #8192
 666 005e 09D1     		bne	.L83
 667 0060 0268     		ldr	r2, [r0]
 668 0062 1368     		ldr	r3, [r2]
 669 0064 23F40053 		bic	r3, r3, #8192
 670 0068 1360     		str	r3, [r2]
 671 006a 0268     		ldr	r2, [r0]
 672 006c 1368     		ldr	r3, [r2]
 673 006e 43F40053 		orr	r3, r3, #8192
 674 0072 1360     		str	r3, [r2]
 675              	.L83:
 676 0074 0268     		ldr	r2, [r0]
 677 0076 5368     		ldr	r3, [r2, #4]
 678 0078 43F0A003 		orr	r3, r3, #160
 679 007c 5360     		str	r3, [r2, #4]
 680 007e 0368     		ldr	r3, [r0]
 681 0080 1A68     		ldr	r2, [r3]
 682 0082 12F0400F 		tst	r2, #64
 683 0086 0BD1     		bne	.L88
 684 0088 1A68     		ldr	r2, [r3]
 685 008a 42F04002 		orr	r2, r2, #64
 686 008e 1A60     		str	r2, [r3]
 687 0090 0023     		movs	r3, #0
 688 0092 06E0     		b	.L79
 689              	.L85:
 690 0094 0123     		movs	r3, #1
 691 0096 04E0     		b	.L79
 692              	.L86:
 693 0098 0123     		movs	r3, #1
 694 009a 02E0     		b	.L79
 695              	.L87:
 696 009c 0223     		movs	r3, #2
 697 009e 00E0     		b	.L79
 698              	.L88:
 699 00a0 0023     		movs	r3, #0
 700              	.L79:
 701 00a2 0022     		movs	r2, #0
 702 00a4 80F85020 		strb	r2, [r0, #80]
 703 00a8 1846     		mov	r0, r3
 704 00aa 7047     		bx	lr
 705              	.L84:
ARM GAS  /tmp/ccMfNiPt.s 			page 13


 706 00ac 0220     		movs	r0, #2
 707 00ae 7047     		bx	lr
 708              	.L90:
 709              		.align	2
 710              	.L89:
 711 00b0 00000000 		.word	SPI_TxISR_16BIT
 712 00b4 00000000 		.word	SPI_TxISR_8BIT
 714              		.section	.text.HAL_SPI_TransmitReceive_IT,"ax",%progbits
 715              		.align	2
 716              		.global	HAL_SPI_TransmitReceive_IT
 717              		.thumb
 718              		.thumb_func
 720              	HAL_SPI_TransmitReceive_IT:
 721              		@ args = 0, pretend = 0, frame = 0
 722              		@ frame_needed = 0, uses_anonymous_args = 0
 723              		@ link register save eliminated.
 724 0000 30B4     		push	{r4, r5}
 725 0002 90F85040 		ldrb	r4, [r0, #80]	@ zero_extendqisi2
 726 0006 012C     		cmp	r4, #1
 727 0008 61D0     		beq	.L99
 728 000a 0124     		movs	r4, #1
 729 000c 80F85040 		strb	r4, [r0, #80]
 730 0010 90F85140 		ldrb	r4, [r0, #81]	@ zero_extendqisi2
 731 0014 E4B2     		uxtb	r4, r4
 732 0016 4568     		ldr	r5, [r0, #4]
 733 0018 012C     		cmp	r4, #1
 734 001a 07D0     		beq	.L93
 735 001c B5F5827F 		cmp	r5, #260
 736 0020 43D1     		bne	.L100
 737 0022 8568     		ldr	r5, [r0, #8]
 738 0024 002D     		cmp	r5, #0
 739 0026 42D1     		bne	.L101
 740 0028 042C     		cmp	r4, #4
 741 002a 42D1     		bne	.L102
 742              	.L93:
 743 002c 0029     		cmp	r1, #0
 744 002e 42D0     		beq	.L103
 745 0030 002A     		cmp	r2, #0
 746 0032 42D0     		beq	.L104
 747 0034 002B     		cmp	r3, #0
 748 0036 42D0     		beq	.L105
 749 0038 90F85140 		ldrb	r4, [r0, #81]	@ zero_extendqisi2
 750 003c E4B2     		uxtb	r4, r4
 751 003e 042C     		cmp	r4, #4
 752 0040 02D0     		beq	.L95
 753 0042 0524     		movs	r4, #5
 754 0044 80F85140 		strb	r4, [r0, #81]
 755              	.L95:
 756 0048 0024     		movs	r4, #0
 757 004a 4465     		str	r4, [r0, #84]
 758 004c 0163     		str	r1, [r0, #48]
 759 004e 8386     		strh	r3, [r0, #52]	@ movhi
 760 0050 C386     		strh	r3, [r0, #54]	@ movhi
 761 0052 8263     		str	r2, [r0, #56]
 762 0054 8387     		strh	r3, [r0, #60]	@ movhi
 763 0056 C387     		strh	r3, [r0, #62]	@ movhi
 764 0058 C368     		ldr	r3, [r0, #12]
ARM GAS  /tmp/ccMfNiPt.s 			page 14


 765 005a 23B1     		cbz	r3, .L96
 766 005c 1D4B     		ldr	r3, .L108
 767 005e 0364     		str	r3, [r0, #64]
 768 0060 1D4B     		ldr	r3, .L108+4
 769 0062 4364     		str	r3, [r0, #68]
 770 0064 03E0     		b	.L97
 771              	.L96:
 772 0066 1D4B     		ldr	r3, .L108+8
 773 0068 0364     		str	r3, [r0, #64]
 774 006a 1D4B     		ldr	r3, .L108+12
 775 006c 4364     		str	r3, [r0, #68]
 776              	.L97:
 777 006e 836A     		ldr	r3, [r0, #40]
 778 0070 B3F5005F 		cmp	r3, #8192
 779 0074 09D1     		bne	.L98
 780 0076 0268     		ldr	r2, [r0]
 781 0078 1368     		ldr	r3, [r2]
 782 007a 23F40053 		bic	r3, r3, #8192
 783 007e 1360     		str	r3, [r2]
 784 0080 0268     		ldr	r2, [r0]
 785 0082 1368     		ldr	r3, [r2]
 786 0084 43F40053 		orr	r3, r3, #8192
 787 0088 1360     		str	r3, [r2]
 788              	.L98:
 789 008a 0268     		ldr	r2, [r0]
 790 008c 5368     		ldr	r3, [r2, #4]
 791 008e 43F0E003 		orr	r3, r3, #224
 792 0092 5360     		str	r3, [r2, #4]
 793 0094 0368     		ldr	r3, [r0]
 794 0096 1A68     		ldr	r2, [r3]
 795 0098 12F0400F 		tst	r2, #64
 796 009c 11D1     		bne	.L106
 797 009e 1A68     		ldr	r2, [r3]
 798 00a0 42F04002 		orr	r2, r2, #64
 799 00a4 1A60     		str	r2, [r3]
 800 00a6 0023     		movs	r3, #0
 801 00a8 0CE0     		b	.L94
 802              	.L100:
 803 00aa 0223     		movs	r3, #2
 804 00ac 0AE0     		b	.L94
 805              	.L101:
 806 00ae 0223     		movs	r3, #2
 807 00b0 08E0     		b	.L94
 808              	.L102:
 809 00b2 0223     		movs	r3, #2
 810 00b4 06E0     		b	.L94
 811              	.L103:
 812 00b6 0123     		movs	r3, #1
 813 00b8 04E0     		b	.L94
 814              	.L104:
 815 00ba 0123     		movs	r3, #1
 816 00bc 02E0     		b	.L94
 817              	.L105:
 818 00be 0123     		movs	r3, #1
 819 00c0 00E0     		b	.L94
 820              	.L106:
 821 00c2 0023     		movs	r3, #0
ARM GAS  /tmp/ccMfNiPt.s 			page 15


 822              	.L94:
 823 00c4 0022     		movs	r2, #0
 824 00c6 80F85020 		strb	r2, [r0, #80]
 825 00ca 1846     		mov	r0, r3
 826 00cc 00E0     		b	.L92
 827              	.L99:
 828 00ce 0220     		movs	r0, #2
 829              	.L92:
 830 00d0 30BC     		pop	{r4, r5}
 831 00d2 7047     		bx	lr
 832              	.L109:
 833              		.align	2
 834              	.L108:
 835 00d4 00000000 		.word	SPI_2linesRxISR_16BIT
 836 00d8 00000000 		.word	SPI_2linesTxISR_16BIT
 837 00dc 00000000 		.word	SPI_2linesRxISR_8BIT
 838 00e0 00000000 		.word	SPI_2linesTxISR_8BIT
 840              		.section	.text.HAL_SPI_Receive_IT,"ax",%progbits
 841              		.align	2
 842              		.global	HAL_SPI_Receive_IT
 843              		.thumb
 844              		.thumb_func
 846              	HAL_SPI_Receive_IT:
 847              		@ args = 0, pretend = 0, frame = 0
 848              		@ frame_needed = 0, uses_anonymous_args = 0
 849 0000 10B5     		push	{r4, lr}
 850 0002 0C46     		mov	r4, r1
 851 0004 1346     		mov	r3, r2
 852 0006 8168     		ldr	r1, [r0, #8]
 853 0008 59B9     		cbnz	r1, .L111
 854 000a 4268     		ldr	r2, [r0, #4]
 855 000c B2F5827F 		cmp	r2, #260
 856 0010 07D1     		bne	.L111
 857 0012 0422     		movs	r2, #4
 858 0014 80F85120 		strb	r2, [r0, #81]
 859 0018 2146     		mov	r1, r4
 860 001a 2246     		mov	r2, r4
 861 001c FFF7FEFF 		bl	HAL_SPI_TransmitReceive_IT
 862 0020 10BD     		pop	{r4, pc}
 863              	.L111:
 864 0022 90F85020 		ldrb	r2, [r0, #80]	@ zero_extendqisi2
 865 0026 012A     		cmp	r2, #1
 866 0028 50D0     		beq	.L118
 867 002a 0122     		movs	r2, #1
 868 002c 80F85020 		strb	r2, [r0, #80]
 869 0030 90F85120 		ldrb	r2, [r0, #81]	@ zero_extendqisi2
 870 0034 D2B2     		uxtb	r2, r2
 871 0036 012A     		cmp	r2, #1
 872 0038 3CD1     		bne	.L119
 873 003a 002C     		cmp	r4, #0
 874 003c 3CD0     		beq	.L120
 875 003e 002B     		cmp	r3, #0
 876 0040 3CD0     		beq	.L121
 877 0042 0422     		movs	r2, #4
 878 0044 80F85120 		strb	r2, [r0, #81]
 879 0048 0022     		movs	r2, #0
 880 004a 4265     		str	r2, [r0, #84]
ARM GAS  /tmp/ccMfNiPt.s 			page 16


 881 004c 8463     		str	r4, [r0, #56]
 882 004e 8387     		strh	r3, [r0, #60]	@ movhi
 883 0050 C387     		strh	r3, [r0, #62]	@ movhi
 884 0052 0263     		str	r2, [r0, #48]
 885 0054 8286     		strh	r2, [r0, #52]	@ movhi
 886 0056 C286     		strh	r2, [r0, #54]	@ movhi
 887 0058 4264     		str	r2, [r0, #68]
 888 005a C368     		ldr	r3, [r0, #12]
 889 005c 13B1     		cbz	r3, .L114
 890 005e 1C4B     		ldr	r3, .L124
 891 0060 0364     		str	r3, [r0, #64]
 892 0062 01E0     		b	.L115
 893              	.L114:
 894 0064 1B4B     		ldr	r3, .L124+4
 895 0066 0364     		str	r3, [r0, #64]
 896              	.L115:
 897 0068 B1F5004F 		cmp	r1, #32768
 898 006c 04D1     		bne	.L116
 899 006e 0268     		ldr	r2, [r0]
 900 0070 1368     		ldr	r3, [r2]
 901 0072 23F48043 		bic	r3, r3, #16384
 902 0076 1360     		str	r3, [r2]
 903              	.L116:
 904 0078 836A     		ldr	r3, [r0, #40]
 905 007a B3F5005F 		cmp	r3, #8192
 906 007e 09D1     		bne	.L117
 907 0080 0268     		ldr	r2, [r0]
 908 0082 1368     		ldr	r3, [r2]
 909 0084 23F40053 		bic	r3, r3, #8192
 910 0088 1360     		str	r3, [r2]
 911 008a 0268     		ldr	r2, [r0]
 912 008c 1368     		ldr	r3, [r2]
 913 008e 43F40053 		orr	r3, r3, #8192
 914 0092 1360     		str	r3, [r2]
 915              	.L117:
 916 0094 0268     		ldr	r2, [r0]
 917 0096 5368     		ldr	r3, [r2, #4]
 918 0098 43F06003 		orr	r3, r3, #96
 919 009c 5360     		str	r3, [r2, #4]
 920 009e 0368     		ldr	r3, [r0]
 921 00a0 1A68     		ldr	r2, [r3]
 922 00a2 12F0400F 		tst	r2, #64
 923 00a6 0BD1     		bne	.L122
 924 00a8 1A68     		ldr	r2, [r3]
 925 00aa 42F04002 		orr	r2, r2, #64
 926 00ae 1A60     		str	r2, [r3]
 927 00b0 0023     		movs	r3, #0
 928 00b2 06E0     		b	.L113
 929              	.L119:
 930 00b4 0223     		movs	r3, #2
 931 00b6 04E0     		b	.L113
 932              	.L120:
 933 00b8 0123     		movs	r3, #1
 934 00ba 02E0     		b	.L113
 935              	.L121:
 936 00bc 0123     		movs	r3, #1
 937 00be 00E0     		b	.L113
ARM GAS  /tmp/ccMfNiPt.s 			page 17


 938              	.L122:
 939 00c0 0023     		movs	r3, #0
 940              	.L113:
 941 00c2 0022     		movs	r2, #0
 942 00c4 80F85020 		strb	r2, [r0, #80]
 943 00c8 1846     		mov	r0, r3
 944 00ca 10BD     		pop	{r4, pc}
 945              	.L118:
 946 00cc 0220     		movs	r0, #2
 947 00ce 10BD     		pop	{r4, pc}
 948              	.L125:
 949              		.align	2
 950              	.L124:
 951 00d0 00000000 		.word	SPI_RxISR_16BIT
 952 00d4 00000000 		.word	SPI_RxISR_8BIT
 954              		.section	.text.HAL_SPI_Transmit_DMA,"ax",%progbits
 955              		.align	2
 956              		.global	HAL_SPI_Transmit_DMA
 957              		.thumb
 958              		.thumb_func
 960              	HAL_SPI_Transmit_DMA:
 961              		@ args = 0, pretend = 0, frame = 0
 962              		@ frame_needed = 0, uses_anonymous_args = 0
 963 0000 10B5     		push	{r4, lr}
 964 0002 0446     		mov	r4, r0
 965 0004 90F85030 		ldrb	r3, [r0, #80]	@ zero_extendqisi2
 966 0008 012B     		cmp	r3, #1
 967 000a 6AD0     		beq	.L133
 968 000c 0123     		movs	r3, #1
 969 000e 80F85030 		strb	r3, [r0, #80]
 970 0012 90F85130 		ldrb	r3, [r0, #81]	@ zero_extendqisi2
 971 0016 DBB2     		uxtb	r3, r3
 972 0018 012B     		cmp	r3, #1
 973 001a 59D1     		bne	.L134
 974 001c 0029     		cmp	r1, #0
 975 001e 59D0     		beq	.L135
 976 0020 002A     		cmp	r2, #0
 977 0022 59D0     		beq	.L136
 978 0024 0323     		movs	r3, #3
 979 0026 80F85130 		strb	r3, [r0, #81]
 980 002a 0023     		movs	r3, #0
 981 002c 4365     		str	r3, [r0, #84]
 982 002e 0163     		str	r1, [r0, #48]
 983 0030 8286     		strh	r2, [r0, #52]	@ movhi
 984 0032 C286     		strh	r2, [r0, #54]	@ movhi
 985 0034 8363     		str	r3, [r0, #56]
 986 0036 4364     		str	r3, [r0, #68]
 987 0038 0364     		str	r3, [r0, #64]
 988 003a 8387     		strh	r3, [r0, #60]	@ movhi
 989 003c C387     		strh	r3, [r0, #62]	@ movhi
 990 003e 8368     		ldr	r3, [r0, #8]
 991 0040 B3F5004F 		cmp	r3, #32768
 992 0044 04D1     		bne	.L129
 993 0046 0268     		ldr	r2, [r0]
 994 0048 1368     		ldr	r3, [r2]
 995 004a 43F48043 		orr	r3, r3, #16384
 996 004e 1360     		str	r3, [r2]
ARM GAS  /tmp/ccMfNiPt.s 			page 18


 997              	.L129:
 998 0050 A36A     		ldr	r3, [r4, #40]
 999 0052 B3F5005F 		cmp	r3, #8192
 1000 0056 09D1     		bne	.L130
 1001 0058 2268     		ldr	r2, [r4]
 1002 005a 1368     		ldr	r3, [r2]
 1003 005c 23F40053 		bic	r3, r3, #8192
 1004 0060 1360     		str	r3, [r2]
 1005 0062 2268     		ldr	r2, [r4]
 1006 0064 1368     		ldr	r3, [r2]
 1007 0066 43F40053 		orr	r3, r3, #8192
 1008 006a 1360     		str	r3, [r2]
 1009              	.L130:
 1010 006c A36C     		ldr	r3, [r4, #72]
 1011 006e 1E4A     		ldr	r2, .L138
 1012 0070 DA62     		str	r2, [r3, #44]
 1013 0072 A36C     		ldr	r3, [r4, #72]
 1014 0074 1D4A     		ldr	r2, .L138+4
 1015 0076 9A62     		str	r2, [r3, #40]
 1016 0078 A36C     		ldr	r3, [r4, #72]
 1017 007a 1D4A     		ldr	r2, .L138+8
 1018 007c 1A63     		str	r2, [r3, #48]
 1019 007e A36C     		ldr	r3, [r4, #72]
 1020 0080 0022     		movs	r2, #0
 1021 0082 5A63     		str	r2, [r3, #52]
 1022 0084 2268     		ldr	r2, [r4]
 1023 0086 E38E     		ldrh	r3, [r4, #54]
 1024 0088 A06C     		ldr	r0, [r4, #72]
 1025 008a 216B     		ldr	r1, [r4, #48]
 1026 008c 0C32     		adds	r2, r2, #12
 1027 008e 9BB2     		uxth	r3, r3
 1028 0090 FFF7FEFF 		bl	HAL_DMA_Start_IT
 1029 0094 38B1     		cbz	r0, .L131
 1030 0096 636D     		ldr	r3, [r4, #84]
 1031 0098 43F01003 		orr	r3, r3, #16
 1032 009c 6365     		str	r3, [r4, #84]
 1033 009e 0120     		movs	r0, #1
 1034 00a0 84F85100 		strb	r0, [r4, #81]
 1035 00a4 19E0     		b	.L128
 1036              	.L131:
 1037 00a6 2368     		ldr	r3, [r4]
 1038 00a8 1A68     		ldr	r2, [r3]
 1039 00aa 12F0400F 		tst	r2, #64
 1040 00ae 03D1     		bne	.L132
 1041 00b0 1A68     		ldr	r2, [r3]
 1042 00b2 42F04002 		orr	r2, r2, #64
 1043 00b6 1A60     		str	r2, [r3]
 1044              	.L132:
 1045 00b8 2268     		ldr	r2, [r4]
 1046 00ba 5368     		ldr	r3, [r2, #4]
 1047 00bc 43F02003 		orr	r3, r3, #32
 1048 00c0 5360     		str	r3, [r2, #4]
 1049 00c2 2268     		ldr	r2, [r4]
 1050 00c4 5368     		ldr	r3, [r2, #4]
 1051 00c6 43F00203 		orr	r3, r3, #2
 1052 00ca 5360     		str	r3, [r2, #4]
 1053 00cc 0020     		movs	r0, #0
ARM GAS  /tmp/ccMfNiPt.s 			page 19


 1054 00ce 04E0     		b	.L128
 1055              	.L134:
 1056 00d0 0220     		movs	r0, #2
 1057 00d2 02E0     		b	.L128
 1058              	.L135:
 1059 00d4 0120     		movs	r0, #1
 1060 00d6 00E0     		b	.L128
 1061              	.L136:
 1062 00d8 0120     		movs	r0, #1
 1063              	.L128:
 1064 00da 0023     		movs	r3, #0
 1065 00dc 84F85030 		strb	r3, [r4, #80]
 1066 00e0 10BD     		pop	{r4, pc}
 1067              	.L133:
 1068 00e2 0220     		movs	r0, #2
 1069 00e4 10BD     		pop	{r4, pc}
 1070              	.L139:
 1071 00e6 00BF     		.align	2
 1072              	.L138:
 1073 00e8 00000000 		.word	SPI_DMAHalfTransmitCplt
 1074 00ec 00000000 		.word	SPI_DMATransmitCplt
 1075 00f0 00000000 		.word	SPI_DMAError
 1077              		.section	.text.HAL_SPI_TransmitReceive_DMA,"ax",%progbits
 1078              		.align	2
 1079              		.global	HAL_SPI_TransmitReceive_DMA
 1080              		.thumb
 1081              		.thumb_func
 1083              	HAL_SPI_TransmitReceive_DMA:
 1084              		@ args = 0, pretend = 0, frame = 0
 1085              		@ frame_needed = 0, uses_anonymous_args = 0
 1086 0000 38B5     		push	{r3, r4, r5, lr}
 1087 0002 0446     		mov	r4, r0
 1088 0004 90F85000 		ldrb	r0, [r0, #80]	@ zero_extendqisi2
 1089 0008 0128     		cmp	r0, #1
 1090 000a 00F0A980 		beq	.L151
 1091 000e 0120     		movs	r0, #1
 1092 0010 84F85000 		strb	r0, [r4, #80]
 1093 0014 94F85100 		ldrb	r0, [r4, #81]	@ zero_extendqisi2
 1094 0018 C0B2     		uxtb	r0, r0
 1095 001a 6568     		ldr	r5, [r4, #4]
 1096 001c 0128     		cmp	r0, #1
 1097 001e 0AD0     		beq	.L142
 1098 0020 B5F5827F 		cmp	r5, #260
 1099 0024 40F08D80 		bne	.L152
 1100 0028 A568     		ldr	r5, [r4, #8]
 1101 002a 002D     		cmp	r5, #0
 1102 002c 40F08B80 		bne	.L153
 1103 0030 0428     		cmp	r0, #4
 1104 0032 40F08A80 		bne	.L154
 1105              	.L142:
 1106 0036 0029     		cmp	r1, #0
 1107 0038 00F08980 		beq	.L155
 1108 003c 002A     		cmp	r2, #0
 1109 003e 00F08880 		beq	.L156
 1110 0042 002B     		cmp	r3, #0
 1111 0044 00F08780 		beq	.L157
 1112 0048 94F85100 		ldrb	r0, [r4, #81]	@ zero_extendqisi2
ARM GAS  /tmp/ccMfNiPt.s 			page 20


 1113 004c C0B2     		uxtb	r0, r0
 1114 004e 0428     		cmp	r0, #4
 1115 0050 02D0     		beq	.L144
 1116 0052 0520     		movs	r0, #5
 1117 0054 84F85100 		strb	r0, [r4, #81]
 1118              	.L144:
 1119 0058 0020     		movs	r0, #0
 1120 005a 6065     		str	r0, [r4, #84]
 1121 005c 2163     		str	r1, [r4, #48]
 1122 005e A386     		strh	r3, [r4, #52]	@ movhi
 1123 0060 E386     		strh	r3, [r4, #54]	@ movhi
 1124 0062 A263     		str	r2, [r4, #56]
 1125 0064 A387     		strh	r3, [r4, #60]	@ movhi
 1126 0066 E387     		strh	r3, [r4, #62]	@ movhi
 1127 0068 2064     		str	r0, [r4, #64]
 1128 006a 6064     		str	r0, [r4, #68]
 1129 006c A36A     		ldr	r3, [r4, #40]
 1130 006e B3F5005F 		cmp	r3, #8192
 1131 0072 09D1     		bne	.L145
 1132 0074 2268     		ldr	r2, [r4]
 1133 0076 1368     		ldr	r3, [r2]
 1134 0078 23F40053 		bic	r3, r3, #8192
 1135 007c 1360     		str	r3, [r2]
 1136 007e 2268     		ldr	r2, [r4]
 1137 0080 1368     		ldr	r3, [r2]
 1138 0082 43F40053 		orr	r3, r3, #8192
 1139 0086 1360     		str	r3, [r2]
 1140              	.L145:
 1141 0088 94F85130 		ldrb	r3, [r4, #81]	@ zero_extendqisi2
 1142 008c DBB2     		uxtb	r3, r3
 1143 008e 042B     		cmp	r3, #4
 1144 0090 06D1     		bne	.L146
 1145 0092 E36C     		ldr	r3, [r4, #76]
 1146 0094 334A     		ldr	r2, .L159
 1147 0096 DA62     		str	r2, [r3, #44]
 1148 0098 E36C     		ldr	r3, [r4, #76]
 1149 009a 334A     		ldr	r2, .L159+4
 1150 009c 9A62     		str	r2, [r3, #40]
 1151 009e 05E0     		b	.L147
 1152              	.L146:
 1153 00a0 E36C     		ldr	r3, [r4, #76]
 1154 00a2 324A     		ldr	r2, .L159+8
 1155 00a4 DA62     		str	r2, [r3, #44]
 1156 00a6 E36C     		ldr	r3, [r4, #76]
 1157 00a8 314A     		ldr	r2, .L159+12
 1158 00aa 9A62     		str	r2, [r3, #40]
 1159              	.L147:
 1160 00ac E36C     		ldr	r3, [r4, #76]
 1161 00ae 314A     		ldr	r2, .L159+16
 1162 00b0 1A63     		str	r2, [r3, #48]
 1163 00b2 E36C     		ldr	r3, [r4, #76]
 1164 00b4 0022     		movs	r2, #0
 1165 00b6 5A63     		str	r2, [r3, #52]
 1166 00b8 2168     		ldr	r1, [r4]
 1167 00ba E38F     		ldrh	r3, [r4, #62]
 1168 00bc E06C     		ldr	r0, [r4, #76]
 1169 00be 0C31     		adds	r1, r1, #12
ARM GAS  /tmp/ccMfNiPt.s 			page 21


 1170 00c0 A26B     		ldr	r2, [r4, #56]
 1171 00c2 9BB2     		uxth	r3, r3
 1172 00c4 FFF7FEFF 		bl	HAL_DMA_Start_IT
 1173 00c8 38B1     		cbz	r0, .L148
 1174 00ca 636D     		ldr	r3, [r4, #84]
 1175 00cc 43F01003 		orr	r3, r3, #16
 1176 00d0 6365     		str	r3, [r4, #84]
 1177 00d2 0120     		movs	r0, #1
 1178 00d4 84F85100 		strb	r0, [r4, #81]
 1179 00d8 3EE0     		b	.L143
 1180              	.L148:
 1181 00da 2268     		ldr	r2, [r4]
 1182 00dc 5368     		ldr	r3, [r2, #4]
 1183 00de 43F00103 		orr	r3, r3, #1
 1184 00e2 5360     		str	r3, [r2, #4]
 1185 00e4 A26C     		ldr	r2, [r4, #72]
 1186 00e6 0023     		movs	r3, #0
 1187 00e8 D362     		str	r3, [r2, #44]
 1188 00ea A26C     		ldr	r2, [r4, #72]
 1189 00ec 9362     		str	r3, [r2, #40]
 1190 00ee A26C     		ldr	r2, [r4, #72]
 1191 00f0 1363     		str	r3, [r2, #48]
 1192 00f2 A26C     		ldr	r2, [r4, #72]
 1193 00f4 5363     		str	r3, [r2, #52]
 1194 00f6 2268     		ldr	r2, [r4]
 1195 00f8 E38E     		ldrh	r3, [r4, #54]
 1196 00fa A06C     		ldr	r0, [r4, #72]
 1197 00fc 216B     		ldr	r1, [r4, #48]
 1198 00fe 0C32     		adds	r2, r2, #12
 1199 0100 9BB2     		uxth	r3, r3
 1200 0102 FFF7FEFF 		bl	HAL_DMA_Start_IT
 1201 0106 38B1     		cbz	r0, .L149
 1202 0108 636D     		ldr	r3, [r4, #84]
 1203 010a 43F01003 		orr	r3, r3, #16
 1204 010e 6365     		str	r3, [r4, #84]
 1205 0110 0120     		movs	r0, #1
 1206 0112 84F85100 		strb	r0, [r4, #81]
 1207 0116 1FE0     		b	.L143
 1208              	.L149:
 1209 0118 2368     		ldr	r3, [r4]
 1210 011a 1A68     		ldr	r2, [r3]
 1211 011c 12F0400F 		tst	r2, #64
 1212 0120 03D1     		bne	.L150
 1213 0122 1A68     		ldr	r2, [r3]
 1214 0124 42F04002 		orr	r2, r2, #64
 1215 0128 1A60     		str	r2, [r3]
 1216              	.L150:
 1217 012a 2268     		ldr	r2, [r4]
 1218 012c 5368     		ldr	r3, [r2, #4]
 1219 012e 43F02003 		orr	r3, r3, #32
 1220 0132 5360     		str	r3, [r2, #4]
 1221 0134 2268     		ldr	r2, [r4]
 1222 0136 5368     		ldr	r3, [r2, #4]
 1223 0138 43F00203 		orr	r3, r3, #2
 1224 013c 5360     		str	r3, [r2, #4]
 1225 013e 0020     		movs	r0, #0
 1226 0140 0AE0     		b	.L143
ARM GAS  /tmp/ccMfNiPt.s 			page 22


 1227              	.L152:
 1228 0142 0220     		movs	r0, #2
 1229 0144 08E0     		b	.L143
 1230              	.L153:
 1231 0146 0220     		movs	r0, #2
 1232 0148 06E0     		b	.L143
 1233              	.L154:
 1234 014a 0220     		movs	r0, #2
 1235 014c 04E0     		b	.L143
 1236              	.L155:
 1237 014e 0120     		movs	r0, #1
 1238 0150 02E0     		b	.L143
 1239              	.L156:
 1240 0152 0120     		movs	r0, #1
 1241 0154 00E0     		b	.L143
 1242              	.L157:
 1243 0156 0120     		movs	r0, #1
 1244              	.L143:
 1245 0158 0023     		movs	r3, #0
 1246 015a 84F85030 		strb	r3, [r4, #80]
 1247 015e 38BD     		pop	{r3, r4, r5, pc}
 1248              	.L151:
 1249 0160 0220     		movs	r0, #2
 1250 0162 38BD     		pop	{r3, r4, r5, pc}
 1251              	.L160:
 1252              		.align	2
 1253              	.L159:
 1254 0164 00000000 		.word	SPI_DMAHalfReceiveCplt
 1255 0168 00000000 		.word	SPI_DMAReceiveCplt
 1256 016c 00000000 		.word	SPI_DMAHalfTransmitReceiveCplt
 1257 0170 00000000 		.word	SPI_DMATransmitReceiveCplt
 1258 0174 00000000 		.word	SPI_DMAError
 1260              		.section	.text.HAL_SPI_Receive_DMA,"ax",%progbits
 1261              		.align	2
 1262              		.global	HAL_SPI_Receive_DMA
 1263              		.thumb
 1264              		.thumb_func
 1266              	HAL_SPI_Receive_DMA:
 1267              		@ args = 0, pretend = 0, frame = 0
 1268              		@ frame_needed = 0, uses_anonymous_args = 0
 1269 0000 38B5     		push	{r3, r4, r5, lr}
 1270 0002 0446     		mov	r4, r0
 1271 0004 0D46     		mov	r5, r1
 1272 0006 1346     		mov	r3, r2
 1273 0008 8168     		ldr	r1, [r0, #8]
 1274 000a 59B9     		cbnz	r1, .L162
 1275 000c 4268     		ldr	r2, [r0, #4]
 1276 000e B2F5827F 		cmp	r2, #260
 1277 0012 07D1     		bne	.L162
 1278 0014 0422     		movs	r2, #4
 1279 0016 80F85120 		strb	r2, [r0, #81]
 1280 001a 2946     		mov	r1, r5
 1281 001c 2A46     		mov	r2, r5
 1282 001e FFF7FEFF 		bl	HAL_SPI_TransmitReceive_DMA
 1283 0022 38BD     		pop	{r3, r4, r5, pc}
 1284              	.L162:
 1285 0024 94F85020 		ldrb	r2, [r4, #80]	@ zero_extendqisi2
ARM GAS  /tmp/ccMfNiPt.s 			page 23


 1286 0028 012A     		cmp	r2, #1
 1287 002a 68D0     		beq	.L169
 1288 002c 0122     		movs	r2, #1
 1289 002e 84F85020 		strb	r2, [r4, #80]
 1290 0032 94F85120 		ldrb	r2, [r4, #81]	@ zero_extendqisi2
 1291 0036 D2B2     		uxtb	r2, r2
 1292 0038 012A     		cmp	r2, #1
 1293 003a 57D1     		bne	.L170
 1294 003c 002D     		cmp	r5, #0
 1295 003e 57D0     		beq	.L171
 1296 0040 002B     		cmp	r3, #0
 1297 0042 57D0     		beq	.L172
 1298 0044 0422     		movs	r2, #4
 1299 0046 84F85120 		strb	r2, [r4, #81]
 1300 004a 0022     		movs	r2, #0
 1301 004c 6265     		str	r2, [r4, #84]
 1302 004e A563     		str	r5, [r4, #56]
 1303 0050 A387     		strh	r3, [r4, #60]	@ movhi
 1304 0052 E387     		strh	r3, [r4, #62]	@ movhi
 1305 0054 2264     		str	r2, [r4, #64]
 1306 0056 6264     		str	r2, [r4, #68]
 1307 0058 A286     		strh	r2, [r4, #52]	@ movhi
 1308 005a E286     		strh	r2, [r4, #54]	@ movhi
 1309 005c B1F5004F 		cmp	r1, #32768
 1310 0060 04D1     		bne	.L165
 1311 0062 2268     		ldr	r2, [r4]
 1312 0064 1368     		ldr	r3, [r2]
 1313 0066 23F48043 		bic	r3, r3, #16384
 1314 006a 1360     		str	r3, [r2]
 1315              	.L165:
 1316 006c A36A     		ldr	r3, [r4, #40]
 1317 006e B3F5005F 		cmp	r3, #8192
 1318 0072 09D1     		bne	.L166
 1319 0074 2268     		ldr	r2, [r4]
 1320 0076 1368     		ldr	r3, [r2]
 1321 0078 23F40053 		bic	r3, r3, #8192
 1322 007c 1360     		str	r3, [r2]
 1323 007e 2268     		ldr	r2, [r4]
 1324 0080 1368     		ldr	r3, [r2]
 1325 0082 43F40053 		orr	r3, r3, #8192
 1326 0086 1360     		str	r3, [r2]
 1327              	.L166:
 1328 0088 E36C     		ldr	r3, [r4, #76]
 1329 008a 1E4A     		ldr	r2, .L174
 1330 008c DA62     		str	r2, [r3, #44]
 1331 008e E36C     		ldr	r3, [r4, #76]
 1332 0090 1D4A     		ldr	r2, .L174+4
 1333 0092 9A62     		str	r2, [r3, #40]
 1334 0094 E36C     		ldr	r3, [r4, #76]
 1335 0096 1D4A     		ldr	r2, .L174+8
 1336 0098 1A63     		str	r2, [r3, #48]
 1337 009a E36C     		ldr	r3, [r4, #76]
 1338 009c 0022     		movs	r2, #0
 1339 009e 5A63     		str	r2, [r3, #52]
 1340 00a0 2168     		ldr	r1, [r4]
 1341 00a2 E38F     		ldrh	r3, [r4, #62]
 1342 00a4 E06C     		ldr	r0, [r4, #76]
ARM GAS  /tmp/ccMfNiPt.s 			page 24


 1343 00a6 0C31     		adds	r1, r1, #12
 1344 00a8 A26B     		ldr	r2, [r4, #56]
 1345 00aa 9BB2     		uxth	r3, r3
 1346 00ac FFF7FEFF 		bl	HAL_DMA_Start_IT
 1347 00b0 38B1     		cbz	r0, .L167
 1348 00b2 636D     		ldr	r3, [r4, #84]
 1349 00b4 43F01003 		orr	r3, r3, #16
 1350 00b8 6365     		str	r3, [r4, #84]
 1351 00ba 0120     		movs	r0, #1
 1352 00bc 84F85100 		strb	r0, [r4, #81]
 1353 00c0 19E0     		b	.L164
 1354              	.L167:
 1355 00c2 2368     		ldr	r3, [r4]
 1356 00c4 1A68     		ldr	r2, [r3]
 1357 00c6 12F0400F 		tst	r2, #64
 1358 00ca 03D1     		bne	.L168
 1359 00cc 1A68     		ldr	r2, [r3]
 1360 00ce 42F04002 		orr	r2, r2, #64
 1361 00d2 1A60     		str	r2, [r3]
 1362              	.L168:
 1363 00d4 2268     		ldr	r2, [r4]
 1364 00d6 5368     		ldr	r3, [r2, #4]
 1365 00d8 43F02003 		orr	r3, r3, #32
 1366 00dc 5360     		str	r3, [r2, #4]
 1367 00de 2268     		ldr	r2, [r4]
 1368 00e0 5368     		ldr	r3, [r2, #4]
 1369 00e2 43F00103 		orr	r3, r3, #1
 1370 00e6 5360     		str	r3, [r2, #4]
 1371 00e8 0020     		movs	r0, #0
 1372 00ea 04E0     		b	.L164
 1373              	.L170:
 1374 00ec 0220     		movs	r0, #2
 1375 00ee 02E0     		b	.L164
 1376              	.L171:
 1377 00f0 0120     		movs	r0, #1
 1378 00f2 00E0     		b	.L164
 1379              	.L172:
 1380 00f4 0120     		movs	r0, #1
 1381              	.L164:
 1382 00f6 0023     		movs	r3, #0
 1383 00f8 84F85030 		strb	r3, [r4, #80]
 1384 00fc 38BD     		pop	{r3, r4, r5, pc}
 1385              	.L169:
 1386 00fe 0220     		movs	r0, #2
 1387 0100 38BD     		pop	{r3, r4, r5, pc}
 1388              	.L175:
 1389 0102 00BF     		.align	2
 1390              	.L174:
 1391 0104 00000000 		.word	SPI_DMAHalfReceiveCplt
 1392 0108 00000000 		.word	SPI_DMAReceiveCplt
 1393 010c 00000000 		.word	SPI_DMAError
 1395              		.section	.text.HAL_SPI_Abort,"ax",%progbits
 1396              		.align	2
 1397              		.global	HAL_SPI_Abort
 1398              		.thumb
 1399              		.thumb_func
 1401              	HAL_SPI_Abort:
ARM GAS  /tmp/ccMfNiPt.s 			page 25


 1402              		@ args = 0, pretend = 0, frame = 16
 1403              		@ frame_needed = 0, uses_anonymous_args = 0
 1404 0000 10B5     		push	{r4, lr}
 1405 0002 84B0     		sub	sp, sp, #16
 1406 0004 0446     		mov	r4, r0
 1407 0006 494B     		ldr	r3, .L194
 1408 0008 1B68     		ldr	r3, [r3]
 1409 000a 494A     		ldr	r2, .L194+4
 1410 000c A2FB0323 		umull	r2, r3, r2, r3
 1411 0010 5B0A     		lsrs	r3, r3, #9
 1412 0012 6422     		movs	r2, #100
 1413 0014 02FB03F3 		mul	r3, r2, r3
 1414 0018 0293     		str	r3, [sp, #8]
 1415 001a 029B     		ldr	r3, [sp, #8]
 1416 001c 0393     		str	r3, [sp, #12]
 1417 001e 0268     		ldr	r2, [r0]
 1418 0020 5368     		ldr	r3, [r2, #4]
 1419 0022 23F02003 		bic	r3, r3, #32
 1420 0026 5360     		str	r3, [r2, #4]
 1421 0028 0268     		ldr	r2, [r0]
 1422 002a 5368     		ldr	r3, [r2, #4]
 1423 002c 13F0800F 		tst	r3, #128
 1424 0030 12D0     		beq	.L177
 1425 0032 404B     		ldr	r3, .L194+8
 1426 0034 4364     		str	r3, [r0, #68]
 1427              	.L180:
 1428 0036 039B     		ldr	r3, [sp, #12]
 1429 0038 23B9     		cbnz	r3, .L178
 1430 003a 636D     		ldr	r3, [r4, #84]
 1431 003c 43F04003 		orr	r3, r3, #64
 1432 0040 6365     		str	r3, [r4, #84]
 1433 0042 07E0     		b	.L179
 1434              	.L178:
 1435 0044 039B     		ldr	r3, [sp, #12]
 1436 0046 013B     		subs	r3, r3, #1
 1437 0048 0393     		str	r3, [sp, #12]
 1438 004a 94F85130 		ldrb	r3, [r4, #81]	@ zero_extendqisi2
 1439 004e DBB2     		uxtb	r3, r3
 1440 0050 072B     		cmp	r3, #7
 1441 0052 F0D1     		bne	.L180
 1442              	.L179:
 1443 0054 029B     		ldr	r3, [sp, #8]
 1444 0056 0393     		str	r3, [sp, #12]
 1445              	.L177:
 1446 0058 5368     		ldr	r3, [r2, #4]
 1447 005a 13F0400F 		tst	r3, #64
 1448 005e 12D0     		beq	.L181
 1449 0060 354B     		ldr	r3, .L194+12
 1450 0062 2364     		str	r3, [r4, #64]
 1451              	.L184:
 1452 0064 039B     		ldr	r3, [sp, #12]
 1453 0066 23B9     		cbnz	r3, .L182
 1454 0068 636D     		ldr	r3, [r4, #84]
 1455 006a 43F04003 		orr	r3, r3, #64
 1456 006e 6365     		str	r3, [r4, #84]
 1457 0070 07E0     		b	.L183
 1458              	.L182:
ARM GAS  /tmp/ccMfNiPt.s 			page 26


 1459 0072 039B     		ldr	r3, [sp, #12]
 1460 0074 013B     		subs	r3, r3, #1
 1461 0076 0393     		str	r3, [sp, #12]
 1462 0078 94F85130 		ldrb	r3, [r4, #81]	@ zero_extendqisi2
 1463 007c DBB2     		uxtb	r3, r3
 1464 007e 072B     		cmp	r3, #7
 1465 0080 F0D1     		bne	.L184
 1466              	.L183:
 1467 0082 029B     		ldr	r3, [sp, #8]
 1468 0084 0393     		str	r3, [sp, #12]
 1469              	.L181:
 1470 0086 5368     		ldr	r3, [r2, #4]
 1471 0088 13F0020F 		tst	r3, #2
 1472 008c 1DD0     		beq	.L185
 1473 008e A36C     		ldr	r3, [r4, #72]
 1474 0090 DBB1     		cbz	r3, .L185
 1475 0092 0022     		movs	r2, #0
 1476 0094 5A63     		str	r2, [r3, #52]
 1477 0096 A06C     		ldr	r0, [r4, #72]
 1478 0098 FFF7FEFF 		bl	HAL_DMA_Abort
 1479 009c 08B1     		cbz	r0, .L186
 1480 009e 4023     		movs	r3, #64
 1481 00a0 6365     		str	r3, [r4, #84]
 1482              	.L186:
 1483 00a2 2268     		ldr	r2, [r4]
 1484 00a4 5368     		ldr	r3, [r2, #4]
 1485 00a6 23F00203 		bic	r3, r3, #2
 1486 00aa 5360     		str	r3, [r2, #4]
 1487              	.L188:
 1488 00ac 039B     		ldr	r3, [sp, #12]
 1489 00ae 23B9     		cbnz	r3, .L187
 1490 00b0 636D     		ldr	r3, [r4, #84]
 1491 00b2 43F04003 		orr	r3, r3, #64
 1492 00b6 6365     		str	r3, [r4, #84]
 1493 00b8 07E0     		b	.L185
 1494              	.L187:
 1495 00ba 039B     		ldr	r3, [sp, #12]
 1496 00bc 013B     		subs	r3, r3, #1
 1497 00be 0393     		str	r3, [sp, #12]
 1498 00c0 2368     		ldr	r3, [r4]
 1499 00c2 9B68     		ldr	r3, [r3, #8]
 1500 00c4 13F0020F 		tst	r3, #2
 1501 00c8 F0D0     		beq	.L188
 1502              	.L185:
 1503 00ca 2368     		ldr	r3, [r4]
 1504 00cc 5B68     		ldr	r3, [r3, #4]
 1505 00ce 13F0010F 		tst	r3, #1
 1506 00d2 13D0     		beq	.L189
 1507 00d4 E36C     		ldr	r3, [r4, #76]
 1508 00d6 8BB1     		cbz	r3, .L189
 1509 00d8 0022     		movs	r2, #0
 1510 00da 5A63     		str	r2, [r3, #52]
 1511 00dc E06C     		ldr	r0, [r4, #76]
 1512 00de FFF7FEFF 		bl	HAL_DMA_Abort
 1513 00e2 08B1     		cbz	r0, .L190
 1514 00e4 4023     		movs	r3, #64
 1515 00e6 6365     		str	r3, [r4, #84]
ARM GAS  /tmp/ccMfNiPt.s 			page 27


 1516              	.L190:
 1517 00e8 2268     		ldr	r2, [r4]
 1518 00ea 1368     		ldr	r3, [r2]
 1519 00ec 23F04003 		bic	r3, r3, #64
 1520 00f0 1360     		str	r3, [r2]
 1521 00f2 2268     		ldr	r2, [r4]
 1522 00f4 5368     		ldr	r3, [r2, #4]
 1523 00f6 23F00103 		bic	r3, r3, #1
 1524 00fa 5360     		str	r3, [r2, #4]
 1525              	.L189:
 1526 00fc 0023     		movs	r3, #0
 1527 00fe E387     		strh	r3, [r4, #62]	@ movhi
 1528 0100 E386     		strh	r3, [r4, #54]	@ movhi
 1529 0102 636D     		ldr	r3, [r4, #84]
 1530 0104 402B     		cmp	r3, #64
 1531 0106 02D0     		beq	.L192
 1532 0108 0020     		movs	r0, #0
 1533 010a 6065     		str	r0, [r4, #84]
 1534 010c 00E0     		b	.L191
 1535              	.L192:
 1536 010e 0120     		movs	r0, #1
 1537              	.L191:
 1538 0110 0023     		movs	r3, #0
 1539 0112 0193     		str	r3, [sp, #4]
 1540 0114 2368     		ldr	r3, [r4]
 1541 0116 DA68     		ldr	r2, [r3, #12]
 1542 0118 0192     		str	r2, [sp, #4]
 1543 011a 9B68     		ldr	r3, [r3, #8]
 1544 011c 0193     		str	r3, [sp, #4]
 1545 011e 019B     		ldr	r3, [sp, #4]
 1546 0120 0123     		movs	r3, #1
 1547 0122 84F85130 		strb	r3, [r4, #81]
 1548 0126 04B0     		add	sp, sp, #16
 1549              		@ sp needed
 1550 0128 10BD     		pop	{r4, pc}
 1551              	.L195:
 1552 012a 00BF     		.align	2
 1553              	.L194:
 1554 012c 00000000 		.word	SystemCoreClock
 1555 0130 F1197605 		.word	91625969
 1556 0134 00000000 		.word	SPI_AbortTx_ISR
 1557 0138 00000000 		.word	SPI_AbortRx_ISR
 1559              		.section	.text.HAL_SPI_DMAPause,"ax",%progbits
 1560              		.align	2
 1561              		.global	HAL_SPI_DMAPause
 1562              		.thumb
 1563              		.thumb_func
 1565              	HAL_SPI_DMAPause:
 1566              		@ args = 0, pretend = 0, frame = 0
 1567              		@ frame_needed = 0, uses_anonymous_args = 0
 1568              		@ link register save eliminated.
 1569 0000 90F85030 		ldrb	r3, [r0, #80]	@ zero_extendqisi2
 1570 0004 012B     		cmp	r3, #1
 1571 0006 0CD0     		beq	.L198
 1572 0008 0123     		movs	r3, #1
 1573 000a 80F85030 		strb	r3, [r0, #80]
 1574 000e 0268     		ldr	r2, [r0]
ARM GAS  /tmp/ccMfNiPt.s 			page 28


 1575 0010 5368     		ldr	r3, [r2, #4]
 1576 0012 23F00303 		bic	r3, r3, #3
 1577 0016 5360     		str	r3, [r2, #4]
 1578 0018 0023     		movs	r3, #0
 1579 001a 80F85030 		strb	r3, [r0, #80]
 1580 001e 1846     		mov	r0, r3
 1581 0020 7047     		bx	lr
 1582              	.L198:
 1583 0022 0220     		movs	r0, #2
 1584 0024 7047     		bx	lr
 1586 0026 00BF     		.section	.text.HAL_SPI_DMAResume,"ax",%progbits
 1587              		.align	2
 1588              		.global	HAL_SPI_DMAResume
 1589              		.thumb
 1590              		.thumb_func
 1592              	HAL_SPI_DMAResume:
 1593              		@ args = 0, pretend = 0, frame = 0
 1594              		@ frame_needed = 0, uses_anonymous_args = 0
 1595              		@ link register save eliminated.
 1596 0000 90F85030 		ldrb	r3, [r0, #80]	@ zero_extendqisi2
 1597 0004 012B     		cmp	r3, #1
 1598 0006 0CD0     		beq	.L201
 1599 0008 0123     		movs	r3, #1
 1600 000a 80F85030 		strb	r3, [r0, #80]
 1601 000e 0268     		ldr	r2, [r0]
 1602 0010 5368     		ldr	r3, [r2, #4]
 1603 0012 43F00303 		orr	r3, r3, #3
 1604 0016 5360     		str	r3, [r2, #4]
 1605 0018 0023     		movs	r3, #0
 1606 001a 80F85030 		strb	r3, [r0, #80]
 1607 001e 1846     		mov	r0, r3
 1608 0020 7047     		bx	lr
 1609              	.L201:
 1610 0022 0220     		movs	r0, #2
 1611 0024 7047     		bx	lr
 1613 0026 00BF     		.section	.text.HAL_SPI_DMAStop,"ax",%progbits
 1614              		.align	2
 1615              		.global	HAL_SPI_DMAStop
 1616              		.thumb
 1617              		.thumb_func
 1619              	HAL_SPI_DMAStop:
 1620              		@ args = 0, pretend = 0, frame = 0
 1621              		@ frame_needed = 0, uses_anonymous_args = 0
 1622 0000 38B5     		push	{r3, r4, r5, lr}
 1623 0002 0446     		mov	r4, r0
 1624 0004 806C     		ldr	r0, [r0, #72]
 1625 0006 40B1     		cbz	r0, .L205
 1626 0008 FFF7FEFF 		bl	HAL_DMA_Abort
 1627 000c 38B1     		cbz	r0, .L206
 1628 000e 636D     		ldr	r3, [r4, #84]
 1629 0010 43F01003 		orr	r3, r3, #16
 1630 0014 6365     		str	r3, [r4, #84]
 1631 0016 0125     		movs	r5, #1
 1632 0018 02E0     		b	.L203
 1633              	.L205:
 1634 001a 0025     		movs	r5, #0
 1635 001c 00E0     		b	.L203
ARM GAS  /tmp/ccMfNiPt.s 			page 29


 1636              	.L206:
 1637 001e 0025     		movs	r5, #0
 1638              	.L203:
 1639 0020 E06C     		ldr	r0, [r4, #76]
 1640 0022 38B1     		cbz	r0, .L204
 1641 0024 FFF7FEFF 		bl	HAL_DMA_Abort
 1642 0028 20B1     		cbz	r0, .L204
 1643 002a 636D     		ldr	r3, [r4, #84]
 1644 002c 43F01003 		orr	r3, r3, #16
 1645 0030 6365     		str	r3, [r4, #84]
 1646 0032 0125     		movs	r5, #1
 1647              	.L204:
 1648 0034 2268     		ldr	r2, [r4]
 1649 0036 5368     		ldr	r3, [r2, #4]
 1650 0038 23F00303 		bic	r3, r3, #3
 1651 003c 5360     		str	r3, [r2, #4]
 1652 003e 0123     		movs	r3, #1
 1653 0040 84F85130 		strb	r3, [r4, #81]
 1654 0044 2846     		mov	r0, r5
 1655 0046 38BD     		pop	{r3, r4, r5, pc}
 1657              		.section	.text.HAL_SPI_TxCpltCallback,"ax",%progbits
 1658              		.align	2
 1659              		.weak	HAL_SPI_TxCpltCallback
 1660              		.thumb
 1661              		.thumb_func
 1663              	HAL_SPI_TxCpltCallback:
 1664              		@ args = 0, pretend = 0, frame = 0
 1665              		@ frame_needed = 0, uses_anonymous_args = 0
 1666              		@ link register save eliminated.
 1667 0000 7047     		bx	lr
 1669 0002 00BF     		.section	.text.HAL_SPI_RxCpltCallback,"ax",%progbits
 1670              		.align	2
 1671              		.weak	HAL_SPI_RxCpltCallback
 1672              		.thumb
 1673              		.thumb_func
 1675              	HAL_SPI_RxCpltCallback:
 1676              		@ args = 0, pretend = 0, frame = 0
 1677              		@ frame_needed = 0, uses_anonymous_args = 0
 1678              		@ link register save eliminated.
 1679 0000 7047     		bx	lr
 1681 0002 00BF     		.section	.text.HAL_SPI_TxRxCpltCallback,"ax",%progbits
 1682              		.align	2
 1683              		.weak	HAL_SPI_TxRxCpltCallback
 1684              		.thumb
 1685              		.thumb_func
 1687              	HAL_SPI_TxRxCpltCallback:
 1688              		@ args = 0, pretend = 0, frame = 0
 1689              		@ frame_needed = 0, uses_anonymous_args = 0
 1690              		@ link register save eliminated.
 1691 0000 7047     		bx	lr
 1693 0002 00BF     		.section	.text.HAL_SPI_TxHalfCpltCallback,"ax",%progbits
 1694              		.align	2
 1695              		.weak	HAL_SPI_TxHalfCpltCallback
 1696              		.thumb
 1697              		.thumb_func
 1699              	HAL_SPI_TxHalfCpltCallback:
 1700              		@ args = 0, pretend = 0, frame = 0
ARM GAS  /tmp/ccMfNiPt.s 			page 30


 1701              		@ frame_needed = 0, uses_anonymous_args = 0
 1702              		@ link register save eliminated.
 1703 0000 7047     		bx	lr
 1705 0002 00BF     		.section	.text.SPI_DMAHalfTransmitCplt,"ax",%progbits
 1706              		.align	2
 1707              		.thumb
 1708              		.thumb_func
 1710              	SPI_DMAHalfTransmitCplt:
 1711              		@ args = 0, pretend = 0, frame = 0
 1712              		@ frame_needed = 0, uses_anonymous_args = 0
 1713 0000 08B5     		push	{r3, lr}
 1714 0002 406A     		ldr	r0, [r0, #36]
 1715 0004 FFF7FEFF 		bl	HAL_SPI_TxHalfCpltCallback
 1716 0008 08BD     		pop	{r3, pc}
 1718 000a 00BF     		.section	.text.HAL_SPI_RxHalfCpltCallback,"ax",%progbits
 1719              		.align	2
 1720              		.weak	HAL_SPI_RxHalfCpltCallback
 1721              		.thumb
 1722              		.thumb_func
 1724              	HAL_SPI_RxHalfCpltCallback:
 1725              		@ args = 0, pretend = 0, frame = 0
 1726              		@ frame_needed = 0, uses_anonymous_args = 0
 1727              		@ link register save eliminated.
 1728 0000 7047     		bx	lr
 1730 0002 00BF     		.section	.text.SPI_DMAHalfReceiveCplt,"ax",%progbits
 1731              		.align	2
 1732              		.thumb
 1733              		.thumb_func
 1735              	SPI_DMAHalfReceiveCplt:
 1736              		@ args = 0, pretend = 0, frame = 0
 1737              		@ frame_needed = 0, uses_anonymous_args = 0
 1738 0000 08B5     		push	{r3, lr}
 1739 0002 406A     		ldr	r0, [r0, #36]
 1740 0004 FFF7FEFF 		bl	HAL_SPI_RxHalfCpltCallback
 1741 0008 08BD     		pop	{r3, pc}
 1743 000a 00BF     		.section	.text.HAL_SPI_TxRxHalfCpltCallback,"ax",%progbits
 1744              		.align	2
 1745              		.weak	HAL_SPI_TxRxHalfCpltCallback
 1746              		.thumb
 1747              		.thumb_func
 1749              	HAL_SPI_TxRxHalfCpltCallback:
 1750              		@ args = 0, pretend = 0, frame = 0
 1751              		@ frame_needed = 0, uses_anonymous_args = 0
 1752              		@ link register save eliminated.
 1753 0000 7047     		bx	lr
 1755 0002 00BF     		.section	.text.SPI_DMAHalfTransmitReceiveCplt,"ax",%progbits
 1756              		.align	2
 1757              		.thumb
 1758              		.thumb_func
 1760              	SPI_DMAHalfTransmitReceiveCplt:
 1761              		@ args = 0, pretend = 0, frame = 0
 1762              		@ frame_needed = 0, uses_anonymous_args = 0
 1763 0000 08B5     		push	{r3, lr}
 1764 0002 406A     		ldr	r0, [r0, #36]
 1765 0004 FFF7FEFF 		bl	HAL_SPI_TxRxHalfCpltCallback
 1766 0008 08BD     		pop	{r3, pc}
 1768 000a 00BF     		.section	.text.HAL_SPI_ErrorCallback,"ax",%progbits
ARM GAS  /tmp/ccMfNiPt.s 			page 31


 1769              		.align	2
 1770              		.weak	HAL_SPI_ErrorCallback
 1771              		.thumb
 1772              		.thumb_func
 1774              	HAL_SPI_ErrorCallback:
 1775              		@ args = 0, pretend = 0, frame = 0
 1776              		@ frame_needed = 0, uses_anonymous_args = 0
 1777              		@ link register save eliminated.
 1778 0000 7047     		bx	lr
 1780 0002 00BF     		.section	.text.SPI_CloseTx_ISR,"ax",%progbits
 1781              		.align	2
 1782              		.thumb
 1783              		.thumb_func
 1785              	SPI_CloseTx_ISR:
 1786              		@ args = 0, pretend = 0, frame = 8
 1787              		@ frame_needed = 0, uses_anonymous_args = 0
 1788 0000 10B5     		push	{r4, lr}
 1789 0002 82B0     		sub	sp, sp, #8
 1790 0004 0446     		mov	r4, r0
 1791 0006 204B     		ldr	r3, .L230
 1792 0008 1B68     		ldr	r3, [r3]
 1793 000a 204A     		ldr	r2, .L230+4
 1794 000c A2FB0323 		umull	r2, r3, r2, r3
 1795 0010 5B0A     		lsrs	r3, r3, #9
 1796 0012 6422     		movs	r2, #100
 1797 0014 02FB03F3 		mul	r3, r2, r3
 1798 0018 0193     		str	r3, [sp, #4]
 1799 001a FFF7FEFF 		bl	HAL_GetTick
 1800 001e 0246     		mov	r2, r0
 1801              	.L224:
 1802 0020 019B     		ldr	r3, [sp, #4]
 1803 0022 23B9     		cbnz	r3, .L222
 1804 0024 636D     		ldr	r3, [r4, #84]
 1805 0026 43F02003 		orr	r3, r3, #32
 1806 002a 6365     		str	r3, [r4, #84]
 1807 002c 07E0     		b	.L223
 1808              	.L222:
 1809 002e 019B     		ldr	r3, [sp, #4]
 1810 0030 013B     		subs	r3, r3, #1
 1811 0032 0193     		str	r3, [sp, #4]
 1812 0034 2368     		ldr	r3, [r4]
 1813 0036 9B68     		ldr	r3, [r3, #8]
 1814 0038 13F0020F 		tst	r3, #2
 1815 003c F0D0     		beq	.L224
 1816              	.L223:
 1817 003e 2168     		ldr	r1, [r4]
 1818 0040 4B68     		ldr	r3, [r1, #4]
 1819 0042 23F0A003 		bic	r3, r3, #160
 1820 0046 4B60     		str	r3, [r1, #4]
 1821 0048 2046     		mov	r0, r4
 1822 004a 6421     		movs	r1, #100
 1823 004c FFF7FEFF 		bl	SPI_EndRxTxTransaction
 1824 0050 18B1     		cbz	r0, .L225
 1825 0052 636D     		ldr	r3, [r4, #84]
 1826 0054 43F02003 		orr	r3, r3, #32
 1827 0058 6365     		str	r3, [r4, #84]
 1828              	.L225:
ARM GAS  /tmp/ccMfNiPt.s 			page 32


 1829 005a A368     		ldr	r3, [r4, #8]
 1830 005c 33B9     		cbnz	r3, .L226
 1831 005e 0093     		str	r3, [sp]
 1832 0060 2368     		ldr	r3, [r4]
 1833 0062 DA68     		ldr	r2, [r3, #12]
 1834 0064 0092     		str	r2, [sp]
 1835 0066 9B68     		ldr	r3, [r3, #8]
 1836 0068 0093     		str	r3, [sp]
 1837 006a 009B     		ldr	r3, [sp]
 1838              	.L226:
 1839 006c 0123     		movs	r3, #1
 1840 006e 84F85130 		strb	r3, [r4, #81]
 1841 0072 636D     		ldr	r3, [r4, #84]
 1842 0074 1BB1     		cbz	r3, .L227
 1843 0076 2046     		mov	r0, r4
 1844 0078 FFF7FEFF 		bl	HAL_SPI_ErrorCallback
 1845 007c 02E0     		b	.L221
 1846              	.L227:
 1847 007e 2046     		mov	r0, r4
 1848 0080 FFF7FEFF 		bl	HAL_SPI_TxCpltCallback
 1849              	.L221:
 1850 0084 02B0     		add	sp, sp, #8
 1851              		@ sp needed
 1852 0086 10BD     		pop	{r4, pc}
 1853              	.L231:
 1854              		.align	2
 1855              	.L230:
 1856 0088 00000000 		.word	SystemCoreClock
 1857 008c F1197605 		.word	91625969
 1859              		.section	.text.SPI_TxISR_8BIT,"ax",%progbits
 1860              		.align	2
 1861              		.thumb
 1862              		.thumb_func
 1864              	SPI_TxISR_8BIT:
 1865              		@ args = 0, pretend = 0, frame = 0
 1866              		@ frame_needed = 0, uses_anonymous_args = 0
 1867 0000 08B5     		push	{r3, lr}
 1868 0002 0368     		ldr	r3, [r0]
 1869 0004 026B     		ldr	r2, [r0, #48]
 1870 0006 1278     		ldrb	r2, [r2]	@ zero_extendqisi2
 1871 0008 1A73     		strb	r2, [r3, #12]
 1872 000a 036B     		ldr	r3, [r0, #48]
 1873 000c 0133     		adds	r3, r3, #1
 1874 000e 0363     		str	r3, [r0, #48]
 1875 0010 C38E     		ldrh	r3, [r0, #54]
 1876 0012 013B     		subs	r3, r3, #1
 1877 0014 9BB2     		uxth	r3, r3
 1878 0016 C386     		strh	r3, [r0, #54]	@ movhi
 1879 0018 C38E     		ldrh	r3, [r0, #54]
 1880 001a 9BB2     		uxth	r3, r3
 1881 001c 53B9     		cbnz	r3, .L232
 1882 001e 836A     		ldr	r3, [r0, #40]
 1883 0020 B3F5005F 		cmp	r3, #8192
 1884 0024 04D1     		bne	.L234
 1885 0026 0268     		ldr	r2, [r0]
 1886 0028 1368     		ldr	r3, [r2]
 1887 002a 43F48053 		orr	r3, r3, #4096
ARM GAS  /tmp/ccMfNiPt.s 			page 33


 1888 002e 1360     		str	r3, [r2]
 1889              	.L234:
 1890 0030 FFF7FEFF 		bl	SPI_CloseTx_ISR
 1891              	.L232:
 1892 0034 08BD     		pop	{r3, pc}
 1894 0036 00BF     		.section	.text.SPI_TxISR_16BIT,"ax",%progbits
 1895              		.align	2
 1896              		.thumb
 1897              		.thumb_func
 1899              	SPI_TxISR_16BIT:
 1900              		@ args = 0, pretend = 0, frame = 0
 1901              		@ frame_needed = 0, uses_anonymous_args = 0
 1902 0000 08B5     		push	{r3, lr}
 1903 0002 0368     		ldr	r3, [r0]
 1904 0004 026B     		ldr	r2, [r0, #48]
 1905 0006 1288     		ldrh	r2, [r2]
 1906 0008 DA60     		str	r2, [r3, #12]
 1907 000a 036B     		ldr	r3, [r0, #48]
 1908 000c 0233     		adds	r3, r3, #2
 1909 000e 0363     		str	r3, [r0, #48]
 1910 0010 C38E     		ldrh	r3, [r0, #54]
 1911 0012 013B     		subs	r3, r3, #1
 1912 0014 9BB2     		uxth	r3, r3
 1913 0016 C386     		strh	r3, [r0, #54]	@ movhi
 1914 0018 C38E     		ldrh	r3, [r0, #54]
 1915 001a 9BB2     		uxth	r3, r3
 1916 001c 53B9     		cbnz	r3, .L236
 1917 001e 836A     		ldr	r3, [r0, #40]
 1918 0020 B3F5005F 		cmp	r3, #8192
 1919 0024 04D1     		bne	.L238
 1920 0026 0268     		ldr	r2, [r0]
 1921 0028 1368     		ldr	r3, [r2]
 1922 002a 43F48053 		orr	r3, r3, #4096
 1923 002e 1360     		str	r3, [r2]
 1924              	.L238:
 1925 0030 FFF7FEFF 		bl	SPI_CloseTx_ISR
 1926              	.L236:
 1927 0034 08BD     		pop	{r3, pc}
 1929 0036 00BF     		.section	.text.SPI_DMAError,"ax",%progbits
 1930              		.align	2
 1931              		.thumb
 1932              		.thumb_func
 1934              	SPI_DMAError:
 1935              		@ args = 0, pretend = 0, frame = 0
 1936              		@ frame_needed = 0, uses_anonymous_args = 0
 1937 0000 08B5     		push	{r3, lr}
 1938 0002 406A     		ldr	r0, [r0, #36]
 1939 0004 0268     		ldr	r2, [r0]
 1940 0006 5368     		ldr	r3, [r2, #4]
 1941 0008 23F00303 		bic	r3, r3, #3
 1942 000c 5360     		str	r3, [r2, #4]
 1943 000e 436D     		ldr	r3, [r0, #84]
 1944 0010 43F01003 		orr	r3, r3, #16
 1945 0014 4365     		str	r3, [r0, #84]
 1946 0016 0123     		movs	r3, #1
 1947 0018 80F85130 		strb	r3, [r0, #81]
 1948 001c FFF7FEFF 		bl	HAL_SPI_ErrorCallback
ARM GAS  /tmp/ccMfNiPt.s 			page 34


 1949 0020 08BD     		pop	{r3, pc}
 1951 0022 00BF     		.section	.text.SPI_DMATransmitCplt,"ax",%progbits
 1952              		.align	2
 1953              		.thumb
 1954              		.thumb_func
 1956              	SPI_DMATransmitCplt:
 1957              		@ args = 0, pretend = 0, frame = 8
 1958              		@ frame_needed = 0, uses_anonymous_args = 0
 1959 0000 30B5     		push	{r4, r5, lr}
 1960 0002 83B0     		sub	sp, sp, #12
 1961 0004 0546     		mov	r5, r0
 1962 0006 446A     		ldr	r4, [r0, #36]
 1963 0008 FFF7FEFF 		bl	HAL_GetTick
 1964 000c 2B68     		ldr	r3, [r5]
 1965 000e 1B68     		ldr	r3, [r3]
 1966 0010 13F0200F 		tst	r3, #32
 1967 0014 27D1     		bne	.L243
 1968 0016 0246     		mov	r2, r0
 1969 0018 2168     		ldr	r1, [r4]
 1970 001a 4B68     		ldr	r3, [r1, #4]
 1971 001c 23F02003 		bic	r3, r3, #32
 1972 0020 4B60     		str	r3, [r1, #4]
 1973 0022 2168     		ldr	r1, [r4]
 1974 0024 4B68     		ldr	r3, [r1, #4]
 1975 0026 23F00203 		bic	r3, r3, #2
 1976 002a 4B60     		str	r3, [r1, #4]
 1977 002c 2046     		mov	r0, r4
 1978 002e 6421     		movs	r1, #100
 1979 0030 FFF7FEFF 		bl	SPI_EndRxTxTransaction
 1980 0034 18B1     		cbz	r0, .L244
 1981 0036 636D     		ldr	r3, [r4, #84]
 1982 0038 43F02003 		orr	r3, r3, #32
 1983 003c 6365     		str	r3, [r4, #84]
 1984              	.L244:
 1985 003e A368     		ldr	r3, [r4, #8]
 1986 0040 33B9     		cbnz	r3, .L245
 1987 0042 0193     		str	r3, [sp, #4]
 1988 0044 2368     		ldr	r3, [r4]
 1989 0046 DA68     		ldr	r2, [r3, #12]
 1990 0048 0192     		str	r2, [sp, #4]
 1991 004a 9B68     		ldr	r3, [r3, #8]
 1992 004c 0193     		str	r3, [sp, #4]
 1993 004e 019B     		ldr	r3, [sp, #4]
 1994              	.L245:
 1995 0050 0023     		movs	r3, #0
 1996 0052 E386     		strh	r3, [r4, #54]	@ movhi
 1997 0054 0123     		movs	r3, #1
 1998 0056 84F85130 		strb	r3, [r4, #81]
 1999 005a 636D     		ldr	r3, [r4, #84]
 2000 005c 1BB1     		cbz	r3, .L243
 2001 005e 2046     		mov	r0, r4
 2002 0060 FFF7FEFF 		bl	HAL_SPI_ErrorCallback
 2003 0064 02E0     		b	.L242
 2004              	.L243:
 2005 0066 2046     		mov	r0, r4
 2006 0068 FFF7FEFF 		bl	HAL_SPI_TxCpltCallback
 2007              	.L242:
ARM GAS  /tmp/ccMfNiPt.s 			page 35


 2008 006c 03B0     		add	sp, sp, #12
 2009              		@ sp needed
 2010 006e 30BD     		pop	{r4, r5, pc}
 2012              		.section	.text.HAL_SPI_IRQHandler,"ax",%progbits
 2013              		.align	2
 2014              		.global	HAL_SPI_IRQHandler
 2015              		.thumb
 2016              		.thumb_func
 2018              	HAL_SPI_IRQHandler:
 2019              		@ args = 0, pretend = 0, frame = 16
 2020              		@ frame_needed = 0, uses_anonymous_args = 0
 2021 0000 10B5     		push	{r4, lr}
 2022 0002 84B0     		sub	sp, sp, #16
 2023 0004 0446     		mov	r4, r0
 2024 0006 0268     		ldr	r2, [r0]
 2025 0008 5168     		ldr	r1, [r2, #4]
 2026 000a 9368     		ldr	r3, [r2, #8]
 2027 000c 03F04100 		and	r0, r3, #65
 2028 0010 0128     		cmp	r0, #1
 2029 0012 06D1     		bne	.L249
 2030 0014 11F0400F 		tst	r1, #64
 2031 0018 03D0     		beq	.L249
 2032 001a 236C     		ldr	r3, [r4, #64]
 2033 001c 2046     		mov	r0, r4
 2034 001e 9847     		blx	r3
 2035 0020 69E0     		b	.L248
 2036              	.L249:
 2037 0022 13F0020F 		tst	r3, #2
 2038 0026 06D0     		beq	.L251
 2039 0028 11F0800F 		tst	r1, #128
 2040 002c 03D0     		beq	.L251
 2041 002e 636C     		ldr	r3, [r4, #68]
 2042 0030 2046     		mov	r0, r4
 2043 0032 9847     		blx	r3
 2044 0034 5FE0     		b	.L248
 2045              	.L251:
 2046 0036 13F0600F 		tst	r3, #96
 2047 003a 5CD0     		beq	.L248
 2048 003c 11F0200F 		tst	r1, #32
 2049 0040 59D0     		beq	.L248
 2050 0042 13F0400F 		tst	r3, #64
 2051 0046 18D0     		beq	.L252
 2052 0048 94F85100 		ldrb	r0, [r4, #81]	@ zero_extendqisi2
 2053 004c C0B2     		uxtb	r0, r0
 2054 004e 0328     		cmp	r0, #3
 2055 0050 0BD0     		beq	.L253
 2056 0052 606D     		ldr	r0, [r4, #84]
 2057 0054 40F00400 		orr	r0, r0, #4
 2058 0058 6065     		str	r0, [r4, #84]
 2059 005a 0020     		movs	r0, #0
 2060 005c 0190     		str	r0, [sp, #4]
 2061 005e D068     		ldr	r0, [r2, #12]
 2062 0060 0190     		str	r0, [sp, #4]
 2063 0062 9068     		ldr	r0, [r2, #8]
 2064 0064 0190     		str	r0, [sp, #4]
 2065 0066 0198     		ldr	r0, [sp, #4]
 2066 0068 07E0     		b	.L252
ARM GAS  /tmp/ccMfNiPt.s 			page 36


 2067              	.L253:
 2068 006a 0023     		movs	r3, #0
 2069 006c 0293     		str	r3, [sp, #8]
 2070 006e D368     		ldr	r3, [r2, #12]
 2071 0070 0293     		str	r3, [sp, #8]
 2072 0072 9368     		ldr	r3, [r2, #8]
 2073 0074 0293     		str	r3, [sp, #8]
 2074 0076 029B     		ldr	r3, [sp, #8]
 2075 0078 3DE0     		b	.L248
 2076              	.L252:
 2077 007a 13F0200F 		tst	r3, #32
 2078 007e 0CD0     		beq	.L254
 2079 0080 636D     		ldr	r3, [r4, #84]
 2080 0082 43F00103 		orr	r3, r3, #1
 2081 0086 6365     		str	r3, [r4, #84]
 2082 0088 0023     		movs	r3, #0
 2083 008a 0393     		str	r3, [sp, #12]
 2084 008c 9368     		ldr	r3, [r2, #8]
 2085 008e 0393     		str	r3, [sp, #12]
 2086 0090 1368     		ldr	r3, [r2]
 2087 0092 23F04003 		bic	r3, r3, #64
 2088 0096 1360     		str	r3, [r2]
 2089 0098 039B     		ldr	r3, [sp, #12]
 2090              	.L254:
 2091 009a 636D     		ldr	r3, [r4, #84]
 2092 009c 5BB3     		cbz	r3, .L248
 2093 009e 2268     		ldr	r2, [r4]
 2094 00a0 5368     		ldr	r3, [r2, #4]
 2095 00a2 23F0E003 		bic	r3, r3, #224
 2096 00a6 5360     		str	r3, [r2, #4]
 2097 00a8 0123     		movs	r3, #1
 2098 00aa 84F85130 		strb	r3, [r4, #81]
 2099 00ae 11F0030F 		tst	r1, #3
 2100 00b2 1DD0     		beq	.L255
 2101 00b4 2268     		ldr	r2, [r4]
 2102 00b6 5368     		ldr	r3, [r2, #4]
 2103 00b8 23F00303 		bic	r3, r3, #3
 2104 00bc 5360     		str	r3, [r2, #4]
 2105 00be E36C     		ldr	r3, [r4, #76]
 2106 00c0 4BB1     		cbz	r3, .L256
 2107 00c2 0E4A     		ldr	r2, .L258
 2108 00c4 5A63     		str	r2, [r3, #52]
 2109 00c6 E06C     		ldr	r0, [r4, #76]
 2110 00c8 FFF7FEFF 		bl	HAL_DMA_Abort_IT
 2111 00cc 18B1     		cbz	r0, .L256
 2112 00ce 636D     		ldr	r3, [r4, #84]
 2113 00d0 43F04003 		orr	r3, r3, #64
 2114 00d4 6365     		str	r3, [r4, #84]
 2115              	.L256:
 2116 00d6 A36C     		ldr	r3, [r4, #72]
 2117 00d8 6BB1     		cbz	r3, .L248
 2118 00da 084A     		ldr	r2, .L258
 2119 00dc 5A63     		str	r2, [r3, #52]
 2120 00de A06C     		ldr	r0, [r4, #72]
 2121 00e0 FFF7FEFF 		bl	HAL_DMA_Abort_IT
 2122 00e4 38B1     		cbz	r0, .L248
 2123 00e6 636D     		ldr	r3, [r4, #84]
ARM GAS  /tmp/ccMfNiPt.s 			page 37


 2124 00e8 43F04003 		orr	r3, r3, #64
 2125 00ec 6365     		str	r3, [r4, #84]
 2126 00ee 02E0     		b	.L248
 2127              	.L255:
 2128 00f0 2046     		mov	r0, r4
 2129 00f2 FFF7FEFF 		bl	HAL_SPI_ErrorCallback
 2130              	.L248:
 2131 00f6 04B0     		add	sp, sp, #16
 2132              		@ sp needed
 2133 00f8 10BD     		pop	{r4, pc}
 2134              	.L259:
 2135 00fa 00BF     		.align	2
 2136              	.L258:
 2137 00fc 00000000 		.word	SPI_DMAAbortOnError
 2139              		.section	.text.SPI_DMAAbortOnError,"ax",%progbits
 2140              		.align	2
 2141              		.thumb
 2142              		.thumb_func
 2144              	SPI_DMAAbortOnError:
 2145              		@ args = 0, pretend = 0, frame = 0
 2146              		@ frame_needed = 0, uses_anonymous_args = 0
 2147 0000 08B5     		push	{r3, lr}
 2148 0002 406A     		ldr	r0, [r0, #36]
 2149 0004 0023     		movs	r3, #0
 2150 0006 C387     		strh	r3, [r0, #62]	@ movhi
 2151 0008 C386     		strh	r3, [r0, #54]	@ movhi
 2152 000a FFF7FEFF 		bl	HAL_SPI_ErrorCallback
 2153 000e 08BD     		pop	{r3, pc}
 2155              		.section	.text.HAL_SPI_AbortCpltCallback,"ax",%progbits
 2156              		.align	2
 2157              		.weak	HAL_SPI_AbortCpltCallback
 2158              		.thumb
 2159              		.thumb_func
 2161              	HAL_SPI_AbortCpltCallback:
 2162              		@ args = 0, pretend = 0, frame = 0
 2163              		@ frame_needed = 0, uses_anonymous_args = 0
 2164              		@ link register save eliminated.
 2165 0000 7047     		bx	lr
 2167 0002 00BF     		.section	.text.HAL_SPI_Abort_IT,"ax",%progbits
 2168              		.align	2
 2169              		.global	HAL_SPI_Abort_IT
 2170              		.thumb
 2171              		.thumb_func
 2173              	HAL_SPI_Abort_IT:
 2174              		@ args = 0, pretend = 0, frame = 16
 2175              		@ frame_needed = 0, uses_anonymous_args = 0
 2176 0000 30B5     		push	{r4, r5, lr}
 2177 0002 85B0     		sub	sp, sp, #20
 2178 0004 0446     		mov	r4, r0
 2179 0006 4E4B     		ldr	r3, .L287
 2180 0008 1B68     		ldr	r3, [r3]
 2181 000a 4E4A     		ldr	r2, .L287+4
 2182 000c A2FB0323 		umull	r2, r3, r2, r3
 2183 0010 5B0A     		lsrs	r3, r3, #9
 2184 0012 6422     		movs	r2, #100
 2185 0014 02FB03F3 		mul	r3, r2, r3
 2186 0018 0293     		str	r3, [sp, #8]
ARM GAS  /tmp/ccMfNiPt.s 			page 38


 2187 001a 029B     		ldr	r3, [sp, #8]
 2188 001c 0393     		str	r3, [sp, #12]
 2189 001e 0268     		ldr	r2, [r0]
 2190 0020 5368     		ldr	r3, [r2, #4]
 2191 0022 23F02003 		bic	r3, r3, #32
 2192 0026 5360     		str	r3, [r2, #4]
 2193 0028 0268     		ldr	r2, [r0]
 2194 002a 5368     		ldr	r3, [r2, #4]
 2195 002c 13F0800F 		tst	r3, #128
 2196 0030 12D0     		beq	.L264
 2197 0032 454B     		ldr	r3, .L287+8
 2198 0034 4364     		str	r3, [r0, #68]
 2199              	.L267:
 2200 0036 039B     		ldr	r3, [sp, #12]
 2201 0038 23B9     		cbnz	r3, .L265
 2202 003a 636D     		ldr	r3, [r4, #84]
 2203 003c 43F04003 		orr	r3, r3, #64
 2204 0040 6365     		str	r3, [r4, #84]
 2205 0042 07E0     		b	.L266
 2206              	.L265:
 2207 0044 039B     		ldr	r3, [sp, #12]
 2208 0046 013B     		subs	r3, r3, #1
 2209 0048 0393     		str	r3, [sp, #12]
 2210 004a 94F85130 		ldrb	r3, [r4, #81]	@ zero_extendqisi2
 2211 004e DBB2     		uxtb	r3, r3
 2212 0050 072B     		cmp	r3, #7
 2213 0052 F0D1     		bne	.L267
 2214              	.L266:
 2215 0054 029B     		ldr	r3, [sp, #8]
 2216 0056 0393     		str	r3, [sp, #12]
 2217              	.L264:
 2218 0058 5368     		ldr	r3, [r2, #4]
 2219 005a 13F0400F 		tst	r3, #64
 2220 005e 12D0     		beq	.L268
 2221 0060 3A4B     		ldr	r3, .L287+12
 2222 0062 2364     		str	r3, [r4, #64]
 2223              	.L271:
 2224 0064 039B     		ldr	r3, [sp, #12]
 2225 0066 23B9     		cbnz	r3, .L269
 2226 0068 636D     		ldr	r3, [r4, #84]
 2227 006a 43F04003 		orr	r3, r3, #64
 2228 006e 6365     		str	r3, [r4, #84]
 2229 0070 07E0     		b	.L270
 2230              	.L269:
 2231 0072 039B     		ldr	r3, [sp, #12]
 2232 0074 013B     		subs	r3, r3, #1
 2233 0076 0393     		str	r3, [sp, #12]
 2234 0078 94F85130 		ldrb	r3, [r4, #81]	@ zero_extendqisi2
 2235 007c DBB2     		uxtb	r3, r3
 2236 007e 072B     		cmp	r3, #7
 2237 0080 F0D1     		bne	.L271
 2238              	.L270:
 2239 0082 029B     		ldr	r3, [sp, #8]
 2240 0084 0393     		str	r3, [sp, #12]
 2241              	.L268:
 2242 0086 A36C     		ldr	r3, [r4, #72]
 2243 0088 43B1     		cbz	r3, .L272
ARM GAS  /tmp/ccMfNiPt.s 			page 39


 2244 008a 5268     		ldr	r2, [r2, #4]
 2245 008c 12F0020F 		tst	r2, #2
 2246 0090 02D0     		beq	.L273
 2247 0092 2F4A     		ldr	r2, .L287+16
 2248 0094 5A63     		str	r2, [r3, #52]
 2249 0096 01E0     		b	.L272
 2250              	.L273:
 2251 0098 0022     		movs	r2, #0
 2252 009a 5A63     		str	r2, [r3, #52]
 2253              	.L272:
 2254 009c E36C     		ldr	r3, [r4, #76]
 2255 009e 4BB1     		cbz	r3, .L274
 2256 00a0 2268     		ldr	r2, [r4]
 2257 00a2 5268     		ldr	r2, [r2, #4]
 2258 00a4 12F0010F 		tst	r2, #1
 2259 00a8 02D0     		beq	.L275
 2260 00aa 2A4A     		ldr	r2, .L287+20
 2261 00ac 5A63     		str	r2, [r3, #52]
 2262 00ae 01E0     		b	.L274
 2263              	.L275:
 2264 00b0 0022     		movs	r2, #0
 2265 00b2 5A63     		str	r2, [r3, #52]
 2266              	.L274:
 2267 00b4 2368     		ldr	r3, [r4]
 2268 00b6 5B68     		ldr	r3, [r3, #4]
 2269 00b8 13F0020F 		tst	r3, #2
 2270 00bc 0BD0     		beq	.L280
 2271 00be A06C     		ldr	r0, [r4, #72]
 2272 00c0 58B1     		cbz	r0, .L281
 2273 00c2 FFF7FEFF 		bl	HAL_DMA_Abort_IT
 2274 00c6 50B1     		cbz	r0, .L282
 2275 00c8 A36C     		ldr	r3, [r4, #72]
 2276 00ca 0022     		movs	r2, #0
 2277 00cc 5A63     		str	r2, [r3, #52]
 2278 00ce 4023     		movs	r3, #64
 2279 00d0 6365     		str	r3, [r4, #84]
 2280 00d2 0125     		movs	r5, #1
 2281 00d4 04E0     		b	.L276
 2282              	.L280:
 2283 00d6 0125     		movs	r5, #1
 2284 00d8 02E0     		b	.L276
 2285              	.L281:
 2286 00da 0125     		movs	r5, #1
 2287 00dc 00E0     		b	.L276
 2288              	.L282:
 2289 00de 0025     		movs	r5, #0
 2290              	.L276:
 2291 00e0 2368     		ldr	r3, [r4]
 2292 00e2 5B68     		ldr	r3, [r3, #4]
 2293 00e4 13F0010F 		tst	r3, #1
 2294 00e8 0BD0     		beq	.L277
 2295 00ea E06C     		ldr	r0, [r4, #76]
 2296 00ec 48B1     		cbz	r0, .L277
 2297 00ee FFF7FEFF 		bl	HAL_DMA_Abort_IT
 2298 00f2 28B1     		cbz	r0, .L283
 2299 00f4 E36C     		ldr	r3, [r4, #76]
 2300 00f6 0022     		movs	r2, #0
ARM GAS  /tmp/ccMfNiPt.s 			page 40


 2301 00f8 5A63     		str	r2, [r3, #52]
 2302 00fa 4023     		movs	r3, #64
 2303 00fc 6365     		str	r3, [r4, #84]
 2304 00fe 00E0     		b	.L277
 2305              	.L283:
 2306 0100 0025     		movs	r5, #0
 2307              	.L277:
 2308 0102 C5B1     		cbz	r5, .L284
 2309 0104 0023     		movs	r3, #0
 2310 0106 E387     		strh	r3, [r4, #62]	@ movhi
 2311 0108 E386     		strh	r3, [r4, #54]	@ movhi
 2312 010a 636D     		ldr	r3, [r4, #84]
 2313 010c 402B     		cmp	r3, #64
 2314 010e 02D0     		beq	.L285
 2315 0110 0025     		movs	r5, #0
 2316 0112 6565     		str	r5, [r4, #84]
 2317 0114 00E0     		b	.L279
 2318              	.L285:
 2319 0116 0125     		movs	r5, #1
 2320              	.L279:
 2321 0118 0023     		movs	r3, #0
 2322 011a 0193     		str	r3, [sp, #4]
 2323 011c 2368     		ldr	r3, [r4]
 2324 011e DA68     		ldr	r2, [r3, #12]
 2325 0120 0192     		str	r2, [sp, #4]
 2326 0122 9B68     		ldr	r3, [r3, #8]
 2327 0124 0193     		str	r3, [sp, #4]
 2328 0126 019B     		ldr	r3, [sp, #4]
 2329 0128 0123     		movs	r3, #1
 2330 012a 84F85130 		strb	r3, [r4, #81]
 2331 012e 2046     		mov	r0, r4
 2332 0130 FFF7FEFF 		bl	HAL_SPI_AbortCpltCallback
 2333 0134 00E0     		b	.L278
 2334              	.L284:
 2335 0136 0025     		movs	r5, #0
 2336              	.L278:
 2337 0138 2846     		mov	r0, r5
 2338 013a 05B0     		add	sp, sp, #20
 2339              		@ sp needed
 2340 013c 30BD     		pop	{r4, r5, pc}
 2341              	.L288:
 2342 013e 00BF     		.align	2
 2343              	.L287:
 2344 0140 00000000 		.word	SystemCoreClock
 2345 0144 F1197605 		.word	91625969
 2346 0148 00000000 		.word	SPI_AbortTx_ISR
 2347 014c 00000000 		.word	SPI_AbortRx_ISR
 2348 0150 00000000 		.word	SPI_DMATxAbortCallback
 2349 0154 00000000 		.word	SPI_DMARxAbortCallback
 2351              		.section	.text.SPI_DMARxAbortCallback,"ax",%progbits
 2352              		.align	2
 2353              		.thumb
 2354              		.thumb_func
 2356              	SPI_DMARxAbortCallback:
 2357              		@ args = 0, pretend = 0, frame = 8
 2358              		@ frame_needed = 0, uses_anonymous_args = 0
 2359 0000 10B5     		push	{r4, lr}
ARM GAS  /tmp/ccMfNiPt.s 			page 41


 2360 0002 82B0     		sub	sp, sp, #8
 2361 0004 446A     		ldr	r4, [r0, #36]
 2362 0006 2268     		ldr	r2, [r4]
 2363 0008 1368     		ldr	r3, [r2]
 2364 000a 23F04003 		bic	r3, r3, #64
 2365 000e 1360     		str	r3, [r2]
 2366 0010 E36C     		ldr	r3, [r4, #76]
 2367 0012 0022     		movs	r2, #0
 2368 0014 5A63     		str	r2, [r3, #52]
 2369 0016 2268     		ldr	r2, [r4]
 2370 0018 5368     		ldr	r3, [r2, #4]
 2371 001a 23F00103 		bic	r3, r3, #1
 2372 001e 5360     		str	r3, [r2, #4]
 2373 0020 FFF7FEFF 		bl	HAL_GetTick
 2374 0024 0246     		mov	r2, r0
 2375 0026 2046     		mov	r0, r4
 2376 0028 6421     		movs	r1, #100
 2377 002a FFF7FEFF 		bl	SPI_EndRxTxTransaction
 2378 002e 18B1     		cbz	r0, .L290
 2379 0030 636D     		ldr	r3, [r4, #84]
 2380 0032 43F04003 		orr	r3, r3, #64
 2381 0036 6365     		str	r3, [r4, #84]
 2382              	.L290:
 2383 0038 A36C     		ldr	r3, [r4, #72]
 2384 003a 0BB1     		cbz	r3, .L291
 2385 003c 5B6B     		ldr	r3, [r3, #52]
 2386 003e ABB9     		cbnz	r3, .L289
 2387              	.L291:
 2388 0040 0023     		movs	r3, #0
 2389 0042 E387     		strh	r3, [r4, #62]	@ movhi
 2390 0044 E386     		strh	r3, [r4, #54]	@ movhi
 2391 0046 636D     		ldr	r3, [r4, #84]
 2392 0048 402B     		cmp	r3, #64
 2393 004a 01D0     		beq	.L293
 2394 004c 0023     		movs	r3, #0
 2395 004e 6365     		str	r3, [r4, #84]
 2396              	.L293:
 2397 0050 0023     		movs	r3, #0
 2398 0052 0193     		str	r3, [sp, #4]
 2399 0054 2368     		ldr	r3, [r4]
 2400 0056 DA68     		ldr	r2, [r3, #12]
 2401 0058 0192     		str	r2, [sp, #4]
 2402 005a 9B68     		ldr	r3, [r3, #8]
 2403 005c 0193     		str	r3, [sp, #4]
 2404 005e 019B     		ldr	r3, [sp, #4]
 2405 0060 0123     		movs	r3, #1
 2406 0062 84F85130 		strb	r3, [r4, #81]
 2407 0066 2046     		mov	r0, r4
 2408 0068 FFF7FEFF 		bl	HAL_SPI_AbortCpltCallback
 2409              	.L289:
 2410 006c 02B0     		add	sp, sp, #8
 2411              		@ sp needed
 2412 006e 10BD     		pop	{r4, pc}
 2414              		.section	.text.SPI_DMATxAbortCallback,"ax",%progbits
 2415              		.align	2
 2416              		.thumb
 2417              		.thumb_func
ARM GAS  /tmp/ccMfNiPt.s 			page 42


 2419              	SPI_DMATxAbortCallback:
 2420              		@ args = 0, pretend = 0, frame = 8
 2421              		@ frame_needed = 0, uses_anonymous_args = 0
 2422 0000 00B5     		push	{lr}
 2423 0002 83B0     		sub	sp, sp, #12
 2424 0004 406A     		ldr	r0, [r0, #36]
 2425 0006 836C     		ldr	r3, [r0, #72]
 2426 0008 0022     		movs	r2, #0
 2427 000a 5A63     		str	r2, [r3, #52]
 2428 000c 1C4B     		ldr	r3, .L303
 2429 000e 1B68     		ldr	r3, [r3]
 2430 0010 1C4A     		ldr	r2, .L303+4
 2431 0012 A2FB0323 		umull	r2, r3, r2, r3
 2432 0016 5B0A     		lsrs	r3, r3, #9
 2433 0018 6422     		movs	r2, #100
 2434 001a 02FB03F3 		mul	r3, r2, r3
 2435 001e 0193     		str	r3, [sp, #4]
 2436 0020 0268     		ldr	r2, [r0]
 2437 0022 5368     		ldr	r3, [r2, #4]
 2438 0024 23F00203 		bic	r3, r3, #2
 2439 0028 5360     		str	r3, [r2, #4]
 2440              	.L298:
 2441 002a 019B     		ldr	r3, [sp, #4]
 2442 002c 23B9     		cbnz	r3, .L296
 2443 002e 436D     		ldr	r3, [r0, #84]
 2444 0030 43F04003 		orr	r3, r3, #64
 2445 0034 4365     		str	r3, [r0, #84]
 2446 0036 07E0     		b	.L297
 2447              	.L296:
 2448 0038 019B     		ldr	r3, [sp, #4]
 2449 003a 013B     		subs	r3, r3, #1
 2450 003c 0193     		str	r3, [sp, #4]
 2451 003e 0368     		ldr	r3, [r0]
 2452 0040 9B68     		ldr	r3, [r3, #8]
 2453 0042 13F0020F 		tst	r3, #2
 2454 0046 F0D0     		beq	.L298
 2455              	.L297:
 2456 0048 C36C     		ldr	r3, [r0, #76]
 2457 004a 0BB1     		cbz	r3, .L299
 2458 004c 5B6B     		ldr	r3, [r3, #52]
 2459 004e A3B9     		cbnz	r3, .L295
 2460              	.L299:
 2461 0050 0023     		movs	r3, #0
 2462 0052 C387     		strh	r3, [r0, #62]	@ movhi
 2463 0054 C386     		strh	r3, [r0, #54]	@ movhi
 2464 0056 436D     		ldr	r3, [r0, #84]
 2465 0058 402B     		cmp	r3, #64
 2466 005a 01D0     		beq	.L301
 2467 005c 0023     		movs	r3, #0
 2468 005e 4365     		str	r3, [r0, #84]
 2469              	.L301:
 2470 0060 0023     		movs	r3, #0
 2471 0062 0093     		str	r3, [sp]
 2472 0064 0368     		ldr	r3, [r0]
 2473 0066 DA68     		ldr	r2, [r3, #12]
 2474 0068 0092     		str	r2, [sp]
 2475 006a 9B68     		ldr	r3, [r3, #8]
ARM GAS  /tmp/ccMfNiPt.s 			page 43


 2476 006c 0093     		str	r3, [sp]
 2477 006e 009B     		ldr	r3, [sp]
 2478 0070 0123     		movs	r3, #1
 2479 0072 80F85130 		strb	r3, [r0, #81]
 2480 0076 FFF7FEFF 		bl	HAL_SPI_AbortCpltCallback
 2481              	.L295:
 2482 007a 03B0     		add	sp, sp, #12
 2483              		@ sp needed
 2484 007c 5DF804FB 		ldr	pc, [sp], #4
 2485              	.L304:
 2486              		.align	2
 2487              	.L303:
 2488 0080 00000000 		.word	SystemCoreClock
 2489 0084 F1197605 		.word	91625969
 2491              		.section	.text.HAL_SPI_GetState,"ax",%progbits
 2492              		.align	2
 2493              		.global	HAL_SPI_GetState
 2494              		.thumb
 2495              		.thumb_func
 2497              	HAL_SPI_GetState:
 2498              		@ args = 0, pretend = 0, frame = 0
 2499              		@ frame_needed = 0, uses_anonymous_args = 0
 2500              		@ link register save eliminated.
 2501 0000 90F85100 		ldrb	r0, [r0, #81]	@ zero_extendqisi2
 2502 0004 7047     		bx	lr
 2504 0006 00BF     		.section	.text.HAL_SPI_GetError,"ax",%progbits
 2505              		.align	2
 2506              		.global	HAL_SPI_GetError
 2507              		.thumb
 2508              		.thumb_func
 2510              	HAL_SPI_GetError:
 2511              		@ args = 0, pretend = 0, frame = 0
 2512              		@ frame_needed = 0, uses_anonymous_args = 0
 2513              		@ link register save eliminated.
 2514 0000 406D     		ldr	r0, [r0, #84]
 2515 0002 7047     		bx	lr
 2517              		.section	.text.SPI_ISCRCErrorValid,"ax",%progbits
 2518              		.align	2
 2519              		.global	SPI_ISCRCErrorValid
 2520              		.thumb
 2521              		.thumb_func
 2523              	SPI_ISCRCErrorValid:
 2524              		@ args = 0, pretend = 0, frame = 0
 2525              		@ frame_needed = 0, uses_anonymous_args = 0
 2526              		@ link register save eliminated.
 2527 0000 0120     		movs	r0, #1
 2528 0002 7047     		bx	lr
 2530              		.section	.text.HAL_SPI_TransmitReceive,"ax",%progbits
 2531              		.align	2
 2532              		.global	HAL_SPI_TransmitReceive
 2533              		.thumb
 2534              		.thumb_func
 2536              	HAL_SPI_TransmitReceive:
 2537              		@ args = 4, pretend = 0, frame = 8
 2538              		@ frame_needed = 0, uses_anonymous_args = 0
 2539 0000 2DE9F043 		push	{r4, r5, r6, r7, r8, r9, lr}
 2540 0004 85B0     		sub	sp, sp, #20
ARM GAS  /tmp/ccMfNiPt.s 			page 44


 2541 0006 0446     		mov	r4, r0
 2542 0008 1D46     		mov	r5, r3
 2543 000a 0C9E     		ldr	r6, [sp, #48]
 2544 000c 90F85030 		ldrb	r3, [r0, #80]	@ zero_extendqisi2
 2545 0010 012B     		cmp	r3, #1
 2546 0012 00F06781 		beq	.L335
 2547 0016 8846     		mov	r8, r1
 2548 0018 9146     		mov	r9, r2
 2549 001a 0123     		movs	r3, #1
 2550 001c 80F85030 		strb	r3, [r0, #80]
 2551 0020 FFF7FEFF 		bl	HAL_GetTick
 2552 0024 0746     		mov	r7, r0
 2553 0026 94F85130 		ldrb	r3, [r4, #81]	@ zero_extendqisi2
 2554 002a DBB2     		uxtb	r3, r3
 2555 002c 6268     		ldr	r2, [r4, #4]
 2556 002e 012B     		cmp	r3, #1
 2557 0030 0AD0     		beq	.L310
 2558 0032 B2F5827F 		cmp	r2, #260
 2559 0036 40F03C81 		bne	.L336
 2560 003a A268     		ldr	r2, [r4, #8]
 2561 003c 002A     		cmp	r2, #0
 2562 003e 40F03A81 		bne	.L337
 2563 0042 042B     		cmp	r3, #4
 2564 0044 40F03981 		bne	.L338
 2565              	.L310:
 2566 0048 B8F1000F 		cmp	r8, #0
 2567 004c 00F03781 		beq	.L339
 2568 0050 B9F1000F 		cmp	r9, #0
 2569 0054 00F03581 		beq	.L340
 2570 0058 002D     		cmp	r5, #0
 2571 005a 00F03481 		beq	.L341
 2572 005e 94F85130 		ldrb	r3, [r4, #81]	@ zero_extendqisi2
 2573 0062 DBB2     		uxtb	r3, r3
 2574 0064 042B     		cmp	r3, #4
 2575 0066 02D0     		beq	.L312
 2576 0068 0523     		movs	r3, #5
 2577 006a 84F85130 		strb	r3, [r4, #81]
 2578              	.L312:
 2579 006e 0023     		movs	r3, #0
 2580 0070 6365     		str	r3, [r4, #84]
 2581 0072 C4F83890 		str	r9, [r4, #56]
 2582 0076 E587     		strh	r5, [r4, #62]	@ movhi
 2583 0078 A587     		strh	r5, [r4, #60]	@ movhi
 2584 007a C4F83080 		str	r8, [r4, #48]
 2585 007e E586     		strh	r5, [r4, #54]	@ movhi
 2586 0080 A586     		strh	r5, [r4, #52]	@ movhi
 2587 0082 2364     		str	r3, [r4, #64]
 2588 0084 6364     		str	r3, [r4, #68]
 2589 0086 A36A     		ldr	r3, [r4, #40]
 2590 0088 B3F5005F 		cmp	r3, #8192
 2591 008c 09D1     		bne	.L313
 2592 008e 2268     		ldr	r2, [r4]
 2593 0090 1368     		ldr	r3, [r2]
 2594 0092 23F40053 		bic	r3, r3, #8192
 2595 0096 1360     		str	r3, [r2]
 2596 0098 2268     		ldr	r2, [r4]
 2597 009a 1368     		ldr	r3, [r2]
ARM GAS  /tmp/ccMfNiPt.s 			page 45


 2598 009c 43F40053 		orr	r3, r3, #8192
 2599 00a0 1360     		str	r3, [r2]
 2600              	.L313:
 2601 00a2 2368     		ldr	r3, [r4]
 2602 00a4 1A68     		ldr	r2, [r3]
 2603 00a6 12F0400F 		tst	r2, #64
 2604 00aa 03D1     		bne	.L314
 2605 00ac 1A68     		ldr	r2, [r3]
 2606 00ae 42F04002 		orr	r2, r2, #64
 2607 00b2 1A60     		str	r2, [r3]
 2608              	.L314:
 2609 00b4 E368     		ldr	r3, [r4, #12]
 2610 00b6 B3F5006F 		cmp	r3, #2048
 2611 00ba 59D1     		bne	.L315
 2612 00bc 6368     		ldr	r3, [r4, #4]
 2613 00be 0BB1     		cbz	r3, .L316
 2614 00c0 012D     		cmp	r5, #1
 2615 00c2 0AD1     		bne	.L317
 2616              	.L316:
 2617 00c4 2368     		ldr	r3, [r4]
 2618 00c6 226B     		ldr	r2, [r4, #48]
 2619 00c8 1288     		ldrh	r2, [r2]
 2620 00ca DA60     		str	r2, [r3, #12]
 2621 00cc 236B     		ldr	r3, [r4, #48]
 2622 00ce 0233     		adds	r3, r3, #2
 2623 00d0 2363     		str	r3, [r4, #48]
 2624 00d2 E38E     		ldrh	r3, [r4, #54]
 2625 00d4 013B     		subs	r3, r3, #1
 2626 00d6 9BB2     		uxth	r3, r3
 2627 00d8 E386     		strh	r3, [r4, #54]	@ movhi
 2628              	.L317:
 2629 00da 0125     		movs	r5, #1
 2630 00dc 3FE0     		b	.L318
 2631              	.L321:
 2632 00de 2368     		ldr	r3, [r4]
 2633 00e0 9A68     		ldr	r2, [r3, #8]
 2634 00e2 12F0020F 		tst	r2, #2
 2635 00e6 1ED0     		beq	.L319
 2636 00e8 E28E     		ldrh	r2, [r4, #54]
 2637 00ea 92B2     		uxth	r2, r2
 2638 00ec DAB1     		cbz	r2, .L319
 2639 00ee D5B1     		cbz	r5, .L319
 2640 00f0 226B     		ldr	r2, [r4, #48]
 2641 00f2 1288     		ldrh	r2, [r2]
 2642 00f4 DA60     		str	r2, [r3, #12]
 2643 00f6 236B     		ldr	r3, [r4, #48]
 2644 00f8 0233     		adds	r3, r3, #2
 2645 00fa 2363     		str	r3, [r4, #48]
 2646 00fc E38E     		ldrh	r3, [r4, #54]
 2647 00fe 013B     		subs	r3, r3, #1
 2648 0100 9BB2     		uxth	r3, r3
 2649 0102 E386     		strh	r3, [r4, #54]	@ movhi
 2650 0104 E38E     		ldrh	r3, [r4, #54]
 2651 0106 9BB2     		uxth	r3, r3
 2652 0108 53B9     		cbnz	r3, .L342
 2653 010a A36A     		ldr	r3, [r4, #40]
 2654 010c B3F5005F 		cmp	r3, #8192
ARM GAS  /tmp/ccMfNiPt.s 			page 46


 2655 0110 08D1     		bne	.L343
 2656 0112 2268     		ldr	r2, [r4]
 2657 0114 1368     		ldr	r3, [r2]
 2658 0116 43F48053 		orr	r3, r3, #4096
 2659 011a 1360     		str	r3, [r2]
 2660 011c 0025     		movs	r5, #0
 2661 011e 02E0     		b	.L319
 2662              	.L342:
 2663 0120 0025     		movs	r5, #0
 2664 0122 00E0     		b	.L319
 2665              	.L343:
 2666 0124 0025     		movs	r5, #0
 2667              	.L319:
 2668 0126 2368     		ldr	r3, [r4]
 2669 0128 9A68     		ldr	r2, [r3, #8]
 2670 012a 12F0010F 		tst	r2, #1
 2671 012e 0DD0     		beq	.L320
 2672 0130 E28F     		ldrh	r2, [r4, #62]
 2673 0132 92B2     		uxth	r2, r2
 2674 0134 52B1     		cbz	r2, .L320
 2675 0136 A26B     		ldr	r2, [r4, #56]
 2676 0138 DB68     		ldr	r3, [r3, #12]
 2677 013a 1380     		strh	r3, [r2]	@ movhi
 2678 013c A36B     		ldr	r3, [r4, #56]
 2679 013e 0233     		adds	r3, r3, #2
 2680 0140 A363     		str	r3, [r4, #56]
 2681 0142 E38F     		ldrh	r3, [r4, #62]
 2682 0144 013B     		subs	r3, r3, #1
 2683 0146 9BB2     		uxth	r3, r3
 2684 0148 E387     		strh	r3, [r4, #62]	@ movhi
 2685 014a 0125     		movs	r5, #1
 2686              	.L320:
 2687 014c FFF7FEFF 		bl	HAL_GetTick
 2688 0150 C01B     		subs	r0, r0, r7
 2689 0152 B042     		cmp	r0, r6
 2690 0154 03D3     		bcc	.L318
 2691 0156 B6F1FF3F 		cmp	r6, #-1
 2692 015a 40F0B680 		bne	.L344
 2693              	.L318:
 2694 015e E38E     		ldrh	r3, [r4, #54]
 2695 0160 9BB2     		uxth	r3, r3
 2696 0162 002B     		cmp	r3, #0
 2697 0164 BBD1     		bne	.L321
 2698 0166 E38F     		ldrh	r3, [r4, #62]
 2699 0168 9BB2     		uxth	r3, r3
 2700 016a 002B     		cmp	r3, #0
 2701 016c B7D1     		bne	.L321
 2702 016e 59E0     		b	.L322
 2703              	.L315:
 2704 0170 6368     		ldr	r3, [r4, #4]
 2705 0172 0BB1     		cbz	r3, .L323
 2706 0174 012D     		cmp	r5, #1
 2707 0176 4CD1     		bne	.L324
 2708              	.L323:
 2709 0178 2368     		ldr	r3, [r4]
 2710 017a 226B     		ldr	r2, [r4, #48]
 2711 017c 1278     		ldrb	r2, [r2]	@ zero_extendqisi2
ARM GAS  /tmp/ccMfNiPt.s 			page 47


 2712 017e 1A73     		strb	r2, [r3, #12]
 2713 0180 236B     		ldr	r3, [r4, #48]
 2714 0182 0133     		adds	r3, r3, #1
 2715 0184 2363     		str	r3, [r4, #48]
 2716 0186 E38E     		ldrh	r3, [r4, #54]
 2717 0188 013B     		subs	r3, r3, #1
 2718 018a 9BB2     		uxth	r3, r3
 2719 018c E386     		strh	r3, [r4, #54]	@ movhi
 2720 018e 40E0     		b	.L324
 2721              	.L329:
 2722 0190 2368     		ldr	r3, [r4]
 2723 0192 9A68     		ldr	r2, [r3, #8]
 2724 0194 12F0020F 		tst	r2, #2
 2725 0198 1ED0     		beq	.L325
 2726 019a E28E     		ldrh	r2, [r4, #54]
 2727 019c 92B2     		uxth	r2, r2
 2728 019e DAB1     		cbz	r2, .L325
 2729 01a0 D5B1     		cbz	r5, .L325
 2730 01a2 226B     		ldr	r2, [r4, #48]
 2731 01a4 1278     		ldrb	r2, [r2]	@ zero_extendqisi2
 2732 01a6 1A73     		strb	r2, [r3, #12]
 2733 01a8 236B     		ldr	r3, [r4, #48]
 2734 01aa 0133     		adds	r3, r3, #1
 2735 01ac 2363     		str	r3, [r4, #48]
 2736 01ae E38E     		ldrh	r3, [r4, #54]
 2737 01b0 013B     		subs	r3, r3, #1
 2738 01b2 9BB2     		uxth	r3, r3
 2739 01b4 E386     		strh	r3, [r4, #54]	@ movhi
 2740 01b6 E38E     		ldrh	r3, [r4, #54]
 2741 01b8 9BB2     		uxth	r3, r3
 2742 01ba 53B9     		cbnz	r3, .L345
 2743 01bc A36A     		ldr	r3, [r4, #40]
 2744 01be B3F5005F 		cmp	r3, #8192
 2745 01c2 08D1     		bne	.L346
 2746 01c4 2268     		ldr	r2, [r4]
 2747 01c6 1368     		ldr	r3, [r2]
 2748 01c8 43F48053 		orr	r3, r3, #4096
 2749 01cc 1360     		str	r3, [r2]
 2750 01ce 0025     		movs	r5, #0
 2751 01d0 02E0     		b	.L325
 2752              	.L345:
 2753 01d2 0025     		movs	r5, #0
 2754 01d4 00E0     		b	.L325
 2755              	.L346:
 2756 01d6 0025     		movs	r5, #0
 2757              	.L325:
 2758 01d8 2368     		ldr	r3, [r4]
 2759 01da 9A68     		ldr	r2, [r3, #8]
 2760 01dc 12F0010F 		tst	r2, #1
 2761 01e0 0DD0     		beq	.L326
 2762 01e2 E28F     		ldrh	r2, [r4, #62]
 2763 01e4 92B2     		uxth	r2, r2
 2764 01e6 52B1     		cbz	r2, .L326
 2765 01e8 A26B     		ldr	r2, [r4, #56]
 2766 01ea DB68     		ldr	r3, [r3, #12]
 2767 01ec 1370     		strb	r3, [r2]
 2768 01ee A36B     		ldr	r3, [r4, #56]
ARM GAS  /tmp/ccMfNiPt.s 			page 48


 2769 01f0 0133     		adds	r3, r3, #1
 2770 01f2 A363     		str	r3, [r4, #56]
 2771 01f4 E38F     		ldrh	r3, [r4, #62]
 2772 01f6 013B     		subs	r3, r3, #1
 2773 01f8 9BB2     		uxth	r3, r3
 2774 01fa E387     		strh	r3, [r4, #62]	@ movhi
 2775 01fc 0125     		movs	r5, #1
 2776              	.L326:
 2777 01fe FFF7FEFF 		bl	HAL_GetTick
 2778 0202 C01B     		subs	r0, r0, r7
 2779 0204 B042     		cmp	r0, r6
 2780 0206 02D3     		bcc	.L327
 2781 0208 B6F1FF3F 		cmp	r6, #-1
 2782 020c 5FD1     		bne	.L347
 2783              	.L327:
 2784 020e 0EB9     		cbnz	r6, .L328
 2785 0210 5FE0     		b	.L348
 2786              	.L324:
 2787 0212 0125     		movs	r5, #1
 2788              	.L328:
 2789 0214 E38E     		ldrh	r3, [r4, #54]
 2790 0216 9BB2     		uxth	r3, r3
 2791 0218 002B     		cmp	r3, #0
 2792 021a B9D1     		bne	.L329
 2793 021c E38F     		ldrh	r3, [r4, #62]
 2794 021e 9BB2     		uxth	r3, r3
 2795 0220 002B     		cmp	r3, #0
 2796 0222 B5D1     		bne	.L329
 2797              	.L322:
 2798 0224 A36A     		ldr	r3, [r4, #40]
 2799 0226 B3F5005F 		cmp	r3, #8192
 2800 022a 0FD1     		bne	.L330
 2801 022c 0097     		str	r7, [sp]
 2802 022e 2046     		mov	r0, r4
 2803 0230 0121     		movs	r1, #1
 2804 0232 0A46     		mov	r2, r1
 2805 0234 3346     		mov	r3, r6
 2806 0236 FFF7FEFF 		bl	SPI_WaitFlagStateUntilTimeout
 2807 023a 28B1     		cbz	r0, .L331
 2808 023c 636D     		ldr	r3, [r4, #84]
 2809 023e 43F00203 		orr	r3, r3, #2
 2810 0242 6365     		str	r3, [r4, #84]
 2811 0244 0325     		movs	r5, #3
 2812 0246 45E0     		b	.L311
 2813              	.L331:
 2814 0248 2368     		ldr	r3, [r4]
 2815 024a DB68     		ldr	r3, [r3, #12]
 2816              	.L330:
 2817 024c 2568     		ldr	r5, [r4]
 2818 024e AB68     		ldr	r3, [r5, #8]
 2819 0250 13F0100F 		tst	r3, #16
 2820 0254 18D0     		beq	.L349
 2821 0256 2046     		mov	r0, r4
 2822 0258 FFF7FEFF 		bl	SPI_ISCRCErrorValid
 2823 025c 0128     		cmp	r0, #1
 2824 025e 0ED1     		bne	.L333
 2825 0260 636D     		ldr	r3, [r4, #84]
ARM GAS  /tmp/ccMfNiPt.s 			page 49


 2826 0262 43F00203 		orr	r3, r3, #2
 2827 0266 6365     		str	r3, [r4, #84]
 2828 0268 2B68     		ldr	r3, [r5]
 2829 026a 23F40053 		bic	r3, r3, #8192
 2830 026e 2B60     		str	r3, [r5]
 2831 0270 2268     		ldr	r2, [r4]
 2832 0272 1368     		ldr	r3, [r2]
 2833 0274 43F40053 		orr	r3, r3, #8192
 2834 0278 1360     		str	r3, [r2]
 2835 027a 0125     		movs	r5, #1
 2836 027c 05E0     		b	.L332
 2837              	.L333:
 2838 027e 4FF6EF73 		movw	r3, #65519
 2839 0282 AB60     		str	r3, [r5, #8]
 2840 0284 0025     		movs	r5, #0
 2841 0286 00E0     		b	.L332
 2842              	.L349:
 2843 0288 0025     		movs	r5, #0
 2844              	.L332:
 2845 028a 2046     		mov	r0, r4
 2846 028c 3146     		mov	r1, r6
 2847 028e 3A46     		mov	r2, r7
 2848 0290 FFF7FEFF 		bl	SPI_EndRxTxTransaction
 2849 0294 18B1     		cbz	r0, .L334
 2850 0296 2023     		movs	r3, #32
 2851 0298 6365     		str	r3, [r4, #84]
 2852 029a 0125     		movs	r5, #1
 2853 029c 1AE0     		b	.L311
 2854              	.L334:
 2855 029e A368     		ldr	r3, [r4, #8]
 2856 02a0 C3B9     		cbnz	r3, .L311
 2857 02a2 0393     		str	r3, [sp, #12]
 2858 02a4 2368     		ldr	r3, [r4]
 2859 02a6 DA68     		ldr	r2, [r3, #12]
 2860 02a8 0392     		str	r2, [sp, #12]
 2861 02aa 9B68     		ldr	r3, [r3, #8]
 2862 02ac 0393     		str	r3, [sp, #12]
 2863 02ae 039B     		ldr	r3, [sp, #12]
 2864 02b0 10E0     		b	.L311
 2865              	.L336:
 2866 02b2 0225     		movs	r5, #2
 2867 02b4 0EE0     		b	.L311
 2868              	.L337:
 2869 02b6 0225     		movs	r5, #2
 2870 02b8 0CE0     		b	.L311
 2871              	.L338:
 2872 02ba 0225     		movs	r5, #2
 2873 02bc 0AE0     		b	.L311
 2874              	.L339:
 2875 02be 0125     		movs	r5, #1
 2876 02c0 08E0     		b	.L311
 2877              	.L340:
 2878 02c2 0125     		movs	r5, #1
 2879 02c4 06E0     		b	.L311
 2880              	.L341:
 2881 02c6 0125     		movs	r5, #1
 2882 02c8 04E0     		b	.L311
ARM GAS  /tmp/ccMfNiPt.s 			page 50


 2883              	.L344:
 2884 02ca 0325     		movs	r5, #3
 2885 02cc 02E0     		b	.L311
 2886              	.L347:
 2887 02ce 0325     		movs	r5, #3
 2888 02d0 00E0     		b	.L311
 2889              	.L348:
 2890 02d2 0325     		movs	r5, #3
 2891              	.L311:
 2892 02d4 0123     		movs	r3, #1
 2893 02d6 84F85130 		strb	r3, [r4, #81]
 2894 02da 0023     		movs	r3, #0
 2895 02dc 84F85030 		strb	r3, [r4, #80]
 2896 02e0 2846     		mov	r0, r5
 2897 02e2 00E0     		b	.L309
 2898              	.L335:
 2899 02e4 0220     		movs	r0, #2
 2900              	.L309:
 2901 02e6 05B0     		add	sp, sp, #20
 2902              		@ sp needed
 2903 02e8 BDE8F083 		pop	{r4, r5, r6, r7, r8, r9, pc}
 2905              		.section	.text.HAL_SPI_Receive,"ax",%progbits
 2906              		.align	2
 2907              		.global	HAL_SPI_Receive
 2908              		.thumb
 2909              		.thumb_func
 2911              	HAL_SPI_Receive:
 2912              		@ args = 0, pretend = 0, frame = 0
 2913              		@ frame_needed = 0, uses_anonymous_args = 0
 2914 0000 2DE9F041 		push	{r4, r5, r6, r7, r8, lr}
 2915 0004 82B0     		sub	sp, sp, #8
 2916 0006 0446     		mov	r4, r0
 2917 0008 0F46     		mov	r7, r1
 2918 000a 9046     		mov	r8, r2
 2919 000c 1D46     		mov	r5, r3
 2920 000e 4368     		ldr	r3, [r0, #4]
 2921 0010 B3F5827F 		cmp	r3, #260
 2922 0014 0AD1     		bne	.L352
 2923 0016 8368     		ldr	r3, [r0, #8]
 2924 0018 43B9     		cbnz	r3, .L352
 2925 001a 0423     		movs	r3, #4
 2926 001c 80F85130 		strb	r3, [r0, #81]
 2927 0020 0095     		str	r5, [sp]
 2928 0022 3A46     		mov	r2, r7
 2929 0024 4346     		mov	r3, r8
 2930 0026 FFF7FEFF 		bl	HAL_SPI_TransmitReceive
 2931 002a 04E1     		b	.L353
 2932              	.L352:
 2933 002c 94F85030 		ldrb	r3, [r4, #80]	@ zero_extendqisi2
 2934 0030 012B     		cmp	r3, #1
 2935 0032 00F0FF80 		beq	.L377
 2936 0036 0123     		movs	r3, #1
 2937 0038 84F85030 		strb	r3, [r4, #80]
 2938 003c FFF7FEFF 		bl	HAL_GetTick
 2939 0040 0646     		mov	r6, r0
 2940 0042 94F85130 		ldrb	r3, [r4, #81]	@ zero_extendqisi2
 2941 0046 DBB2     		uxtb	r3, r3
ARM GAS  /tmp/ccMfNiPt.s 			page 51


 2942 0048 012B     		cmp	r3, #1
 2943 004a 40F0DB80 		bne	.L378
 2944 004e 002F     		cmp	r7, #0
 2945 0050 00F0DA80 		beq	.L379
 2946 0054 B8F1000F 		cmp	r8, #0
 2947 0058 00F0D880 		beq	.L380
 2948 005c 0423     		movs	r3, #4
 2949 005e 84F85130 		strb	r3, [r4, #81]
 2950 0062 0023     		movs	r3, #0
 2951 0064 6365     		str	r3, [r4, #84]
 2952 0066 A763     		str	r7, [r4, #56]
 2953 0068 A4F83C80 		strh	r8, [r4, #60]	@ movhi
 2954 006c A4F83E80 		strh	r8, [r4, #62]	@ movhi
 2955 0070 2363     		str	r3, [r4, #48]
 2956 0072 A386     		strh	r3, [r4, #52]	@ movhi
 2957 0074 E386     		strh	r3, [r4, #54]	@ movhi
 2958 0076 2364     		str	r3, [r4, #64]
 2959 0078 6364     		str	r3, [r4, #68]
 2960 007a A36A     		ldr	r3, [r4, #40]
 2961 007c B3F5005F 		cmp	r3, #8192
 2962 0080 0DD1     		bne	.L355
 2963 0082 2268     		ldr	r2, [r4]
 2964 0084 1368     		ldr	r3, [r2]
 2965 0086 23F40053 		bic	r3, r3, #8192
 2966 008a 1360     		str	r3, [r2]
 2967 008c 2268     		ldr	r2, [r4]
 2968 008e 1368     		ldr	r3, [r2]
 2969 0090 43F40053 		orr	r3, r3, #8192
 2970 0094 1360     		str	r3, [r2]
 2971 0096 E38F     		ldrh	r3, [r4, #62]
 2972 0098 013B     		subs	r3, r3, #1
 2973 009a 9BB2     		uxth	r3, r3
 2974 009c E387     		strh	r3, [r4, #62]	@ movhi
 2975              	.L355:
 2976 009e A368     		ldr	r3, [r4, #8]
 2977 00a0 B3F5004F 		cmp	r3, #32768
 2978 00a4 04D1     		bne	.L356
 2979 00a6 2268     		ldr	r2, [r4]
 2980 00a8 1368     		ldr	r3, [r2]
 2981 00aa 23F48043 		bic	r3, r3, #16384
 2982 00ae 1360     		str	r3, [r2]
 2983              	.L356:
 2984 00b0 2368     		ldr	r3, [r4]
 2985 00b2 1A68     		ldr	r2, [r3]
 2986 00b4 12F0400F 		tst	r2, #64
 2987 00b8 03D1     		bne	.L357
 2988 00ba 1A68     		ldr	r2, [r3]
 2989 00bc 42F04002 		orr	r2, r2, #64
 2990 00c0 1A60     		str	r2, [r3]
 2991              	.L357:
 2992 00c2 E368     		ldr	r3, [r4, #12]
 2993 00c4 E3B1     		cbz	r3, .L358
 2994 00c6 3AE0     		b	.L359
 2995              	.L363:
 2996 00c8 2368     		ldr	r3, [r4]
 2997 00ca 9A68     		ldr	r2, [r3, #8]
 2998 00cc 12F0010F 		tst	r2, #1
ARM GAS  /tmp/ccMfNiPt.s 			page 52


 2999 00d0 0AD0     		beq	.L360
 3000 00d2 A26B     		ldr	r2, [r4, #56]
 3001 00d4 1B7B     		ldrb	r3, [r3, #12]	@ zero_extendqisi2
 3002 00d6 1370     		strb	r3, [r2]
 3003 00d8 A36B     		ldr	r3, [r4, #56]
 3004 00da 0133     		adds	r3, r3, #1
 3005 00dc A363     		str	r3, [r4, #56]
 3006 00de E38F     		ldrh	r3, [r4, #62]
 3007 00e0 013B     		subs	r3, r3, #1
 3008 00e2 9BB2     		uxth	r3, r3
 3009 00e4 E387     		strh	r3, [r4, #62]	@ movhi
 3010 00e6 0BE0     		b	.L358
 3011              	.L360:
 3012 00e8 FFF7FEFF 		bl	HAL_GetTick
 3013 00ec 801B     		subs	r0, r0, r6
 3014 00ee A842     		cmp	r0, r5
 3015 00f0 03D3     		bcc	.L362
 3016 00f2 B5F1FF3F 		cmp	r5, #-1
 3017 00f6 40F08B80 		bne	.L381
 3018              	.L362:
 3019 00fa 002D     		cmp	r5, #0
 3020 00fc 00F08A80 		beq	.L382
 3021              	.L358:
 3022 0100 E38F     		ldrh	r3, [r4, #62]
 3023 0102 9BB2     		uxth	r3, r3
 3024 0104 002B     		cmp	r3, #0
 3025 0106 DFD1     		bne	.L363
 3026 0108 1DE0     		b	.L364
 3027              	.L368:
 3028 010a 2368     		ldr	r3, [r4]
 3029 010c 9A68     		ldr	r2, [r3, #8]
 3030 010e 12F0010F 		tst	r2, #1
 3031 0112 0AD0     		beq	.L365
 3032 0114 A26B     		ldr	r2, [r4, #56]
 3033 0116 DB68     		ldr	r3, [r3, #12]
 3034 0118 1380     		strh	r3, [r2]	@ movhi
 3035 011a A36B     		ldr	r3, [r4, #56]
 3036 011c 0233     		adds	r3, r3, #2
 3037 011e A363     		str	r3, [r4, #56]
 3038 0120 E38F     		ldrh	r3, [r4, #62]
 3039 0122 013B     		subs	r3, r3, #1
 3040 0124 9BB2     		uxth	r3, r3
 3041 0126 E387     		strh	r3, [r4, #62]	@ movhi
 3042 0128 09E0     		b	.L359
 3043              	.L365:
 3044 012a FFF7FEFF 		bl	HAL_GetTick
 3045 012e 801B     		subs	r0, r0, r6
 3046 0130 A842     		cmp	r0, r5
 3047 0132 02D3     		bcc	.L367
 3048 0134 B5F1FF3F 		cmp	r5, #-1
 3049 0138 6ED1     		bne	.L383
 3050              	.L367:
 3051 013a 002D     		cmp	r5, #0
 3052 013c 6ED0     		beq	.L384
 3053              	.L359:
 3054 013e E38F     		ldrh	r3, [r4, #62]
 3055 0140 9BB2     		uxth	r3, r3
ARM GAS  /tmp/ccMfNiPt.s 			page 53


 3056 0142 002B     		cmp	r3, #0
 3057 0144 E1D1     		bne	.L368
 3058              	.L364:
 3059 0146 A36A     		ldr	r3, [r4, #40]
 3060 0148 B3F5005F 		cmp	r3, #8192
 3061 014c 33D1     		bne	.L369
 3062 014e 2268     		ldr	r2, [r4]
 3063 0150 1368     		ldr	r3, [r2]
 3064 0152 43F48053 		orr	r3, r3, #4096
 3065 0156 1360     		str	r3, [r2]
 3066 0158 2368     		ldr	r3, [r4]
 3067 015a 1A68     		ldr	r2, [r3]
 3068 015c 12F4805F 		tst	r2, #4096
 3069 0160 03D0     		beq	.L370
 3070 0162 1A68     		ldr	r2, [r3]
 3071 0164 22F48052 		bic	r2, r2, #4096
 3072 0168 1A60     		str	r2, [r3]
 3073              	.L370:
 3074 016a 0096     		str	r6, [sp]
 3075 016c 2046     		mov	r0, r4
 3076 016e 0121     		movs	r1, #1
 3077 0170 0A46     		mov	r2, r1
 3078 0172 2B46     		mov	r3, r5
 3079 0174 FFF7FEFF 		bl	SPI_WaitFlagStateUntilTimeout
 3080 0178 0028     		cmp	r0, #0
 3081 017a 51D1     		bne	.L385
 3082 017c E368     		ldr	r3, [r4, #12]
 3083 017e B3F5006F 		cmp	r3, #2048
 3084 0182 04D1     		bne	.L371
 3085 0184 A36B     		ldr	r3, [r4, #56]
 3086 0186 2268     		ldr	r2, [r4]
 3087 0188 D268     		ldr	r2, [r2, #12]
 3088 018a 1A80     		strh	r2, [r3]	@ movhi
 3089 018c 03E0     		b	.L372
 3090              	.L371:
 3091 018e A36B     		ldr	r3, [r4, #56]
 3092 0190 2268     		ldr	r2, [r4]
 3093 0192 127B     		ldrb	r2, [r2, #12]	@ zero_extendqisi2
 3094 0194 1A70     		strb	r2, [r3]
 3095              	.L372:
 3096 0196 0096     		str	r6, [sp]
 3097 0198 2046     		mov	r0, r4
 3098 019a 0121     		movs	r1, #1
 3099 019c 0A46     		mov	r2, r1
 3100 019e 2B46     		mov	r3, r5
 3101 01a0 FFF7FEFF 		bl	SPI_WaitFlagStateUntilTimeout
 3102 01a4 28B1     		cbz	r0, .L373
 3103 01a6 636D     		ldr	r3, [r4, #84]
 3104 01a8 43F00203 		orr	r3, r3, #2
 3105 01ac 6365     		str	r3, [r4, #84]
 3106 01ae 0320     		movs	r0, #3
 3107 01b0 39E0     		b	.L354
 3108              	.L373:
 3109 01b2 2368     		ldr	r3, [r4]
 3110 01b4 DB68     		ldr	r3, [r3, #12]
 3111              	.L369:
 3112 01b6 2046     		mov	r0, r4
ARM GAS  /tmp/ccMfNiPt.s 			page 54


 3113 01b8 2946     		mov	r1, r5
 3114 01ba 3246     		mov	r2, r6
 3115 01bc FFF7FEFF 		bl	SPI_EndRxTransaction
 3116 01c0 08B1     		cbz	r0, .L374
 3117 01c2 2023     		movs	r3, #32
 3118 01c4 6365     		str	r3, [r4, #84]
 3119              	.L374:
 3120 01c6 2568     		ldr	r5, [r4]
 3121 01c8 AB68     		ldr	r3, [r5, #8]
 3122 01ca 13F0100F 		tst	r3, #16
 3123 01ce 15D0     		beq	.L375
 3124 01d0 2046     		mov	r0, r4
 3125 01d2 FFF7FEFF 		bl	SPI_ISCRCErrorValid
 3126 01d6 0128     		cmp	r0, #1
 3127 01d8 0DD1     		bne	.L376
 3128 01da 636D     		ldr	r3, [r4, #84]
 3129 01dc 43F00203 		orr	r3, r3, #2
 3130 01e0 6365     		str	r3, [r4, #84]
 3131 01e2 2B68     		ldr	r3, [r5]
 3132 01e4 23F40053 		bic	r3, r3, #8192
 3133 01e8 2B60     		str	r3, [r5]
 3134 01ea 2268     		ldr	r2, [r4]
 3135 01ec 1368     		ldr	r3, [r2]
 3136 01ee 43F40053 		orr	r3, r3, #8192
 3137 01f2 1360     		str	r3, [r2]
 3138 01f4 02E0     		b	.L375
 3139              	.L376:
 3140 01f6 4FF6EF73 		movw	r3, #65519
 3141 01fa AB60     		str	r3, [r5, #8]
 3142              	.L375:
 3143 01fc 636D     		ldr	r3, [r4, #84]
 3144 01fe 8BB9     		cbnz	r3, .L386
 3145 0200 0020     		movs	r0, #0
 3146 0202 10E0     		b	.L354
 3147              	.L378:
 3148 0204 0220     		movs	r0, #2
 3149 0206 0EE0     		b	.L354
 3150              	.L379:
 3151 0208 0120     		movs	r0, #1
 3152 020a 0CE0     		b	.L354
 3153              	.L380:
 3154 020c 0120     		movs	r0, #1
 3155 020e 0AE0     		b	.L354
 3156              	.L381:
 3157 0210 0320     		movs	r0, #3
 3158 0212 08E0     		b	.L354
 3159              	.L382:
 3160 0214 0320     		movs	r0, #3
 3161 0216 06E0     		b	.L354
 3162              	.L383:
 3163 0218 0320     		movs	r0, #3
 3164 021a 04E0     		b	.L354
 3165              	.L384:
 3166 021c 0320     		movs	r0, #3
 3167 021e 02E0     		b	.L354
 3168              	.L385:
 3169 0220 0320     		movs	r0, #3
ARM GAS  /tmp/ccMfNiPt.s 			page 55


 3170 0222 00E0     		b	.L354
 3171              	.L386:
 3172 0224 0120     		movs	r0, #1
 3173              	.L354:
 3174 0226 0123     		movs	r3, #1
 3175 0228 84F85130 		strb	r3, [r4, #81]
 3176 022c 0023     		movs	r3, #0
 3177 022e 84F85030 		strb	r3, [r4, #80]
 3178 0232 00E0     		b	.L353
 3179              	.L377:
 3180 0234 0220     		movs	r0, #2
 3181              	.L353:
 3182 0236 02B0     		add	sp, sp, #8
 3183              		@ sp needed
 3184 0238 BDE8F081 		pop	{r4, r5, r6, r7, r8, pc}
 3186              		.section	.text.SPI_CloseRx_ISR,"ax",%progbits
 3187              		.align	2
 3188              		.thumb
 3189              		.thumb_func
 3191              	SPI_CloseRx_ISR:
 3192              		@ args = 0, pretend = 0, frame = 8
 3193              		@ frame_needed = 0, uses_anonymous_args = 0
 3194 0000 30B5     		push	{r4, r5, lr}
 3195 0002 83B0     		sub	sp, sp, #12
 3196 0004 0446     		mov	r4, r0
 3197 0006 0268     		ldr	r2, [r0]
 3198 0008 5368     		ldr	r3, [r2, #4]
 3199 000a 23F06003 		bic	r3, r3, #96
 3200 000e 5360     		str	r3, [r2, #4]
 3201 0010 FFF7FEFF 		bl	HAL_GetTick
 3202 0014 0246     		mov	r2, r0
 3203 0016 2046     		mov	r0, r4
 3204 0018 6421     		movs	r1, #100
 3205 001a FFF7FEFF 		bl	SPI_EndRxTransaction
 3206 001e 18B1     		cbz	r0, .L389
 3207 0020 636D     		ldr	r3, [r4, #84]
 3208 0022 43F02003 		orr	r3, r3, #32
 3209 0026 6365     		str	r3, [r4, #84]
 3210              	.L389:
 3211 0028 A368     		ldr	r3, [r4, #8]
 3212 002a 33B9     		cbnz	r3, .L390
 3213 002c 0193     		str	r3, [sp, #4]
 3214 002e 2368     		ldr	r3, [r4]
 3215 0030 DA68     		ldr	r2, [r3, #12]
 3216 0032 0192     		str	r2, [sp, #4]
 3217 0034 9B68     		ldr	r3, [r3, #8]
 3218 0036 0193     		str	r3, [sp, #4]
 3219 0038 019B     		ldr	r3, [sp, #4]
 3220              	.L390:
 3221 003a 0123     		movs	r3, #1
 3222 003c 84F85130 		strb	r3, [r4, #81]
 3223 0040 2568     		ldr	r5, [r4]
 3224 0042 AB68     		ldr	r3, [r5, #8]
 3225 0044 13F0100F 		tst	r3, #16
 3226 0048 19D0     		beq	.L391
 3227 004a 2046     		mov	r0, r4
 3228 004c FFF7FEFF 		bl	SPI_ISCRCErrorValid
ARM GAS  /tmp/ccMfNiPt.s 			page 56


 3229 0050 0128     		cmp	r0, #1
 3230 0052 10D1     		bne	.L392
 3231 0054 636D     		ldr	r3, [r4, #84]
 3232 0056 43F00203 		orr	r3, r3, #2
 3233 005a 6365     		str	r3, [r4, #84]
 3234 005c 2B68     		ldr	r3, [r5]
 3235 005e 23F40053 		bic	r3, r3, #8192
 3236 0062 2B60     		str	r3, [r5]
 3237 0064 2268     		ldr	r2, [r4]
 3238 0066 1368     		ldr	r3, [r2]
 3239 0068 43F40053 		orr	r3, r3, #8192
 3240 006c 1360     		str	r3, [r2]
 3241 006e 2046     		mov	r0, r4
 3242 0070 FFF7FEFF 		bl	HAL_SPI_ErrorCallback
 3243 0074 0CE0     		b	.L388
 3244              	.L392:
 3245 0076 4FF6EF73 		movw	r3, #65519
 3246 007a AB60     		str	r3, [r5, #8]
 3247 007c 08E0     		b	.L388
 3248              	.L391:
 3249 007e 636D     		ldr	r3, [r4, #84]
 3250 0080 1BB9     		cbnz	r3, .L394
 3251 0082 2046     		mov	r0, r4
 3252 0084 FFF7FEFF 		bl	HAL_SPI_RxCpltCallback
 3253 0088 02E0     		b	.L388
 3254              	.L394:
 3255 008a 2046     		mov	r0, r4
 3256 008c FFF7FEFF 		bl	HAL_SPI_ErrorCallback
 3257              	.L388:
 3258 0090 03B0     		add	sp, sp, #12
 3259              		@ sp needed
 3260 0092 30BD     		pop	{r4, r5, pc}
 3262              		.section	.text.SPI_RxISR_8BIT,"ax",%progbits
 3263              		.align	2
 3264              		.thumb
 3265              		.thumb_func
 3267              	SPI_RxISR_8BIT:
 3268              		@ args = 0, pretend = 0, frame = 0
 3269              		@ frame_needed = 0, uses_anonymous_args = 0
 3270 0000 08B5     		push	{r3, lr}
 3271 0002 836B     		ldr	r3, [r0, #56]
 3272 0004 0268     		ldr	r2, [r0]
 3273 0006 127B     		ldrb	r2, [r2, #12]	@ zero_extendqisi2
 3274 0008 1A70     		strb	r2, [r3]
 3275 000a 836B     		ldr	r3, [r0, #56]
 3276 000c 0133     		adds	r3, r3, #1
 3277 000e 8363     		str	r3, [r0, #56]
 3278 0010 C38F     		ldrh	r3, [r0, #62]
 3279 0012 013B     		subs	r3, r3, #1
 3280 0014 9BB2     		uxth	r3, r3
 3281 0016 C387     		strh	r3, [r0, #62]	@ movhi
 3282 0018 C38F     		ldrh	r3, [r0, #62]
 3283 001a 9BB2     		uxth	r3, r3
 3284 001c 012B     		cmp	r3, #1
 3285 001e 08D1     		bne	.L397
 3286 0020 836A     		ldr	r3, [r0, #40]
 3287 0022 B3F5005F 		cmp	r3, #8192
ARM GAS  /tmp/ccMfNiPt.s 			page 57


 3288 0026 04D1     		bne	.L397
 3289 0028 0268     		ldr	r2, [r0]
 3290 002a 1368     		ldr	r3, [r2]
 3291 002c 43F48053 		orr	r3, r3, #4096
 3292 0030 1360     		str	r3, [r2]
 3293              	.L397:
 3294 0032 0368     		ldr	r3, [r0]
 3295 0034 1A68     		ldr	r2, [r3]
 3296 0036 12F4805F 		tst	r2, #4096
 3297 003a 03D0     		beq	.L398
 3298 003c 1A68     		ldr	r2, [r3]
 3299 003e 22F48052 		bic	r2, r2, #4096
 3300 0042 1A60     		str	r2, [r3]
 3301              	.L398:
 3302 0044 C38F     		ldrh	r3, [r0, #62]
 3303 0046 9BB2     		uxth	r3, r3
 3304 0048 43B9     		cbnz	r3, .L396
 3305 004a 836A     		ldr	r3, [r0, #40]
 3306 004c B3F5005F 		cmp	r3, #8192
 3307 0050 02D1     		bne	.L400
 3308 0052 034B     		ldr	r3, .L402
 3309 0054 0364     		str	r3, [r0, #64]
 3310 0056 08BD     		pop	{r3, pc}
 3311              	.L400:
 3312 0058 FFF7FEFF 		bl	SPI_CloseRx_ISR
 3313              	.L396:
 3314 005c 08BD     		pop	{r3, pc}
 3315              	.L403:
 3316 005e 00BF     		.align	2
 3317              	.L402:
 3318 0060 00000000 		.word	SPI_RxISR_8BITCRC
 3320              		.section	.text.SPI_RxISR_8BITCRC,"ax",%progbits
 3321              		.align	2
 3322              		.thumb
 3323              		.thumb_func
 3325              	SPI_RxISR_8BITCRC:
 3326              		@ args = 0, pretend = 0, frame = 0
 3327              		@ frame_needed = 0, uses_anonymous_args = 0
 3328 0000 08B5     		push	{r3, lr}
 3329 0002 0368     		ldr	r3, [r0]
 3330 0004 1B7B     		ldrb	r3, [r3, #12]	@ zero_extendqisi2
 3331 0006 FFF7FEFF 		bl	SPI_CloseRx_ISR
 3332 000a 08BD     		pop	{r3, pc}
 3334              		.section	.text.SPI_RxISR_16BIT,"ax",%progbits
 3335              		.align	2
 3336              		.thumb
 3337              		.thumb_func
 3339              	SPI_RxISR_16BIT:
 3340              		@ args = 0, pretend = 0, frame = 0
 3341              		@ frame_needed = 0, uses_anonymous_args = 0
 3342 0000 08B5     		push	{r3, lr}
 3343 0002 836B     		ldr	r3, [r0, #56]
 3344 0004 0268     		ldr	r2, [r0]
 3345 0006 D268     		ldr	r2, [r2, #12]
 3346 0008 1A80     		strh	r2, [r3]	@ movhi
 3347 000a 836B     		ldr	r3, [r0, #56]
 3348 000c 0233     		adds	r3, r3, #2
ARM GAS  /tmp/ccMfNiPt.s 			page 58


 3349 000e 8363     		str	r3, [r0, #56]
 3350 0010 C38F     		ldrh	r3, [r0, #62]
 3351 0012 013B     		subs	r3, r3, #1
 3352 0014 9BB2     		uxth	r3, r3
 3353 0016 C387     		strh	r3, [r0, #62]	@ movhi
 3354 0018 C38F     		ldrh	r3, [r0, #62]
 3355 001a 9BB2     		uxth	r3, r3
 3356 001c 012B     		cmp	r3, #1
 3357 001e 08D1     		bne	.L407
 3358 0020 836A     		ldr	r3, [r0, #40]
 3359 0022 B3F5005F 		cmp	r3, #8192
 3360 0026 04D1     		bne	.L407
 3361 0028 0268     		ldr	r2, [r0]
 3362 002a 1368     		ldr	r3, [r2]
 3363 002c 43F48053 		orr	r3, r3, #4096
 3364 0030 1360     		str	r3, [r2]
 3365              	.L407:
 3366 0032 0368     		ldr	r3, [r0]
 3367 0034 1A68     		ldr	r2, [r3]
 3368 0036 12F4805F 		tst	r2, #4096
 3369 003a 03D0     		beq	.L408
 3370 003c 1A68     		ldr	r2, [r3]
 3371 003e 22F48052 		bic	r2, r2, #4096
 3372 0042 1A60     		str	r2, [r3]
 3373              	.L408:
 3374 0044 C38F     		ldrh	r3, [r0, #62]
 3375 0046 9BB2     		uxth	r3, r3
 3376 0048 43B9     		cbnz	r3, .L406
 3377 004a 836A     		ldr	r3, [r0, #40]
 3378 004c B3F5005F 		cmp	r3, #8192
 3379 0050 02D1     		bne	.L410
 3380 0052 034B     		ldr	r3, .L412
 3381 0054 0364     		str	r3, [r0, #64]
 3382 0056 08BD     		pop	{r3, pc}
 3383              	.L410:
 3384 0058 FFF7FEFF 		bl	SPI_CloseRx_ISR
 3385              	.L406:
 3386 005c 08BD     		pop	{r3, pc}
 3387              	.L413:
 3388 005e 00BF     		.align	2
 3389              	.L412:
 3390 0060 00000000 		.word	SPI_RxISR_16BITCRC
 3392              		.section	.text.SPI_RxISR_16BITCRC,"ax",%progbits
 3393              		.align	2
 3394              		.thumb
 3395              		.thumb_func
 3397              	SPI_RxISR_16BITCRC:
 3398              		@ args = 0, pretend = 0, frame = 0
 3399              		@ frame_needed = 0, uses_anonymous_args = 0
 3400 0000 08B5     		push	{r3, lr}
 3401 0002 0368     		ldr	r3, [r0]
 3402 0004 DA68     		ldr	r2, [r3, #12]
 3403 0006 5A68     		ldr	r2, [r3, #4]
 3404 0008 22F06002 		bic	r2, r2, #96
 3405 000c 5A60     		str	r2, [r3, #4]
 3406 000e FFF7FEFF 		bl	SPI_CloseRx_ISR
 3407 0012 08BD     		pop	{r3, pc}
ARM GAS  /tmp/ccMfNiPt.s 			page 59


 3409              		.section	.text.SPI_CloseRxTx_ISR,"ax",%progbits
 3410              		.align	2
 3411              		.thumb
 3412              		.thumb_func
 3414              	SPI_CloseRxTx_ISR:
 3415              		@ args = 0, pretend = 0, frame = 8
 3416              		@ frame_needed = 0, uses_anonymous_args = 0
 3417 0000 30B5     		push	{r4, r5, lr}
 3418 0002 83B0     		sub	sp, sp, #12
 3419 0004 0446     		mov	r4, r0
 3420 0006 394B     		ldr	r3, .L428
 3421 0008 1B68     		ldr	r3, [r3]
 3422 000a 394A     		ldr	r2, .L428+4
 3423 000c A2FB0323 		umull	r2, r3, r2, r3
 3424 0010 5B0A     		lsrs	r3, r3, #9
 3425 0012 6422     		movs	r2, #100
 3426 0014 02FB03F3 		mul	r3, r2, r3
 3427 0018 0193     		str	r3, [sp, #4]
 3428 001a FFF7FEFF 		bl	HAL_GetTick
 3429 001e 0246     		mov	r2, r0
 3430 0020 2168     		ldr	r1, [r4]
 3431 0022 4B68     		ldr	r3, [r1, #4]
 3432 0024 23F02003 		bic	r3, r3, #32
 3433 0028 4B60     		str	r3, [r1, #4]
 3434              	.L419:
 3435 002a 019B     		ldr	r3, [sp, #4]
 3436 002c 23B9     		cbnz	r3, .L417
 3437 002e 636D     		ldr	r3, [r4, #84]
 3438 0030 43F02003 		orr	r3, r3, #32
 3439 0034 6365     		str	r3, [r4, #84]
 3440 0036 07E0     		b	.L418
 3441              	.L417:
 3442 0038 019B     		ldr	r3, [sp, #4]
 3443 003a 013B     		subs	r3, r3, #1
 3444 003c 0193     		str	r3, [sp, #4]
 3445 003e 2368     		ldr	r3, [r4]
 3446 0040 9B68     		ldr	r3, [r3, #8]
 3447 0042 13F0020F 		tst	r3, #2
 3448 0046 F0D0     		beq	.L419
 3449              	.L418:
 3450 0048 2046     		mov	r0, r4
 3451 004a 6421     		movs	r1, #100
 3452 004c FFF7FEFF 		bl	SPI_EndRxTxTransaction
 3453 0050 18B1     		cbz	r0, .L420
 3454 0052 636D     		ldr	r3, [r4, #84]
 3455 0054 43F02003 		orr	r3, r3, #32
 3456 0058 6365     		str	r3, [r4, #84]
 3457              	.L420:
 3458 005a A368     		ldr	r3, [r4, #8]
 3459 005c 33B9     		cbnz	r3, .L421
 3460 005e 0093     		str	r3, [sp]
 3461 0060 2368     		ldr	r3, [r4]
 3462 0062 DA68     		ldr	r2, [r3, #12]
 3463 0064 0092     		str	r2, [sp]
 3464 0066 9B68     		ldr	r3, [r3, #8]
 3465 0068 0093     		str	r3, [sp]
 3466 006a 009B     		ldr	r3, [sp]
ARM GAS  /tmp/ccMfNiPt.s 			page 60


 3467              	.L421:
 3468 006c 2568     		ldr	r5, [r4]
 3469 006e AB68     		ldr	r3, [r5, #8]
 3470 0070 13F0100F 		tst	r3, #16
 3471 0074 1CD0     		beq	.L422
 3472 0076 2046     		mov	r0, r4
 3473 0078 FFF7FEFF 		bl	SPI_ISCRCErrorValid
 3474 007c 0128     		cmp	r0, #1
 3475 007e 13D1     		bne	.L423
 3476 0080 0123     		movs	r3, #1
 3477 0082 84F85130 		strb	r3, [r4, #81]
 3478 0086 636D     		ldr	r3, [r4, #84]
 3479 0088 43F00203 		orr	r3, r3, #2
 3480 008c 6365     		str	r3, [r4, #84]
 3481 008e 2B68     		ldr	r3, [r5]
 3482 0090 23F40053 		bic	r3, r3, #8192
 3483 0094 2B60     		str	r3, [r5]
 3484 0096 2268     		ldr	r2, [r4]
 3485 0098 1368     		ldr	r3, [r2]
 3486 009a 43F40053 		orr	r3, r3, #8192
 3487 009e 1360     		str	r3, [r2]
 3488 00a0 2046     		mov	r0, r4
 3489 00a2 FFF7FEFF 		bl	HAL_SPI_ErrorCallback
 3490 00a6 1EE0     		b	.L416
 3491              	.L423:
 3492 00a8 4FF6EF73 		movw	r3, #65519
 3493 00ac AB60     		str	r3, [r5, #8]
 3494 00ae 1AE0     		b	.L416
 3495              	.L422:
 3496 00b0 636D     		ldr	r3, [r4, #84]
 3497 00b2 93B9     		cbnz	r3, .L425
 3498 00b4 94F85130 		ldrb	r3, [r4, #81]	@ zero_extendqisi2
 3499 00b8 DBB2     		uxtb	r3, r3
 3500 00ba 042B     		cmp	r3, #4
 3501 00bc 06D1     		bne	.L426
 3502 00be 0123     		movs	r3, #1
 3503 00c0 84F85130 		strb	r3, [r4, #81]
 3504 00c4 2046     		mov	r0, r4
 3505 00c6 FFF7FEFF 		bl	HAL_SPI_RxCpltCallback
 3506 00ca 0CE0     		b	.L416
 3507              	.L426:
 3508 00cc 0123     		movs	r3, #1
 3509 00ce 84F85130 		strb	r3, [r4, #81]
 3510 00d2 2046     		mov	r0, r4
 3511 00d4 FFF7FEFF 		bl	HAL_SPI_TxRxCpltCallback
 3512 00d8 05E0     		b	.L416
 3513              	.L425:
 3514 00da 0123     		movs	r3, #1
 3515 00dc 84F85130 		strb	r3, [r4, #81]
 3516 00e0 2046     		mov	r0, r4
 3517 00e2 FFF7FEFF 		bl	HAL_SPI_ErrorCallback
 3518              	.L416:
 3519 00e6 03B0     		add	sp, sp, #12
 3520              		@ sp needed
 3521 00e8 30BD     		pop	{r4, r5, pc}
 3522              	.L429:
 3523 00ea 00BF     		.align	2
ARM GAS  /tmp/ccMfNiPt.s 			page 61


 3524              	.L428:
 3525 00ec 00000000 		.word	SystemCoreClock
 3526 00f0 F1197605 		.word	91625969
 3528              		.section	.text.SPI_2linesTxISR_8BIT,"ax",%progbits
 3529              		.align	2
 3530              		.thumb
 3531              		.thumb_func
 3533              	SPI_2linesTxISR_8BIT:
 3534              		@ args = 0, pretend = 0, frame = 0
 3535              		@ frame_needed = 0, uses_anonymous_args = 0
 3536 0000 08B5     		push	{r3, lr}
 3537 0002 0368     		ldr	r3, [r0]
 3538 0004 026B     		ldr	r2, [r0, #48]
 3539 0006 1278     		ldrb	r2, [r2]	@ zero_extendqisi2
 3540 0008 1A73     		strb	r2, [r3, #12]
 3541 000a 036B     		ldr	r3, [r0, #48]
 3542 000c 0133     		adds	r3, r3, #1
 3543 000e 0363     		str	r3, [r0, #48]
 3544 0010 C38E     		ldrh	r3, [r0, #54]
 3545 0012 013B     		subs	r3, r3, #1
 3546 0014 9BB2     		uxth	r3, r3
 3547 0016 C386     		strh	r3, [r0, #54]	@ movhi
 3548 0018 C38E     		ldrh	r3, [r0, #54]
 3549 001a 9BB2     		uxth	r3, r3
 3550 001c C3B9     		cbnz	r3, .L430
 3551 001e 836A     		ldr	r3, [r0, #40]
 3552 0020 B3F5005F 		cmp	r3, #8192
 3553 0024 0AD1     		bne	.L432
 3554 0026 0268     		ldr	r2, [r0]
 3555 0028 1368     		ldr	r3, [r2]
 3556 002a 43F48053 		orr	r3, r3, #4096
 3557 002e 1360     		str	r3, [r2]
 3558 0030 0268     		ldr	r2, [r0]
 3559 0032 5368     		ldr	r3, [r2, #4]
 3560 0034 23F08003 		bic	r3, r3, #128
 3561 0038 5360     		str	r3, [r2, #4]
 3562 003a 08BD     		pop	{r3, pc}
 3563              	.L432:
 3564 003c 0268     		ldr	r2, [r0]
 3565 003e 5368     		ldr	r3, [r2, #4]
 3566 0040 23F08003 		bic	r3, r3, #128
 3567 0044 5360     		str	r3, [r2, #4]
 3568 0046 C38F     		ldrh	r3, [r0, #62]
 3569 0048 9BB2     		uxth	r3, r3
 3570 004a 0BB9     		cbnz	r3, .L430
 3571 004c FFF7FEFF 		bl	SPI_CloseRxTx_ISR
 3572              	.L430:
 3573 0050 08BD     		pop	{r3, pc}
 3575 0052 00BF     		.section	.text.SPI_2linesRxISR_8BIT,"ax",%progbits
 3576              		.align	2
 3577              		.thumb
 3578              		.thumb_func
 3580              	SPI_2linesRxISR_8BIT:
 3581              		@ args = 0, pretend = 0, frame = 0
 3582              		@ frame_needed = 0, uses_anonymous_args = 0
 3583 0000 08B5     		push	{r3, lr}
 3584 0002 836B     		ldr	r3, [r0, #56]
ARM GAS  /tmp/ccMfNiPt.s 			page 62


 3585 0004 0268     		ldr	r2, [r0]
 3586 0006 127B     		ldrb	r2, [r2, #12]	@ zero_extendqisi2
 3587 0008 1A70     		strb	r2, [r3]
 3588 000a 836B     		ldr	r3, [r0, #56]
 3589 000c 0133     		adds	r3, r3, #1
 3590 000e 8363     		str	r3, [r0, #56]
 3591 0010 C38F     		ldrh	r3, [r0, #62]
 3592 0012 013B     		subs	r3, r3, #1
 3593 0014 9BB2     		uxth	r3, r3
 3594 0016 C387     		strh	r3, [r0, #62]	@ movhi
 3595 0018 C38F     		ldrh	r3, [r0, #62]
 3596 001a 9BB2     		uxth	r3, r3
 3597 001c 83B9     		cbnz	r3, .L434
 3598 001e 836A     		ldr	r3, [r0, #40]
 3599 0020 B3F5005F 		cmp	r3, #8192
 3600 0024 02D1     		bne	.L436
 3601 0026 074B     		ldr	r3, .L438
 3602 0028 0364     		str	r3, [r0, #64]
 3603 002a 08BD     		pop	{r3, pc}
 3604              	.L436:
 3605 002c 0268     		ldr	r2, [r0]
 3606 002e 5368     		ldr	r3, [r2, #4]
 3607 0030 23F06003 		bic	r3, r3, #96
 3608 0034 5360     		str	r3, [r2, #4]
 3609 0036 C38E     		ldrh	r3, [r0, #54]
 3610 0038 9BB2     		uxth	r3, r3
 3611 003a 0BB9     		cbnz	r3, .L434
 3612 003c FFF7FEFF 		bl	SPI_CloseRxTx_ISR
 3613              	.L434:
 3614 0040 08BD     		pop	{r3, pc}
 3615              	.L439:
 3616 0042 00BF     		.align	2
 3617              	.L438:
 3618 0044 00000000 		.word	SPI_2linesRxISR_8BITCRC
 3620              		.section	.text.SPI_2linesRxISR_8BITCRC,"ax",%progbits
 3621              		.align	2
 3622              		.thumb
 3623              		.thumb_func
 3625              	SPI_2linesRxISR_8BITCRC:
 3626              		@ args = 0, pretend = 0, frame = 0
 3627              		@ frame_needed = 0, uses_anonymous_args = 0
 3628 0000 08B5     		push	{r3, lr}
 3629 0002 0368     		ldr	r3, [r0]
 3630 0004 1A7B     		ldrb	r2, [r3, #12]	@ zero_extendqisi2
 3631 0006 5A68     		ldr	r2, [r3, #4]
 3632 0008 22F06002 		bic	r2, r2, #96
 3633 000c 5A60     		str	r2, [r3, #4]
 3634 000e C38E     		ldrh	r3, [r0, #54]
 3635 0010 9BB2     		uxth	r3, r3
 3636 0012 0BB9     		cbnz	r3, .L440
 3637 0014 FFF7FEFF 		bl	SPI_CloseRxTx_ISR
 3638              	.L440:
 3639 0018 08BD     		pop	{r3, pc}
 3641 001a 00BF     		.section	.text.SPI_2linesTxISR_16BIT,"ax",%progbits
 3642              		.align	2
 3643              		.thumb
 3644              		.thumb_func
ARM GAS  /tmp/ccMfNiPt.s 			page 63


 3646              	SPI_2linesTxISR_16BIT:
 3647              		@ args = 0, pretend = 0, frame = 0
 3648              		@ frame_needed = 0, uses_anonymous_args = 0
 3649 0000 08B5     		push	{r3, lr}
 3650 0002 0368     		ldr	r3, [r0]
 3651 0004 026B     		ldr	r2, [r0, #48]
 3652 0006 1288     		ldrh	r2, [r2]
 3653 0008 DA60     		str	r2, [r3, #12]
 3654 000a 036B     		ldr	r3, [r0, #48]
 3655 000c 0233     		adds	r3, r3, #2
 3656 000e 0363     		str	r3, [r0, #48]
 3657 0010 C38E     		ldrh	r3, [r0, #54]
 3658 0012 013B     		subs	r3, r3, #1
 3659 0014 9BB2     		uxth	r3, r3
 3660 0016 C386     		strh	r3, [r0, #54]	@ movhi
 3661 0018 C38E     		ldrh	r3, [r0, #54]
 3662 001a 9BB2     		uxth	r3, r3
 3663 001c C3B9     		cbnz	r3, .L443
 3664 001e 836A     		ldr	r3, [r0, #40]
 3665 0020 B3F5005F 		cmp	r3, #8192
 3666 0024 0AD1     		bne	.L445
 3667 0026 0268     		ldr	r2, [r0]
 3668 0028 1368     		ldr	r3, [r2]
 3669 002a 43F48053 		orr	r3, r3, #4096
 3670 002e 1360     		str	r3, [r2]
 3671 0030 0268     		ldr	r2, [r0]
 3672 0032 5368     		ldr	r3, [r2, #4]
 3673 0034 23F08003 		bic	r3, r3, #128
 3674 0038 5360     		str	r3, [r2, #4]
 3675 003a 08BD     		pop	{r3, pc}
 3676              	.L445:
 3677 003c 0268     		ldr	r2, [r0]
 3678 003e 5368     		ldr	r3, [r2, #4]
 3679 0040 23F08003 		bic	r3, r3, #128
 3680 0044 5360     		str	r3, [r2, #4]
 3681 0046 C38F     		ldrh	r3, [r0, #62]
 3682 0048 9BB2     		uxth	r3, r3
 3683 004a 0BB9     		cbnz	r3, .L443
 3684 004c FFF7FEFF 		bl	SPI_CloseRxTx_ISR
 3685              	.L443:
 3686 0050 08BD     		pop	{r3, pc}
 3688 0052 00BF     		.section	.text.SPI_2linesRxISR_16BIT,"ax",%progbits
 3689              		.align	2
 3690              		.thumb
 3691              		.thumb_func
 3693              	SPI_2linesRxISR_16BIT:
 3694              		@ args = 0, pretend = 0, frame = 0
 3695              		@ frame_needed = 0, uses_anonymous_args = 0
 3696 0000 08B5     		push	{r3, lr}
 3697 0002 836B     		ldr	r3, [r0, #56]
 3698 0004 0268     		ldr	r2, [r0]
 3699 0006 D268     		ldr	r2, [r2, #12]
 3700 0008 1A80     		strh	r2, [r3]	@ movhi
 3701 000a 836B     		ldr	r3, [r0, #56]
 3702 000c 0233     		adds	r3, r3, #2
 3703 000e 8363     		str	r3, [r0, #56]
 3704 0010 C38F     		ldrh	r3, [r0, #62]
ARM GAS  /tmp/ccMfNiPt.s 			page 64


 3705 0012 013B     		subs	r3, r3, #1
 3706 0014 9BB2     		uxth	r3, r3
 3707 0016 C387     		strh	r3, [r0, #62]	@ movhi
 3708 0018 C38F     		ldrh	r3, [r0, #62]
 3709 001a 9BB2     		uxth	r3, r3
 3710 001c 83B9     		cbnz	r3, .L447
 3711 001e 836A     		ldr	r3, [r0, #40]
 3712 0020 B3F5005F 		cmp	r3, #8192
 3713 0024 02D1     		bne	.L449
 3714 0026 074B     		ldr	r3, .L451
 3715 0028 0364     		str	r3, [r0, #64]
 3716 002a 08BD     		pop	{r3, pc}
 3717              	.L449:
 3718 002c 0268     		ldr	r2, [r0]
 3719 002e 5368     		ldr	r3, [r2, #4]
 3720 0030 23F04003 		bic	r3, r3, #64
 3721 0034 5360     		str	r3, [r2, #4]
 3722 0036 C38E     		ldrh	r3, [r0, #54]
 3723 0038 9BB2     		uxth	r3, r3
 3724 003a 0BB9     		cbnz	r3, .L447
 3725 003c FFF7FEFF 		bl	SPI_CloseRxTx_ISR
 3726              	.L447:
 3727 0040 08BD     		pop	{r3, pc}
 3728              	.L452:
 3729 0042 00BF     		.align	2
 3730              	.L451:
 3731 0044 00000000 		.word	SPI_2linesRxISR_16BITCRC
 3733              		.section	.text.SPI_2linesRxISR_16BITCRC,"ax",%progbits
 3734              		.align	2
 3735              		.thumb
 3736              		.thumb_func
 3738              	SPI_2linesRxISR_16BITCRC:
 3739              		@ args = 0, pretend = 0, frame = 0
 3740              		@ frame_needed = 0, uses_anonymous_args = 0
 3741 0000 08B5     		push	{r3, lr}
 3742 0002 0368     		ldr	r3, [r0]
 3743 0004 DA68     		ldr	r2, [r3, #12]
 3744 0006 5A68     		ldr	r2, [r3, #4]
 3745 0008 22F04002 		bic	r2, r2, #64
 3746 000c 5A60     		str	r2, [r3, #4]
 3747 000e FFF7FEFF 		bl	SPI_CloseRxTx_ISR
 3748 0012 08BD     		pop	{r3, pc}
 3750              		.section	.text.SPI_DMAReceiveCplt,"ax",%progbits
 3751              		.align	2
 3752              		.thumb
 3753              		.thumb_func
 3755              	SPI_DMAReceiveCplt:
 3756              		@ args = 0, pretend = 0, frame = 0
 3757              		@ frame_needed = 0, uses_anonymous_args = 0
 3758 0000 70B5     		push	{r4, r5, r6, lr}
 3759 0002 82B0     		sub	sp, sp, #8
 3760 0004 0546     		mov	r5, r0
 3761 0006 446A     		ldr	r4, [r0, #36]
 3762 0008 FFF7FEFF 		bl	HAL_GetTick
 3763 000c 2B68     		ldr	r3, [r5]
 3764 000e 1B68     		ldr	r3, [r3]
 3765 0010 13F0200F 		tst	r3, #32
ARM GAS  /tmp/ccMfNiPt.s 			page 65


 3766 0014 4AD1     		bne	.L456
 3767 0016 0646     		mov	r6, r0
 3768 0018 2268     		ldr	r2, [r4]
 3769 001a 5368     		ldr	r3, [r2, #4]
 3770 001c 23F02003 		bic	r3, r3, #32
 3771 0020 5360     		str	r3, [r2, #4]
 3772 0022 A36A     		ldr	r3, [r4, #40]
 3773 0024 B3F5005F 		cmp	r3, #8192
 3774 0028 0DD1     		bne	.L457
 3775 002a 0090     		str	r0, [sp]
 3776 002c 2046     		mov	r0, r4
 3777 002e 0121     		movs	r1, #1
 3778 0030 0A46     		mov	r2, r1
 3779 0032 6423     		movs	r3, #100
 3780 0034 FFF7FEFF 		bl	SPI_WaitFlagStateUntilTimeout
 3781 0038 18B1     		cbz	r0, .L458
 3782 003a 636D     		ldr	r3, [r4, #84]
 3783 003c 43F00203 		orr	r3, r3, #2
 3784 0040 6365     		str	r3, [r4, #84]
 3785              	.L458:
 3786 0042 2368     		ldr	r3, [r4]
 3787 0044 DB68     		ldr	r3, [r3, #12]
 3788              	.L457:
 3789 0046 2268     		ldr	r2, [r4]
 3790 0048 5368     		ldr	r3, [r2, #4]
 3791 004a 23F00303 		bic	r3, r3, #3
 3792 004e 5360     		str	r3, [r2, #4]
 3793 0050 2046     		mov	r0, r4
 3794 0052 6421     		movs	r1, #100
 3795 0054 3246     		mov	r2, r6
 3796 0056 FFF7FEFF 		bl	SPI_EndRxTransaction
 3797 005a 08B1     		cbz	r0, .L459
 3798 005c 2023     		movs	r3, #32
 3799 005e 6365     		str	r3, [r4, #84]
 3800              	.L459:
 3801 0060 0023     		movs	r3, #0
 3802 0062 E387     		strh	r3, [r4, #62]	@ movhi
 3803 0064 0123     		movs	r3, #1
 3804 0066 84F85130 		strb	r3, [r4, #81]
 3805 006a 2568     		ldr	r5, [r4]
 3806 006c AB68     		ldr	r3, [r5, #8]
 3807 006e 13F0100F 		tst	r3, #16
 3808 0072 15D0     		beq	.L460
 3809 0074 2046     		mov	r0, r4
 3810 0076 FFF7FEFF 		bl	SPI_ISCRCErrorValid
 3811 007a 0128     		cmp	r0, #1
 3812 007c 0DD1     		bne	.L461
 3813 007e 636D     		ldr	r3, [r4, #84]
 3814 0080 43F00203 		orr	r3, r3, #2
 3815 0084 6365     		str	r3, [r4, #84]
 3816 0086 2B68     		ldr	r3, [r5]
 3817 0088 23F40053 		bic	r3, r3, #8192
 3818 008c 2B60     		str	r3, [r5]
 3819 008e 2268     		ldr	r2, [r4]
 3820 0090 1368     		ldr	r3, [r2]
 3821 0092 43F40053 		orr	r3, r3, #8192
 3822 0096 1360     		str	r3, [r2]
ARM GAS  /tmp/ccMfNiPt.s 			page 66


 3823 0098 02E0     		b	.L460
 3824              	.L461:
 3825 009a 4FF6EF73 		movw	r3, #65519
 3826 009e AB60     		str	r3, [r5, #8]
 3827              	.L460:
 3828 00a0 636D     		ldr	r3, [r4, #84]
 3829 00a2 1BB1     		cbz	r3, .L456
 3830 00a4 2046     		mov	r0, r4
 3831 00a6 FFF7FEFF 		bl	HAL_SPI_ErrorCallback
 3832 00aa 02E0     		b	.L455
 3833              	.L456:
 3834 00ac 2046     		mov	r0, r4
 3835 00ae FFF7FEFF 		bl	HAL_SPI_RxCpltCallback
 3836              	.L455:
 3837 00b2 02B0     		add	sp, sp, #8
 3838              		@ sp needed
 3839 00b4 70BD     		pop	{r4, r5, r6, pc}
 3841 00b6 00BF     		.section	.text.SPI_DMATransmitReceiveCplt,"ax",%progbits
 3842              		.align	2
 3843              		.thumb
 3844              		.thumb_func
 3846              	SPI_DMATransmitReceiveCplt:
 3847              		@ args = 0, pretend = 0, frame = 0
 3848              		@ frame_needed = 0, uses_anonymous_args = 0
 3849 0000 70B5     		push	{r4, r5, r6, lr}
 3850 0002 82B0     		sub	sp, sp, #8
 3851 0004 0546     		mov	r5, r0
 3852 0006 446A     		ldr	r4, [r0, #36]
 3853 0008 FFF7FEFF 		bl	HAL_GetTick
 3854 000c 2B68     		ldr	r3, [r5]
 3855 000e 1B68     		ldr	r3, [r3]
 3856 0010 13F0200F 		tst	r3, #32
 3857 0014 4DD1     		bne	.L465
 3858 0016 0646     		mov	r6, r0
 3859 0018 2268     		ldr	r2, [r4]
 3860 001a 5368     		ldr	r3, [r2, #4]
 3861 001c 23F02003 		bic	r3, r3, #32
 3862 0020 5360     		str	r3, [r2, #4]
 3863 0022 A36A     		ldr	r3, [r4, #40]
 3864 0024 B3F5005F 		cmp	r3, #8192
 3865 0028 0DD1     		bne	.L466
 3866 002a 0090     		str	r0, [sp]
 3867 002c 2046     		mov	r0, r4
 3868 002e 0121     		movs	r1, #1
 3869 0030 0A46     		mov	r2, r1
 3870 0032 6423     		movs	r3, #100
 3871 0034 FFF7FEFF 		bl	SPI_WaitFlagStateUntilTimeout
 3872 0038 18B1     		cbz	r0, .L467
 3873 003a 636D     		ldr	r3, [r4, #84]
 3874 003c 43F00203 		orr	r3, r3, #2
 3875 0040 6365     		str	r3, [r4, #84]
 3876              	.L467:
 3877 0042 2368     		ldr	r3, [r4]
 3878 0044 DB68     		ldr	r3, [r3, #12]
 3879              	.L466:
 3880 0046 2046     		mov	r0, r4
 3881 0048 6421     		movs	r1, #100
ARM GAS  /tmp/ccMfNiPt.s 			page 67


 3882 004a 3246     		mov	r2, r6
 3883 004c FFF7FEFF 		bl	SPI_EndRxTxTransaction
 3884 0050 18B1     		cbz	r0, .L468
 3885 0052 636D     		ldr	r3, [r4, #84]
 3886 0054 43F02003 		orr	r3, r3, #32
 3887 0058 6365     		str	r3, [r4, #84]
 3888              	.L468:
 3889 005a 2268     		ldr	r2, [r4]
 3890 005c 5368     		ldr	r3, [r2, #4]
 3891 005e 23F00303 		bic	r3, r3, #3
 3892 0062 5360     		str	r3, [r2, #4]
 3893 0064 0023     		movs	r3, #0
 3894 0066 E386     		strh	r3, [r4, #54]	@ movhi
 3895 0068 E387     		strh	r3, [r4, #62]	@ movhi
 3896 006a 0123     		movs	r3, #1
 3897 006c 84F85130 		strb	r3, [r4, #81]
 3898 0070 2568     		ldr	r5, [r4]
 3899 0072 AB68     		ldr	r3, [r5, #8]
 3900 0074 13F0100F 		tst	r3, #16
 3901 0078 15D0     		beq	.L469
 3902 007a 2046     		mov	r0, r4
 3903 007c FFF7FEFF 		bl	SPI_ISCRCErrorValid
 3904 0080 0128     		cmp	r0, #1
 3905 0082 0DD1     		bne	.L470
 3906 0084 636D     		ldr	r3, [r4, #84]
 3907 0086 43F00203 		orr	r3, r3, #2
 3908 008a 6365     		str	r3, [r4, #84]
 3909 008c 2B68     		ldr	r3, [r5]
 3910 008e 23F40053 		bic	r3, r3, #8192
 3911 0092 2B60     		str	r3, [r5]
 3912 0094 2268     		ldr	r2, [r4]
 3913 0096 1368     		ldr	r3, [r2]
 3914 0098 43F40053 		orr	r3, r3, #8192
 3915 009c 1360     		str	r3, [r2]
 3916 009e 02E0     		b	.L469
 3917              	.L470:
 3918 00a0 4FF6EF73 		movw	r3, #65519
 3919 00a4 AB60     		str	r3, [r5, #8]
 3920              	.L469:
 3921 00a6 636D     		ldr	r3, [r4, #84]
 3922 00a8 1BB1     		cbz	r3, .L465
 3923 00aa 2046     		mov	r0, r4
 3924 00ac FFF7FEFF 		bl	HAL_SPI_ErrorCallback
 3925 00b0 02E0     		b	.L464
 3926              	.L465:
 3927 00b2 2046     		mov	r0, r4
 3928 00b4 FFF7FEFF 		bl	HAL_SPI_TxRxCpltCallback
 3929              	.L464:
 3930 00b8 02B0     		add	sp, sp, #8
 3931              		@ sp needed
 3932 00ba 70BD     		pop	{r4, r5, r6, pc}
 3934              		.ident	"GCC: (15:4.9.3+svn231177-1) 4.9.3 20150529 (prerelease)"
ARM GAS  /tmp/ccMfNiPt.s 			page 68

