ARM GAS  /tmp/cc7BCDrU.s 			page 1


   1              		.syntax unified
   2              		.cpu cortex-m3
   3              		.fpu softvfp
   4              		.eabi_attribute 20, 1
   5              		.eabi_attribute 21, 1
   6              		.eabi_attribute 23, 3
   7              		.eabi_attribute 24, 1
   8              		.eabi_attribute 25, 1
   9              		.eabi_attribute 26, 1
  10              		.eabi_attribute 30, 4
  11              		.eabi_attribute 34, 1
  12              		.eabi_attribute 18, 4
  13              		.thumb
  14              		.file	"stm32f1xx_hal_usart.c"
  15              		.section	.text.USART_EndRxTransfer,"ax",%progbits
  16              		.align	1
  17              		.thumb
  18              		.thumb_func
  20              	USART_EndRxTransfer:
  21              		@ args = 0, pretend = 0, frame = 0
  22              		@ frame_needed = 0, uses_anonymous_args = 0
  23              		@ link register save eliminated.
  24 0000 0368     		ldr	r3, [r0]
  25 0002 DA68     		ldr	r2, [r3, #12]
  26 0004 22F49072 		bic	r2, r2, #288
  27 0008 DA60     		str	r2, [r3, #12]
  28 000a 5A69     		ldr	r2, [r3, #20]
  29 000c 22F00102 		bic	r2, r2, #1
  30 0010 5A61     		str	r2, [r3, #20]
  31 0012 0123     		movs	r3, #1
  32 0014 80F83D30 		strb	r3, [r0, #61]
  33 0018 7047     		bx	lr
  35              		.section	.text.USART_WaitOnFlagUntilTimeout.constprop.3,"ax",%progbits
  36              		.align	1
  37              		.thumb
  38              		.thumb_func
  40              	USART_WaitOnFlagUntilTimeout.constprop.3:
  41              		@ args = 0, pretend = 0, frame = 0
  42              		@ frame_needed = 0, uses_anonymous_args = 0
  43 0000 F8B5     		push	{r3, r4, r5, r6, r7, lr}
  44 0002 0446     		mov	r4, r0
  45 0004 0E46     		mov	r6, r1
  46 0006 1746     		mov	r7, r2
  47 0008 1D46     		mov	r5, r3
  48              	.L3:
  49 000a 2368     		ldr	r3, [r4]
  50              	.L4:
  51 000c 1868     		ldr	r0, [r3]
  52 000e 3040     		ands	r0, r0, r6
  53 0010 B042     		cmp	r0, r6
  54 0012 21D0     		beq	.L12
  55 0014 6A1C     		adds	r2, r5, #1
  56 0016 F9D0     		beq	.L4
  57 0018 C5B9     		cbnz	r5, .L5
  58              	.L7:
  59 001a 2368     		ldr	r3, [r4]
  60 001c 0320     		movs	r0, #3
ARM GAS  /tmp/cc7BCDrU.s 			page 2


  61 001e DA68     		ldr	r2, [r3, #12]
  62 0020 22F08002 		bic	r2, r2, #128
  63 0024 DA60     		str	r2, [r3, #12]
  64 0026 DA68     		ldr	r2, [r3, #12]
  65 0028 22F02002 		bic	r2, r2, #32
  66 002c DA60     		str	r2, [r3, #12]
  67 002e DA68     		ldr	r2, [r3, #12]
  68 0030 22F48072 		bic	r2, r2, #256
  69 0034 DA60     		str	r2, [r3, #12]
  70 0036 5A69     		ldr	r2, [r3, #20]
  71 0038 22F00102 		bic	r2, r2, #1
  72 003c 5A61     		str	r2, [r3, #20]
  73 003e 0123     		movs	r3, #1
  74 0040 84F83D30 		strb	r3, [r4, #61]
  75 0044 0023     		movs	r3, #0
  76 0046 84F83C30 		strb	r3, [r4, #60]
  77 004a F8BD     		pop	{r3, r4, r5, r6, r7, pc}
  78              	.L5:
  79 004c FFF7FEFF 		bl	HAL_GetTick
  80 0050 C01B     		subs	r0, r0, r7
  81 0052 A842     		cmp	r0, r5
  82 0054 D9D9     		bls	.L3
  83 0056 E0E7     		b	.L7
  84              	.L12:
  85 0058 0020     		movs	r0, #0
  86 005a F8BD     		pop	{r3, r4, r5, r6, r7, pc}
  88              		.section	.text.HAL_USART_MspInit,"ax",%progbits
  89              		.align	1
  90              		.weak	HAL_USART_MspInit
  91              		.thumb
  92              		.thumb_func
  94              	HAL_USART_MspInit:
  95              		@ args = 0, pretend = 0, frame = 0
  96              		@ frame_needed = 0, uses_anonymous_args = 0
  97              		@ link register save eliminated.
  98 0000 7047     		bx	lr
 100              		.section	.text.HAL_USART_Init,"ax",%progbits
 101              		.align	1
 102              		.global	HAL_USART_Init
 103              		.thumb
 104              		.thumb_func
 106              	HAL_USART_Init:
 107              		@ args = 0, pretend = 0, frame = 0
 108              		@ frame_needed = 0, uses_anonymous_args = 0
 109 0000 70B5     		push	{r4, r5, r6, lr}
 110 0002 0546     		mov	r5, r0
 111 0004 0028     		cmp	r0, #0
 112 0006 62D0     		beq	.L19
 113 0008 90F83D30 		ldrb	r3, [r0, #61]	@ zero_extendqisi2
 114 000c 03F0FF02 		and	r2, r3, #255
 115 0010 1BB9     		cbnz	r3, .L16
 116 0012 80F83C20 		strb	r2, [r0, #60]
 117 0016 FFF7FEFF 		bl	HAL_USART_MspInit
 118              	.L16:
 119 001a 0223     		movs	r3, #2
 120 001c 85F83D30 		strb	r3, [r5, #61]
 121 0020 2B68     		ldr	r3, [r5]
ARM GAS  /tmp/cc7BCDrU.s 			page 3


 122 0022 A869     		ldr	r0, [r5, #24]
 123 0024 DA68     		ldr	r2, [r3, #12]
 124 0026 1924     		movs	r4, #25
 125 0028 22F00C02 		bic	r2, r2, #12
 126 002c DA60     		str	r2, [r3, #12]
 127 002e 1A69     		ldr	r2, [r3, #16]
 128 0030 22F47C51 		bic	r1, r2, #16128
 129 0034 EA69     		ldr	r2, [r5, #28]
 130 0036 0243     		orrs	r2, r2, r0
 131 0038 286A     		ldr	r0, [r5, #32]
 132 003a 42F40062 		orr	r2, r2, #2048
 133 003e 0243     		orrs	r2, r2, r0
 134 0040 E868     		ldr	r0, [r5, #12]
 135 0042 0243     		orrs	r2, r2, r0
 136 0044 0A43     		orrs	r2, r2, r1
 137 0046 1A61     		str	r2, [r3, #16]
 138 0048 A968     		ldr	r1, [r5, #8]
 139 004a 2869     		ldr	r0, [r5, #16]
 140 004c DA68     		ldr	r2, [r3, #12]
 141 004e 0843     		orrs	r0, r0, r1
 142 0050 6969     		ldr	r1, [r5, #20]
 143 0052 22F4B052 		bic	r2, r2, #5632
 144 0056 22F00C02 		bic	r2, r2, #12
 145 005a 0143     		orrs	r1, r1, r0
 146 005c 0A43     		orrs	r2, r2, r1
 147 005e DA60     		str	r2, [r3, #12]
 148 0060 5A69     		ldr	r2, [r3, #20]
 149 0062 22F44072 		bic	r2, r2, #768
 150 0066 5A61     		str	r2, [r3, #20]
 151 0068 1A4A     		ldr	r2, .L21
 152 006a 9342     		cmp	r3, r2
 153 006c 02D1     		bne	.L17
 154 006e FFF7FEFF 		bl	HAL_RCC_GetPCLK2Freq
 155 0072 01E0     		b	.L20
 156              	.L17:
 157 0074 FFF7FEFF 		bl	HAL_RCC_GetPCLK1Freq
 158              	.L20:
 159 0078 6043     		muls	r0, r4, r0
 160 007a 6C68     		ldr	r4, [r5, #4]
 161 007c 2A68     		ldr	r2, [r5]
 162 007e A400     		lsls	r4, r4, #2
 163 0080 B0FBF4F0 		udiv	r0, r0, r4
 164 0084 6424     		movs	r4, #100
 165 0086 B0FBF4F6 		udiv	r6, r0, r4
 166 008a 04FB1600 		mls	r0, r4, r6, r0
 167 008e 0001     		lsls	r0, r0, #4
 168 0090 3230     		adds	r0, r0, #50
 169 0092 B0FBF4F3 		udiv	r3, r0, r4
 170 0096 03F00F01 		and	r1, r3, #15
 171 009a 01EB0611 		add	r1, r1, r6, lsl #4
 172 009e 03F0F003 		and	r3, r3, #240
 173 00a2 01EB4303 		add	r3, r1, r3, lsl #1
 174 00a6 9360     		str	r3, [r2, #8]
 175 00a8 2B68     		ldr	r3, [r5]
 176 00aa 0020     		movs	r0, #0
 177 00ac 1A69     		ldr	r2, [r3, #16]
 178 00ae 22F48042 		bic	r2, r2, #16384
ARM GAS  /tmp/cc7BCDrU.s 			page 4


 179 00b2 1A61     		str	r2, [r3, #16]
 180 00b4 5A69     		ldr	r2, [r3, #20]
 181 00b6 22F02A02 		bic	r2, r2, #42
 182 00ba 5A61     		str	r2, [r3, #20]
 183 00bc DA68     		ldr	r2, [r3, #12]
 184 00be 42F40052 		orr	r2, r2, #8192
 185 00c2 DA60     		str	r2, [r3, #12]
 186 00c4 0123     		movs	r3, #1
 187 00c6 2864     		str	r0, [r5, #64]
 188 00c8 85F83D30 		strb	r3, [r5, #61]
 189 00cc 70BD     		pop	{r4, r5, r6, pc}
 190              	.L19:
 191 00ce 0120     		movs	r0, #1
 192 00d0 70BD     		pop	{r4, r5, r6, pc}
 193              	.L22:
 194 00d2 00BF     		.align	2
 195              	.L21:
 196 00d4 00380140 		.word	1073821696
 198              		.section	.text.HAL_USART_MspDeInit,"ax",%progbits
 199              		.align	1
 200              		.weak	HAL_USART_MspDeInit
 201              		.thumb
 202              		.thumb_func
 204              	HAL_USART_MspDeInit:
 205              		@ args = 0, pretend = 0, frame = 0
 206              		@ frame_needed = 0, uses_anonymous_args = 0
 207              		@ link register save eliminated.
 208 0000 7047     		bx	lr
 210              		.section	.text.HAL_USART_DeInit,"ax",%progbits
 211              		.align	1
 212              		.global	HAL_USART_DeInit
 213              		.thumb
 214              		.thumb_func
 216              	HAL_USART_DeInit:
 217              		@ args = 0, pretend = 0, frame = 0
 218              		@ frame_needed = 0, uses_anonymous_args = 0
 219 0000 10B5     		push	{r4, lr}
 220 0002 0446     		mov	r4, r0
 221 0004 80B1     		cbz	r0, .L26
 222 0006 0268     		ldr	r2, [r0]
 223 0008 0223     		movs	r3, #2
 224 000a 80F83D30 		strb	r3, [r0, #61]
 225 000e D368     		ldr	r3, [r2, #12]
 226 0010 23F40053 		bic	r3, r3, #8192
 227 0014 D360     		str	r3, [r2, #12]
 228 0016 FFF7FEFF 		bl	HAL_USART_MspDeInit
 229 001a 0020     		movs	r0, #0
 230 001c 2064     		str	r0, [r4, #64]
 231 001e 84F83C00 		strb	r0, [r4, #60]
 232 0022 84F83D00 		strb	r0, [r4, #61]
 233 0026 10BD     		pop	{r4, pc}
 234              	.L26:
 235 0028 0120     		movs	r0, #1
 236 002a 10BD     		pop	{r4, pc}
 238              		.section	.text.HAL_USART_Transmit,"ax",%progbits
 239              		.align	1
 240              		.global	HAL_USART_Transmit
ARM GAS  /tmp/cc7BCDrU.s 			page 5


 241              		.thumb
 242              		.thumb_func
 244              	HAL_USART_Transmit:
 245              		@ args = 0, pretend = 0, frame = 0
 246              		@ frame_needed = 0, uses_anonymous_args = 0
 247 0000 2DE9F041 		push	{r4, r5, r6, r7, r8, lr}
 248 0004 0446     		mov	r4, r0
 249 0006 90F83D00 		ldrb	r0, [r0, #61]	@ zero_extendqisi2
 250 000a 0D46     		mov	r5, r1
 251 000c C0B2     		uxtb	r0, r0
 252 000e 0128     		cmp	r0, #1
 253 0010 9046     		mov	r8, r2
 254 0012 1E46     		mov	r6, r3
 255 0014 4BD1     		bne	.L39
 256 0016 0029     		cmp	r1, #0
 257 0018 4AD0     		beq	.L28
 258 001a 002A     		cmp	r2, #0
 259 001c 48D0     		beq	.L28
 260 001e 94F83C30 		ldrb	r3, [r4, #60]	@ zero_extendqisi2
 261 0022 012B     		cmp	r3, #1
 262 0024 43D0     		beq	.L39
 263 0026 0023     		movs	r3, #0
 264 0028 2364     		str	r3, [r4, #64]
 265 002a 1223     		movs	r3, #18
 266 002c 84F83C00 		strb	r0, [r4, #60]
 267 0030 84F83D30 		strb	r3, [r4, #61]
 268 0034 FFF7FEFF 		bl	HAL_GetTick
 269 0038 0746     		mov	r7, r0
 270 003a A4F82880 		strh	r8, [r4, #40]	@ movhi
 271 003e A4F82A80 		strh	r8, [r4, #42]	@ movhi
 272              	.L29:
 273 0042 638D     		ldrh	r3, [r4, #42]
 274 0044 9BB2     		uxth	r3, r3
 275 0046 1BB3     		cbz	r3, .L41
 276 0048 638D     		ldrh	r3, [r4, #42]
 277 004a 2046     		mov	r0, r4
 278 004c 013B     		subs	r3, r3, #1
 279 004e 9BB2     		uxth	r3, r3
 280 0050 6385     		strh	r3, [r4, #42]	@ movhi
 281 0052 A368     		ldr	r3, [r4, #8]
 282 0054 8021     		movs	r1, #128
 283 0056 B3F5805F 		cmp	r3, #4096
 284 005a 3A46     		mov	r2, r7
 285 005c 3346     		mov	r3, r6
 286 005e 0ED1     		bne	.L30
 287 0060 FFF7FEFF 		bl	USART_WaitOnFlagUntilTimeout.constprop.3
 288 0064 10B1     		cbz	r0, .L31
 289              	.L34:
 290 0066 0320     		movs	r0, #3
 291 0068 BDE8F081 		pop	{r4, r5, r6, r7, r8, pc}
 292              	.L31:
 293 006c 2B88     		ldrh	r3, [r5]
 294 006e 2268     		ldr	r2, [r4]
 295 0070 C3F30803 		ubfx	r3, r3, #0, #9
 296 0074 5360     		str	r3, [r2, #4]
 297 0076 2369     		ldr	r3, [r4, #16]
 298 0078 43B9     		cbnz	r3, .L40
ARM GAS  /tmp/cc7BCDrU.s 			page 6


 299 007a 0235     		adds	r5, r5, #2
 300 007c E1E7     		b	.L29
 301              	.L30:
 302 007e FFF7FEFF 		bl	USART_WaitOnFlagUntilTimeout.constprop.3
 303 0082 0028     		cmp	r0, #0
 304 0084 EFD1     		bne	.L34
 305 0086 2368     		ldr	r3, [r4]
 306 0088 2A78     		ldrb	r2, [r5]	@ zero_extendqisi2
 307 008a 5A60     		str	r2, [r3, #4]
 308              	.L40:
 309 008c 0135     		adds	r5, r5, #1
 310 008e D8E7     		b	.L29
 311              	.L41:
 312 0090 2046     		mov	r0, r4
 313 0092 4021     		movs	r1, #64
 314 0094 3A46     		mov	r2, r7
 315 0096 3346     		mov	r3, r6
 316 0098 FFF7FEFF 		bl	USART_WaitOnFlagUntilTimeout.constprop.3
 317 009c 0028     		cmp	r0, #0
 318 009e E2D1     		bne	.L34
 319 00a0 0123     		movs	r3, #1
 320 00a2 84F83D30 		strb	r3, [r4, #61]
 321 00a6 84F83C00 		strb	r0, [r4, #60]
 322 00aa BDE8F081 		pop	{r4, r5, r6, r7, r8, pc}
 323              	.L39:
 324 00ae 0220     		movs	r0, #2
 325              	.L28:
 326 00b0 BDE8F081 		pop	{r4, r5, r6, r7, r8, pc}
 328              		.section	.text.HAL_USART_Receive,"ax",%progbits
 329              		.align	1
 330              		.global	HAL_USART_Receive
 331              		.thumb
 332              		.thumb_func
 334              	HAL_USART_Receive:
 335              		@ args = 0, pretend = 0, frame = 0
 336              		@ frame_needed = 0, uses_anonymous_args = 0
 337 0000 2DE9F041 		push	{r4, r5, r6, r7, r8, lr}
 338 0004 0446     		mov	r4, r0
 339 0006 90F83D00 		ldrb	r0, [r0, #61]	@ zero_extendqisi2
 340 000a 0D46     		mov	r5, r1
 341 000c C0B2     		uxtb	r0, r0
 342 000e 0128     		cmp	r0, #1
 343 0010 9046     		mov	r8, r2
 344 0012 1E46     		mov	r6, r3
 345 0014 64D1     		bne	.L55
 346 0016 0029     		cmp	r1, #0
 347 0018 63D0     		beq	.L43
 348 001a 002A     		cmp	r2, #0
 349 001c 61D0     		beq	.L43
 350 001e 94F83C30 		ldrb	r3, [r4, #60]	@ zero_extendqisi2
 351 0022 012B     		cmp	r3, #1
 352 0024 5CD0     		beq	.L55
 353 0026 0023     		movs	r3, #0
 354 0028 2364     		str	r3, [r4, #64]
 355 002a 2223     		movs	r3, #34
 356 002c 84F83C00 		strb	r0, [r4, #60]
 357 0030 84F83D30 		strb	r3, [r4, #61]
ARM GAS  /tmp/cc7BCDrU.s 			page 7


 358 0034 FFF7FEFF 		bl	HAL_GetTick
 359 0038 0746     		mov	r7, r0
 360 003a A4F83080 		strh	r8, [r4, #48]	@ movhi
 361 003e A4F83280 		strh	r8, [r4, #50]	@ movhi
 362              	.L44:
 363 0042 608E     		ldrh	r0, [r4, #50]
 364 0044 80B2     		uxth	r0, r0
 365 0046 0028     		cmp	r0, #0
 366 0048 43D0     		beq	.L57
 367 004a 638E     		ldrh	r3, [r4, #50]
 368 004c 2046     		mov	r0, r4
 369 004e 013B     		subs	r3, r3, #1
 370 0050 9BB2     		uxth	r3, r3
 371 0052 6386     		strh	r3, [r4, #50]	@ movhi
 372 0054 A368     		ldr	r3, [r4, #8]
 373 0056 8021     		movs	r1, #128
 374 0058 B3F5805F 		cmp	r3, #4096
 375 005c 3A46     		mov	r2, r7
 376 005e 3346     		mov	r3, r6
 377 0060 1ED1     		bne	.L45
 378 0062 FFF7FEFF 		bl	USART_WaitOnFlagUntilTimeout.constprop.3
 379 0066 10B1     		cbz	r0, .L46
 380              	.L47:
 381 0068 0320     		movs	r0, #3
 382 006a BDE8F081 		pop	{r4, r5, r6, r7, r8, pc}
 383              	.L46:
 384 006e 40F2FF12 		movw	r2, #511
 385 0072 2368     		ldr	r3, [r4]
 386 0074 2046     		mov	r0, r4
 387 0076 5A60     		str	r2, [r3, #4]
 388 0078 2021     		movs	r1, #32
 389 007a 3A46     		mov	r2, r7
 390 007c 3346     		mov	r3, r6
 391 007e FFF7FEFF 		bl	USART_WaitOnFlagUntilTimeout.constprop.3
 392 0082 0028     		cmp	r0, #0
 393 0084 F0D1     		bne	.L47
 394 0086 2368     		ldr	r3, [r4]
 395 0088 2269     		ldr	r2, [r4, #16]
 396 008a 5B68     		ldr	r3, [r3, #4]
 397 008c 22B9     		cbnz	r2, .L48
 398 008e C3F30803 		ubfx	r3, r3, #0, #9
 399 0092 25F8023B 		strh	r3, [r5], #2	@ movhi
 400 0096 D4E7     		b	.L44
 401              	.L48:
 402 0098 DBB2     		uxtb	r3, r3
 403 009a 25F8013B 		strh	r3, [r5], #1	@ movhi
 404 009e D0E7     		b	.L44
 405              	.L45:
 406 00a0 FFF7FEFF 		bl	USART_WaitOnFlagUntilTimeout.constprop.3
 407 00a4 0028     		cmp	r0, #0
 408 00a6 DFD1     		bne	.L47
 409 00a8 2368     		ldr	r3, [r4]
 410 00aa FF22     		movs	r2, #255
 411 00ac 5A60     		str	r2, [r3, #4]
 412 00ae 2046     		mov	r0, r4
 413 00b0 2021     		movs	r1, #32
 414 00b2 3A46     		mov	r2, r7
ARM GAS  /tmp/cc7BCDrU.s 			page 8


 415 00b4 3346     		mov	r3, r6
 416 00b6 FFF7FEFF 		bl	USART_WaitOnFlagUntilTimeout.constprop.3
 417 00ba 0028     		cmp	r0, #0
 418 00bc D4D1     		bne	.L47
 419 00be 2368     		ldr	r3, [r4]
 420 00c0 2169     		ldr	r1, [r4, #16]
 421 00c2 6A1C     		adds	r2, r5, #1
 422 00c4 5B68     		ldr	r3, [r3, #4]
 423 00c6 09B1     		cbz	r1, .L56
 424 00c8 03F07F03 		and	r3, r3, #127
 425              	.L56:
 426 00cc 2B70     		strb	r3, [r5]
 427 00ce 1546     		mov	r5, r2
 428 00d0 B7E7     		b	.L44
 429              	.L57:
 430 00d2 0123     		movs	r3, #1
 431 00d4 84F83D30 		strb	r3, [r4, #61]
 432 00d8 84F83C00 		strb	r0, [r4, #60]
 433 00dc BDE8F081 		pop	{r4, r5, r6, r7, r8, pc}
 434              	.L55:
 435 00e0 0220     		movs	r0, #2
 436              	.L43:
 437 00e2 BDE8F081 		pop	{r4, r5, r6, r7, r8, pc}
 439              		.section	.text.HAL_USART_TransmitReceive,"ax",%progbits
 440              		.align	1
 441              		.global	HAL_USART_TransmitReceive
 442              		.thumb
 443              		.thumb_func
 445              	HAL_USART_TransmitReceive:
 446              		@ args = 4, pretend = 0, frame = 0
 447              		@ frame_needed = 0, uses_anonymous_args = 0
 448 0000 2DE9F041 		push	{r4, r5, r6, r7, r8, lr}
 449 0004 0446     		mov	r4, r0
 450 0006 90F83D00 		ldrb	r0, [r0, #61]	@ zero_extendqisi2
 451 000a 0E46     		mov	r6, r1
 452 000c C0B2     		uxtb	r0, r0
 453 000e 0128     		cmp	r0, #1
 454 0010 1546     		mov	r5, r2
 455 0012 9846     		mov	r8, r3
 456 0014 79D1     		bne	.L74
 457 0016 0029     		cmp	r1, #0
 458 0018 78D0     		beq	.L59
 459 001a 002A     		cmp	r2, #0
 460 001c 76D0     		beq	.L59
 461 001e 002B     		cmp	r3, #0
 462 0020 74D0     		beq	.L59
 463 0022 94F83C30 		ldrb	r3, [r4, #60]	@ zero_extendqisi2
 464 0026 012B     		cmp	r3, #1
 465 0028 6FD0     		beq	.L74
 466 002a 0023     		movs	r3, #0
 467 002c 2364     		str	r3, [r4, #64]
 468 002e 2223     		movs	r3, #34
 469 0030 84F83C00 		strb	r0, [r4, #60]
 470 0034 84F83D30 		strb	r3, [r4, #61]
 471 0038 FFF7FEFF 		bl	HAL_GetTick
 472 003c 0746     		mov	r7, r0
 473 003e A4F82A80 		strh	r8, [r4, #42]	@ movhi
ARM GAS  /tmp/cc7BCDrU.s 			page 9


 474 0042 A4F83080 		strh	r8, [r4, #48]	@ movhi
 475 0046 A4F82880 		strh	r8, [r4, #40]	@ movhi
 476 004a A4F83280 		strh	r8, [r4, #50]	@ movhi
 477              	.L60:
 478 004e 608D     		ldrh	r0, [r4, #42]
 479 0050 80B2     		uxth	r0, r0
 480 0052 0028     		cmp	r0, #0
 481 0054 52D0     		beq	.L76
 482 0056 638D     		ldrh	r3, [r4, #42]
 483 0058 2046     		mov	r0, r4
 484 005a 013B     		subs	r3, r3, #1
 485 005c 9BB2     		uxth	r3, r3
 486 005e 6385     		strh	r3, [r4, #42]	@ movhi
 487 0060 638E     		ldrh	r3, [r4, #50]
 488 0062 8021     		movs	r1, #128
 489 0064 013B     		subs	r3, r3, #1
 490 0066 9BB2     		uxth	r3, r3
 491 0068 6386     		strh	r3, [r4, #50]	@ movhi
 492 006a A368     		ldr	r3, [r4, #8]
 493 006c 3A46     		mov	r2, r7
 494 006e B3F5805F 		cmp	r3, #4096
 495 0072 069B     		ldr	r3, [sp, #24]
 496 0074 26D1     		bne	.L61
 497 0076 FFF7FEFF 		bl	USART_WaitOnFlagUntilTimeout.constprop.3
 498 007a 10B1     		cbz	r0, .L62
 499              	.L65:
 500 007c 0320     		movs	r0, #3
 501 007e BDE8F081 		pop	{r4, r5, r6, r7, r8, pc}
 502              	.L62:
 503 0082 3388     		ldrh	r3, [r6]
 504 0084 2268     		ldr	r2, [r4]
 505 0086 C3F30803 		ubfx	r3, r3, #0, #9
 506 008a 5360     		str	r3, [r2, #4]
 507 008c 2369     		ldr	r3, [r4, #16]
 508 008e 13B9     		cbnz	r3, .L63
 509 0090 06F10208 		add	r8, r6, #2
 510 0094 01E0     		b	.L64
 511              	.L63:
 512 0096 06F10108 		add	r8, r6, #1
 513              	.L64:
 514 009a 2046     		mov	r0, r4
 515 009c 2021     		movs	r1, #32
 516 009e 3A46     		mov	r2, r7
 517 00a0 069B     		ldr	r3, [sp, #24]
 518 00a2 FFF7FEFF 		bl	USART_WaitOnFlagUntilTimeout.constprop.3
 519 00a6 0028     		cmp	r0, #0
 520 00a8 E8D1     		bne	.L65
 521 00aa 2368     		ldr	r3, [r4]
 522 00ac 2269     		ldr	r2, [r4, #16]
 523 00ae 5B68     		ldr	r3, [r3, #4]
 524 00b0 22B9     		cbnz	r2, .L66
 525 00b2 C3F30803 		ubfx	r3, r3, #0, #9
 526 00b6 25F8023B 		strh	r3, [r5], #2	@ movhi
 527 00ba 1DE0     		b	.L67
 528              	.L66:
 529 00bc DBB2     		uxtb	r3, r3
 530 00be 25F8013B 		strh	r3, [r5], #1	@ movhi
ARM GAS  /tmp/cc7BCDrU.s 			page 10


 531 00c2 19E0     		b	.L67
 532              	.L61:
 533 00c4 FFF7FEFF 		bl	USART_WaitOnFlagUntilTimeout.constprop.3
 534 00c8 0028     		cmp	r0, #0
 535 00ca D7D1     		bne	.L65
 536 00cc 2368     		ldr	r3, [r4]
 537 00ce 3278     		ldrb	r2, [r6]	@ zero_extendqisi2
 538 00d0 2046     		mov	r0, r4
 539 00d2 5A60     		str	r2, [r3, #4]
 540 00d4 2021     		movs	r1, #32
 541 00d6 3A46     		mov	r2, r7
 542 00d8 069B     		ldr	r3, [sp, #24]
 543 00da 06F10108 		add	r8, r6, #1
 544 00de FFF7FEFF 		bl	USART_WaitOnFlagUntilTimeout.constprop.3
 545 00e2 0028     		cmp	r0, #0
 546 00e4 CAD1     		bne	.L65
 547 00e6 2368     		ldr	r3, [r4]
 548 00e8 2169     		ldr	r1, [r4, #16]
 549 00ea 6A1C     		adds	r2, r5, #1
 550 00ec 5B68     		ldr	r3, [r3, #4]
 551 00ee 09B1     		cbz	r1, .L75
 552 00f0 03F07F03 		and	r3, r3, #127
 553              	.L75:
 554 00f4 2B70     		strb	r3, [r5]
 555 00f6 1546     		mov	r5, r2
 556              	.L67:
 557 00f8 4646     		mov	r6, r8
 558 00fa A8E7     		b	.L60
 559              	.L76:
 560 00fc 0123     		movs	r3, #1
 561 00fe 84F83D30 		strb	r3, [r4, #61]
 562 0102 84F83C00 		strb	r0, [r4, #60]
 563 0106 BDE8F081 		pop	{r4, r5, r6, r7, r8, pc}
 564              	.L74:
 565 010a 0220     		movs	r0, #2
 566              	.L59:
 567 010c BDE8F081 		pop	{r4, r5, r6, r7, r8, pc}
 569              		.section	.text.HAL_USART_Transmit_IT,"ax",%progbits
 570              		.align	1
 571              		.global	HAL_USART_Transmit_IT
 572              		.thumb
 573              		.thumb_func
 575              	HAL_USART_Transmit_IT:
 576              		@ args = 0, pretend = 0, frame = 0
 577              		@ frame_needed = 0, uses_anonymous_args = 0
 578 0000 90F83D30 		ldrb	r3, [r0, #61]	@ zero_extendqisi2
 579 0004 10B5     		push	{r4, lr}
 580 0006 0446     		mov	r4, r0
 581 0008 D8B2     		uxtb	r0, r3
 582 000a 0128     		cmp	r0, #1
 583 000c 16D1     		bne	.L82
 584 000e B1B1     		cbz	r1, .L78
 585 0010 AAB1     		cbz	r2, .L78
 586 0012 94F83C30 		ldrb	r3, [r4, #60]	@ zero_extendqisi2
 587 0016 012B     		cmp	r3, #1
 588 0018 10D0     		beq	.L82
 589 001a 6285     		strh	r2, [r4, #42]	@ movhi
ARM GAS  /tmp/cc7BCDrU.s 			page 11


 590 001c 0023     		movs	r3, #0
 591 001e 6162     		str	r1, [r4, #36]
 592 0020 2285     		strh	r2, [r4, #40]	@ movhi
 593 0022 2168     		ldr	r1, [r4]
 594 0024 1222     		movs	r2, #18
 595 0026 2364     		str	r3, [r4, #64]
 596 0028 84F83D20 		strb	r2, [r4, #61]
 597 002c CA68     		ldr	r2, [r1, #12]
 598 002e 84F83C30 		strb	r3, [r4, #60]
 599 0032 42F08002 		orr	r2, r2, #128
 600 0036 CA60     		str	r2, [r1, #12]
 601 0038 1846     		mov	r0, r3
 602 003a 10BD     		pop	{r4, pc}
 603              	.L82:
 604 003c 0220     		movs	r0, #2
 605              	.L78:
 606 003e 10BD     		pop	{r4, pc}
 608              		.section	.text.HAL_USART_Receive_IT,"ax",%progbits
 609              		.align	1
 610              		.global	HAL_USART_Receive_IT
 611              		.thumb
 612              		.thumb_func
 614              	HAL_USART_Receive_IT:
 615              		@ args = 0, pretend = 0, frame = 0
 616              		@ frame_needed = 0, uses_anonymous_args = 0
 617 0000 90F83D30 		ldrb	r3, [r0, #61]	@ zero_extendqisi2
 618 0004 10B5     		push	{r4, lr}
 619 0006 0446     		mov	r4, r0
 620 0008 D8B2     		uxtb	r0, r3
 621 000a 0128     		cmp	r0, #1
 622 000c 1DD1     		bne	.L88
 623 000e E9B1     		cbz	r1, .L84
 624 0010 E2B1     		cbz	r2, .L84
 625 0012 94F83C30 		ldrb	r3, [r4, #60]	@ zero_extendqisi2
 626 0016 012B     		cmp	r3, #1
 627 0018 17D0     		beq	.L88
 628 001a 6286     		strh	r2, [r4, #50]	@ movhi
 629 001c 2286     		strh	r2, [r4, #48]	@ movhi
 630 001e 0023     		movs	r3, #0
 631 0020 2222     		movs	r2, #34
 632 0022 2364     		str	r3, [r4, #64]
 633 0024 84F83D20 		strb	r2, [r4, #61]
 634 0028 2268     		ldr	r2, [r4]
 635 002a E162     		str	r1, [r4, #44]
 636 002c D168     		ldr	r1, [r2, #12]
 637 002e 84F83C30 		strb	r3, [r4, #60]
 638 0032 41F49071 		orr	r1, r1, #288
 639 0036 D160     		str	r1, [r2, #12]
 640 0038 5169     		ldr	r1, [r2, #20]
 641 003a 1846     		mov	r0, r3
 642 003c 41F00101 		orr	r1, r1, #1
 643 0040 5161     		str	r1, [r2, #20]
 644 0042 40F2FF11 		movw	r1, #511
 645 0046 5160     		str	r1, [r2, #4]
 646 0048 10BD     		pop	{r4, pc}
 647              	.L88:
 648 004a 0220     		movs	r0, #2
ARM GAS  /tmp/cc7BCDrU.s 			page 12


 649              	.L84:
 650 004c 10BD     		pop	{r4, pc}
 652              		.section	.text.HAL_USART_TransmitReceive_IT,"ax",%progbits
 653              		.align	1
 654              		.global	HAL_USART_TransmitReceive_IT
 655              		.thumb
 656              		.thumb_func
 658              	HAL_USART_TransmitReceive_IT:
 659              		@ args = 0, pretend = 0, frame = 0
 660              		@ frame_needed = 0, uses_anonymous_args = 0
 661 0000 30B5     		push	{r4, r5, lr}
 662 0002 90F83D40 		ldrb	r4, [r0, #61]	@ zero_extendqisi2
 663 0006 0546     		mov	r5, r0
 664 0008 E0B2     		uxtb	r0, r4
 665 000a 0128     		cmp	r0, #1
 666 000c 26D1     		bne	.L95
 667 000e 31B3     		cbz	r1, .L90
 668 0010 2AB3     		cbz	r2, .L90
 669 0012 23B3     		cbz	r3, .L90
 670 0014 95F83C00 		ldrb	r0, [r5, #60]	@ zero_extendqisi2
 671 0018 0128     		cmp	r0, #1
 672 001a 1FD0     		beq	.L95
 673 001c 6B86     		strh	r3, [r5, #50]	@ movhi
 674 001e EA62     		str	r2, [r5, #44]
 675 0020 6B85     		strh	r3, [r5, #42]	@ movhi
 676 0022 2B86     		strh	r3, [r5, #48]	@ movhi
 677 0024 2B85     		strh	r3, [r5, #40]	@ movhi
 678 0026 3222     		movs	r2, #50
 679 0028 0023     		movs	r3, #0
 680 002a 2B64     		str	r3, [r5, #64]
 681 002c 85F83D20 		strb	r2, [r5, #61]
 682 0030 2A68     		ldr	r2, [r5]
 683 0032 6962     		str	r1, [r5, #36]
 684 0034 D168     		ldr	r1, [r2, #12]
 685 0036 85F83C30 		strb	r3, [r5, #60]
 686 003a 41F02001 		orr	r1, r1, #32
 687 003e D160     		str	r1, [r2, #12]
 688 0040 D168     		ldr	r1, [r2, #12]
 689 0042 1846     		mov	r0, r3
 690 0044 41F48071 		orr	r1, r1, #256
 691 0048 D160     		str	r1, [r2, #12]
 692 004a 5169     		ldr	r1, [r2, #20]
 693 004c 41F00101 		orr	r1, r1, #1
 694 0050 5161     		str	r1, [r2, #20]
 695 0052 D168     		ldr	r1, [r2, #12]
 696 0054 41F08001 		orr	r1, r1, #128
 697 0058 D160     		str	r1, [r2, #12]
 698 005a 30BD     		pop	{r4, r5, pc}
 699              	.L95:
 700 005c 0220     		movs	r0, #2
 701              	.L90:
 702 005e 30BD     		pop	{r4, r5, pc}
 704              		.section	.text.HAL_USART_Transmit_DMA,"ax",%progbits
 705              		.align	1
 706              		.global	HAL_USART_Transmit_DMA
 707              		.thumb
 708              		.thumb_func
ARM GAS  /tmp/cc7BCDrU.s 			page 13


 710              	HAL_USART_Transmit_DMA:
 711              		@ args = 0, pretend = 0, frame = 0
 712              		@ frame_needed = 0, uses_anonymous_args = 0
 713 0000 38B5     		push	{r3, r4, r5, lr}
 714 0002 0546     		mov	r5, r0
 715 0004 90F83D00 		ldrb	r0, [r0, #61]	@ zero_extendqisi2
 716 0008 1346     		mov	r3, r2
 717 000a C0B2     		uxtb	r0, r0
 718 000c 0128     		cmp	r0, #1
 719 000e 27D1     		bne	.L101
 720 0010 39B3     		cbz	r1, .L97
 721 0012 32B3     		cbz	r2, .L97
 722 0014 95F83C20 		ldrb	r2, [r5, #60]	@ zero_extendqisi2
 723 0018 012A     		cmp	r2, #1
 724 001a 21D0     		beq	.L101
 725 001c 0024     		movs	r4, #0
 726 001e 1222     		movs	r2, #18
 727 0020 6B85     		strh	r3, [r5, #42]	@ movhi
 728 0022 85F83C00 		strb	r0, [r5, #60]
 729 0026 2C64     		str	r4, [r5, #64]
 730 0028 686B     		ldr	r0, [r5, #52]
 731 002a 85F83D20 		strb	r2, [r5, #61]
 732 002e 0D4A     		ldr	r2, .L102
 733 0030 2B85     		strh	r3, [r5, #40]	@ movhi
 734 0032 6962     		str	r1, [r5, #36]
 735 0034 8262     		str	r2, [r0, #40]
 736 0036 0C4A     		ldr	r2, .L102+4
 737 0038 4463     		str	r4, [r0, #52]
 738 003a C262     		str	r2, [r0, #44]
 739 003c 0B4A     		ldr	r2, .L102+8
 740 003e 0263     		str	r2, [r0, #48]
 741 0040 2A68     		ldr	r2, [r5]
 742 0042 0432     		adds	r2, r2, #4
 743 0044 FFF7FEFF 		bl	HAL_DMA_Start_IT
 744 0048 2B68     		ldr	r3, [r5]
 745 004a 6FF04002 		mvn	r2, #64
 746 004e 1A60     		str	r2, [r3]
 747 0050 5A69     		ldr	r2, [r3, #20]
 748 0052 85F83C40 		strb	r4, [r5, #60]
 749 0056 42F08002 		orr	r2, r2, #128
 750 005a 5A61     		str	r2, [r3, #20]
 751 005c 2046     		mov	r0, r4
 752 005e 38BD     		pop	{r3, r4, r5, pc}
 753              	.L101:
 754 0060 0220     		movs	r0, #2
 755              	.L97:
 756 0062 38BD     		pop	{r3, r4, r5, pc}
 757              	.L103:
 758              		.align	2
 759              	.L102:
 760 0064 00000000 		.word	USART_DMATransmitCplt
 761 0068 00000000 		.word	USART_DMATxHalfCplt
 762 006c 00000000 		.word	USART_DMAError
 764              		.section	.text.HAL_USART_Receive_DMA,"ax",%progbits
 765              		.align	1
 766              		.global	HAL_USART_Receive_DMA
 767              		.thumb
ARM GAS  /tmp/cc7BCDrU.s 			page 14


 768              		.thumb_func
 770              	HAL_USART_Receive_DMA:
 771              		@ args = 0, pretend = 0, frame = 8
 772              		@ frame_needed = 0, uses_anonymous_args = 0
 773 0000 F7B5     		push	{r0, r1, r2, r4, r5, r6, r7, lr}
 774 0002 0546     		mov	r5, r0
 775 0004 90F83D00 		ldrb	r0, [r0, #61]	@ zero_extendqisi2
 776 0008 0F46     		mov	r7, r1
 777 000a C0B2     		uxtb	r0, r0
 778 000c 0128     		cmp	r0, #1
 779 000e 1646     		mov	r6, r2
 780 0010 47D1     		bne	.L109
 781 0012 0029     		cmp	r1, #0
 782 0014 46D0     		beq	.L105
 783 0016 002A     		cmp	r2, #0
 784 0018 44D0     		beq	.L105
 785 001a 95F83C30 		ldrb	r3, [r5, #60]	@ zero_extendqisi2
 786 001e 012B     		cmp	r3, #1
 787 0020 3FD0     		beq	.L109
 788 0022 0024     		movs	r4, #0
 789 0024 2223     		movs	r3, #34
 790 0026 85F83C00 		strb	r0, [r5, #60]
 791 002a 2C64     		str	r4, [r5, #64]
 792 002c A86B     		ldr	r0, [r5, #56]
 793 002e 85F83D30 		strb	r3, [r5, #61]
 794 0032 1D4B     		ldr	r3, .L110
 795 0034 E962     		str	r1, [r5, #44]
 796 0036 2A86     		strh	r2, [r5, #48]	@ movhi
 797 0038 6962     		str	r1, [r5, #36]
 798 003a 2A85     		strh	r2, [r5, #40]	@ movhi
 799 003c 8362     		str	r3, [r0, #40]
 800 003e 1B4B     		ldr	r3, .L110+4
 801 0040 1B4A     		ldr	r2, .L110+8
 802 0042 C362     		str	r3, [r0, #44]
 803 0044 2968     		ldr	r1, [r5]
 804 0046 6B6B     		ldr	r3, [r5, #52]
 805 0048 0263     		str	r2, [r0, #48]
 806 004a 4463     		str	r4, [r0, #52]
 807 004c 0431     		adds	r1, r1, #4
 808 004e 1A63     		str	r2, [r3, #48]
 809 0050 DC62     		str	r4, [r3, #44]
 810 0052 9C62     		str	r4, [r3, #40]
 811 0054 5C63     		str	r4, [r3, #52]
 812 0056 3A46     		mov	r2, r7
 813 0058 3346     		mov	r3, r6
 814 005a FFF7FEFF 		bl	HAL_DMA_Start_IT
 815 005e 2A68     		ldr	r2, [r5]
 816 0060 3346     		mov	r3, r6
 817 0062 0432     		adds	r2, r2, #4
 818 0064 686B     		ldr	r0, [r5, #52]
 819 0066 3946     		mov	r1, r7
 820 0068 FFF7FEFF 		bl	HAL_DMA_Start_IT
 821 006c 2B68     		ldr	r3, [r5]
 822 006e 0194     		str	r4, [sp, #4]
 823 0070 1A68     		ldr	r2, [r3]
 824 0072 2046     		mov	r0, r4
 825 0074 0192     		str	r2, [sp, #4]
ARM GAS  /tmp/cc7BCDrU.s 			page 15


 826 0076 5A68     		ldr	r2, [r3, #4]
 827 0078 85F83C40 		strb	r4, [r5, #60]
 828 007c 0192     		str	r2, [sp, #4]
 829 007e 019A     		ldr	r2, [sp, #4]
 830 0080 DA68     		ldr	r2, [r3, #12]
 831 0082 42F48072 		orr	r2, r2, #256
 832 0086 DA60     		str	r2, [r3, #12]
 833 0088 5A69     		ldr	r2, [r3, #20]
 834 008a 42F00102 		orr	r2, r2, #1
 835 008e 5A61     		str	r2, [r3, #20]
 836 0090 5A69     		ldr	r2, [r3, #20]
 837 0092 42F04002 		orr	r2, r2, #64
 838 0096 5A61     		str	r2, [r3, #20]
 839 0098 5A69     		ldr	r2, [r3, #20]
 840 009a 42F08002 		orr	r2, r2, #128
 841 009e 5A61     		str	r2, [r3, #20]
 842 00a0 00E0     		b	.L105
 843              	.L109:
 844 00a2 0220     		movs	r0, #2
 845              	.L105:
 846 00a4 03B0     		add	sp, sp, #12
 847              		@ sp needed
 848 00a6 F0BD     		pop	{r4, r5, r6, r7, pc}
 849              	.L111:
 850              		.align	2
 851              	.L110:
 852 00a8 00000000 		.word	USART_DMAReceiveCplt
 853 00ac 00000000 		.word	USART_DMARxHalfCplt
 854 00b0 00000000 		.word	USART_DMAError
 856              		.section	.text.HAL_USART_TransmitReceive_DMA,"ax",%progbits
 857              		.align	1
 858              		.global	HAL_USART_TransmitReceive_DMA
 859              		.thumb
 860              		.thumb_func
 862              	HAL_USART_TransmitReceive_DMA:
 863              		@ args = 0, pretend = 0, frame = 8
 864              		@ frame_needed = 0, uses_anonymous_args = 0
 865 0000 F7B5     		push	{r0, r1, r2, r4, r5, r6, r7, lr}
 866 0002 0546     		mov	r5, r0
 867 0004 90F83D00 		ldrb	r0, [r0, #61]	@ zero_extendqisi2
 868 0008 0F46     		mov	r7, r1
 869 000a C0B2     		uxtb	r0, r0
 870 000c 0128     		cmp	r0, #1
 871 000e 1E46     		mov	r6, r3
 872 0010 52D1     		bne	.L118
 873 0012 002F     		cmp	r7, #0
 874 0014 51D0     		beq	.L113
 875 0016 002A     		cmp	r2, #0
 876 0018 4FD0     		beq	.L113
 877 001a 002B     		cmp	r3, #0
 878 001c 4DD0     		beq	.L113
 879 001e 95F83C40 		ldrb	r4, [r5, #60]	@ zero_extendqisi2
 880 0022 012C     		cmp	r4, #1
 881 0024 48D0     		beq	.L118
 882 0026 0024     		movs	r4, #0
 883 0028 3221     		movs	r1, #50
 884 002a 85F83C00 		strb	r0, [r5, #60]
ARM GAS  /tmp/cc7BCDrU.s 			page 16


 885 002e 2C64     		str	r4, [r5, #64]
 886 0030 A86B     		ldr	r0, [r5, #56]
 887 0032 85F83D10 		strb	r1, [r5, #61]
 888 0036 2249     		ldr	r1, .L119
 889 0038 EA62     		str	r2, [r5, #44]
 890 003a 2B86     		strh	r3, [r5, #48]	@ movhi
 891 003c 2B85     		strh	r3, [r5, #40]	@ movhi
 892 003e 6F62     		str	r7, [r5, #36]
 893 0040 8162     		str	r1, [r0, #40]
 894 0042 2049     		ldr	r1, .L119+4
 895 0044 DFF880E0 		ldr	lr, .L119+8
 896 0048 C162     		str	r1, [r0, #44]
 897 004a 696B     		ldr	r1, [r5, #52]
 898 004c C1F828E0 		str	lr, [r1, #40]
 899 0050 DFF878E0 		ldr	lr, .L119+12
 900 0054 C1F82CE0 		str	lr, [r1, #44]
 901 0058 DFF874E0 		ldr	lr, .L119+16
 902 005c C1F830E0 		str	lr, [r1, #48]
 903 0060 2968     		ldr	r1, [r5]
 904 0062 C0F830E0 		str	lr, [r0, #48]
 905 0066 0431     		adds	r1, r1, #4
 906 0068 4463     		str	r4, [r0, #52]
 907 006a FFF7FEFF 		bl	HAL_DMA_Start_IT
 908 006e 2A68     		ldr	r2, [r5]
 909 0070 3346     		mov	r3, r6
 910 0072 0432     		adds	r2, r2, #4
 911 0074 686B     		ldr	r0, [r5, #52]
 912 0076 3946     		mov	r1, r7
 913 0078 FFF7FEFF 		bl	HAL_DMA_Start_IT
 914 007c 2B68     		ldr	r3, [r5]
 915 007e 6FF04002 		mvn	r2, #64
 916 0082 1A60     		str	r2, [r3]
 917 0084 0194     		str	r4, [sp, #4]
 918 0086 1A68     		ldr	r2, [r3]
 919 0088 2046     		mov	r0, r4
 920 008a 0192     		str	r2, [sp, #4]
 921 008c 5A68     		ldr	r2, [r3, #4]
 922 008e 85F83C40 		strb	r4, [r5, #60]
 923 0092 0192     		str	r2, [sp, #4]
 924 0094 019A     		ldr	r2, [sp, #4]
 925 0096 DA68     		ldr	r2, [r3, #12]
 926 0098 42F48072 		orr	r2, r2, #256
 927 009c DA60     		str	r2, [r3, #12]
 928 009e 5A69     		ldr	r2, [r3, #20]
 929 00a0 42F00102 		orr	r2, r2, #1
 930 00a4 5A61     		str	r2, [r3, #20]
 931 00a6 5A69     		ldr	r2, [r3, #20]
 932 00a8 42F04002 		orr	r2, r2, #64
 933 00ac 5A61     		str	r2, [r3, #20]
 934 00ae 5A69     		ldr	r2, [r3, #20]
 935 00b0 42F08002 		orr	r2, r2, #128
 936 00b4 5A61     		str	r2, [r3, #20]
 937 00b6 00E0     		b	.L113
 938              	.L118:
 939 00b8 0220     		movs	r0, #2
 940              	.L113:
 941 00ba 03B0     		add	sp, sp, #12
ARM GAS  /tmp/cc7BCDrU.s 			page 17


 942              		@ sp needed
 943 00bc F0BD     		pop	{r4, r5, r6, r7, pc}
 944              	.L120:
 945 00be 00BF     		.align	2
 946              	.L119:
 947 00c0 00000000 		.word	USART_DMAReceiveCplt
 948 00c4 00000000 		.word	USART_DMARxHalfCplt
 949 00c8 00000000 		.word	USART_DMATransmitCplt
 950 00cc 00000000 		.word	USART_DMATxHalfCplt
 951 00d0 00000000 		.word	USART_DMAError
 953              		.section	.text.HAL_USART_DMAPause,"ax",%progbits
 954              		.align	1
 955              		.global	HAL_USART_DMAPause
 956              		.thumb
 957              		.thumb_func
 959              	HAL_USART_DMAPause:
 960              		@ args = 0, pretend = 0, frame = 0
 961              		@ frame_needed = 0, uses_anonymous_args = 0
 962              		@ link register save eliminated.
 963 0000 90F83C30 		ldrb	r3, [r0, #60]	@ zero_extendqisi2
 964 0004 012B     		cmp	r3, #1
 965 0006 1FBF     		itttt	ne
 966 0008 0268     		ldrne	r2, [r0]
 967 000a 5369     		ldrne	r3, [r2, #20]
 968 000c 23F08003 		bicne	r3, r3, #128
 969 0010 5361     		strne	r3, [r2, #20]
 970 0012 1DBF     		ittte	ne
 971 0014 0023     		movne	r3, #0
 972 0016 80F83C30 		strbne	r3, [r0, #60]
 973 001a 1846     		movne	r0, r3
 974 001c 0220     		moveq	r0, #2
 975 001e 7047     		bx	lr
 977              		.section	.text.HAL_USART_DMAResume,"ax",%progbits
 978              		.align	1
 979              		.global	HAL_USART_DMAResume
 980              		.thumb
 981              		.thumb_func
 983              	HAL_USART_DMAResume:
 984              		@ args = 0, pretend = 0, frame = 0
 985              		@ frame_needed = 0, uses_anonymous_args = 0
 986              		@ link register save eliminated.
 987 0000 90F83C30 		ldrb	r3, [r0, #60]	@ zero_extendqisi2
 988 0004 012B     		cmp	r3, #1
 989 0006 1FBF     		itttt	ne
 990 0008 0268     		ldrne	r2, [r0]
 991 000a 5369     		ldrne	r3, [r2, #20]
 992 000c 43F08003 		orrne	r3, r3, #128
 993 0010 5361     		strne	r3, [r2, #20]
 994 0012 1DBF     		ittte	ne
 995 0014 0023     		movne	r3, #0
 996 0016 80F83C30 		strbne	r3, [r0, #60]
 997 001a 1846     		movne	r0, r3
 998 001c 0220     		moveq	r0, #2
 999 001e 7047     		bx	lr
 1001              		.section	.text.HAL_USART_DMAStop,"ax",%progbits
 1002              		.align	1
 1003              		.global	HAL_USART_DMAStop
ARM GAS  /tmp/cc7BCDrU.s 			page 18


 1004              		.thumb
 1005              		.thumb_func
 1007              	HAL_USART_DMAStop:
 1008              		@ args = 0, pretend = 0, frame = 0
 1009              		@ frame_needed = 0, uses_anonymous_args = 0
 1010 0000 0368     		ldr	r3, [r0]
 1011 0002 10B5     		push	{r4, lr}
 1012 0004 5A69     		ldr	r2, [r3, #20]
 1013 0006 90F83D10 		ldrb	r1, [r0, #61]	@ zero_extendqisi2
 1014 000a 0446     		mov	r4, r0
 1015 000c 1229     		cmp	r1, #18
 1016 000e 11D1     		bne	.L128
 1017 0010 1206     		lsls	r2, r2, #24
 1018 0012 0FD5     		bpl	.L128
 1019 0014 DA68     		ldr	r2, [r3, #12]
 1020 0016 22F0C002 		bic	r2, r2, #192
 1021 001a DA60     		str	r2, [r3, #12]
 1022 001c 0123     		movs	r3, #1
 1023 001e 80F83D30 		strb	r3, [r0, #61]
 1024 0022 406B     		ldr	r0, [r0, #52]
 1025 0024 08B1     		cbz	r0, .L129
 1026 0026 FFF7FEFF 		bl	HAL_DMA_Abort
 1027              	.L129:
 1028 002a 2268     		ldr	r2, [r4]
 1029 002c 5369     		ldr	r3, [r2, #20]
 1030 002e 23F08003 		bic	r3, r3, #128
 1031 0032 5361     		str	r3, [r2, #20]
 1032              	.L128:
 1033 0034 2368     		ldr	r3, [r4]
 1034 0036 5B69     		ldr	r3, [r3, #20]
 1035 0038 94F83D20 		ldrb	r2, [r4, #61]	@ zero_extendqisi2
 1036 003c 222A     		cmp	r2, #34
 1037 003e 0DD1     		bne	.L130
 1038 0040 5B06     		lsls	r3, r3, #25
 1039 0042 0BD5     		bpl	.L130
 1040 0044 2046     		mov	r0, r4
 1041 0046 FFF7FEFF 		bl	USART_EndRxTransfer
 1042 004a A06B     		ldr	r0, [r4, #56]
 1043 004c 08B1     		cbz	r0, .L131
 1044 004e FFF7FEFF 		bl	HAL_DMA_Abort
 1045              	.L131:
 1046 0052 2268     		ldr	r2, [r4]
 1047 0054 5369     		ldr	r3, [r2, #20]
 1048 0056 23F04003 		bic	r3, r3, #64
 1049 005a 5361     		str	r3, [r2, #20]
 1050              	.L130:
 1051 005c 0020     		movs	r0, #0
 1052 005e 10BD     		pop	{r4, pc}
 1054              		.section	.text.HAL_USART_Abort,"ax",%progbits
 1055              		.align	1
 1056              		.global	HAL_USART_Abort
 1057              		.thumb
 1058              		.thumb_func
 1060              	HAL_USART_Abort:
 1061              		@ args = 0, pretend = 0, frame = 0
 1062              		@ frame_needed = 0, uses_anonymous_args = 0
 1063 0000 0368     		ldr	r3, [r0]
ARM GAS  /tmp/cc7BCDrU.s 			page 19


 1064 0002 10B5     		push	{r4, lr}
 1065 0004 DA68     		ldr	r2, [r3, #12]
 1066 0006 0446     		mov	r4, r0
 1067 0008 22F4F072 		bic	r2, r2, #480
 1068 000c DA60     		str	r2, [r3, #12]
 1069 000e 5A69     		ldr	r2, [r3, #20]
 1070 0010 22F00102 		bic	r2, r2, #1
 1071 0014 5A61     		str	r2, [r3, #20]
 1072 0016 5A69     		ldr	r2, [r3, #20]
 1073 0018 1106     		lsls	r1, r2, #24
 1074 001a 09D5     		bpl	.L146
 1075 001c 5A69     		ldr	r2, [r3, #20]
 1076 001e 406B     		ldr	r0, [r0, #52]
 1077 0020 22F08002 		bic	r2, r2, #128
 1078 0024 5A61     		str	r2, [r3, #20]
 1079 0026 18B1     		cbz	r0, .L146
 1080 0028 0023     		movs	r3, #0
 1081 002a 4363     		str	r3, [r0, #52]
 1082 002c FFF7FEFF 		bl	HAL_DMA_Abort
 1083              	.L146:
 1084 0030 2368     		ldr	r3, [r4]
 1085 0032 5A69     		ldr	r2, [r3, #20]
 1086 0034 5206     		lsls	r2, r2, #25
 1087 0036 09D5     		bpl	.L149
 1088 0038 5A69     		ldr	r2, [r3, #20]
 1089 003a A06B     		ldr	r0, [r4, #56]
 1090 003c 22F04002 		bic	r2, r2, #64
 1091 0040 5A61     		str	r2, [r3, #20]
 1092 0042 18B1     		cbz	r0, .L149
 1093 0044 0023     		movs	r3, #0
 1094 0046 4363     		str	r3, [r0, #52]
 1095 0048 FFF7FEFF 		bl	HAL_DMA_Abort
 1096              	.L149:
 1097 004c 0020     		movs	r0, #0
 1098 004e 0123     		movs	r3, #1
 1099 0050 6085     		strh	r0, [r4, #42]	@ movhi
 1100 0052 6086     		strh	r0, [r4, #50]	@ movhi
 1101 0054 84F83D30 		strb	r3, [r4, #61]
 1102 0058 2064     		str	r0, [r4, #64]
 1103 005a 10BD     		pop	{r4, pc}
 1105              		.section	.text.HAL_USART_TxCpltCallback,"ax",%progbits
 1106              		.align	1
 1107              		.weak	HAL_USART_TxCpltCallback
 1108              		.thumb
 1109              		.thumb_func
 1111              	HAL_USART_TxCpltCallback:
 1112              		@ args = 0, pretend = 0, frame = 0
 1113              		@ frame_needed = 0, uses_anonymous_args = 0
 1114              		@ link register save eliminated.
 1115 0000 7047     		bx	lr
 1117              		.section	.text.USART_DMATransmitCplt,"ax",%progbits
 1118              		.align	1
 1119              		.thumb
 1120              		.thumb_func
 1122              	USART_DMATransmitCplt:
 1123              		@ args = 0, pretend = 0, frame = 0
 1124              		@ frame_needed = 0, uses_anonymous_args = 0
ARM GAS  /tmp/cc7BCDrU.s 			page 20


 1125 0000 0268     		ldr	r2, [r0]
 1126 0002 08B5     		push	{r3, lr}
 1127 0004 1268     		ldr	r2, [r2]
 1128 0006 436A     		ldr	r3, [r0, #36]
 1129 0008 12F02002 		ands	r2, r2, #32
 1130 000c 0ED1     		bne	.L159
 1131 000e 5A85     		strh	r2, [r3, #42]	@ movhi
 1132 0010 93F83D20 		ldrb	r2, [r3, #61]	@ zero_extendqisi2
 1133 0014 122A     		cmp	r2, #18
 1134 0016 10D1     		bne	.L158
 1135 0018 1B68     		ldr	r3, [r3]
 1136 001a 5A69     		ldr	r2, [r3, #20]
 1137 001c 22F08002 		bic	r2, r2, #128
 1138 0020 5A61     		str	r2, [r3, #20]
 1139 0022 DA68     		ldr	r2, [r3, #12]
 1140 0024 42F04002 		orr	r2, r2, #64
 1141 0028 DA60     		str	r2, [r3, #12]
 1142 002a 08BD     		pop	{r3, pc}
 1143              	.L159:
 1144 002c 93F83D20 		ldrb	r2, [r3, #61]	@ zero_extendqisi2
 1145 0030 122A     		cmp	r2, #18
 1146 0032 02D1     		bne	.L158
 1147 0034 1846     		mov	r0, r3
 1148 0036 FFF7FEFF 		bl	HAL_USART_TxCpltCallback
 1149              	.L158:
 1150 003a 08BD     		pop	{r3, pc}
 1152              		.section	.text.HAL_USART_TxHalfCpltCallback,"ax",%progbits
 1153              		.align	1
 1154              		.weak	HAL_USART_TxHalfCpltCallback
 1155              		.thumb
 1156              		.thumb_func
 1158              	HAL_USART_TxHalfCpltCallback:
 1159              		@ args = 0, pretend = 0, frame = 0
 1160              		@ frame_needed = 0, uses_anonymous_args = 0
 1161              		@ link register save eliminated.
 1162 0000 7047     		bx	lr
 1164              		.section	.text.USART_DMATxHalfCplt,"ax",%progbits
 1165              		.align	1
 1166              		.thumb
 1167              		.thumb_func
 1169              	USART_DMATxHalfCplt:
 1170              		@ args = 0, pretend = 0, frame = 0
 1171              		@ frame_needed = 0, uses_anonymous_args = 0
 1172 0000 08B5     		push	{r3, lr}
 1173 0002 406A     		ldr	r0, [r0, #36]
 1174 0004 FFF7FEFF 		bl	HAL_USART_TxHalfCpltCallback
 1175 0008 08BD     		pop	{r3, pc}
 1177              		.section	.text.HAL_USART_RxCpltCallback,"ax",%progbits
 1178              		.align	1
 1179              		.weak	HAL_USART_RxCpltCallback
 1180              		.thumb
 1181              		.thumb_func
 1183              	HAL_USART_RxCpltCallback:
 1184              		@ args = 0, pretend = 0, frame = 0
 1185              		@ frame_needed = 0, uses_anonymous_args = 0
 1186              		@ link register save eliminated.
 1187 0000 7047     		bx	lr
ARM GAS  /tmp/cc7BCDrU.s 			page 21


 1189              		.section	.text.USART_Receive_IT,"ax",%progbits
 1190              		.align	1
 1191              		.thumb
 1192              		.thumb_func
 1194              	USART_Receive_IT:
 1195              		@ args = 0, pretend = 0, frame = 0
 1196              		@ frame_needed = 0, uses_anonymous_args = 0
 1197 0000 90F83D30 		ldrb	r3, [r0, #61]	@ zero_extendqisi2
 1198 0004 10B5     		push	{r4, lr}
 1199 0006 222B     		cmp	r3, #34
 1200 0008 44D1     		bne	.L176
 1201 000a 8368     		ldr	r3, [r0, #8]
 1202 000c 0169     		ldr	r1, [r0, #16]
 1203 000e B3F5805F 		cmp	r3, #4096
 1204 0012 0268     		ldr	r2, [r0]
 1205 0014 C36A     		ldr	r3, [r0, #44]
 1206 0016 14D1     		bne	.L168
 1207 0018 29B9     		cbnz	r1, .L169
 1208 001a 5168     		ldr	r1, [r2, #4]
 1209 001c C1F30801 		ubfx	r1, r1, #0, #9
 1210 0020 23F8021B 		strh	r1, [r3], #2	@ movhi
 1211 0024 03E0     		b	.L181
 1212              	.L169:
 1213 0026 5168     		ldr	r1, [r2, #4]
 1214 0028 C9B2     		uxtb	r1, r1
 1215 002a 23F8011B 		strh	r1, [r3], #1	@ movhi
 1216              	.L181:
 1217 002e C362     		str	r3, [r0, #44]
 1218 0030 438E     		ldrh	r3, [r0, #50]
 1219 0032 013B     		subs	r3, r3, #1
 1220 0034 9BB2     		uxth	r3, r3
 1221 0036 4386     		strh	r3, [r0, #50]	@ movhi
 1222 0038 B3B1     		cbz	r3, .L172
 1223 003a 40F2FF13 		movw	r3, #511
 1224 003e 5360     		str	r3, [r2, #4]
 1225 0040 12E0     		b	.L172
 1226              	.L168:
 1227 0042 19B9     		cbnz	r1, .L173
 1228 0044 591C     		adds	r1, r3, #1
 1229 0046 C162     		str	r1, [r0, #44]
 1230 0048 5268     		ldr	r2, [r2, #4]
 1231 004a 04E0     		b	.L182
 1232              	.L173:
 1233 004c 5268     		ldr	r2, [r2, #4]
 1234 004e 591C     		adds	r1, r3, #1
 1235 0050 C162     		str	r1, [r0, #44]
 1236 0052 02F07F02 		and	r2, r2, #127
 1237              	.L182:
 1238 0056 1A70     		strb	r2, [r3]
 1239 0058 438E     		ldrh	r3, [r0, #50]
 1240 005a 013B     		subs	r3, r3, #1
 1241 005c 9BB2     		uxth	r3, r3
 1242 005e 4386     		strh	r3, [r0, #50]	@ movhi
 1243 0060 13B1     		cbz	r3, .L172
 1244 0062 0368     		ldr	r3, [r0]
 1245 0064 FF22     		movs	r2, #255
 1246 0066 5A60     		str	r2, [r3, #4]
ARM GAS  /tmp/cc7BCDrU.s 			page 22


 1247              	.L172:
 1248 0068 448E     		ldrh	r4, [r0, #50]
 1249 006a A4B2     		uxth	r4, r4
 1250 006c A4B9     		cbnz	r4, .L177
 1251 006e 0368     		ldr	r3, [r0]
 1252 0070 DA68     		ldr	r2, [r3, #12]
 1253 0072 22F02002 		bic	r2, r2, #32
 1254 0076 DA60     		str	r2, [r3, #12]
 1255 0078 DA68     		ldr	r2, [r3, #12]
 1256 007a 22F48072 		bic	r2, r2, #256
 1257 007e DA60     		str	r2, [r3, #12]
 1258 0080 5A69     		ldr	r2, [r3, #20]
 1259 0082 22F00102 		bic	r2, r2, #1
 1260 0086 5A61     		str	r2, [r3, #20]
 1261 0088 0123     		movs	r3, #1
 1262 008a 80F83D30 		strb	r3, [r0, #61]
 1263 008e FFF7FEFF 		bl	HAL_USART_RxCpltCallback
 1264 0092 01E0     		b	.L177
 1265              	.L176:
 1266 0094 0220     		movs	r0, #2
 1267 0096 10BD     		pop	{r4, pc}
 1268              	.L177:
 1269 0098 0020     		movs	r0, #0
 1270 009a 10BD     		pop	{r4, pc}
 1272              		.section	.text.HAL_USART_RxHalfCpltCallback,"ax",%progbits
 1273              		.align	1
 1274              		.weak	HAL_USART_RxHalfCpltCallback
 1275              		.thumb
 1276              		.thumb_func
 1278              	HAL_USART_RxHalfCpltCallback:
 1279              		@ args = 0, pretend = 0, frame = 0
 1280              		@ frame_needed = 0, uses_anonymous_args = 0
 1281              		@ link register save eliminated.
 1282 0000 7047     		bx	lr
 1284              		.section	.text.USART_DMARxHalfCplt,"ax",%progbits
 1285              		.align	1
 1286              		.thumb
 1287              		.thumb_func
 1289              	USART_DMARxHalfCplt:
 1290              		@ args = 0, pretend = 0, frame = 0
 1291              		@ frame_needed = 0, uses_anonymous_args = 0
 1292 0000 08B5     		push	{r3, lr}
 1293 0002 406A     		ldr	r0, [r0, #36]
 1294 0004 FFF7FEFF 		bl	HAL_USART_RxHalfCpltCallback
 1295 0008 08BD     		pop	{r3, pc}
 1297              		.section	.text.HAL_USART_TxRxCpltCallback,"ax",%progbits
 1298              		.align	1
 1299              		.weak	HAL_USART_TxRxCpltCallback
 1300              		.thumb
 1301              		.thumb_func
 1303              	HAL_USART_TxRxCpltCallback:
 1304              		@ args = 0, pretend = 0, frame = 0
 1305              		@ frame_needed = 0, uses_anonymous_args = 0
 1306              		@ link register save eliminated.
 1307 0000 7047     		bx	lr
 1309              		.section	.text.USART_DMAReceiveCplt,"ax",%progbits
 1310              		.align	1
ARM GAS  /tmp/cc7BCDrU.s 			page 23


 1311              		.thumb
 1312              		.thumb_func
 1314              	USART_DMAReceiveCplt:
 1315              		@ args = 0, pretend = 0, frame = 0
 1316              		@ frame_needed = 0, uses_anonymous_args = 0
 1317 0000 08B5     		push	{r3, lr}
 1318 0002 0346     		mov	r3, r0
 1319 0004 1B68     		ldr	r3, [r3]
 1320 0006 406A     		ldr	r0, [r0, #36]
 1321 0008 1B68     		ldr	r3, [r3]
 1322 000a 13F02003 		ands	r3, r3, #32
 1323 000e 14D1     		bne	.L187
 1324 0010 4386     		strh	r3, [r0, #50]	@ movhi
 1325 0012 0368     		ldr	r3, [r0]
 1326 0014 DA68     		ldr	r2, [r3, #12]
 1327 0016 22F48072 		bic	r2, r2, #256
 1328 001a DA60     		str	r2, [r3, #12]
 1329 001c 5A69     		ldr	r2, [r3, #20]
 1330 001e 22F00102 		bic	r2, r2, #1
 1331 0022 5A61     		str	r2, [r3, #20]
 1332 0024 5A69     		ldr	r2, [r3, #20]
 1333 0026 22F04002 		bic	r2, r2, #64
 1334 002a 5A61     		str	r2, [r3, #20]
 1335 002c 5A69     		ldr	r2, [r3, #20]
 1336 002e 22F08002 		bic	r2, r2, #128
 1337 0032 5A61     		str	r2, [r3, #20]
 1338 0034 0123     		movs	r3, #1
 1339 0036 80F83D30 		strb	r3, [r0, #61]
 1340              	.L187:
 1341 003a 90F83D30 		ldrb	r3, [r0, #61]	@ zero_extendqisi2
 1342 003e 222B     		cmp	r3, #34
 1343 0040 02D1     		bne	.L190
 1344 0042 FFF7FEFF 		bl	HAL_USART_RxCpltCallback
 1345 0046 08BD     		pop	{r3, pc}
 1346              	.L190:
 1347 0048 FFF7FEFF 		bl	HAL_USART_TxRxCpltCallback
 1348 004c 08BD     		pop	{r3, pc}
 1350              		.section	.text.USART_TransmitReceive_IT,"ax",%progbits
 1351              		.align	1
 1352              		.thumb
 1353              		.thumb_func
 1355              	USART_TransmitReceive_IT:
 1356              		@ args = 0, pretend = 0, frame = 0
 1357              		@ frame_needed = 0, uses_anonymous_args = 0
 1358 0000 90F83D30 		ldrb	r3, [r0, #61]	@ zero_extendqisi2
 1359 0004 10B5     		push	{r4, lr}
 1360 0006 322B     		cmp	r3, #50
 1361 0008 63D1     		bne	.L206
 1362 000a 438D     		ldrh	r3, [r0, #42]
 1363 000c 9BB2     		uxth	r3, r3
 1364 000e 13B3     		cbz	r3, .L196
 1365 0010 0268     		ldr	r2, [r0]
 1366 0012 1368     		ldr	r3, [r2]
 1367 0014 1906     		lsls	r1, r3, #24
 1368 0016 1ED5     		bpl	.L196
 1369 0018 8368     		ldr	r3, [r0, #8]
 1370 001a B3F5805F 		cmp	r3, #4096
ARM GAS  /tmp/cc7BCDrU.s 			page 24


 1371 001e 436A     		ldr	r3, [r0, #36]
 1372 0020 0AD1     		bne	.L198
 1373 0022 1988     		ldrh	r1, [r3]
 1374 0024 C1F30801 		ubfx	r1, r1, #0, #9
 1375 0028 5160     		str	r1, [r2, #4]
 1376 002a 0169     		ldr	r1, [r0, #16]
 1377 002c 09B9     		cbnz	r1, .L199
 1378 002e 0233     		adds	r3, r3, #2
 1379 0030 00E0     		b	.L217
 1380              	.L199:
 1381 0032 0133     		adds	r3, r3, #1
 1382              	.L217:
 1383 0034 4362     		str	r3, [r0, #36]
 1384 0036 03E0     		b	.L200
 1385              	.L198:
 1386 0038 591C     		adds	r1, r3, #1
 1387 003a 4162     		str	r1, [r0, #36]
 1388 003c 1B78     		ldrb	r3, [r3]	@ zero_extendqisi2
 1389 003e 5360     		str	r3, [r2, #4]
 1390              	.L200:
 1391 0040 438D     		ldrh	r3, [r0, #42]
 1392 0042 013B     		subs	r3, r3, #1
 1393 0044 9BB2     		uxth	r3, r3
 1394 0046 4385     		strh	r3, [r0, #42]	@ movhi
 1395 0048 438D     		ldrh	r3, [r0, #42]
 1396 004a 9BB2     		uxth	r3, r3
 1397 004c 1BB9     		cbnz	r3, .L196
 1398 004e D368     		ldr	r3, [r2, #12]
 1399 0050 23F08003 		bic	r3, r3, #128
 1400 0054 D360     		str	r3, [r2, #12]
 1401              	.L196:
 1402 0056 438E     		ldrh	r3, [r0, #50]
 1403 0058 9BB2     		uxth	r3, r3
 1404 005a 23B3     		cbz	r3, .L201
 1405 005c 0268     		ldr	r2, [r0]
 1406 005e 1368     		ldr	r3, [r2]
 1407 0060 9B06     		lsls	r3, r3, #26
 1408 0062 20D5     		bpl	.L201
 1409 0064 8368     		ldr	r3, [r0, #8]
 1410 0066 0169     		ldr	r1, [r0, #16]
 1411 0068 B3F5805F 		cmp	r3, #4096
 1412 006c C36A     		ldr	r3, [r0, #44]
 1413 006e 0BD1     		bne	.L202
 1414 0070 5268     		ldr	r2, [r2, #4]
 1415 0072 21B9     		cbnz	r1, .L203
 1416 0074 C2F30802 		ubfx	r2, r2, #0, #9
 1417 0078 23F8022B 		strh	r2, [r3], #2	@ movhi
 1418 007c 02E0     		b	.L218
 1419              	.L203:
 1420 007e D2B2     		uxtb	r2, r2
 1421 0080 23F8012B 		strh	r2, [r3], #1	@ movhi
 1422              	.L218:
 1423 0084 C362     		str	r3, [r0, #44]
 1424 0086 0AE0     		b	.L204
 1425              	.L202:
 1426 0088 19B9     		cbnz	r1, .L205
 1427 008a 591C     		adds	r1, r3, #1
ARM GAS  /tmp/cc7BCDrU.s 			page 25


 1428 008c C162     		str	r1, [r0, #44]
 1429 008e 5268     		ldr	r2, [r2, #4]
 1430 0090 04E0     		b	.L219
 1431              	.L205:
 1432 0092 5268     		ldr	r2, [r2, #4]
 1433 0094 591C     		adds	r1, r3, #1
 1434 0096 C162     		str	r1, [r0, #44]
 1435 0098 02F07F02 		and	r2, r2, #127
 1436              	.L219:
 1437 009c 1A70     		strb	r2, [r3]
 1438              	.L204:
 1439 009e 438E     		ldrh	r3, [r0, #50]
 1440 00a0 013B     		subs	r3, r3, #1
 1441 00a2 9BB2     		uxth	r3, r3
 1442 00a4 4386     		strh	r3, [r0, #50]	@ movhi
 1443              	.L201:
 1444 00a6 448E     		ldrh	r4, [r0, #50]
 1445 00a8 A4B2     		uxth	r4, r4
 1446 00aa A4B9     		cbnz	r4, .L207
 1447 00ac 0368     		ldr	r3, [r0]
 1448 00ae DA68     		ldr	r2, [r3, #12]
 1449 00b0 22F02002 		bic	r2, r2, #32
 1450 00b4 DA60     		str	r2, [r3, #12]
 1451 00b6 DA68     		ldr	r2, [r3, #12]
 1452 00b8 22F48072 		bic	r2, r2, #256
 1453 00bc DA60     		str	r2, [r3, #12]
 1454 00be 5A69     		ldr	r2, [r3, #20]
 1455 00c0 22F00102 		bic	r2, r2, #1
 1456 00c4 5A61     		str	r2, [r3, #20]
 1457 00c6 0123     		movs	r3, #1
 1458 00c8 80F83D30 		strb	r3, [r0, #61]
 1459 00cc FFF7FEFF 		bl	HAL_USART_TxRxCpltCallback
 1460 00d0 01E0     		b	.L207
 1461              	.L206:
 1462 00d2 0220     		movs	r0, #2
 1463 00d4 10BD     		pop	{r4, pc}
 1464              	.L207:
 1465 00d6 0020     		movs	r0, #0
 1466 00d8 10BD     		pop	{r4, pc}
 1468              		.section	.text.HAL_USART_ErrorCallback,"ax",%progbits
 1469              		.align	1
 1470              		.weak	HAL_USART_ErrorCallback
 1471              		.thumb
 1472              		.thumb_func
 1474              	HAL_USART_ErrorCallback:
 1475              		@ args = 0, pretend = 0, frame = 0
 1476              		@ frame_needed = 0, uses_anonymous_args = 0
 1477              		@ link register save eliminated.
 1478 0000 7047     		bx	lr
 1480              		.section	.text.USART_DMAError,"ax",%progbits
 1481              		.align	1
 1482              		.thumb
 1483              		.thumb_func
 1485              	USART_DMAError:
 1486              		@ args = 0, pretend = 0, frame = 0
 1487              		@ frame_needed = 0, uses_anonymous_args = 0
 1488 0000 10B5     		push	{r4, lr}
ARM GAS  /tmp/cc7BCDrU.s 			page 26


 1489 0002 446A     		ldr	r4, [r0, #36]
 1490 0004 0023     		movs	r3, #0
 1491 0006 6386     		strh	r3, [r4, #50]	@ movhi
 1492 0008 6385     		strh	r3, [r4, #42]	@ movhi
 1493 000a 2368     		ldr	r3, [r4]
 1494 000c 5A69     		ldr	r2, [r3, #20]
 1495 000e 94F83D10 		ldrb	r1, [r4, #61]	@ zero_extendqisi2
 1496 0012 1229     		cmp	r1, #18
 1497 0014 09D1     		bne	.L222
 1498 0016 1206     		lsls	r2, r2, #24
 1499 0018 41BF     		itttt	mi
 1500 001a DA68     		ldrmi	r2, [r3, #12]
 1501 001c 22F0C002 		bicmi	r2, r2, #192
 1502 0020 DA60     		strmi	r2, [r3, #12]
 1503 0022 0122     		movmi	r2, #1
 1504 0024 48BF     		it	mi
 1505 0026 84F83D20 		strbmi	r2, [r4, #61]
 1506              	.L222:
 1507 002a 5B69     		ldr	r3, [r3, #20]
 1508 002c 94F83D20 		ldrb	r2, [r4, #61]	@ zero_extendqisi2
 1509 0030 222A     		cmp	r2, #34
 1510 0032 04D1     		bne	.L223
 1511 0034 5B06     		lsls	r3, r3, #25
 1512 0036 02D5     		bpl	.L223
 1513 0038 2046     		mov	r0, r4
 1514 003a FFF7FEFF 		bl	USART_EndRxTransfer
 1515              	.L223:
 1516 003e 236C     		ldr	r3, [r4, #64]
 1517 0040 2046     		mov	r0, r4
 1518 0042 43F01003 		orr	r3, r3, #16
 1519 0046 2364     		str	r3, [r4, #64]
 1520 0048 0123     		movs	r3, #1
 1521 004a 84F83D30 		strb	r3, [r4, #61]
 1522 004e FFF7FEFF 		bl	HAL_USART_ErrorCallback
 1523 0052 10BD     		pop	{r4, pc}
 1525              		.section	.text.HAL_USART_IRQHandler,"ax",%progbits
 1526              		.align	1
 1527              		.global	HAL_USART_IRQHandler
 1528              		.thumb
 1529              		.thumb_func
 1531              	HAL_USART_IRQHandler:
 1532              		@ args = 0, pretend = 0, frame = 0
 1533              		@ frame_needed = 0, uses_anonymous_args = 0
 1534 0000 0368     		ldr	r3, [r0]
 1535 0002 70B5     		push	{r4, r5, r6, lr}
 1536 0004 1A68     		ldr	r2, [r3]
 1537 0006 0446     		mov	r4, r0
 1538 0008 1607     		lsls	r6, r2, #28
 1539 000a D968     		ldr	r1, [r3, #12]
 1540 000c 5D69     		ldr	r5, [r3, #20]
 1541 000e 0BD1     		bne	.L231
 1542 0010 9606     		lsls	r6, r2, #26
 1543 0012 0FD5     		bpl	.L232
 1544 0014 8D06     		lsls	r5, r1, #26
 1545 0016 0DD5     		bpl	.L232
 1546 0018 90F83D30 		ldrb	r3, [r0, #61]	@ zero_extendqisi2
 1547 001c 222B     		cmp	r3, #34
ARM GAS  /tmp/cc7BCDrU.s 			page 27


 1548 001e 13D1     		bne	.L233
 1549 0020 BDE87040 		pop	{r4, r5, r6, lr}
 1550 0024 FFF7FEBF 		b	USART_Receive_IT
 1551              	.L231:
 1552 0028 15F00100 		ands	r0, r5, #1
 1553 002c 11D1     		bne	.L234
 1554 002e 11F4907F 		tst	r1, #288
 1555 0032 0ED1     		bne	.L234
 1556              	.L232:
 1557 0034 1606     		lsls	r6, r2, #24
 1558 0036 40F18880 		bpl	.L247
 1559 003a 0D06     		lsls	r5, r1, #24
 1560 003c 40F18580 		bpl	.L247
 1561 0040 94F83D20 		ldrb	r2, [r4, #61]	@ zero_extendqisi2
 1562 0044 122A     		cmp	r2, #18
 1563 0046 5AD0     		beq	.L312
 1564              	.L233:
 1565 0048 2046     		mov	r0, r4
 1566 004a BDE87040 		pop	{r4, r5, r6, lr}
 1567 004e FFF7FEBF 		b	USART_TransmitReceive_IT
 1568              	.L234:
 1569 0052 D307     		lsls	r3, r2, #31
 1570 0054 05D5     		bpl	.L235
 1571 0056 CE05     		lsls	r6, r1, #23
 1572 0058 42BF     		ittt	mi
 1573 005a 236C     		ldrmi	r3, [r4, #64]
 1574 005c 43F00103 		orrmi	r3, r3, #1
 1575 0060 2364     		strmi	r3, [r4, #64]
 1576              	.L235:
 1577 0062 5507     		lsls	r5, r2, #29
 1578 0064 04D5     		bpl	.L236
 1579 0066 18B1     		cbz	r0, .L236
 1580 0068 236C     		ldr	r3, [r4, #64]
 1581 006a 43F00203 		orr	r3, r3, #2
 1582 006e 2364     		str	r3, [r4, #64]
 1583              	.L236:
 1584 0070 9307     		lsls	r3, r2, #30
 1585 0072 04D5     		bpl	.L237
 1586 0074 18B1     		cbz	r0, .L237
 1587 0076 236C     		ldr	r3, [r4, #64]
 1588 0078 43F00403 		orr	r3, r3, #4
 1589 007c 2364     		str	r3, [r4, #64]
 1590              	.L237:
 1591 007e 1607     		lsls	r6, r2, #28
 1592 0080 04D5     		bpl	.L238
 1593 0082 18B1     		cbz	r0, .L238
 1594 0084 236C     		ldr	r3, [r4, #64]
 1595 0086 43F00803 		orr	r3, r3, #8
 1596 008a 2364     		str	r3, [r4, #64]
 1597              	.L238:
 1598 008c 236C     		ldr	r3, [r4, #64]
 1599 008e 002B     		cmp	r3, #0
 1600 0090 6DD0     		beq	.L230
 1601 0092 9506     		lsls	r5, r2, #26
 1602 0094 0BD5     		bpl	.L241
 1603 0096 8806     		lsls	r0, r1, #26
 1604 0098 09D5     		bpl	.L241
ARM GAS  /tmp/cc7BCDrU.s 			page 28


 1605 009a 94F83D30 		ldrb	r3, [r4, #61]	@ zero_extendqisi2
 1606 009e 2046     		mov	r0, r4
 1607 00a0 222B     		cmp	r3, #34
 1608 00a2 02D1     		bne	.L242
 1609 00a4 FFF7FEFF 		bl	USART_Receive_IT
 1610 00a8 01E0     		b	.L241
 1611              	.L242:
 1612 00aa FFF7FEFF 		bl	USART_TransmitReceive_IT
 1613              	.L241:
 1614 00ae 2368     		ldr	r3, [r4]
 1615 00b0 2046     		mov	r0, r4
 1616 00b2 5B69     		ldr	r3, [r3, #20]
 1617 00b4 226C     		ldr	r2, [r4, #64]
 1618 00b6 1107     		lsls	r1, r2, #28
 1619 00b8 02D4     		bmi	.L243
 1620 00ba 13F04005 		ands	r5, r3, #64
 1621 00be 1AD0     		beq	.L244
 1622              	.L243:
 1623 00c0 FFF7FEFF 		bl	USART_EndRxTransfer
 1624 00c4 2368     		ldr	r3, [r4]
 1625 00c6 5A69     		ldr	r2, [r3, #20]
 1626 00c8 5206     		lsls	r2, r2, #25
 1627 00ca 10D5     		bpl	.L245
 1628 00cc 5A69     		ldr	r2, [r3, #20]
 1629 00ce A06B     		ldr	r0, [r4, #56]
 1630 00d0 22F04002 		bic	r2, r2, #64
 1631 00d4 5A61     		str	r2, [r3, #20]
 1632 00d6 50B1     		cbz	r0, .L245
 1633 00d8 254B     		ldr	r3, .L313
 1634 00da 4363     		str	r3, [r0, #52]
 1635 00dc FFF7FEFF 		bl	HAL_DMA_Abort_IT
 1636 00e0 0028     		cmp	r0, #0
 1637 00e2 44D0     		beq	.L230
 1638 00e4 A06B     		ldr	r0, [r4, #56]
 1639 00e6 BDE87040 		pop	{r4, r5, r6, lr}
 1640 00ea 436B     		ldr	r3, [r0, #52]
 1641 00ec 1847     		bx	r3	@ indirect register sibling call
 1642              	.L245:
 1643 00ee 2046     		mov	r0, r4
 1644 00f0 FFF7FEFF 		bl	HAL_USART_ErrorCallback
 1645 00f4 70BD     		pop	{r4, r5, r6, pc}
 1646              	.L244:
 1647 00f6 FFF7FEFF 		bl	HAL_USART_ErrorCallback
 1648 00fa 2564     		str	r5, [r4, #64]
 1649 00fc 70BD     		pop	{r4, r5, r6, pc}
 1650              	.L312:
 1651 00fe 94F83D20 		ldrb	r2, [r4, #61]	@ zero_extendqisi2
 1652 0102 122A     		cmp	r2, #18
 1653 0104 33D1     		bne	.L230
 1654 0106 A268     		ldr	r2, [r4, #8]
 1655 0108 B2F5805F 		cmp	r2, #4096
 1656 010c 626A     		ldr	r2, [r4, #36]
 1657 010e 0AD1     		bne	.L248
 1658 0110 1188     		ldrh	r1, [r2]
 1659 0112 C1F30801 		ubfx	r1, r1, #0, #9
 1660 0116 5960     		str	r1, [r3, #4]
 1661 0118 2169     		ldr	r1, [r4, #16]
ARM GAS  /tmp/cc7BCDrU.s 			page 29


 1662 011a 09B9     		cbnz	r1, .L249
 1663 011c 0232     		adds	r2, r2, #2
 1664 011e 00E0     		b	.L311
 1665              	.L249:
 1666 0120 0132     		adds	r2, r2, #1
 1667              	.L311:
 1668 0122 6262     		str	r2, [r4, #36]
 1669 0124 03E0     		b	.L250
 1670              	.L248:
 1671 0126 511C     		adds	r1, r2, #1
 1672 0128 6162     		str	r1, [r4, #36]
 1673 012a 1278     		ldrb	r2, [r2]	@ zero_extendqisi2
 1674 012c 5A60     		str	r2, [r3, #4]
 1675              	.L250:
 1676 012e 628D     		ldrh	r2, [r4, #42]
 1677 0130 013A     		subs	r2, r2, #1
 1678 0132 92B2     		uxth	r2, r2
 1679 0134 6285     		strh	r2, [r4, #42]	@ movhi
 1680 0136 D2B9     		cbnz	r2, .L230
 1681 0138 DA68     		ldr	r2, [r3, #12]
 1682 013a 22F08002 		bic	r2, r2, #128
 1683 013e DA60     		str	r2, [r3, #12]
 1684 0140 DA68     		ldr	r2, [r3, #12]
 1685 0142 42F04002 		orr	r2, r2, #64
 1686 0146 DA60     		str	r2, [r3, #12]
 1687 0148 70BD     		pop	{r4, r5, r6, pc}
 1688              	.L247:
 1689 014a 5006     		lsls	r0, r2, #25
 1690 014c 0FD5     		bpl	.L230
 1691 014e 4A06     		lsls	r2, r1, #25
 1692 0150 0DD5     		bpl	.L230
 1693 0152 DA68     		ldr	r2, [r3, #12]
 1694 0154 2046     		mov	r0, r4
 1695 0156 22F04002 		bic	r2, r2, #64
 1696 015a DA60     		str	r2, [r3, #12]
 1697 015c 5A69     		ldr	r2, [r3, #20]
 1698 015e 22F00102 		bic	r2, r2, #1
 1699 0162 5A61     		str	r2, [r3, #20]
 1700 0164 0123     		movs	r3, #1
 1701 0166 84F83D30 		strb	r3, [r4, #61]
 1702 016a FFF7FEFF 		bl	HAL_USART_TxCpltCallback
 1703              	.L230:
 1704 016e 70BD     		pop	{r4, r5, r6, pc}
 1705              	.L314:
 1706              		.align	2
 1707              	.L313:
 1708 0170 00000000 		.word	USART_DMAAbortOnError
 1710              		.section	.text.USART_DMAAbortOnError,"ax",%progbits
 1711              		.align	1
 1712              		.thumb
 1713              		.thumb_func
 1715              	USART_DMAAbortOnError:
 1716              		@ args = 0, pretend = 0, frame = 0
 1717              		@ frame_needed = 0, uses_anonymous_args = 0
 1718 0000 08B5     		push	{r3, lr}
 1719 0002 406A     		ldr	r0, [r0, #36]
 1720 0004 0023     		movs	r3, #0
ARM GAS  /tmp/cc7BCDrU.s 			page 30


 1721 0006 4386     		strh	r3, [r0, #50]	@ movhi
 1722 0008 4385     		strh	r3, [r0, #42]	@ movhi
 1723 000a FFF7FEFF 		bl	HAL_USART_ErrorCallback
 1724 000e 08BD     		pop	{r3, pc}
 1726              		.section	.text.HAL_USART_AbortCpltCallback,"ax",%progbits
 1727              		.align	1
 1728              		.weak	HAL_USART_AbortCpltCallback
 1729              		.thumb
 1730              		.thumb_func
 1732              	HAL_USART_AbortCpltCallback:
 1733              		@ args = 0, pretend = 0, frame = 0
 1734              		@ frame_needed = 0, uses_anonymous_args = 0
 1735              		@ link register save eliminated.
 1736 0000 7047     		bx	lr
 1738              		.section	.text.HAL_USART_Abort_IT,"ax",%progbits
 1739              		.align	1
 1740              		.global	HAL_USART_Abort_IT
 1741              		.thumb
 1742              		.thumb_func
 1744              	HAL_USART_Abort_IT:
 1745              		@ args = 0, pretend = 0, frame = 0
 1746              		@ frame_needed = 0, uses_anonymous_args = 0
 1747 0000 0368     		ldr	r3, [r0]
 1748 0002 10B5     		push	{r4, lr}
 1749 0004 DA68     		ldr	r2, [r3, #12]
 1750 0006 0446     		mov	r4, r0
 1751 0008 22F4F072 		bic	r2, r2, #480
 1752 000c DA60     		str	r2, [r3, #12]
 1753 000e 5A69     		ldr	r2, [r3, #20]
 1754 0010 406B     		ldr	r0, [r0, #52]
 1755 0012 22F00102 		bic	r2, r2, #1
 1756 0016 5A61     		str	r2, [r3, #20]
 1757 0018 28B1     		cbz	r0, .L318
 1758 001a 5A69     		ldr	r2, [r3, #20]
 1759 001c 12F08002 		ands	r2, r2, #128
 1760 0020 18BF     		it	ne
 1761 0022 1D4A     		ldrne	r2, .L347
 1762 0024 4263     		str	r2, [r0, #52]
 1763              	.L318:
 1764 0026 A16B     		ldr	r1, [r4, #56]
 1765 0028 29B1     		cbz	r1, .L320
 1766 002a 5A69     		ldr	r2, [r3, #20]
 1767 002c 12F04002 		ands	r2, r2, #64
 1768 0030 18BF     		it	ne
 1769 0032 1A4A     		ldrne	r2, .L347+4
 1770 0034 4A63     		str	r2, [r1, #52]
 1771              	.L320:
 1772 0036 5A69     		ldr	r2, [r3, #20]
 1773 0038 1206     		lsls	r2, r2, #24
 1774 003a 0AD5     		bpl	.L346
 1775 003c 5A69     		ldr	r2, [r3, #20]
 1776 003e 22F08002 		bic	r2, r2, #128
 1777 0042 5A61     		str	r2, [r3, #20]
 1778 0044 28B1     		cbz	r0, .L346
 1779 0046 FFF7FEFF 		bl	HAL_DMA_Abort_IT
 1780 004a 20B1     		cbz	r0, .L330
 1781 004c 636B     		ldr	r3, [r4, #52]
ARM GAS  /tmp/cc7BCDrU.s 			page 31


 1782 004e 0022     		movs	r2, #0
 1783 0050 5A63     		str	r2, [r3, #52]
 1784              	.L346:
 1785 0052 0123     		movs	r3, #1
 1786 0054 00E0     		b	.L323
 1787              	.L330:
 1788 0056 0346     		mov	r3, r0
 1789              	.L323:
 1790 0058 2268     		ldr	r2, [r4]
 1791 005a 5169     		ldr	r1, [r2, #20]
 1792 005c 4906     		lsls	r1, r1, #25
 1793 005e 0CD5     		bpl	.L325
 1794 0060 5169     		ldr	r1, [r2, #20]
 1795 0062 A06B     		ldr	r0, [r4, #56]
 1796 0064 21F04001 		bic	r1, r1, #64
 1797 0068 5161     		str	r1, [r2, #20]
 1798 006a 30B1     		cbz	r0, .L325
 1799 006c FFF7FEFF 		bl	HAL_DMA_Abort_IT
 1800 0070 78B1     		cbz	r0, .L327
 1801 0072 A36B     		ldr	r3, [r4, #56]
 1802 0074 0022     		movs	r2, #0
 1803 0076 5A63     		str	r2, [r3, #52]
 1804 0078 01E0     		b	.L328
 1805              	.L325:
 1806 007a 012B     		cmp	r3, #1
 1807 007c 09D1     		bne	.L327
 1808              	.L328:
 1809 007e 0023     		movs	r3, #0
 1810 0080 6385     		strh	r3, [r4, #42]	@ movhi
 1811 0082 6386     		strh	r3, [r4, #50]	@ movhi
 1812 0084 2364     		str	r3, [r4, #64]
 1813 0086 0123     		movs	r3, #1
 1814 0088 84F83D30 		strb	r3, [r4, #61]
 1815 008c 2046     		mov	r0, r4
 1816 008e FFF7FEFF 		bl	HAL_USART_AbortCpltCallback
 1817              	.L327:
 1818 0092 0020     		movs	r0, #0
 1819 0094 10BD     		pop	{r4, pc}
 1820              	.L348:
 1821 0096 00BF     		.align	2
 1822              	.L347:
 1823 0098 00000000 		.word	USART_DMATxAbortCallback
 1824 009c 00000000 		.word	USART_DMARxAbortCallback
 1826              		.section	.text.USART_DMARxAbortCallback,"ax",%progbits
 1827              		.align	1
 1828              		.thumb
 1829              		.thumb_func
 1831              	USART_DMARxAbortCallback:
 1832              		@ args = 0, pretend = 0, frame = 0
 1833              		@ frame_needed = 0, uses_anonymous_args = 0
 1834 0000 406A     		ldr	r0, [r0, #36]
 1835 0002 08B5     		push	{r3, lr}
 1836 0004 826B     		ldr	r2, [r0, #56]
 1837 0006 0023     		movs	r3, #0
 1838 0008 5363     		str	r3, [r2, #52]
 1839 000a 426B     		ldr	r2, [r0, #52]
 1840 000c 0AB1     		cbz	r2, .L350
ARM GAS  /tmp/cc7BCDrU.s 			page 32


 1841 000e 526B     		ldr	r2, [r2, #52]
 1842 0010 3AB9     		cbnz	r2, .L349
 1843              	.L350:
 1844 0012 4385     		strh	r3, [r0, #42]	@ movhi
 1845 0014 4386     		strh	r3, [r0, #50]	@ movhi
 1846 0016 0364     		str	r3, [r0, #64]
 1847 0018 0123     		movs	r3, #1
 1848 001a 80F83D30 		strb	r3, [r0, #61]
 1849 001e FFF7FEFF 		bl	HAL_USART_AbortCpltCallback
 1850              	.L349:
 1851 0022 08BD     		pop	{r3, pc}
 1853              		.section	.text.USART_DMATxAbortCallback,"ax",%progbits
 1854              		.align	1
 1855              		.thumb
 1856              		.thumb_func
 1858              	USART_DMATxAbortCallback:
 1859              		@ args = 0, pretend = 0, frame = 0
 1860              		@ frame_needed = 0, uses_anonymous_args = 0
 1861 0000 406A     		ldr	r0, [r0, #36]
 1862 0002 08B5     		push	{r3, lr}
 1863 0004 426B     		ldr	r2, [r0, #52]
 1864 0006 0023     		movs	r3, #0
 1865 0008 5363     		str	r3, [r2, #52]
 1866 000a 826B     		ldr	r2, [r0, #56]
 1867 000c 0AB1     		cbz	r2, .L356
 1868 000e 526B     		ldr	r2, [r2, #52]
 1869 0010 3AB9     		cbnz	r2, .L355
 1870              	.L356:
 1871 0012 4385     		strh	r3, [r0, #42]	@ movhi
 1872 0014 4386     		strh	r3, [r0, #50]	@ movhi
 1873 0016 0364     		str	r3, [r0, #64]
 1874 0018 0123     		movs	r3, #1
 1875 001a 80F83D30 		strb	r3, [r0, #61]
 1876 001e FFF7FEFF 		bl	HAL_USART_AbortCpltCallback
 1877              	.L355:
 1878 0022 08BD     		pop	{r3, pc}
 1880              		.section	.text.HAL_USART_GetState,"ax",%progbits
 1881              		.align	1
 1882              		.global	HAL_USART_GetState
 1883              		.thumb
 1884              		.thumb_func
 1886              	HAL_USART_GetState:
 1887              		@ args = 0, pretend = 0, frame = 0
 1888              		@ frame_needed = 0, uses_anonymous_args = 0
 1889              		@ link register save eliminated.
 1890 0000 90F83D00 		ldrb	r0, [r0, #61]	@ zero_extendqisi2
 1891 0004 7047     		bx	lr
 1893              		.section	.text.HAL_USART_GetError,"ax",%progbits
 1894              		.align	1
 1895              		.global	HAL_USART_GetError
 1896              		.thumb
 1897              		.thumb_func
 1899              	HAL_USART_GetError:
 1900              		@ args = 0, pretend = 0, frame = 0
 1901              		@ frame_needed = 0, uses_anonymous_args = 0
 1902              		@ link register save eliminated.
 1903 0000 006C     		ldr	r0, [r0, #64]
ARM GAS  /tmp/cc7BCDrU.s 			page 33


 1904 0002 7047     		bx	lr
 1906              		.ident	"GCC: (15:4.9.3+svn231177-1) 4.9.3 20150529 (prerelease)"
ARM GAS  /tmp/cc7BCDrU.s 			page 34


DEFINED SYMBOLS
                            *ABS*:0000000000000000 stm32f1xx_hal_usart.c
     /tmp/cc7BCDrU.s:16     .text.USART_EndRxTransfer:0000000000000000 $t
     /tmp/cc7BCDrU.s:20     .text.USART_EndRxTransfer:0000000000000000 USART_EndRxTransfer
     /tmp/cc7BCDrU.s:36     .text.USART_WaitOnFlagUntilTimeout.constprop.3:0000000000000000 $t
     /tmp/cc7BCDrU.s:40     .text.USART_WaitOnFlagUntilTimeout.constprop.3:0000000000000000 USART_WaitOnFlagUntilTimeout.constprop.3
     /tmp/cc7BCDrU.s:89     .text.HAL_USART_MspInit:0000000000000000 $t
     /tmp/cc7BCDrU.s:94     .text.HAL_USART_MspInit:0000000000000000 HAL_USART_MspInit
     /tmp/cc7BCDrU.s:101    .text.HAL_USART_Init:0000000000000000 $t
     /tmp/cc7BCDrU.s:106    .text.HAL_USART_Init:0000000000000000 HAL_USART_Init
     /tmp/cc7BCDrU.s:196    .text.HAL_USART_Init:00000000000000d4 $d
     /tmp/cc7BCDrU.s:199    .text.HAL_USART_MspDeInit:0000000000000000 $t
     /tmp/cc7BCDrU.s:204    .text.HAL_USART_MspDeInit:0000000000000000 HAL_USART_MspDeInit
     /tmp/cc7BCDrU.s:211    .text.HAL_USART_DeInit:0000000000000000 $t
     /tmp/cc7BCDrU.s:216    .text.HAL_USART_DeInit:0000000000000000 HAL_USART_DeInit
     /tmp/cc7BCDrU.s:239    .text.HAL_USART_Transmit:0000000000000000 $t
     /tmp/cc7BCDrU.s:244    .text.HAL_USART_Transmit:0000000000000000 HAL_USART_Transmit
     /tmp/cc7BCDrU.s:329    .text.HAL_USART_Receive:0000000000000000 $t
     /tmp/cc7BCDrU.s:334    .text.HAL_USART_Receive:0000000000000000 HAL_USART_Receive
     /tmp/cc7BCDrU.s:440    .text.HAL_USART_TransmitReceive:0000000000000000 $t
     /tmp/cc7BCDrU.s:445    .text.HAL_USART_TransmitReceive:0000000000000000 HAL_USART_TransmitReceive
     /tmp/cc7BCDrU.s:570    .text.HAL_USART_Transmit_IT:0000000000000000 $t
     /tmp/cc7BCDrU.s:575    .text.HAL_USART_Transmit_IT:0000000000000000 HAL_USART_Transmit_IT
     /tmp/cc7BCDrU.s:609    .text.HAL_USART_Receive_IT:0000000000000000 $t
     /tmp/cc7BCDrU.s:614    .text.HAL_USART_Receive_IT:0000000000000000 HAL_USART_Receive_IT
     /tmp/cc7BCDrU.s:653    .text.HAL_USART_TransmitReceive_IT:0000000000000000 $t
     /tmp/cc7BCDrU.s:658    .text.HAL_USART_TransmitReceive_IT:0000000000000000 HAL_USART_TransmitReceive_IT
     /tmp/cc7BCDrU.s:705    .text.HAL_USART_Transmit_DMA:0000000000000000 $t
     /tmp/cc7BCDrU.s:710    .text.HAL_USART_Transmit_DMA:0000000000000000 HAL_USART_Transmit_DMA
     /tmp/cc7BCDrU.s:760    .text.HAL_USART_Transmit_DMA:0000000000000064 $d
     /tmp/cc7BCDrU.s:1122   .text.USART_DMATransmitCplt:0000000000000000 USART_DMATransmitCplt
     /tmp/cc7BCDrU.s:1169   .text.USART_DMATxHalfCplt:0000000000000000 USART_DMATxHalfCplt
     /tmp/cc7BCDrU.s:1485   .text.USART_DMAError:0000000000000000 USART_DMAError
     /tmp/cc7BCDrU.s:765    .text.HAL_USART_Receive_DMA:0000000000000000 $t
     /tmp/cc7BCDrU.s:770    .text.HAL_USART_Receive_DMA:0000000000000000 HAL_USART_Receive_DMA
     /tmp/cc7BCDrU.s:852    .text.HAL_USART_Receive_DMA:00000000000000a8 $d
     /tmp/cc7BCDrU.s:1314   .text.USART_DMAReceiveCplt:0000000000000000 USART_DMAReceiveCplt
     /tmp/cc7BCDrU.s:1289   .text.USART_DMARxHalfCplt:0000000000000000 USART_DMARxHalfCplt
     /tmp/cc7BCDrU.s:857    .text.HAL_USART_TransmitReceive_DMA:0000000000000000 $t
     /tmp/cc7BCDrU.s:862    .text.HAL_USART_TransmitReceive_DMA:0000000000000000 HAL_USART_TransmitReceive_DMA
     /tmp/cc7BCDrU.s:947    .text.HAL_USART_TransmitReceive_DMA:00000000000000c0 $d
     /tmp/cc7BCDrU.s:954    .text.HAL_USART_DMAPause:0000000000000000 $t
     /tmp/cc7BCDrU.s:959    .text.HAL_USART_DMAPause:0000000000000000 HAL_USART_DMAPause
     /tmp/cc7BCDrU.s:978    .text.HAL_USART_DMAResume:0000000000000000 $t
     /tmp/cc7BCDrU.s:983    .text.HAL_USART_DMAResume:0000000000000000 HAL_USART_DMAResume
     /tmp/cc7BCDrU.s:1002   .text.HAL_USART_DMAStop:0000000000000000 $t
     /tmp/cc7BCDrU.s:1007   .text.HAL_USART_DMAStop:0000000000000000 HAL_USART_DMAStop
     /tmp/cc7BCDrU.s:1055   .text.HAL_USART_Abort:0000000000000000 $t
     /tmp/cc7BCDrU.s:1060   .text.HAL_USART_Abort:0000000000000000 HAL_USART_Abort
     /tmp/cc7BCDrU.s:1106   .text.HAL_USART_TxCpltCallback:0000000000000000 $t
     /tmp/cc7BCDrU.s:1111   .text.HAL_USART_TxCpltCallback:0000000000000000 HAL_USART_TxCpltCallback
     /tmp/cc7BCDrU.s:1118   .text.USART_DMATransmitCplt:0000000000000000 $t
     /tmp/cc7BCDrU.s:1153   .text.HAL_USART_TxHalfCpltCallback:0000000000000000 $t
     /tmp/cc7BCDrU.s:1158   .text.HAL_USART_TxHalfCpltCallback:0000000000000000 HAL_USART_TxHalfCpltCallback
     /tmp/cc7BCDrU.s:1165   .text.USART_DMATxHalfCplt:0000000000000000 $t
     /tmp/cc7BCDrU.s:1178   .text.HAL_USART_RxCpltCallback:0000000000000000 $t
     /tmp/cc7BCDrU.s:1183   .text.HAL_USART_RxCpltCallback:0000000000000000 HAL_USART_RxCpltCallback
ARM GAS  /tmp/cc7BCDrU.s 			page 35


     /tmp/cc7BCDrU.s:1190   .text.USART_Receive_IT:0000000000000000 $t
     /tmp/cc7BCDrU.s:1194   .text.USART_Receive_IT:0000000000000000 USART_Receive_IT
     /tmp/cc7BCDrU.s:1273   .text.HAL_USART_RxHalfCpltCallback:0000000000000000 $t
     /tmp/cc7BCDrU.s:1278   .text.HAL_USART_RxHalfCpltCallback:0000000000000000 HAL_USART_RxHalfCpltCallback
     /tmp/cc7BCDrU.s:1285   .text.USART_DMARxHalfCplt:0000000000000000 $t
     /tmp/cc7BCDrU.s:1298   .text.HAL_USART_TxRxCpltCallback:0000000000000000 $t
     /tmp/cc7BCDrU.s:1303   .text.HAL_USART_TxRxCpltCallback:0000000000000000 HAL_USART_TxRxCpltCallback
     /tmp/cc7BCDrU.s:1310   .text.USART_DMAReceiveCplt:0000000000000000 $t
     /tmp/cc7BCDrU.s:1351   .text.USART_TransmitReceive_IT:0000000000000000 $t
     /tmp/cc7BCDrU.s:1355   .text.USART_TransmitReceive_IT:0000000000000000 USART_TransmitReceive_IT
     /tmp/cc7BCDrU.s:1469   .text.HAL_USART_ErrorCallback:0000000000000000 $t
     /tmp/cc7BCDrU.s:1474   .text.HAL_USART_ErrorCallback:0000000000000000 HAL_USART_ErrorCallback
     /tmp/cc7BCDrU.s:1481   .text.USART_DMAError:0000000000000000 $t
     /tmp/cc7BCDrU.s:1526   .text.HAL_USART_IRQHandler:0000000000000000 $t
     /tmp/cc7BCDrU.s:1531   .text.HAL_USART_IRQHandler:0000000000000000 HAL_USART_IRQHandler
     /tmp/cc7BCDrU.s:1708   .text.HAL_USART_IRQHandler:0000000000000170 $d
     /tmp/cc7BCDrU.s:1715   .text.USART_DMAAbortOnError:0000000000000000 USART_DMAAbortOnError
     /tmp/cc7BCDrU.s:1711   .text.USART_DMAAbortOnError:0000000000000000 $t
     /tmp/cc7BCDrU.s:1727   .text.HAL_USART_AbortCpltCallback:0000000000000000 $t
     /tmp/cc7BCDrU.s:1732   .text.HAL_USART_AbortCpltCallback:0000000000000000 HAL_USART_AbortCpltCallback
     /tmp/cc7BCDrU.s:1739   .text.HAL_USART_Abort_IT:0000000000000000 $t
     /tmp/cc7BCDrU.s:1744   .text.HAL_USART_Abort_IT:0000000000000000 HAL_USART_Abort_IT
     /tmp/cc7BCDrU.s:1823   .text.HAL_USART_Abort_IT:0000000000000098 $d
     /tmp/cc7BCDrU.s:1858   .text.USART_DMATxAbortCallback:0000000000000000 USART_DMATxAbortCallback
     /tmp/cc7BCDrU.s:1831   .text.USART_DMARxAbortCallback:0000000000000000 USART_DMARxAbortCallback
     /tmp/cc7BCDrU.s:1827   .text.USART_DMARxAbortCallback:0000000000000000 $t
     /tmp/cc7BCDrU.s:1854   .text.USART_DMATxAbortCallback:0000000000000000 $t
     /tmp/cc7BCDrU.s:1881   .text.HAL_USART_GetState:0000000000000000 $t
     /tmp/cc7BCDrU.s:1886   .text.HAL_USART_GetState:0000000000000000 HAL_USART_GetState
     /tmp/cc7BCDrU.s:1894   .text.HAL_USART_GetError:0000000000000000 $t
     /tmp/cc7BCDrU.s:1899   .text.HAL_USART_GetError:0000000000000000 HAL_USART_GetError

UNDEFINED SYMBOLS
HAL_GetTick
HAL_RCC_GetPCLK2Freq
HAL_RCC_GetPCLK1Freq
HAL_DMA_Start_IT
HAL_DMA_Abort
HAL_DMA_Abort_IT
