ARM GAS  /tmp/ccj5uGeq.s 			page 1


   1              		.cpu cortex-m3
   2              		.eabi_attribute 20, 1
   3              		.eabi_attribute 21, 1
   4              		.eabi_attribute 23, 3
   5              		.eabi_attribute 24, 1
   6              		.eabi_attribute 25, 1
   7              		.eabi_attribute 26, 1
   8              		.eabi_attribute 30, 1
   9              		.eabi_attribute 34, 1
  10              		.eabi_attribute 18, 4
  11              		.file	"stm32f1xx_hal_irda.c"
  12              		.section	.text.IRDA_EndTxTransfer,"ax",%progbits
  13              		.align	1
  14              		.syntax unified
  15              		.thumb
  16              		.thumb_func
  17              		.fpu softvfp
  19              	IRDA_EndTxTransfer:
  20              		@ args = 0, pretend = 0, frame = 0
  21              		@ frame_needed = 0, uses_anonymous_args = 0
  22              		@ link register save eliminated.
  23 0000 0268     		ldr	r2, [r0]
  24 0002 D368     		ldr	r3, [r2, #12]
  25 0004 23F0C003 		bic	r3, r3, #192
  26 0008 D360     		str	r3, [r2, #12]
  27 000a 2023     		movs	r3, #32
  28 000c 80F83530 		strb	r3, [r0, #53]
  29 0010 7047     		bx	lr
  31              		.section	.text.IRDA_EndRxTransfer,"ax",%progbits
  32              		.align	1
  33              		.syntax unified
  34              		.thumb
  35              		.thumb_func
  36              		.fpu softvfp
  38              	IRDA_EndRxTransfer:
  39              		@ args = 0, pretend = 0, frame = 0
  40              		@ frame_needed = 0, uses_anonymous_args = 0
  41              		@ link register save eliminated.
  42 0000 0268     		ldr	r2, [r0]
  43 0002 D368     		ldr	r3, [r2, #12]
  44 0004 23F49073 		bic	r3, r3, #288
  45 0008 D360     		str	r3, [r2, #12]
  46 000a 0268     		ldr	r2, [r0]
  47 000c 5369     		ldr	r3, [r2, #20]
  48 000e 23F00103 		bic	r3, r3, #1
  49 0012 5361     		str	r3, [r2, #20]
  50 0014 2023     		movs	r3, #32
  51 0016 80F83630 		strb	r3, [r0, #54]
  52 001a 7047     		bx	lr
  54              		.section	.text.IRDA_Transmit_IT,"ax",%progbits
  55              		.align	1
  56              		.syntax unified
  57              		.thumb
  58              		.thumb_func
  59              		.fpu softvfp
  61              	IRDA_Transmit_IT:
  62              		@ args = 0, pretend = 0, frame = 0
ARM GAS  /tmp/ccj5uGeq.s 			page 2


  63              		@ frame_needed = 0, uses_anonymous_args = 0
  64              		@ link register save eliminated.
  65 0000 90F83530 		ldrb	r3, [r0, #53]	@ zero_extendqisi2
  66 0004 DBB2     		uxtb	r3, r3
  67 0006 212B     		cmp	r3, #33
  68 0008 01D0     		beq	.L10
  69 000a 0220     		movs	r0, #2
  70 000c 7047     		bx	lr
  71              	.L10:
  72 000e 8368     		ldr	r3, [r0, #8]
  73 0010 B3F5805F 		cmp	r3, #4096
  74 0014 17D0     		beq	.L11
  75 0016 0268     		ldr	r2, [r0]
  76 0018 C369     		ldr	r3, [r0, #28]
  77 001a 591C     		adds	r1, r3, #1
  78 001c C161     		str	r1, [r0, #28]
  79 001e 1B78     		ldrb	r3, [r3]	@ zero_extendqisi2
  80 0020 5360     		str	r3, [r2, #4]
  81              	.L7:
  82 0022 438C     		ldrh	r3, [r0, #34]
  83 0024 9BB2     		uxth	r3, r3
  84 0026 013B     		subs	r3, r3, #1
  85 0028 9BB2     		uxth	r3, r3
  86 002a 4384     		strh	r3, [r0, #34]	@ movhi
  87 002c DBB9     		cbnz	r3, .L9
  88 002e 0268     		ldr	r2, [r0]
  89 0030 D368     		ldr	r3, [r2, #12]
  90 0032 23F08003 		bic	r3, r3, #128
  91 0036 D360     		str	r3, [r2, #12]
  92 0038 0268     		ldr	r2, [r0]
  93 003a D368     		ldr	r3, [r2, #12]
  94 003c 43F04003 		orr	r3, r3, #64
  95 0040 D360     		str	r3, [r2, #12]
  96 0042 0020     		movs	r0, #0
  97 0044 7047     		bx	lr
  98              	.L11:
  99 0046 C369     		ldr	r3, [r0, #28]
 100 0048 0268     		ldr	r2, [r0]
 101 004a 1B88     		ldrh	r3, [r3]
 102 004c C3F30803 		ubfx	r3, r3, #0, #9
 103 0050 5360     		str	r3, [r2, #4]
 104 0052 C368     		ldr	r3, [r0, #12]
 105 0054 1BB9     		cbnz	r3, .L6
 106 0056 C369     		ldr	r3, [r0, #28]
 107 0058 0233     		adds	r3, r3, #2
 108 005a C361     		str	r3, [r0, #28]
 109 005c E1E7     		b	.L7
 110              	.L6:
 111 005e C369     		ldr	r3, [r0, #28]
 112 0060 0133     		adds	r3, r3, #1
 113 0062 C361     		str	r3, [r0, #28]
 114 0064 DDE7     		b	.L7
 115              	.L9:
 116 0066 0020     		movs	r0, #0
 117 0068 7047     		bx	lr
 119              		.section	.text.IRDA_SetConfig,"ax",%progbits
 120              		.align	1
ARM GAS  /tmp/ccj5uGeq.s 			page 3


 121              		.syntax unified
 122              		.thumb
 123              		.thumb_func
 124              		.fpu softvfp
 126              	IRDA_SetConfig:
 127              		@ args = 0, pretend = 0, frame = 0
 128              		@ frame_needed = 0, uses_anonymous_args = 0
 129 0000 70B5     		push	{r4, r5, r6, lr}
 130 0002 0446     		mov	r4, r0
 131 0004 0268     		ldr	r2, [r0]
 132 0006 1369     		ldr	r3, [r2, #16]
 133 0008 23F44053 		bic	r3, r3, #12288
 134 000c 1361     		str	r3, [r2, #16]
 135 000e 0268     		ldr	r2, [r0]
 136 0010 D368     		ldr	r3, [r2, #12]
 137 0012 23F4B053 		bic	r3, r3, #5632
 138 0016 23F00C03 		bic	r3, r3, #12
 139 001a D360     		str	r3, [r2, #12]
 140 001c 0168     		ldr	r1, [r0]
 141 001e CA68     		ldr	r2, [r1, #12]
 142 0020 8368     		ldr	r3, [r0, #8]
 143 0022 C068     		ldr	r0, [r0, #12]
 144 0024 0343     		orrs	r3, r3, r0
 145 0026 2069     		ldr	r0, [r4, #16]
 146 0028 0343     		orrs	r3, r3, r0
 147 002a 1343     		orrs	r3, r3, r2
 148 002c CB60     		str	r3, [r1, #12]
 149 002e 2268     		ldr	r2, [r4]
 150 0030 5369     		ldr	r3, [r2, #20]
 151 0032 23F44073 		bic	r3, r3, #768
 152 0036 5361     		str	r3, [r2, #20]
 153 0038 2268     		ldr	r2, [r4]
 154 003a 234B     		ldr	r3, .L17
 155 003c 9A42     		cmp	r2, r3
 156 003e 21D0     		beq	.L16
 157 0040 FFF7FEFF 		bl	HAL_RCC_GetPCLK1Freq
 158 0044 2568     		ldr	r5, [r4]
 159 0046 A968     		ldr	r1, [r5, #8]
 160 0048 00EB8000 		add	r0, r0, r0, lsl #2
 161 004c 00EB8000 		add	r0, r0, r0, lsl #2
 162 0050 6368     		ldr	r3, [r4, #4]
 163 0052 9B00     		lsls	r3, r3, #2
 164 0054 B0FBF3F0 		udiv	r0, r0, r3
 165 0058 1C4E     		ldr	r6, .L17+4
 166 005a A6FB0032 		umull	r3, r2, r6, r0
 167 005e 5409     		lsrs	r4, r2, #5
 168 0060 6422     		movs	r2, #100
 169 0062 02FB1402 		mls	r2, r2, r4, r0
 170 0066 1301     		lsls	r3, r2, #4
 171 0068 3233     		adds	r3, r3, #50
 172 006a A6FB0323 		umull	r2, r3, r6, r3
 173 006e 5B09     		lsrs	r3, r3, #5
 174 0070 03F0F002 		and	r2, r3, #240
 175 0074 02EB0412 		add	r2, r2, r4, lsl #4
 176 0078 03F00F03 		and	r3, r3, #15
 177 007c 1344     		add	r3, r3, r2
 178 007e 0B43     		orrs	r3, r3, r1
ARM GAS  /tmp/ccj5uGeq.s 			page 4


 179 0080 AB60     		str	r3, [r5, #8]
 180 0082 70BD     		pop	{r4, r5, r6, pc}
 181              	.L16:
 182 0084 FFF7FEFF 		bl	HAL_RCC_GetPCLK2Freq
 183 0088 2568     		ldr	r5, [r4]
 184 008a A968     		ldr	r1, [r5, #8]
 185 008c 00EB8000 		add	r0, r0, r0, lsl #2
 186 0090 00EB8000 		add	r0, r0, r0, lsl #2
 187 0094 6368     		ldr	r3, [r4, #4]
 188 0096 9B00     		lsls	r3, r3, #2
 189 0098 B0FBF3F0 		udiv	r0, r0, r3
 190 009c 0B4E     		ldr	r6, .L17+4
 191 009e A6FB0032 		umull	r3, r2, r6, r0
 192 00a2 5409     		lsrs	r4, r2, #5
 193 00a4 6422     		movs	r2, #100
 194 00a6 02FB1402 		mls	r2, r2, r4, r0
 195 00aa 1301     		lsls	r3, r2, #4
 196 00ac 3233     		adds	r3, r3, #50
 197 00ae A6FB0323 		umull	r2, r3, r6, r3
 198 00b2 5B09     		lsrs	r3, r3, #5
 199 00b4 03F0F002 		and	r2, r3, #240
 200 00b8 02EB0412 		add	r2, r2, r4, lsl #4
 201 00bc 03F00F03 		and	r3, r3, #15
 202 00c0 1344     		add	r3, r3, r2
 203 00c2 0B43     		orrs	r3, r3, r1
 204 00c4 AB60     		str	r3, [r5, #8]
 205 00c6 70BD     		pop	{r4, r5, r6, pc}
 206              	.L18:
 207              		.align	2
 208              	.L17:
 209 00c8 00380140 		.word	1073821696
 210 00cc 1F85EB51 		.word	1374389535
 212              		.section	.text.IRDA_WaitOnFlagUntilTimeout,"ax",%progbits
 213              		.align	1
 214              		.syntax unified
 215              		.thumb
 216              		.thumb_func
 217              		.fpu softvfp
 219              	IRDA_WaitOnFlagUntilTimeout:
 220              		@ args = 4, pretend = 0, frame = 0
 221              		@ frame_needed = 0, uses_anonymous_args = 0
 222 0000 2DE9F041 		push	{r4, r5, r6, r7, r8, lr}
 223 0004 0546     		mov	r5, r0
 224 0006 0F46     		mov	r7, r1
 225 0008 1646     		mov	r6, r2
 226 000a 9846     		mov	r8, r3
 227 000c 069C     		ldr	r4, [sp, #24]
 228              	.L21:
 229 000e 2B68     		ldr	r3, [r5]
 230 0010 1B68     		ldr	r3, [r3]
 231 0012 37EA0303 		bics	r3, r7, r3
 232 0016 0CBF     		ite	eq
 233 0018 0123     		moveq	r3, #1
 234 001a 0023     		movne	r3, #0
 235 001c B342     		cmp	r3, r6
 236 001e 1ED1     		bne	.L26
 237 0020 B4F1FF3F 		cmp	r4, #-1
ARM GAS  /tmp/ccj5uGeq.s 			page 5


 238 0024 F3D0     		beq	.L21
 239 0026 2CB1     		cbz	r4, .L22
 240 0028 FFF7FEFF 		bl	HAL_GetTick
 241 002c A0EB0800 		sub	r0, r0, r8
 242 0030 8442     		cmp	r4, r0
 243 0032 ECD2     		bcs	.L21
 244              	.L22:
 245 0034 2A68     		ldr	r2, [r5]
 246 0036 D368     		ldr	r3, [r2, #12]
 247 0038 23F4D073 		bic	r3, r3, #416
 248 003c D360     		str	r3, [r2, #12]
 249 003e 2A68     		ldr	r2, [r5]
 250 0040 5369     		ldr	r3, [r2, #20]
 251 0042 23F00103 		bic	r3, r3, #1
 252 0046 5361     		str	r3, [r2, #20]
 253 0048 2023     		movs	r3, #32
 254 004a 85F83530 		strb	r3, [r5, #53]
 255 004e 85F83630 		strb	r3, [r5, #54]
 256 0052 0023     		movs	r3, #0
 257 0054 85F83430 		strb	r3, [r5, #52]
 258 0058 0320     		movs	r0, #3
 259 005a BDE8F081 		pop	{r4, r5, r6, r7, r8, pc}
 260              	.L26:
 261 005e 0020     		movs	r0, #0
 262 0060 BDE8F081 		pop	{r4, r5, r6, r7, r8, pc}
 264              		.section	.text.HAL_IRDA_MspInit,"ax",%progbits
 265              		.align	1
 266              		.weak	HAL_IRDA_MspInit
 267              		.syntax unified
 268              		.thumb
 269              		.thumb_func
 270              		.fpu softvfp
 272              	HAL_IRDA_MspInit:
 273              		@ args = 0, pretend = 0, frame = 0
 274              		@ frame_needed = 0, uses_anonymous_args = 0
 275              		@ link register save eliminated.
 276 0000 7047     		bx	lr
 278              		.section	.text.HAL_IRDA_Init,"ax",%progbits
 279              		.align	1
 280              		.global	HAL_IRDA_Init
 281              		.syntax unified
 282              		.thumb
 283              		.thumb_func
 284              		.fpu softvfp
 286              	HAL_IRDA_Init:
 287              		@ args = 0, pretend = 0, frame = 0
 288              		@ frame_needed = 0, uses_anonymous_args = 0
 289 0000 0028     		cmp	r0, #0
 290 0002 3FD0     		beq	.L31
 291 0004 10B5     		push	{r4, lr}
 292 0006 0446     		mov	r4, r0
 293 0008 90F83530 		ldrb	r3, [r0, #53]	@ zero_extendqisi2
 294 000c 002B     		cmp	r3, #0
 295 000e 34D0     		beq	.L36
 296              	.L30:
 297 0010 2423     		movs	r3, #36
 298 0012 84F83530 		strb	r3, [r4, #53]
ARM GAS  /tmp/ccj5uGeq.s 			page 6


 299 0016 2268     		ldr	r2, [r4]
 300 0018 D368     		ldr	r3, [r2, #12]
 301 001a 23F40053 		bic	r3, r3, #8192
 302 001e D360     		str	r3, [r2, #12]
 303 0020 2046     		mov	r0, r4
 304 0022 FFF7FEFF 		bl	IRDA_SetConfig
 305 0026 2268     		ldr	r2, [r4]
 306 0028 1369     		ldr	r3, [r2, #16]
 307 002a 23F4F043 		bic	r3, r3, #30720
 308 002e 1361     		str	r3, [r2, #16]
 309 0030 2268     		ldr	r2, [r4]
 310 0032 5369     		ldr	r3, [r2, #20]
 311 0034 23F02803 		bic	r3, r3, #40
 312 0038 5361     		str	r3, [r2, #20]
 313 003a 2268     		ldr	r2, [r4]
 314 003c D368     		ldr	r3, [r2, #12]
 315 003e 43F40053 		orr	r3, r3, #8192
 316 0042 D360     		str	r3, [r2, #12]
 317 0044 2268     		ldr	r2, [r4]
 318 0046 9369     		ldr	r3, [r2, #24]
 319 0048 23F0FF03 		bic	r3, r3, #255
 320 004c 217D     		ldrb	r1, [r4, #20]	@ zero_extendqisi2
 321 004e 0B43     		orrs	r3, r3, r1
 322 0050 9361     		str	r3, [r2, #24]
 323 0052 2268     		ldr	r2, [r4]
 324 0054 5369     		ldr	r3, [r2, #20]
 325 0056 23F00403 		bic	r3, r3, #4
 326 005a A169     		ldr	r1, [r4, #24]
 327 005c 0B43     		orrs	r3, r3, r1
 328 005e 5361     		str	r3, [r2, #20]
 329 0060 2268     		ldr	r2, [r4]
 330 0062 5369     		ldr	r3, [r2, #20]
 331 0064 43F00203 		orr	r3, r3, #2
 332 0068 5361     		str	r3, [r2, #20]
 333 006a 0020     		movs	r0, #0
 334 006c A063     		str	r0, [r4, #56]
 335 006e 2023     		movs	r3, #32
 336 0070 84F83530 		strb	r3, [r4, #53]
 337 0074 84F83630 		strb	r3, [r4, #54]
 338 0078 10BD     		pop	{r4, pc}
 339              	.L36:
 340 007a 80F83430 		strb	r3, [r0, #52]
 341 007e FFF7FEFF 		bl	HAL_IRDA_MspInit
 342 0082 C5E7     		b	.L30
 343              	.L31:
 344 0084 0120     		movs	r0, #1
 345 0086 7047     		bx	lr
 347              		.section	.text.HAL_IRDA_MspDeInit,"ax",%progbits
 348              		.align	1
 349              		.weak	HAL_IRDA_MspDeInit
 350              		.syntax unified
 351              		.thumb
 352              		.thumb_func
 353              		.fpu softvfp
 355              	HAL_IRDA_MspDeInit:
 356              		@ args = 0, pretend = 0, frame = 0
 357              		@ frame_needed = 0, uses_anonymous_args = 0
ARM GAS  /tmp/ccj5uGeq.s 			page 7


 358              		@ link register save eliminated.
 359 0000 7047     		bx	lr
 361              		.section	.text.HAL_IRDA_DeInit,"ax",%progbits
 362              		.align	1
 363              		.global	HAL_IRDA_DeInit
 364              		.syntax unified
 365              		.thumb
 366              		.thumb_func
 367              		.fpu softvfp
 369              	HAL_IRDA_DeInit:
 370              		@ args = 0, pretend = 0, frame = 0
 371              		@ frame_needed = 0, uses_anonymous_args = 0
 372 0000 A0B1     		cbz	r0, .L40
 373 0002 10B5     		push	{r4, lr}
 374 0004 0446     		mov	r4, r0
 375 0006 2423     		movs	r3, #36
 376 0008 80F83530 		strb	r3, [r0, #53]
 377 000c 0268     		ldr	r2, [r0]
 378 000e D368     		ldr	r3, [r2, #12]
 379 0010 23F40053 		bic	r3, r3, #8192
 380 0014 D360     		str	r3, [r2, #12]
 381 0016 FFF7FEFF 		bl	HAL_IRDA_MspDeInit
 382 001a 0020     		movs	r0, #0
 383 001c A063     		str	r0, [r4, #56]
 384 001e 84F83500 		strb	r0, [r4, #53]
 385 0022 84F83600 		strb	r0, [r4, #54]
 386 0026 84F83400 		strb	r0, [r4, #52]
 387 002a 10BD     		pop	{r4, pc}
 388              	.L40:
 389 002c 0120     		movs	r0, #1
 390 002e 7047     		bx	lr
 392              		.section	.text.HAL_IRDA_Transmit,"ax",%progbits
 393              		.align	1
 394              		.global	HAL_IRDA_Transmit
 395              		.syntax unified
 396              		.thumb
 397              		.thumb_func
 398              		.fpu softvfp
 400              	HAL_IRDA_Transmit:
 401              		@ args = 0, pretend = 0, frame = 0
 402              		@ frame_needed = 0, uses_anonymous_args = 0
 403 0000 2DE9F041 		push	{r4, r5, r6, r7, r8, lr}
 404 0004 82B0     		sub	sp, sp, #8
 405 0006 1E46     		mov	r6, r3
 406 0008 90F83530 		ldrb	r3, [r0, #53]	@ zero_extendqisi2
 407 000c DBB2     		uxtb	r3, r3
 408 000e 202B     		cmp	r3, #32
 409 0010 04D0     		beq	.L60
 410 0012 0223     		movs	r3, #2
 411              	.L46:
 412 0014 1846     		mov	r0, r3
 413 0016 02B0     		add	sp, sp, #8
 414              		@ sp needed
 415 0018 BDE8F081 		pop	{r4, r5, r6, r7, r8, pc}
 416              	.L60:
 417 001c 0446     		mov	r4, r0
 418 001e 0D46     		mov	r5, r1
ARM GAS  /tmp/ccj5uGeq.s 			page 8


 419 0020 9046     		mov	r8, r2
 420 0022 0029     		cmp	r1, #0
 421 0024 55D0     		beq	.L53
 422 0026 002A     		cmp	r2, #0
 423 0028 55D0     		beq	.L54
 424 002a 90F83430 		ldrb	r3, [r0, #52]	@ zero_extendqisi2
 425 002e 012B     		cmp	r3, #1
 426 0030 01D1     		bne	.L61
 427 0032 0223     		movs	r3, #2
 428 0034 EEE7     		b	.L46
 429              	.L61:
 430 0036 0123     		movs	r3, #1
 431 0038 80F83430 		strb	r3, [r0, #52]
 432 003c 0023     		movs	r3, #0
 433 003e 8363     		str	r3, [r0, #56]
 434 0040 2123     		movs	r3, #33
 435 0042 80F83530 		strb	r3, [r0, #53]
 436 0046 FFF7FEFF 		bl	HAL_GetTick
 437 004a 0746     		mov	r7, r0
 438 004c A4F82080 		strh	r8, [r4, #32]	@ movhi
 439 0050 A4F82280 		strh	r8, [r4, #34]	@ movhi
 440 0054 10E0     		b	.L47
 441              	.L63:
 442 0056 0096     		str	r6, [sp]
 443 0058 3B46     		mov	r3, r7
 444 005a 0022     		movs	r2, #0
 445 005c 8021     		movs	r1, #128
 446 005e 2046     		mov	r0, r4
 447 0060 FFF7FEFF 		bl	IRDA_WaitOnFlagUntilTimeout
 448 0064 0028     		cmp	r0, #0
 449 0066 38D1     		bne	.L56
 450 0068 2268     		ldr	r2, [r4]
 451 006a 2B88     		ldrh	r3, [r5]
 452 006c C3F30803 		ubfx	r3, r3, #0, #9
 453 0070 5360     		str	r3, [r2, #4]
 454 0072 E368     		ldr	r3, [r4, #12]
 455 0074 CBB9     		cbnz	r3, .L49
 456 0076 0235     		adds	r5, r5, #2
 457              	.L47:
 458 0078 638C     		ldrh	r3, [r4, #34]
 459 007a 9BB2     		uxth	r3, r3
 460 007c BBB1     		cbz	r3, .L62
 461 007e 638C     		ldrh	r3, [r4, #34]
 462 0080 9BB2     		uxth	r3, r3
 463 0082 013B     		subs	r3, r3, #1
 464 0084 9BB2     		uxth	r3, r3
 465 0086 6384     		strh	r3, [r4, #34]	@ movhi
 466 0088 A368     		ldr	r3, [r4, #8]
 467 008a B3F5805F 		cmp	r3, #4096
 468 008e E2D0     		beq	.L63
 469 0090 0096     		str	r6, [sp]
 470 0092 3B46     		mov	r3, r7
 471 0094 0022     		movs	r2, #0
 472 0096 8021     		movs	r1, #128
 473 0098 2046     		mov	r0, r4
 474 009a FFF7FEFF 		bl	IRDA_WaitOnFlagUntilTimeout
 475 009e F0B9     		cbnz	r0, .L57
ARM GAS  /tmp/ccj5uGeq.s 			page 9


 476 00a0 2368     		ldr	r3, [r4]
 477 00a2 2A78     		ldrb	r2, [r5]	@ zero_extendqisi2
 478 00a4 5A60     		str	r2, [r3, #4]
 479 00a6 0135     		adds	r5, r5, #1
 480 00a8 E6E7     		b	.L47
 481              	.L49:
 482 00aa 0135     		adds	r5, r5, #1
 483 00ac E4E7     		b	.L47
 484              	.L62:
 485 00ae 0096     		str	r6, [sp]
 486 00b0 3B46     		mov	r3, r7
 487 00b2 0022     		movs	r2, #0
 488 00b4 4021     		movs	r1, #64
 489 00b6 2046     		mov	r0, r4
 490 00b8 FFF7FEFF 		bl	IRDA_WaitOnFlagUntilTimeout
 491 00bc 0346     		mov	r3, r0
 492 00be 08B1     		cbz	r0, .L64
 493 00c0 0323     		movs	r3, #3
 494 00c2 A7E7     		b	.L46
 495              	.L64:
 496 00c4 2022     		movs	r2, #32
 497 00c6 84F83520 		strb	r2, [r4, #53]
 498 00ca 0022     		movs	r2, #0
 499 00cc 84F83420 		strb	r2, [r4, #52]
 500 00d0 A0E7     		b	.L46
 501              	.L53:
 502 00d2 0123     		movs	r3, #1
 503 00d4 9EE7     		b	.L46
 504              	.L54:
 505 00d6 0123     		movs	r3, #1
 506 00d8 9CE7     		b	.L46
 507              	.L56:
 508 00da 0323     		movs	r3, #3
 509 00dc 9AE7     		b	.L46
 510              	.L57:
 511 00de 0323     		movs	r3, #3
 512 00e0 98E7     		b	.L46
 514              		.section	.text.HAL_IRDA_Receive,"ax",%progbits
 515              		.align	1
 516              		.global	HAL_IRDA_Receive
 517              		.syntax unified
 518              		.thumb
 519              		.thumb_func
 520              		.fpu softvfp
 522              	HAL_IRDA_Receive:
 523              		@ args = 0, pretend = 0, frame = 0
 524              		@ frame_needed = 0, uses_anonymous_args = 0
 525 0000 2DE9F041 		push	{r4, r5, r6, r7, r8, lr}
 526 0004 82B0     		sub	sp, sp, #8
 527 0006 1E46     		mov	r6, r3
 528 0008 90F83630 		ldrb	r3, [r0, #54]	@ zero_extendqisi2
 529 000c DBB2     		uxtb	r3, r3
 530 000e 202B     		cmp	r3, #32
 531 0010 03D0     		beq	.L80
 532 0012 0220     		movs	r0, #2
 533              	.L66:
 534 0014 02B0     		add	sp, sp, #8
ARM GAS  /tmp/ccj5uGeq.s 			page 10


 535              		@ sp needed
 536 0016 BDE8F081 		pop	{r4, r5, r6, r7, r8, pc}
 537              	.L80:
 538 001a 0446     		mov	r4, r0
 539 001c 0D46     		mov	r5, r1
 540 001e 9046     		mov	r8, r2
 541 0020 0029     		cmp	r1, #0
 542 0022 58D0     		beq	.L74
 543 0024 002A     		cmp	r2, #0
 544 0026 58D0     		beq	.L75
 545 0028 90F83430 		ldrb	r3, [r0, #52]	@ zero_extendqisi2
 546 002c 012B     		cmp	r3, #1
 547 002e 01D1     		bne	.L81
 548 0030 0220     		movs	r0, #2
 549 0032 EFE7     		b	.L66
 550              	.L81:
 551 0034 0123     		movs	r3, #1
 552 0036 80F83430 		strb	r3, [r0, #52]
 553 003a 0023     		movs	r3, #0
 554 003c 8363     		str	r3, [r0, #56]
 555 003e 2223     		movs	r3, #34
 556 0040 80F83630 		strb	r3, [r0, #54]
 557 0044 FFF7FEFF 		bl	HAL_GetTick
 558 0048 0746     		mov	r7, r0
 559 004a A4F82880 		strh	r8, [r4, #40]	@ movhi
 560 004e A4F82A80 		strh	r8, [r4, #42]	@ movhi
 561 0052 1DE0     		b	.L67
 562              	.L83:
 563 0054 0096     		str	r6, [sp]
 564 0056 3B46     		mov	r3, r7
 565 0058 0022     		movs	r2, #0
 566 005a 2021     		movs	r1, #32
 567 005c 2046     		mov	r0, r4
 568 005e FFF7FEFF 		bl	IRDA_WaitOnFlagUntilTimeout
 569 0062 0028     		cmp	r0, #0
 570 0064 3BD1     		bne	.L77
 571 0066 E368     		ldr	r3, [r4, #12]
 572 0068 33B9     		cbnz	r3, .L69
 573 006a 2368     		ldr	r3, [r4]
 574 006c 5B68     		ldr	r3, [r3, #4]
 575 006e C3F30803 		ubfx	r3, r3, #0, #9
 576 0072 25F8023B 		strh	r3, [r5], #2	@ movhi
 577 0076 0BE0     		b	.L67
 578              	.L69:
 579 0078 2368     		ldr	r3, [r4]
 580 007a 5B68     		ldr	r3, [r3, #4]
 581 007c DBB2     		uxtb	r3, r3
 582 007e 25F8013B 		strh	r3, [r5], #1	@ movhi
 583 0082 05E0     		b	.L67
 584              	.L71:
 585 0084 2368     		ldr	r3, [r4]
 586 0086 5B68     		ldr	r3, [r3, #4]
 587 0088 03F07F03 		and	r3, r3, #127
 588 008c 2B70     		strb	r3, [r5]
 589 008e 0135     		adds	r5, r5, #1
 590              	.L67:
 591 0090 638D     		ldrh	r3, [r4, #42]
ARM GAS  /tmp/ccj5uGeq.s 			page 11


 592 0092 9BB2     		uxth	r3, r3
 593 0094 C3B1     		cbz	r3, .L82
 594 0096 638D     		ldrh	r3, [r4, #42]
 595 0098 9BB2     		uxth	r3, r3
 596 009a 013B     		subs	r3, r3, #1
 597 009c 9BB2     		uxth	r3, r3
 598 009e 6385     		strh	r3, [r4, #42]	@ movhi
 599 00a0 A368     		ldr	r3, [r4, #8]
 600 00a2 B3F5805F 		cmp	r3, #4096
 601 00a6 D5D0     		beq	.L83
 602 00a8 0096     		str	r6, [sp]
 603 00aa 3B46     		mov	r3, r7
 604 00ac 0022     		movs	r2, #0
 605 00ae 2021     		movs	r1, #32
 606 00b0 2046     		mov	r0, r4
 607 00b2 FFF7FEFF 		bl	IRDA_WaitOnFlagUntilTimeout
 608 00b6 A0B9     		cbnz	r0, .L78
 609 00b8 E368     		ldr	r3, [r4, #12]
 610 00ba 002B     		cmp	r3, #0
 611 00bc E2D1     		bne	.L71
 612 00be 2368     		ldr	r3, [r4]
 613 00c0 5B68     		ldr	r3, [r3, #4]
 614 00c2 2B70     		strb	r3, [r5]
 615 00c4 0135     		adds	r5, r5, #1
 616 00c6 E3E7     		b	.L67
 617              	.L82:
 618 00c8 2023     		movs	r3, #32
 619 00ca 84F83630 		strb	r3, [r4, #54]
 620 00ce 0020     		movs	r0, #0
 621 00d0 84F83400 		strb	r0, [r4, #52]
 622 00d4 9EE7     		b	.L66
 623              	.L74:
 624 00d6 0120     		movs	r0, #1
 625 00d8 9CE7     		b	.L66
 626              	.L75:
 627 00da 0120     		movs	r0, #1
 628 00dc 9AE7     		b	.L66
 629              	.L77:
 630 00de 0320     		movs	r0, #3
 631 00e0 98E7     		b	.L66
 632              	.L78:
 633 00e2 0320     		movs	r0, #3
 634 00e4 96E7     		b	.L66
 636              		.section	.text.HAL_IRDA_Transmit_IT,"ax",%progbits
 637              		.align	1
 638              		.global	HAL_IRDA_Transmit_IT
 639              		.syntax unified
 640              		.thumb
 641              		.thumb_func
 642              		.fpu softvfp
 644              	HAL_IRDA_Transmit_IT:
 645              		@ args = 0, pretend = 0, frame = 0
 646              		@ frame_needed = 0, uses_anonymous_args = 0
 647              		@ link register save eliminated.
 648 0000 90F83530 		ldrb	r3, [r0, #53]	@ zero_extendqisi2
 649 0004 DBB2     		uxtb	r3, r3
 650 0006 202B     		cmp	r3, #32
ARM GAS  /tmp/ccj5uGeq.s 			page 12


 651 0008 01D0     		beq	.L90
 652 000a 0220     		movs	r0, #2
 653 000c 7047     		bx	lr
 654              	.L90:
 655 000e A9B1     		cbz	r1, .L87
 656 0010 B2B1     		cbz	r2, .L88
 657 0012 90F83430 		ldrb	r3, [r0, #52]	@ zero_extendqisi2
 658 0016 012B     		cmp	r3, #1
 659 0018 14D0     		beq	.L89
 660 001a C161     		str	r1, [r0, #28]
 661 001c 0284     		strh	r2, [r0, #32]	@ movhi
 662 001e 4284     		strh	r2, [r0, #34]	@ movhi
 663 0020 0023     		movs	r3, #0
 664 0022 8363     		str	r3, [r0, #56]
 665 0024 2122     		movs	r2, #33
 666 0026 80F83520 		strb	r2, [r0, #53]
 667 002a 80F83430 		strb	r3, [r0, #52]
 668 002e 0168     		ldr	r1, [r0]
 669 0030 CA68     		ldr	r2, [r1, #12]
 670 0032 42F08002 		orr	r2, r2, #128
 671 0036 CA60     		str	r2, [r1, #12]
 672 0038 1846     		mov	r0, r3
 673 003a 7047     		bx	lr
 674              	.L87:
 675 003c 0120     		movs	r0, #1
 676 003e 7047     		bx	lr
 677              	.L88:
 678 0040 0120     		movs	r0, #1
 679 0042 7047     		bx	lr
 680              	.L89:
 681 0044 0220     		movs	r0, #2
 682 0046 7047     		bx	lr
 684              		.section	.text.HAL_IRDA_Receive_IT,"ax",%progbits
 685              		.align	1
 686              		.global	HAL_IRDA_Receive_IT
 687              		.syntax unified
 688              		.thumb
 689              		.thumb_func
 690              		.fpu softvfp
 692              	HAL_IRDA_Receive_IT:
 693              		@ args = 0, pretend = 0, frame = 0
 694              		@ frame_needed = 0, uses_anonymous_args = 0
 695              		@ link register save eliminated.
 696 0000 90F83630 		ldrb	r3, [r0, #54]	@ zero_extendqisi2
 697 0004 DBB2     		uxtb	r3, r3
 698 0006 202B     		cmp	r3, #32
 699 0008 01D0     		beq	.L97
 700 000a 0220     		movs	r0, #2
 701 000c 7047     		bx	lr
 702              	.L97:
 703 000e D1B1     		cbz	r1, .L94
 704 0010 DAB1     		cbz	r2, .L95
 705 0012 90F83430 		ldrb	r3, [r0, #52]	@ zero_extendqisi2
 706 0016 012B     		cmp	r3, #1
 707 0018 19D0     		beq	.L96
 708 001a 4162     		str	r1, [r0, #36]
 709 001c 0285     		strh	r2, [r0, #40]	@ movhi
ARM GAS  /tmp/ccj5uGeq.s 			page 13


 710 001e 4285     		strh	r2, [r0, #42]	@ movhi
 711 0020 0023     		movs	r3, #0
 712 0022 8363     		str	r3, [r0, #56]
 713 0024 2222     		movs	r2, #34
 714 0026 80F83620 		strb	r2, [r0, #54]
 715 002a 80F83430 		strb	r3, [r0, #52]
 716 002e 0168     		ldr	r1, [r0]
 717 0030 CA68     		ldr	r2, [r1, #12]
 718 0032 42F49072 		orr	r2, r2, #288
 719 0036 CA60     		str	r2, [r1, #12]
 720 0038 0168     		ldr	r1, [r0]
 721 003a 4A69     		ldr	r2, [r1, #20]
 722 003c 42F00102 		orr	r2, r2, #1
 723 0040 4A61     		str	r2, [r1, #20]
 724 0042 1846     		mov	r0, r3
 725 0044 7047     		bx	lr
 726              	.L94:
 727 0046 0120     		movs	r0, #1
 728 0048 7047     		bx	lr
 729              	.L95:
 730 004a 0120     		movs	r0, #1
 731 004c 7047     		bx	lr
 732              	.L96:
 733 004e 0220     		movs	r0, #2
 734 0050 7047     		bx	lr
 736              		.section	.text.HAL_IRDA_Transmit_DMA,"ax",%progbits
 737              		.align	1
 738              		.global	HAL_IRDA_Transmit_DMA
 739              		.syntax unified
 740              		.thumb
 741              		.thumb_func
 742              		.fpu softvfp
 744              	HAL_IRDA_Transmit_DMA:
 745              		@ args = 0, pretend = 0, frame = 0
 746              		@ frame_needed = 0, uses_anonymous_args = 0
 747 0000 38B5     		push	{r3, r4, r5, lr}
 748 0002 90F83540 		ldrb	r4, [r0, #53]	@ zero_extendqisi2
 749 0006 E4B2     		uxtb	r4, r4
 750 0008 202C     		cmp	r4, #32
 751 000a 01D0     		beq	.L105
 752 000c 0220     		movs	r0, #2
 753 000e 38BD     		pop	{r3, r4, r5, pc}
 754              	.L105:
 755 0010 0029     		cmp	r1, #0
 756 0012 31D0     		beq	.L101
 757 0014 002A     		cmp	r2, #0
 758 0016 31D0     		beq	.L102
 759 0018 90F83430 		ldrb	r3, [r0, #52]	@ zero_extendqisi2
 760 001c 012B     		cmp	r3, #1
 761 001e 01D1     		bne	.L106
 762 0020 0220     		movs	r0, #2
 763 0022 38BD     		pop	{r3, r4, r5, pc}
 764              	.L106:
 765 0024 1346     		mov	r3, r2
 766 0026 0446     		mov	r4, r0
 767 0028 0122     		movs	r2, #1
 768 002a 80F83420 		strb	r2, [r0, #52]
ARM GAS  /tmp/ccj5uGeq.s 			page 14


 769 002e C161     		str	r1, [r0, #28]
 770 0030 0384     		strh	r3, [r0, #32]	@ movhi
 771 0032 4384     		strh	r3, [r0, #34]	@ movhi
 772 0034 0025     		movs	r5, #0
 773 0036 8563     		str	r5, [r0, #56]
 774 0038 2122     		movs	r2, #33
 775 003a 80F83520 		strb	r2, [r0, #53]
 776 003e C26A     		ldr	r2, [r0, #44]
 777 0040 0F48     		ldr	r0, .L107
 778 0042 9062     		str	r0, [r2, #40]
 779 0044 E26A     		ldr	r2, [r4, #44]
 780 0046 0F48     		ldr	r0, .L107+4
 781 0048 D062     		str	r0, [r2, #44]
 782 004a E26A     		ldr	r2, [r4, #44]
 783 004c 0E48     		ldr	r0, .L107+8
 784 004e 1063     		str	r0, [r2, #48]
 785 0050 E26A     		ldr	r2, [r4, #44]
 786 0052 5563     		str	r5, [r2, #52]
 787 0054 2268     		ldr	r2, [r4]
 788 0056 0432     		adds	r2, r2, #4
 789 0058 E06A     		ldr	r0, [r4, #44]
 790 005a FFF7FEFF 		bl	HAL_DMA_Start_IT
 791 005e 2368     		ldr	r3, [r4]
 792 0060 6FF04002 		mvn	r2, #64
 793 0064 1A60     		str	r2, [r3]
 794 0066 84F83450 		strb	r5, [r4, #52]
 795 006a 2268     		ldr	r2, [r4]
 796 006c 5369     		ldr	r3, [r2, #20]
 797 006e 43F08003 		orr	r3, r3, #128
 798 0072 5361     		str	r3, [r2, #20]
 799 0074 2846     		mov	r0, r5
 800 0076 38BD     		pop	{r3, r4, r5, pc}
 801              	.L101:
 802 0078 0120     		movs	r0, #1
 803 007a 38BD     		pop	{r3, r4, r5, pc}
 804              	.L102:
 805 007c 0120     		movs	r0, #1
 806 007e 38BD     		pop	{r3, r4, r5, pc}
 807              	.L108:
 808              		.align	2
 809              	.L107:
 810 0080 00000000 		.word	IRDA_DMATransmitCplt
 811 0084 00000000 		.word	IRDA_DMATransmitHalfCplt
 812 0088 00000000 		.word	IRDA_DMAError
 814              		.section	.text.HAL_IRDA_Receive_DMA,"ax",%progbits
 815              		.align	1
 816              		.global	HAL_IRDA_Receive_DMA
 817              		.syntax unified
 818              		.thumb
 819              		.thumb_func
 820              		.fpu softvfp
 822              	HAL_IRDA_Receive_DMA:
 823              		@ args = 0, pretend = 0, frame = 8
 824              		@ frame_needed = 0, uses_anonymous_args = 0
 825 0000 30B5     		push	{r4, r5, lr}
 826 0002 83B0     		sub	sp, sp, #12
 827 0004 90F83640 		ldrb	r4, [r0, #54]	@ zero_extendqisi2
ARM GAS  /tmp/ccj5uGeq.s 			page 15


 828 0008 E4B2     		uxtb	r4, r4
 829 000a 202C     		cmp	r4, #32
 830 000c 02D0     		beq	.L116
 831 000e 0220     		movs	r0, #2
 832              	.L110:
 833 0010 03B0     		add	sp, sp, #12
 834              		@ sp needed
 835 0012 30BD     		pop	{r4, r5, pc}
 836              	.L116:
 837 0014 0029     		cmp	r1, #0
 838 0016 3DD0     		beq	.L112
 839 0018 002A     		cmp	r2, #0
 840 001a 3DD0     		beq	.L113
 841 001c 90F83430 		ldrb	r3, [r0, #52]	@ zero_extendqisi2
 842 0020 012B     		cmp	r3, #1
 843 0022 01D1     		bne	.L117
 844 0024 0220     		movs	r0, #2
 845 0026 F3E7     		b	.L110
 846              	.L117:
 847 0028 1346     		mov	r3, r2
 848 002a 0A46     		mov	r2, r1
 849 002c 0446     		mov	r4, r0
 850 002e 0121     		movs	r1, #1
 851 0030 80F83410 		strb	r1, [r0, #52]
 852 0034 4262     		str	r2, [r0, #36]
 853 0036 0385     		strh	r3, [r0, #40]	@ movhi
 854 0038 0025     		movs	r5, #0
 855 003a 8563     		str	r5, [r0, #56]
 856 003c 2221     		movs	r1, #34
 857 003e 80F83610 		strb	r1, [r0, #54]
 858 0042 016B     		ldr	r1, [r0, #48]
 859 0044 1548     		ldr	r0, .L118
 860 0046 8862     		str	r0, [r1, #40]
 861 0048 216B     		ldr	r1, [r4, #48]
 862 004a 1548     		ldr	r0, .L118+4
 863 004c C862     		str	r0, [r1, #44]
 864 004e 216B     		ldr	r1, [r4, #48]
 865 0050 1448     		ldr	r0, .L118+8
 866 0052 0863     		str	r0, [r1, #48]
 867 0054 216B     		ldr	r1, [r4, #48]
 868 0056 4D63     		str	r5, [r1, #52]
 869 0058 2168     		ldr	r1, [r4]
 870 005a 0431     		adds	r1, r1, #4
 871 005c 206B     		ldr	r0, [r4, #48]
 872 005e FFF7FEFF 		bl	HAL_DMA_Start_IT
 873 0062 0195     		str	r5, [sp, #4]
 874 0064 2368     		ldr	r3, [r4]
 875 0066 1A68     		ldr	r2, [r3]
 876 0068 0192     		str	r2, [sp, #4]
 877 006a 5A68     		ldr	r2, [r3, #4]
 878 006c 0192     		str	r2, [sp, #4]
 879 006e 019A     		ldr	r2, [sp, #4]
 880 0070 84F83450 		strb	r5, [r4, #52]
 881 0074 DA68     		ldr	r2, [r3, #12]
 882 0076 42F48072 		orr	r2, r2, #256
 883 007a DA60     		str	r2, [r3, #12]
 884 007c 2268     		ldr	r2, [r4]
ARM GAS  /tmp/ccj5uGeq.s 			page 16


 885 007e 5369     		ldr	r3, [r2, #20]
 886 0080 43F00103 		orr	r3, r3, #1
 887 0084 5361     		str	r3, [r2, #20]
 888 0086 2268     		ldr	r2, [r4]
 889 0088 5369     		ldr	r3, [r2, #20]
 890 008a 43F04003 		orr	r3, r3, #64
 891 008e 5361     		str	r3, [r2, #20]
 892 0090 2846     		mov	r0, r5
 893 0092 BDE7     		b	.L110
 894              	.L112:
 895 0094 0120     		movs	r0, #1
 896 0096 BBE7     		b	.L110
 897              	.L113:
 898 0098 0120     		movs	r0, #1
 899 009a B9E7     		b	.L110
 900              	.L119:
 901              		.align	2
 902              	.L118:
 903 009c 00000000 		.word	IRDA_DMAReceiveCplt
 904 00a0 00000000 		.word	IRDA_DMAReceiveHalfCplt
 905 00a4 00000000 		.word	IRDA_DMAError
 907              		.section	.text.HAL_IRDA_DMAPause,"ax",%progbits
 908              		.align	1
 909              		.global	HAL_IRDA_DMAPause
 910              		.syntax unified
 911              		.thumb
 912              		.thumb_func
 913              		.fpu softvfp
 915              	HAL_IRDA_DMAPause:
 916              		@ args = 0, pretend = 0, frame = 0
 917              		@ frame_needed = 0, uses_anonymous_args = 0
 918              		@ link register save eliminated.
 919 0000 90F83430 		ldrb	r3, [r0, #52]	@ zero_extendqisi2
 920 0004 012B     		cmp	r3, #1
 921 0006 31D0     		beq	.L124
 922 0008 0123     		movs	r3, #1
 923 000a 80F83430 		strb	r3, [r0, #52]
 924 000e 0168     		ldr	r1, [r0]
 925 0010 4A69     		ldr	r2, [r1, #20]
 926 0012 02F08002 		and	r2, r2, #128
 927 0016 90F83530 		ldrb	r3, [r0, #53]	@ zero_extendqisi2
 928 001a DBB2     		uxtb	r3, r3
 929 001c 212B     		cmp	r3, #33
 930 001e 0DD0     		beq	.L125
 931              	.L122:
 932 0020 0168     		ldr	r1, [r0]
 933 0022 4A69     		ldr	r2, [r1, #20]
 934 0024 02F04002 		and	r2, r2, #64
 935 0028 90F83630 		ldrb	r3, [r0, #54]	@ zero_extendqisi2
 936 002c DBB2     		uxtb	r3, r3
 937 002e 222B     		cmp	r3, #34
 938 0030 0BD0     		beq	.L126
 939              	.L123:
 940 0032 0023     		movs	r3, #0
 941 0034 80F83430 		strb	r3, [r0, #52]
 942 0038 1846     		mov	r0, r3
 943 003a 7047     		bx	lr
ARM GAS  /tmp/ccj5uGeq.s 			page 17


 944              	.L125:
 945 003c 002A     		cmp	r2, #0
 946 003e EFD0     		beq	.L122
 947 0040 4B69     		ldr	r3, [r1, #20]
 948 0042 23F08003 		bic	r3, r3, #128
 949 0046 4B61     		str	r3, [r1, #20]
 950 0048 EAE7     		b	.L122
 951              	.L126:
 952 004a 002A     		cmp	r2, #0
 953 004c F1D0     		beq	.L123
 954 004e CB68     		ldr	r3, [r1, #12]
 955 0050 23F48073 		bic	r3, r3, #256
 956 0054 CB60     		str	r3, [r1, #12]
 957 0056 0268     		ldr	r2, [r0]
 958 0058 5369     		ldr	r3, [r2, #20]
 959 005a 23F00103 		bic	r3, r3, #1
 960 005e 5361     		str	r3, [r2, #20]
 961 0060 0268     		ldr	r2, [r0]
 962 0062 5369     		ldr	r3, [r2, #20]
 963 0064 23F04003 		bic	r3, r3, #64
 964 0068 5361     		str	r3, [r2, #20]
 965 006a E2E7     		b	.L123
 966              	.L124:
 967 006c 0220     		movs	r0, #2
 968 006e 7047     		bx	lr
 970              		.section	.text.HAL_IRDA_DMAResume,"ax",%progbits
 971              		.align	1
 972              		.global	HAL_IRDA_DMAResume
 973              		.syntax unified
 974              		.thumb
 975              		.thumb_func
 976              		.fpu softvfp
 978              	HAL_IRDA_DMAResume:
 979              		@ args = 0, pretend = 0, frame = 8
 980              		@ frame_needed = 0, uses_anonymous_args = 0
 981              		@ link register save eliminated.
 982 0000 90F83430 		ldrb	r3, [r0, #52]	@ zero_extendqisi2
 983 0004 012B     		cmp	r3, #1
 984 0006 34D0     		beq	.L131
 985 0008 0123     		movs	r3, #1
 986 000a 80F83430 		strb	r3, [r0, #52]
 987 000e 90F83530 		ldrb	r3, [r0, #53]	@ zero_extendqisi2
 988 0012 DBB2     		uxtb	r3, r3
 989 0014 212B     		cmp	r3, #33
 990 0016 09D0     		beq	.L137
 991              	.L129:
 992 0018 90F83630 		ldrb	r3, [r0, #54]	@ zero_extendqisi2
 993 001c DBB2     		uxtb	r3, r3
 994 001e 222B     		cmp	r3, #34
 995 0020 0AD0     		beq	.L138
 996 0022 0023     		movs	r3, #0
 997 0024 80F83430 		strb	r3, [r0, #52]
 998 0028 1846     		mov	r0, r3
 999 002a 7047     		bx	lr
 1000              	.L137:
 1001 002c 0268     		ldr	r2, [r0]
 1002 002e 5369     		ldr	r3, [r2, #20]
ARM GAS  /tmp/ccj5uGeq.s 			page 18


 1003 0030 43F08003 		orr	r3, r3, #128
 1004 0034 5361     		str	r3, [r2, #20]
 1005 0036 EFE7     		b	.L129
 1006              	.L138:
 1007 0038 82B0     		sub	sp, sp, #8
 1008 003a 0023     		movs	r3, #0
 1009 003c 0193     		str	r3, [sp, #4]
 1010 003e 0368     		ldr	r3, [r0]
 1011 0040 1A68     		ldr	r2, [r3]
 1012 0042 0192     		str	r2, [sp, #4]
 1013 0044 5A68     		ldr	r2, [r3, #4]
 1014 0046 0192     		str	r2, [sp, #4]
 1015 0048 019A     		ldr	r2, [sp, #4]
 1016 004a DA68     		ldr	r2, [r3, #12]
 1017 004c 42F48072 		orr	r2, r2, #256
 1018 0050 DA60     		str	r2, [r3, #12]
 1019 0052 0268     		ldr	r2, [r0]
 1020 0054 5369     		ldr	r3, [r2, #20]
 1021 0056 43F00103 		orr	r3, r3, #1
 1022 005a 5361     		str	r3, [r2, #20]
 1023 005c 0268     		ldr	r2, [r0]
 1024 005e 5369     		ldr	r3, [r2, #20]
 1025 0060 43F04003 		orr	r3, r3, #64
 1026 0064 5361     		str	r3, [r2, #20]
 1027 0066 0023     		movs	r3, #0
 1028 0068 80F83430 		strb	r3, [r0, #52]
 1029 006c 1846     		mov	r0, r3
 1030 006e 02B0     		add	sp, sp, #8
 1031              		@ sp needed
 1032 0070 7047     		bx	lr
 1033              	.L131:
 1034 0072 0220     		movs	r0, #2
 1035 0074 7047     		bx	lr
 1037              		.section	.text.HAL_IRDA_DMAStop,"ax",%progbits
 1038              		.align	1
 1039              		.global	HAL_IRDA_DMAStop
 1040              		.syntax unified
 1041              		.thumb
 1042              		.thumb_func
 1043              		.fpu softvfp
 1045              	HAL_IRDA_DMAStop:
 1046              		@ args = 0, pretend = 0, frame = 0
 1047              		@ frame_needed = 0, uses_anonymous_args = 0
 1048 0000 10B5     		push	{r4, lr}
 1049 0002 0446     		mov	r4, r0
 1050 0004 0168     		ldr	r1, [r0]
 1051 0006 4A69     		ldr	r2, [r1, #20]
 1052 0008 90F83530 		ldrb	r3, [r0, #53]	@ zero_extendqisi2
 1053 000c DBB2     		uxtb	r3, r3
 1054 000e 212B     		cmp	r3, #33
 1055 0010 0AD0     		beq	.L145
 1056              	.L140:
 1057 0012 2168     		ldr	r1, [r4]
 1058 0014 4A69     		ldr	r2, [r1, #20]
 1059 0016 02F04002 		and	r2, r2, #64
 1060 001a 94F83630 		ldrb	r3, [r4, #54]	@ zero_extendqisi2
 1061 001e DBB2     		uxtb	r3, r3
ARM GAS  /tmp/ccj5uGeq.s 			page 19


 1062 0020 222B     		cmp	r3, #34
 1063 0022 11D0     		beq	.L146
 1064              	.L142:
 1065 0024 0020     		movs	r0, #0
 1066 0026 10BD     		pop	{r4, pc}
 1067              	.L145:
 1068 0028 02F08002 		and	r2, r2, #128
 1069 002c 002A     		cmp	r2, #0
 1070 002e F0D0     		beq	.L140
 1071 0030 4B69     		ldr	r3, [r1, #20]
 1072 0032 23F08003 		bic	r3, r3, #128
 1073 0036 4B61     		str	r3, [r1, #20]
 1074 0038 C06A     		ldr	r0, [r0, #44]
 1075 003a 08B1     		cbz	r0, .L141
 1076 003c FFF7FEFF 		bl	HAL_DMA_Abort
 1077              	.L141:
 1078 0040 2046     		mov	r0, r4
 1079 0042 FFF7FEFF 		bl	IRDA_EndTxTransfer
 1080 0046 E4E7     		b	.L140
 1081              	.L146:
 1082 0048 002A     		cmp	r2, #0
 1083 004a EBD0     		beq	.L142
 1084 004c 4B69     		ldr	r3, [r1, #20]
 1085 004e 23F04003 		bic	r3, r3, #64
 1086 0052 4B61     		str	r3, [r1, #20]
 1087 0054 206B     		ldr	r0, [r4, #48]
 1088 0056 08B1     		cbz	r0, .L143
 1089 0058 FFF7FEFF 		bl	HAL_DMA_Abort
 1090              	.L143:
 1091 005c 2046     		mov	r0, r4
 1092 005e FFF7FEFF 		bl	IRDA_EndRxTransfer
 1093 0062 DFE7     		b	.L142
 1095              		.section	.text.HAL_IRDA_Abort,"ax",%progbits
 1096              		.align	1
 1097              		.global	HAL_IRDA_Abort
 1098              		.syntax unified
 1099              		.thumb
 1100              		.thumb_func
 1101              		.fpu softvfp
 1103              	HAL_IRDA_Abort:
 1104              		@ args = 0, pretend = 0, frame = 0
 1105              		@ frame_needed = 0, uses_anonymous_args = 0
 1106 0000 10B5     		push	{r4, lr}
 1107 0002 0446     		mov	r4, r0
 1108 0004 0268     		ldr	r2, [r0]
 1109 0006 D368     		ldr	r3, [r2, #12]
 1110 0008 23F4F073 		bic	r3, r3, #480
 1111 000c D360     		str	r3, [r2, #12]
 1112 000e 0268     		ldr	r2, [r0]
 1113 0010 5369     		ldr	r3, [r2, #20]
 1114 0012 23F00103 		bic	r3, r3, #1
 1115 0016 5361     		str	r3, [r2, #20]
 1116 0018 0368     		ldr	r3, [r0]
 1117 001a 5A69     		ldr	r2, [r3, #20]
 1118 001c 12F0800F 		tst	r2, #128
 1119 0020 0AD0     		beq	.L148
 1120 0022 5A69     		ldr	r2, [r3, #20]
ARM GAS  /tmp/ccj5uGeq.s 			page 20


 1121 0024 22F08002 		bic	r2, r2, #128
 1122 0028 5A61     		str	r2, [r3, #20]
 1123 002a C36A     		ldr	r3, [r0, #44]
 1124 002c 23B1     		cbz	r3, .L148
 1125 002e 0022     		movs	r2, #0
 1126 0030 5A63     		str	r2, [r3, #52]
 1127 0032 C06A     		ldr	r0, [r0, #44]
 1128 0034 FFF7FEFF 		bl	HAL_DMA_Abort
 1129              	.L148:
 1130 0038 2368     		ldr	r3, [r4]
 1131 003a 5A69     		ldr	r2, [r3, #20]
 1132 003c 12F0400F 		tst	r2, #64
 1133 0040 0AD0     		beq	.L149
 1134 0042 5A69     		ldr	r2, [r3, #20]
 1135 0044 22F04002 		bic	r2, r2, #64
 1136 0048 5A61     		str	r2, [r3, #20]
 1137 004a 236B     		ldr	r3, [r4, #48]
 1138 004c 23B1     		cbz	r3, .L149
 1139 004e 0022     		movs	r2, #0
 1140 0050 5A63     		str	r2, [r3, #52]
 1141 0052 206B     		ldr	r0, [r4, #48]
 1142 0054 FFF7FEFF 		bl	HAL_DMA_Abort
 1143              	.L149:
 1144 0058 0020     		movs	r0, #0
 1145 005a 6084     		strh	r0, [r4, #34]	@ movhi
 1146 005c 6085     		strh	r0, [r4, #42]	@ movhi
 1147 005e A063     		str	r0, [r4, #56]
 1148 0060 2023     		movs	r3, #32
 1149 0062 84F83630 		strb	r3, [r4, #54]
 1150 0066 84F83530 		strb	r3, [r4, #53]
 1151 006a 10BD     		pop	{r4, pc}
 1153              		.section	.text.HAL_IRDA_AbortTransmit,"ax",%progbits
 1154              		.align	1
 1155              		.global	HAL_IRDA_AbortTransmit
 1156              		.syntax unified
 1157              		.thumb
 1158              		.thumb_func
 1159              		.fpu softvfp
 1161              	HAL_IRDA_AbortTransmit:
 1162              		@ args = 0, pretend = 0, frame = 0
 1163              		@ frame_needed = 0, uses_anonymous_args = 0
 1164 0000 10B5     		push	{r4, lr}
 1165 0002 0446     		mov	r4, r0
 1166 0004 0268     		ldr	r2, [r0]
 1167 0006 D368     		ldr	r3, [r2, #12]
 1168 0008 23F0C003 		bic	r3, r3, #192
 1169 000c D360     		str	r3, [r2, #12]
 1170 000e 0368     		ldr	r3, [r0]
 1171 0010 5A69     		ldr	r2, [r3, #20]
 1172 0012 12F0800F 		tst	r2, #128
 1173 0016 0AD0     		beq	.L152
 1174 0018 5A69     		ldr	r2, [r3, #20]
 1175 001a 22F08002 		bic	r2, r2, #128
 1176 001e 5A61     		str	r2, [r3, #20]
 1177 0020 C36A     		ldr	r3, [r0, #44]
 1178 0022 23B1     		cbz	r3, .L152
 1179 0024 0022     		movs	r2, #0
ARM GAS  /tmp/ccj5uGeq.s 			page 21


 1180 0026 5A63     		str	r2, [r3, #52]
 1181 0028 C06A     		ldr	r0, [r0, #44]
 1182 002a FFF7FEFF 		bl	HAL_DMA_Abort
 1183              	.L152:
 1184 002e 0020     		movs	r0, #0
 1185 0030 6084     		strh	r0, [r4, #34]	@ movhi
 1186 0032 2023     		movs	r3, #32
 1187 0034 84F83530 		strb	r3, [r4, #53]
 1188 0038 10BD     		pop	{r4, pc}
 1190              		.section	.text.HAL_IRDA_AbortReceive,"ax",%progbits
 1191              		.align	1
 1192              		.global	HAL_IRDA_AbortReceive
 1193              		.syntax unified
 1194              		.thumb
 1195              		.thumb_func
 1196              		.fpu softvfp
 1198              	HAL_IRDA_AbortReceive:
 1199              		@ args = 0, pretend = 0, frame = 0
 1200              		@ frame_needed = 0, uses_anonymous_args = 0
 1201 0000 10B5     		push	{r4, lr}
 1202 0002 0446     		mov	r4, r0
 1203 0004 0268     		ldr	r2, [r0]
 1204 0006 D368     		ldr	r3, [r2, #12]
 1205 0008 23F49073 		bic	r3, r3, #288
 1206 000c D360     		str	r3, [r2, #12]
 1207 000e 0268     		ldr	r2, [r0]
 1208 0010 5369     		ldr	r3, [r2, #20]
 1209 0012 23F00103 		bic	r3, r3, #1
 1210 0016 5361     		str	r3, [r2, #20]
 1211 0018 0368     		ldr	r3, [r0]
 1212 001a 5A69     		ldr	r2, [r3, #20]
 1213 001c 12F0400F 		tst	r2, #64
 1214 0020 0AD0     		beq	.L155
 1215 0022 5A69     		ldr	r2, [r3, #20]
 1216 0024 22F04002 		bic	r2, r2, #64
 1217 0028 5A61     		str	r2, [r3, #20]
 1218 002a 036B     		ldr	r3, [r0, #48]
 1219 002c 23B1     		cbz	r3, .L155
 1220 002e 0022     		movs	r2, #0
 1221 0030 5A63     		str	r2, [r3, #52]
 1222 0032 006B     		ldr	r0, [r0, #48]
 1223 0034 FFF7FEFF 		bl	HAL_DMA_Abort
 1224              	.L155:
 1225 0038 0020     		movs	r0, #0
 1226 003a 6085     		strh	r0, [r4, #42]	@ movhi
 1227 003c 2023     		movs	r3, #32
 1228 003e 84F83630 		strb	r3, [r4, #54]
 1229 0042 10BD     		pop	{r4, pc}
 1231              		.section	.text.HAL_IRDA_TxCpltCallback,"ax",%progbits
 1232              		.align	1
 1233              		.weak	HAL_IRDA_TxCpltCallback
 1234              		.syntax unified
 1235              		.thumb
 1236              		.thumb_func
 1237              		.fpu softvfp
 1239              	HAL_IRDA_TxCpltCallback:
 1240              		@ args = 0, pretend = 0, frame = 0
ARM GAS  /tmp/ccj5uGeq.s 			page 22


 1241              		@ frame_needed = 0, uses_anonymous_args = 0
 1242              		@ link register save eliminated.
 1243 0000 7047     		bx	lr
 1245              		.section	.text.IRDA_DMATransmitCplt,"ax",%progbits
 1246              		.align	1
 1247              		.syntax unified
 1248              		.thumb
 1249              		.thumb_func
 1250              		.fpu softvfp
 1252              	IRDA_DMATransmitCplt:
 1253              		@ args = 0, pretend = 0, frame = 0
 1254              		@ frame_needed = 0, uses_anonymous_args = 0
 1255 0000 08B5     		push	{r3, lr}
 1256 0002 436A     		ldr	r3, [r0, #36]
 1257 0004 0268     		ldr	r2, [r0]
 1258 0006 1268     		ldr	r2, [r2]
 1259 0008 12F0200F 		tst	r2, #32
 1260 000c 0CD1     		bne	.L159
 1261 000e 0022     		movs	r2, #0
 1262 0010 5A84     		strh	r2, [r3, #34]	@ movhi
 1263 0012 1968     		ldr	r1, [r3]
 1264 0014 4A69     		ldr	r2, [r1, #20]
 1265 0016 22F08002 		bic	r2, r2, #128
 1266 001a 4A61     		str	r2, [r1, #20]
 1267 001c 1A68     		ldr	r2, [r3]
 1268 001e D368     		ldr	r3, [r2, #12]
 1269 0020 43F04003 		orr	r3, r3, #64
 1270 0024 D360     		str	r3, [r2, #12]
 1271 0026 08BD     		pop	{r3, pc}
 1272              	.L159:
 1273 0028 1846     		mov	r0, r3
 1274 002a FFF7FEFF 		bl	HAL_IRDA_TxCpltCallback
 1275 002e 08BD     		pop	{r3, pc}
 1277              		.section	.text.IRDA_EndTransmit_IT,"ax",%progbits
 1278              		.align	1
 1279              		.syntax unified
 1280              		.thumb
 1281              		.thumb_func
 1282              		.fpu softvfp
 1284              	IRDA_EndTransmit_IT:
 1285              		@ args = 0, pretend = 0, frame = 0
 1286              		@ frame_needed = 0, uses_anonymous_args = 0
 1287 0000 08B5     		push	{r3, lr}
 1288 0002 0168     		ldr	r1, [r0]
 1289 0004 CA68     		ldr	r2, [r1, #12]
 1290 0006 22F04002 		bic	r2, r2, #64
 1291 000a CA60     		str	r2, [r1, #12]
 1292 000c 0168     		ldr	r1, [r0]
 1293 000e 4A69     		ldr	r2, [r1, #20]
 1294 0010 22F00102 		bic	r2, r2, #1
 1295 0014 4A61     		str	r2, [r1, #20]
 1296 0016 2022     		movs	r2, #32
 1297 0018 80F83520 		strb	r2, [r0, #53]
 1298 001c FFF7FEFF 		bl	HAL_IRDA_TxCpltCallback
 1299 0020 0020     		movs	r0, #0
 1300 0022 08BD     		pop	{r3, pc}
 1302              		.section	.text.HAL_IRDA_TxHalfCpltCallback,"ax",%progbits
ARM GAS  /tmp/ccj5uGeq.s 			page 23


 1303              		.align	1
 1304              		.weak	HAL_IRDA_TxHalfCpltCallback
 1305              		.syntax unified
 1306              		.thumb
 1307              		.thumb_func
 1308              		.fpu softvfp
 1310              	HAL_IRDA_TxHalfCpltCallback:
 1311              		@ args = 0, pretend = 0, frame = 0
 1312              		@ frame_needed = 0, uses_anonymous_args = 0
 1313              		@ link register save eliminated.
 1314 0000 7047     		bx	lr
 1316              		.section	.text.IRDA_DMATransmitHalfCplt,"ax",%progbits
 1317              		.align	1
 1318              		.syntax unified
 1319              		.thumb
 1320              		.thumb_func
 1321              		.fpu softvfp
 1323              	IRDA_DMATransmitHalfCplt:
 1324              		@ args = 0, pretend = 0, frame = 0
 1325              		@ frame_needed = 0, uses_anonymous_args = 0
 1326 0000 08B5     		push	{r3, lr}
 1327 0002 406A     		ldr	r0, [r0, #36]
 1328 0004 FFF7FEFF 		bl	HAL_IRDA_TxHalfCpltCallback
 1329 0008 08BD     		pop	{r3, pc}
 1331              		.section	.text.HAL_IRDA_RxCpltCallback,"ax",%progbits
 1332              		.align	1
 1333              		.weak	HAL_IRDA_RxCpltCallback
 1334              		.syntax unified
 1335              		.thumb
 1336              		.thumb_func
 1337              		.fpu softvfp
 1339              	HAL_IRDA_RxCpltCallback:
 1340              		@ args = 0, pretend = 0, frame = 0
 1341              		@ frame_needed = 0, uses_anonymous_args = 0
 1342              		@ link register save eliminated.
 1343 0000 7047     		bx	lr
 1345              		.section	.text.IRDA_DMAReceiveCplt,"ax",%progbits
 1346              		.align	1
 1347              		.syntax unified
 1348              		.thumb
 1349              		.thumb_func
 1350              		.fpu softvfp
 1352              	IRDA_DMAReceiveCplt:
 1353              		@ args = 0, pretend = 0, frame = 0
 1354              		@ frame_needed = 0, uses_anonymous_args = 0
 1355 0000 08B5     		push	{r3, lr}
 1356 0002 436A     		ldr	r3, [r0, #36]
 1357 0004 0268     		ldr	r2, [r0]
 1358 0006 1268     		ldr	r2, [r2]
 1359 0008 12F0200F 		tst	r2, #32
 1360 000c 13D1     		bne	.L169
 1361 000e 0022     		movs	r2, #0
 1362 0010 5A85     		strh	r2, [r3, #42]	@ movhi
 1363 0012 1968     		ldr	r1, [r3]
 1364 0014 CA68     		ldr	r2, [r1, #12]
 1365 0016 22F48072 		bic	r2, r2, #256
 1366 001a CA60     		str	r2, [r1, #12]
ARM GAS  /tmp/ccj5uGeq.s 			page 24


 1367 001c 1968     		ldr	r1, [r3]
 1368 001e 4A69     		ldr	r2, [r1, #20]
 1369 0020 22F00102 		bic	r2, r2, #1
 1370 0024 4A61     		str	r2, [r1, #20]
 1371 0026 1968     		ldr	r1, [r3]
 1372 0028 4A69     		ldr	r2, [r1, #20]
 1373 002a 22F04002 		bic	r2, r2, #64
 1374 002e 4A61     		str	r2, [r1, #20]
 1375 0030 2022     		movs	r2, #32
 1376 0032 83F83620 		strb	r2, [r3, #54]
 1377              	.L169:
 1378 0036 1846     		mov	r0, r3
 1379 0038 FFF7FEFF 		bl	HAL_IRDA_RxCpltCallback
 1380 003c 08BD     		pop	{r3, pc}
 1382              		.section	.text.IRDA_Receive_IT,"ax",%progbits
 1383              		.align	1
 1384              		.syntax unified
 1385              		.thumb
 1386              		.thumb_func
 1387              		.fpu softvfp
 1389              	IRDA_Receive_IT:
 1390              		@ args = 0, pretend = 0, frame = 0
 1391              		@ frame_needed = 0, uses_anonymous_args = 0
 1392 0000 08B5     		push	{r3, lr}
 1393 0002 90F83630 		ldrb	r3, [r0, #54]	@ zero_extendqisi2
 1394 0006 DBB2     		uxtb	r3, r3
 1395 0008 222B     		cmp	r3, #34
 1396 000a 01D0     		beq	.L180
 1397 000c 0220     		movs	r0, #2
 1398 000e 08BD     		pop	{r3, pc}
 1399              	.L180:
 1400 0010 0368     		ldr	r3, [r0]
 1401 0012 5B68     		ldr	r3, [r3, #4]
 1402 0014 99B2     		uxth	r1, r3
 1403 0016 8268     		ldr	r2, [r0, #8]
 1404 0018 B2F5805F 		cmp	r2, #4096
 1405 001c 0DD0     		beq	.L181
 1406 001e C268     		ldr	r2, [r0, #12]
 1407 0020 DAB9     		cbnz	r2, .L176
 1408 0022 426A     		ldr	r2, [r0, #36]
 1409 0024 511C     		adds	r1, r2, #1
 1410 0026 4162     		str	r1, [r0, #36]
 1411 0028 1370     		strb	r3, [r2]
 1412              	.L175:
 1413 002a 438D     		ldrh	r3, [r0, #42]
 1414 002c 9BB2     		uxth	r3, r3
 1415 002e 013B     		subs	r3, r3, #1
 1416 0030 9BB2     		uxth	r3, r3
 1417 0032 4385     		strh	r3, [r0, #42]	@ movhi
 1418 0034 C3B1     		cbz	r3, .L182
 1419 0036 0020     		movs	r0, #0
 1420 0038 08BD     		pop	{r3, pc}
 1421              	.L181:
 1422 003a 426A     		ldr	r2, [r0, #36]
 1423 003c C368     		ldr	r3, [r0, #12]
 1424 003e 33B9     		cbnz	r3, .L174
 1425 0040 C1F30801 		ubfx	r1, r1, #0, #9
ARM GAS  /tmp/ccj5uGeq.s 			page 25


 1426 0044 1180     		strh	r1, [r2]	@ movhi
 1427 0046 436A     		ldr	r3, [r0, #36]
 1428 0048 0233     		adds	r3, r3, #2
 1429 004a 4362     		str	r3, [r0, #36]
 1430 004c EDE7     		b	.L175
 1431              	.L174:
 1432 004e C9B2     		uxtb	r1, r1
 1433 0050 1180     		strh	r1, [r2]	@ movhi
 1434 0052 436A     		ldr	r3, [r0, #36]
 1435 0054 0133     		adds	r3, r3, #1
 1436 0056 4362     		str	r3, [r0, #36]
 1437 0058 E7E7     		b	.L175
 1438              	.L176:
 1439 005a 426A     		ldr	r2, [r0, #36]
 1440 005c 511C     		adds	r1, r2, #1
 1441 005e 4162     		str	r1, [r0, #36]
 1442 0060 03F07F03 		and	r3, r3, #127
 1443 0064 1370     		strb	r3, [r2]
 1444 0066 E0E7     		b	.L175
 1445              	.L182:
 1446 0068 0268     		ldr	r2, [r0]
 1447 006a D368     		ldr	r3, [r2, #12]
 1448 006c 23F02003 		bic	r3, r3, #32
 1449 0070 D360     		str	r3, [r2, #12]
 1450 0072 0268     		ldr	r2, [r0]
 1451 0074 D368     		ldr	r3, [r2, #12]
 1452 0076 23F48073 		bic	r3, r3, #256
 1453 007a D360     		str	r3, [r2, #12]
 1454 007c 0268     		ldr	r2, [r0]
 1455 007e 5369     		ldr	r3, [r2, #20]
 1456 0080 23F00103 		bic	r3, r3, #1
 1457 0084 5361     		str	r3, [r2, #20]
 1458 0086 2023     		movs	r3, #32
 1459 0088 80F83630 		strb	r3, [r0, #54]
 1460 008c FFF7FEFF 		bl	HAL_IRDA_RxCpltCallback
 1461 0090 0020     		movs	r0, #0
 1462 0092 08BD     		pop	{r3, pc}
 1464              		.section	.text.HAL_IRDA_RxHalfCpltCallback,"ax",%progbits
 1465              		.align	1
 1466              		.weak	HAL_IRDA_RxHalfCpltCallback
 1467              		.syntax unified
 1468              		.thumb
 1469              		.thumb_func
 1470              		.fpu softvfp
 1472              	HAL_IRDA_RxHalfCpltCallback:
 1473              		@ args = 0, pretend = 0, frame = 0
 1474              		@ frame_needed = 0, uses_anonymous_args = 0
 1475              		@ link register save eliminated.
 1476 0000 7047     		bx	lr
 1478              		.section	.text.IRDA_DMAReceiveHalfCplt,"ax",%progbits
 1479              		.align	1
 1480              		.syntax unified
 1481              		.thumb
 1482              		.thumb_func
 1483              		.fpu softvfp
 1485              	IRDA_DMAReceiveHalfCplt:
 1486              		@ args = 0, pretend = 0, frame = 0
ARM GAS  /tmp/ccj5uGeq.s 			page 26


 1487              		@ frame_needed = 0, uses_anonymous_args = 0
 1488 0000 08B5     		push	{r3, lr}
 1489 0002 406A     		ldr	r0, [r0, #36]
 1490 0004 FFF7FEFF 		bl	HAL_IRDA_RxHalfCpltCallback
 1491 0008 08BD     		pop	{r3, pc}
 1493              		.section	.text.HAL_IRDA_ErrorCallback,"ax",%progbits
 1494              		.align	1
 1495              		.weak	HAL_IRDA_ErrorCallback
 1496              		.syntax unified
 1497              		.thumb
 1498              		.thumb_func
 1499              		.fpu softvfp
 1501              	HAL_IRDA_ErrorCallback:
 1502              		@ args = 0, pretend = 0, frame = 0
 1503              		@ frame_needed = 0, uses_anonymous_args = 0
 1504              		@ link register save eliminated.
 1505 0000 7047     		bx	lr
 1507              		.section	.text.IRDA_DMAError,"ax",%progbits
 1508              		.align	1
 1509              		.syntax unified
 1510              		.thumb
 1511              		.thumb_func
 1512              		.fpu softvfp
 1514              	IRDA_DMAError:
 1515              		@ args = 0, pretend = 0, frame = 0
 1516              		@ frame_needed = 0, uses_anonymous_args = 0
 1517 0000 10B5     		push	{r4, lr}
 1518 0002 446A     		ldr	r4, [r0, #36]
 1519 0004 2368     		ldr	r3, [r4]
 1520 0006 5A69     		ldr	r2, [r3, #20]
 1521 0008 94F83530 		ldrb	r3, [r4, #53]	@ zero_extendqisi2
 1522 000c DBB2     		uxtb	r3, r3
 1523 000e 212B     		cmp	r3, #33
 1524 0010 10D0     		beq	.L191
 1525              	.L188:
 1526 0012 2368     		ldr	r3, [r4]
 1527 0014 5A69     		ldr	r2, [r3, #20]
 1528 0016 02F04002 		and	r2, r2, #64
 1529 001a 94F83630 		ldrb	r3, [r4, #54]	@ zero_extendqisi2
 1530 001e DBB2     		uxtb	r3, r3
 1531 0020 222B     		cmp	r3, #34
 1532 0022 11D0     		beq	.L192
 1533              	.L189:
 1534 0024 A36B     		ldr	r3, [r4, #56]
 1535 0026 43F01003 		orr	r3, r3, #16
 1536 002a A363     		str	r3, [r4, #56]
 1537 002c 2046     		mov	r0, r4
 1538 002e FFF7FEFF 		bl	HAL_IRDA_ErrorCallback
 1539 0032 10BD     		pop	{r4, pc}
 1540              	.L191:
 1541 0034 02F08002 		and	r2, r2, #128
 1542 0038 002A     		cmp	r2, #0
 1543 003a EAD0     		beq	.L188
 1544 003c 0023     		movs	r3, #0
 1545 003e 6384     		strh	r3, [r4, #34]	@ movhi
 1546 0040 2046     		mov	r0, r4
 1547 0042 FFF7FEFF 		bl	IRDA_EndTxTransfer
ARM GAS  /tmp/ccj5uGeq.s 			page 27


 1548 0046 E4E7     		b	.L188
 1549              	.L192:
 1550 0048 002A     		cmp	r2, #0
 1551 004a EBD0     		beq	.L189
 1552 004c 0023     		movs	r3, #0
 1553 004e 6385     		strh	r3, [r4, #42]	@ movhi
 1554 0050 2046     		mov	r0, r4
 1555 0052 FFF7FEFF 		bl	IRDA_EndRxTransfer
 1556 0056 E5E7     		b	.L189
 1558              		.section	.text.HAL_IRDA_IRQHandler,"ax",%progbits
 1559              		.align	1
 1560              		.global	HAL_IRDA_IRQHandler
 1561              		.syntax unified
 1562              		.thumb
 1563              		.thumb_func
 1564              		.fpu softvfp
 1566              	HAL_IRDA_IRQHandler:
 1567              		@ args = 0, pretend = 0, frame = 0
 1568              		@ frame_needed = 0, uses_anonymous_args = 0
 1569 0000 10B5     		push	{r4, lr}
 1570 0002 0446     		mov	r4, r0
 1571 0004 0268     		ldr	r2, [r0]
 1572 0006 1368     		ldr	r3, [r2]
 1573 0008 D168     		ldr	r1, [r2, #12]
 1574 000a 5269     		ldr	r2, [r2, #20]
 1575 000c 13F00F00 		ands	r0, r3, #15
 1576 0010 05D1     		bne	.L194
 1577 0012 13F0200F 		tst	r3, #32
 1578 0016 02D0     		beq	.L194
 1579 0018 11F0200F 		tst	r1, #32
 1580 001c 53D1     		bne	.L209
 1581              	.L194:
 1582 001e 0028     		cmp	r0, #0
 1583 0020 67D0     		beq	.L196
 1584 0022 12F00102 		ands	r2, r2, #1
 1585 0026 02D1     		bne	.L197
 1586 0028 11F4907F 		tst	r1, #288
 1587 002c 61D0     		beq	.L196
 1588              	.L197:
 1589 002e 13F0010F 		tst	r3, #1
 1590 0032 06D0     		beq	.L198
 1591 0034 11F4807F 		tst	r1, #256
 1592 0038 03D0     		beq	.L198
 1593 003a A06B     		ldr	r0, [r4, #56]
 1594 003c 40F00100 		orr	r0, r0, #1
 1595 0040 A063     		str	r0, [r4, #56]
 1596              	.L198:
 1597 0042 13F0040F 		tst	r3, #4
 1598 0046 04D0     		beq	.L199
 1599 0048 1AB1     		cbz	r2, .L199
 1600 004a A06B     		ldr	r0, [r4, #56]
 1601 004c 40F00200 		orr	r0, r0, #2
 1602 0050 A063     		str	r0, [r4, #56]
 1603              	.L199:
 1604 0052 13F0020F 		tst	r3, #2
 1605 0056 04D0     		beq	.L200
 1606 0058 1AB1     		cbz	r2, .L200
ARM GAS  /tmp/ccj5uGeq.s 			page 28


 1607 005a A06B     		ldr	r0, [r4, #56]
 1608 005c 40F00400 		orr	r0, r0, #4
 1609 0060 A063     		str	r0, [r4, #56]
 1610              	.L200:
 1611 0062 13F0080F 		tst	r3, #8
 1612 0066 04D0     		beq	.L201
 1613 0068 1AB1     		cbz	r2, .L201
 1614 006a A26B     		ldr	r2, [r4, #56]
 1615 006c 42F00802 		orr	r2, r2, #8
 1616 0070 A263     		str	r2, [r4, #56]
 1617              	.L201:
 1618 0072 A26B     		ldr	r2, [r4, #56]
 1619 0074 002A     		cmp	r2, #0
 1620 0076 48D0     		beq	.L193
 1621 0078 13F0200F 		tst	r3, #32
 1622 007c 02D0     		beq	.L202
 1623 007e 11F0200F 		tst	r1, #32
 1624 0082 24D1     		bne	.L210
 1625              	.L202:
 1626 0084 2368     		ldr	r3, [r4]
 1627 0086 5B69     		ldr	r3, [r3, #20]
 1628 0088 03F04003 		and	r3, r3, #64
 1629 008c A26B     		ldr	r2, [r4, #56]
 1630 008e 12F0080F 		tst	r2, #8
 1631 0092 00D1     		bne	.L203
 1632 0094 3BB3     		cbz	r3, .L204
 1633              	.L203:
 1634 0096 2046     		mov	r0, r4
 1635 0098 FFF7FEFF 		bl	IRDA_EndRxTransfer
 1636 009c 2368     		ldr	r3, [r4]
 1637 009e 5A69     		ldr	r2, [r3, #20]
 1638 00a0 12F0400F 		tst	r2, #64
 1639 00a4 1BD0     		beq	.L205
 1640 00a6 5A69     		ldr	r2, [r3, #20]
 1641 00a8 22F04002 		bic	r2, r2, #64
 1642 00ac 5A61     		str	r2, [r3, #20]
 1643 00ae 236B     		ldr	r3, [r4, #48]
 1644 00b0 8BB1     		cbz	r3, .L206
 1645 00b2 1A4A     		ldr	r2, .L213
 1646 00b4 5A63     		str	r2, [r3, #52]
 1647 00b6 206B     		ldr	r0, [r4, #48]
 1648 00b8 FFF7FEFF 		bl	HAL_DMA_Abort_IT
 1649 00bc 28B3     		cbz	r0, .L193
 1650 00be 206B     		ldr	r0, [r4, #48]
 1651 00c0 436B     		ldr	r3, [r0, #52]
 1652 00c2 9847     		blx	r3
 1653 00c4 10BD     		pop	{r4, pc}
 1654              	.L209:
 1655 00c6 2046     		mov	r0, r4
 1656 00c8 FFF7FEFF 		bl	IRDA_Receive_IT
 1657 00cc 10BD     		pop	{r4, pc}
 1658              	.L210:
 1659 00ce 2046     		mov	r0, r4
 1660 00d0 FFF7FEFF 		bl	IRDA_Receive_IT
 1661 00d4 D6E7     		b	.L202
 1662              	.L206:
 1663 00d6 2046     		mov	r0, r4
ARM GAS  /tmp/ccj5uGeq.s 			page 29


 1664 00d8 FFF7FEFF 		bl	HAL_IRDA_ErrorCallback
 1665 00dc 10BD     		pop	{r4, pc}
 1666              	.L205:
 1667 00de 2046     		mov	r0, r4
 1668 00e0 FFF7FEFF 		bl	HAL_IRDA_ErrorCallback
 1669 00e4 10BD     		pop	{r4, pc}
 1670              	.L204:
 1671 00e6 2046     		mov	r0, r4
 1672 00e8 FFF7FEFF 		bl	HAL_IRDA_ErrorCallback
 1673 00ec 0023     		movs	r3, #0
 1674 00ee A363     		str	r3, [r4, #56]
 1675 00f0 10BD     		pop	{r4, pc}
 1676              	.L196:
 1677 00f2 13F0800F 		tst	r3, #128
 1678 00f6 02D0     		beq	.L207
 1679 00f8 11F0800F 		tst	r1, #128
 1680 00fc 06D1     		bne	.L211
 1681              	.L207:
 1682 00fe 13F0400F 		tst	r3, #64
 1683 0102 02D0     		beq	.L193
 1684 0104 11F0400F 		tst	r1, #64
 1685 0108 04D1     		bne	.L212
 1686              	.L193:
 1687 010a 10BD     		pop	{r4, pc}
 1688              	.L211:
 1689 010c 2046     		mov	r0, r4
 1690 010e FFF7FEFF 		bl	IRDA_Transmit_IT
 1691 0112 10BD     		pop	{r4, pc}
 1692              	.L212:
 1693 0114 2046     		mov	r0, r4
 1694 0116 FFF7FEFF 		bl	IRDA_EndTransmit_IT
 1695 011a F6E7     		b	.L193
 1696              	.L214:
 1697              		.align	2
 1698              	.L213:
 1699 011c 00000000 		.word	IRDA_DMAAbortOnError
 1701              		.section	.text.IRDA_DMAAbortOnError,"ax",%progbits
 1702              		.align	1
 1703              		.syntax unified
 1704              		.thumb
 1705              		.thumb_func
 1706              		.fpu softvfp
 1708              	IRDA_DMAAbortOnError:
 1709              		@ args = 0, pretend = 0, frame = 0
 1710              		@ frame_needed = 0, uses_anonymous_args = 0
 1711 0000 08B5     		push	{r3, lr}
 1712 0002 406A     		ldr	r0, [r0, #36]
 1713 0004 0023     		movs	r3, #0
 1714 0006 4385     		strh	r3, [r0, #42]	@ movhi
 1715 0008 4384     		strh	r3, [r0, #34]	@ movhi
 1716 000a FFF7FEFF 		bl	HAL_IRDA_ErrorCallback
 1717 000e 08BD     		pop	{r3, pc}
 1719              		.section	.text.HAL_IRDA_AbortCpltCallback,"ax",%progbits
 1720              		.align	1
 1721              		.weak	HAL_IRDA_AbortCpltCallback
 1722              		.syntax unified
 1723              		.thumb
ARM GAS  /tmp/ccj5uGeq.s 			page 30


 1724              		.thumb_func
 1725              		.fpu softvfp
 1727              	HAL_IRDA_AbortCpltCallback:
 1728              		@ args = 0, pretend = 0, frame = 0
 1729              		@ frame_needed = 0, uses_anonymous_args = 0
 1730              		@ link register save eliminated.
 1731 0000 7047     		bx	lr
 1733              		.section	.text.HAL_IRDA_Abort_IT,"ax",%progbits
 1734              		.align	1
 1735              		.global	HAL_IRDA_Abort_IT
 1736              		.syntax unified
 1737              		.thumb
 1738              		.thumb_func
 1739              		.fpu softvfp
 1741              	HAL_IRDA_Abort_IT:
 1742              		@ args = 0, pretend = 0, frame = 0
 1743              		@ frame_needed = 0, uses_anonymous_args = 0
 1744 0000 10B5     		push	{r4, lr}
 1745 0002 0446     		mov	r4, r0
 1746 0004 0268     		ldr	r2, [r0]
 1747 0006 D368     		ldr	r3, [r2, #12]
 1748 0008 23F4F073 		bic	r3, r3, #480
 1749 000c D360     		str	r3, [r2, #12]
 1750 000e 0268     		ldr	r2, [r0]
 1751 0010 5369     		ldr	r3, [r2, #20]
 1752 0012 23F00103 		bic	r3, r3, #1
 1753 0016 5361     		str	r3, [r2, #20]
 1754 0018 C36A     		ldr	r3, [r0, #44]
 1755 001a 33B1     		cbz	r3, .L219
 1756 001c 0268     		ldr	r2, [r0]
 1757 001e 5269     		ldr	r2, [r2, #20]
 1758 0020 12F0800F 		tst	r2, #128
 1759 0024 1DD0     		beq	.L220
 1760 0026 264A     		ldr	r2, .L232
 1761 0028 5A63     		str	r2, [r3, #52]
 1762              	.L219:
 1763 002a 236B     		ldr	r3, [r4, #48]
 1764 002c 33B1     		cbz	r3, .L221
 1765 002e 2268     		ldr	r2, [r4]
 1766 0030 5269     		ldr	r2, [r2, #20]
 1767 0032 12F0400F 		tst	r2, #64
 1768 0036 17D0     		beq	.L222
 1769 0038 224A     		ldr	r2, .L232+4
 1770 003a 5A63     		str	r2, [r3, #52]
 1771              	.L221:
 1772 003c 2368     		ldr	r3, [r4]
 1773 003e 5A69     		ldr	r2, [r3, #20]
 1774 0040 12F0800F 		tst	r2, #128
 1775 0044 13D0     		beq	.L226
 1776 0046 5A69     		ldr	r2, [r3, #20]
 1777 0048 22F08002 		bic	r2, r2, #128
 1778 004c 5A61     		str	r2, [r3, #20]
 1779 004e E06A     		ldr	r0, [r4, #44]
 1780 0050 18B3     		cbz	r0, .L227
 1781 0052 FFF7FEFF 		bl	HAL_DMA_Abort_IT
 1782 0056 10B3     		cbz	r0, .L228
 1783 0058 E36A     		ldr	r3, [r4, #44]
ARM GAS  /tmp/ccj5uGeq.s 			page 31


 1784 005a 0022     		movs	r2, #0
 1785 005c 5A63     		str	r2, [r3, #52]
 1786 005e 0122     		movs	r2, #1
 1787 0060 06E0     		b	.L223
 1788              	.L220:
 1789 0062 0022     		movs	r2, #0
 1790 0064 5A63     		str	r2, [r3, #52]
 1791 0066 E0E7     		b	.L219
 1792              	.L222:
 1793 0068 0022     		movs	r2, #0
 1794 006a 5A63     		str	r2, [r3, #52]
 1795 006c E6E7     		b	.L221
 1796              	.L226:
 1797 006e 0122     		movs	r2, #1
 1798              	.L223:
 1799 0070 2368     		ldr	r3, [r4]
 1800 0072 5969     		ldr	r1, [r3, #20]
 1801 0074 11F0400F 		tst	r1, #64
 1802 0078 0CD0     		beq	.L224
 1803 007a 5969     		ldr	r1, [r3, #20]
 1804 007c 21F04001 		bic	r1, r1, #64
 1805 0080 5961     		str	r1, [r3, #20]
 1806 0082 206B     		ldr	r0, [r4, #48]
 1807 0084 30B1     		cbz	r0, .L224
 1808 0086 FFF7FEFF 		bl	HAL_DMA_Abort_IT
 1809 008a 50B1     		cbz	r0, .L229
 1810 008c 236B     		ldr	r3, [r4, #48]
 1811 008e 0022     		movs	r2, #0
 1812 0090 5A63     		str	r2, [r3, #52]
 1813 0092 0122     		movs	r2, #1
 1814              	.L224:
 1815 0094 3AB9     		cbnz	r2, .L231
 1816              	.L225:
 1817 0096 0020     		movs	r0, #0
 1818 0098 10BD     		pop	{r4, pc}
 1819              	.L227:
 1820 009a 0122     		movs	r2, #1
 1821 009c E8E7     		b	.L223
 1822              	.L228:
 1823 009e 0022     		movs	r2, #0
 1824 00a0 E6E7     		b	.L223
 1825              	.L229:
 1826 00a2 0022     		movs	r2, #0
 1827 00a4 F6E7     		b	.L224
 1828              	.L231:
 1829 00a6 0023     		movs	r3, #0
 1830 00a8 6384     		strh	r3, [r4, #34]	@ movhi
 1831 00aa 6385     		strh	r3, [r4, #42]	@ movhi
 1832 00ac A363     		str	r3, [r4, #56]
 1833 00ae 2023     		movs	r3, #32
 1834 00b0 84F83530 		strb	r3, [r4, #53]
 1835 00b4 84F83630 		strb	r3, [r4, #54]
 1836 00b8 2046     		mov	r0, r4
 1837 00ba FFF7FEFF 		bl	HAL_IRDA_AbortCpltCallback
 1838 00be EAE7     		b	.L225
 1839              	.L233:
 1840              		.align	2
ARM GAS  /tmp/ccj5uGeq.s 			page 32


 1841              	.L232:
 1842 00c0 00000000 		.word	IRDA_DMATxAbortCallback
 1843 00c4 00000000 		.word	IRDA_DMARxAbortCallback
 1845              		.section	.text.IRDA_DMARxAbortCallback,"ax",%progbits
 1846              		.align	1
 1847              		.syntax unified
 1848              		.thumb
 1849              		.thumb_func
 1850              		.fpu softvfp
 1852              	IRDA_DMARxAbortCallback:
 1853              		@ args = 0, pretend = 0, frame = 0
 1854              		@ frame_needed = 0, uses_anonymous_args = 0
 1855 0000 08B5     		push	{r3, lr}
 1856 0002 406A     		ldr	r0, [r0, #36]
 1857 0004 036B     		ldr	r3, [r0, #48]
 1858 0006 0022     		movs	r2, #0
 1859 0008 5A63     		str	r2, [r3, #52]
 1860 000a C36A     		ldr	r3, [r0, #44]
 1861 000c 13B1     		cbz	r3, .L235
 1862 000e 5B6B     		ldr	r3, [r3, #52]
 1863 0010 03B1     		cbz	r3, .L235
 1864              	.L234:
 1865 0012 08BD     		pop	{r3, pc}
 1866              	.L235:
 1867 0014 0023     		movs	r3, #0
 1868 0016 4384     		strh	r3, [r0, #34]	@ movhi
 1869 0018 4385     		strh	r3, [r0, #42]	@ movhi
 1870 001a 8363     		str	r3, [r0, #56]
 1871 001c 2023     		movs	r3, #32
 1872 001e 80F83530 		strb	r3, [r0, #53]
 1873 0022 80F83630 		strb	r3, [r0, #54]
 1874 0026 FFF7FEFF 		bl	HAL_IRDA_AbortCpltCallback
 1875 002a F2E7     		b	.L234
 1877              		.section	.text.IRDA_DMATxAbortCallback,"ax",%progbits
 1878              		.align	1
 1879              		.syntax unified
 1880              		.thumb
 1881              		.thumb_func
 1882              		.fpu softvfp
 1884              	IRDA_DMATxAbortCallback:
 1885              		@ args = 0, pretend = 0, frame = 0
 1886              		@ frame_needed = 0, uses_anonymous_args = 0
 1887 0000 08B5     		push	{r3, lr}
 1888 0002 406A     		ldr	r0, [r0, #36]
 1889 0004 C36A     		ldr	r3, [r0, #44]
 1890 0006 0022     		movs	r2, #0
 1891 0008 5A63     		str	r2, [r3, #52]
 1892 000a 036B     		ldr	r3, [r0, #48]
 1893 000c 13B1     		cbz	r3, .L239
 1894 000e 5B6B     		ldr	r3, [r3, #52]
 1895 0010 03B1     		cbz	r3, .L239
 1896              	.L238:
 1897 0012 08BD     		pop	{r3, pc}
 1898              	.L239:
 1899 0014 0023     		movs	r3, #0
 1900 0016 4384     		strh	r3, [r0, #34]	@ movhi
 1901 0018 4385     		strh	r3, [r0, #42]	@ movhi
ARM GAS  /tmp/ccj5uGeq.s 			page 33


 1902 001a 8363     		str	r3, [r0, #56]
 1903 001c 2023     		movs	r3, #32
 1904 001e 80F83530 		strb	r3, [r0, #53]
 1905 0022 80F83630 		strb	r3, [r0, #54]
 1906 0026 FFF7FEFF 		bl	HAL_IRDA_AbortCpltCallback
 1907 002a F2E7     		b	.L238
 1909              		.section	.text.HAL_IRDA_AbortTransmitCpltCallback,"ax",%progbits
 1910              		.align	1
 1911              		.weak	HAL_IRDA_AbortTransmitCpltCallback
 1912              		.syntax unified
 1913              		.thumb
 1914              		.thumb_func
 1915              		.fpu softvfp
 1917              	HAL_IRDA_AbortTransmitCpltCallback:
 1918              		@ args = 0, pretend = 0, frame = 0
 1919              		@ frame_needed = 0, uses_anonymous_args = 0
 1920              		@ link register save eliminated.
 1921 0000 7047     		bx	lr
 1923              		.section	.text.HAL_IRDA_AbortTransmit_IT,"ax",%progbits
 1924              		.align	1
 1925              		.global	HAL_IRDA_AbortTransmit_IT
 1926              		.syntax unified
 1927              		.thumb
 1928              		.thumb_func
 1929              		.fpu softvfp
 1931              	HAL_IRDA_AbortTransmit_IT:
 1932              		@ args = 0, pretend = 0, frame = 0
 1933              		@ frame_needed = 0, uses_anonymous_args = 0
 1934 0000 10B5     		push	{r4, lr}
 1935 0002 0446     		mov	r4, r0
 1936 0004 0268     		ldr	r2, [r0]
 1937 0006 D368     		ldr	r3, [r2, #12]
 1938 0008 23F0C003 		bic	r3, r3, #192
 1939 000c D360     		str	r3, [r2, #12]
 1940 000e 0368     		ldr	r3, [r0]
 1941 0010 5A69     		ldr	r2, [r3, #20]
 1942 0012 12F0800F 		tst	r2, #128
 1943 0016 19D0     		beq	.L244
 1944 0018 5A69     		ldr	r2, [r3, #20]
 1945 001a 22F08002 		bic	r2, r2, #128
 1946 001e 5A61     		str	r2, [r3, #20]
 1947 0020 C36A     		ldr	r3, [r0, #44]
 1948 0022 5BB1     		cbz	r3, .L245
 1949 0024 0D4A     		ldr	r2, .L249
 1950 0026 5A63     		str	r2, [r3, #52]
 1951 0028 C06A     		ldr	r0, [r0, #44]
 1952 002a FFF7FEFF 		bl	HAL_DMA_Abort_IT
 1953 002e 08B9     		cbnz	r0, .L248
 1954              	.L246:
 1955 0030 0020     		movs	r0, #0
 1956 0032 10BD     		pop	{r4, pc}
 1957              	.L248:
 1958 0034 E06A     		ldr	r0, [r4, #44]
 1959 0036 436B     		ldr	r3, [r0, #52]
 1960 0038 9847     		blx	r3
 1961 003a F9E7     		b	.L246
 1962              	.L245:
ARM GAS  /tmp/ccj5uGeq.s 			page 34


 1963 003c 0023     		movs	r3, #0
 1964 003e 4384     		strh	r3, [r0, #34]	@ movhi
 1965 0040 2023     		movs	r3, #32
 1966 0042 80F83530 		strb	r3, [r0, #53]
 1967 0046 FFF7FEFF 		bl	HAL_IRDA_AbortTransmitCpltCallback
 1968 004a F1E7     		b	.L246
 1969              	.L244:
 1970 004c 0023     		movs	r3, #0
 1971 004e 4384     		strh	r3, [r0, #34]	@ movhi
 1972 0050 2023     		movs	r3, #32
 1973 0052 80F83530 		strb	r3, [r0, #53]
 1974 0056 FFF7FEFF 		bl	HAL_IRDA_AbortTransmitCpltCallback
 1975 005a E9E7     		b	.L246
 1976              	.L250:
 1977              		.align	2
 1978              	.L249:
 1979 005c 00000000 		.word	IRDA_DMATxOnlyAbortCallback
 1981              		.section	.text.IRDA_DMATxOnlyAbortCallback,"ax",%progbits
 1982              		.align	1
 1983              		.syntax unified
 1984              		.thumb
 1985              		.thumb_func
 1986              		.fpu softvfp
 1988              	IRDA_DMATxOnlyAbortCallback:
 1989              		@ args = 0, pretend = 0, frame = 0
 1990              		@ frame_needed = 0, uses_anonymous_args = 0
 1991 0000 08B5     		push	{r3, lr}
 1992 0002 406A     		ldr	r0, [r0, #36]
 1993 0004 0023     		movs	r3, #0
 1994 0006 4384     		strh	r3, [r0, #34]	@ movhi
 1995 0008 2023     		movs	r3, #32
 1996 000a 80F83530 		strb	r3, [r0, #53]
 1997 000e FFF7FEFF 		bl	HAL_IRDA_AbortTransmitCpltCallback
 1998 0012 08BD     		pop	{r3, pc}
 2000              		.section	.text.HAL_IRDA_AbortReceiveCpltCallback,"ax",%progbits
 2001              		.align	1
 2002              		.weak	HAL_IRDA_AbortReceiveCpltCallback
 2003              		.syntax unified
 2004              		.thumb
 2005              		.thumb_func
 2006              		.fpu softvfp
 2008              	HAL_IRDA_AbortReceiveCpltCallback:
 2009              		@ args = 0, pretend = 0, frame = 0
 2010              		@ frame_needed = 0, uses_anonymous_args = 0
 2011              		@ link register save eliminated.
 2012 0000 7047     		bx	lr
 2014              		.section	.text.HAL_IRDA_AbortReceive_IT,"ax",%progbits
 2015              		.align	1
 2016              		.global	HAL_IRDA_AbortReceive_IT
 2017              		.syntax unified
 2018              		.thumb
 2019              		.thumb_func
 2020              		.fpu softvfp
 2022              	HAL_IRDA_AbortReceive_IT:
 2023              		@ args = 0, pretend = 0, frame = 0
 2024              		@ frame_needed = 0, uses_anonymous_args = 0
 2025 0000 10B5     		push	{r4, lr}
ARM GAS  /tmp/ccj5uGeq.s 			page 35


 2026 0002 0446     		mov	r4, r0
 2027 0004 0268     		ldr	r2, [r0]
 2028 0006 D368     		ldr	r3, [r2, #12]
 2029 0008 23F49073 		bic	r3, r3, #288
 2030 000c D360     		str	r3, [r2, #12]
 2031 000e 0268     		ldr	r2, [r0]
 2032 0010 5369     		ldr	r3, [r2, #20]
 2033 0012 23F00103 		bic	r3, r3, #1
 2034 0016 5361     		str	r3, [r2, #20]
 2035 0018 0368     		ldr	r3, [r0]
 2036 001a 5A69     		ldr	r2, [r3, #20]
 2037 001c 12F0400F 		tst	r2, #64
 2038 0020 19D0     		beq	.L255
 2039 0022 5A69     		ldr	r2, [r3, #20]
 2040 0024 22F04002 		bic	r2, r2, #64
 2041 0028 5A61     		str	r2, [r3, #20]
 2042 002a 036B     		ldr	r3, [r0, #48]
 2043 002c 5BB1     		cbz	r3, .L256
 2044 002e 0E4A     		ldr	r2, .L260
 2045 0030 5A63     		str	r2, [r3, #52]
 2046 0032 006B     		ldr	r0, [r0, #48]
 2047 0034 FFF7FEFF 		bl	HAL_DMA_Abort_IT
 2048 0038 08B9     		cbnz	r0, .L259
 2049              	.L257:
 2050 003a 0020     		movs	r0, #0
 2051 003c 10BD     		pop	{r4, pc}
 2052              	.L259:
 2053 003e 206B     		ldr	r0, [r4, #48]
 2054 0040 436B     		ldr	r3, [r0, #52]
 2055 0042 9847     		blx	r3
 2056 0044 F9E7     		b	.L257
 2057              	.L256:
 2058 0046 0023     		movs	r3, #0
 2059 0048 4385     		strh	r3, [r0, #42]	@ movhi
 2060 004a 2023     		movs	r3, #32
 2061 004c 80F83630 		strb	r3, [r0, #54]
 2062 0050 FFF7FEFF 		bl	HAL_IRDA_AbortReceiveCpltCallback
 2063 0054 F1E7     		b	.L257
 2064              	.L255:
 2065 0056 0023     		movs	r3, #0
 2066 0058 4385     		strh	r3, [r0, #42]	@ movhi
 2067 005a 2023     		movs	r3, #32
 2068 005c 80F83630 		strb	r3, [r0, #54]
 2069 0060 FFF7FEFF 		bl	HAL_IRDA_AbortReceiveCpltCallback
 2070 0064 E9E7     		b	.L257
 2071              	.L261:
 2072 0066 00BF     		.align	2
 2073              	.L260:
 2074 0068 00000000 		.word	IRDA_DMARxOnlyAbortCallback
 2076              		.section	.text.IRDA_DMARxOnlyAbortCallback,"ax",%progbits
 2077              		.align	1
 2078              		.syntax unified
 2079              		.thumb
 2080              		.thumb_func
 2081              		.fpu softvfp
 2083              	IRDA_DMARxOnlyAbortCallback:
 2084              		@ args = 0, pretend = 0, frame = 0
ARM GAS  /tmp/ccj5uGeq.s 			page 36


 2085              		@ frame_needed = 0, uses_anonymous_args = 0
 2086 0000 08B5     		push	{r3, lr}
 2087 0002 406A     		ldr	r0, [r0, #36]
 2088 0004 0023     		movs	r3, #0
 2089 0006 4385     		strh	r3, [r0, #42]	@ movhi
 2090 0008 2023     		movs	r3, #32
 2091 000a 80F83630 		strb	r3, [r0, #54]
 2092 000e FFF7FEFF 		bl	HAL_IRDA_AbortReceiveCpltCallback
 2093 0012 08BD     		pop	{r3, pc}
 2095              		.section	.text.HAL_IRDA_GetState,"ax",%progbits
 2096              		.align	1
 2097              		.global	HAL_IRDA_GetState
 2098              		.syntax unified
 2099              		.thumb
 2100              		.thumb_func
 2101              		.fpu softvfp
 2103              	HAL_IRDA_GetState:
 2104              		@ args = 0, pretend = 0, frame = 0
 2105              		@ frame_needed = 0, uses_anonymous_args = 0
 2106              		@ link register save eliminated.
 2107 0000 90F83530 		ldrb	r3, [r0, #53]	@ zero_extendqisi2
 2108 0004 90F83600 		ldrb	r0, [r0, #54]	@ zero_extendqisi2
 2109 0008 1843     		orrs	r0, r0, r3
 2110 000a 7047     		bx	lr
 2112              		.section	.text.HAL_IRDA_GetError,"ax",%progbits
 2113              		.align	1
 2114              		.global	HAL_IRDA_GetError
 2115              		.syntax unified
 2116              		.thumb
 2117              		.thumb_func
 2118              		.fpu softvfp
 2120              	HAL_IRDA_GetError:
 2121              		@ args = 0, pretend = 0, frame = 0
 2122              		@ frame_needed = 0, uses_anonymous_args = 0
 2123              		@ link register save eliminated.
 2124 0000 806B     		ldr	r0, [r0, #56]
 2125 0002 7047     		bx	lr
 2127              		.ident	"GCC: (15:6.3.1+svn253039-1build1) 6.3.1 20170620"
ARM GAS  /tmp/ccj5uGeq.s 			page 37


DEFINED SYMBOLS
                            *ABS*:0000000000000000 stm32f1xx_hal_irda.c
     /tmp/ccj5uGeq.s:13     .text.IRDA_EndTxTransfer:0000000000000000 $t
     /tmp/ccj5uGeq.s:19     .text.IRDA_EndTxTransfer:0000000000000000 IRDA_EndTxTransfer
     /tmp/ccj5uGeq.s:32     .text.IRDA_EndRxTransfer:0000000000000000 $t
     /tmp/ccj5uGeq.s:38     .text.IRDA_EndRxTransfer:0000000000000000 IRDA_EndRxTransfer
     /tmp/ccj5uGeq.s:55     .text.IRDA_Transmit_IT:0000000000000000 $t
     /tmp/ccj5uGeq.s:61     .text.IRDA_Transmit_IT:0000000000000000 IRDA_Transmit_IT
     /tmp/ccj5uGeq.s:120    .text.IRDA_SetConfig:0000000000000000 $t
     /tmp/ccj5uGeq.s:126    .text.IRDA_SetConfig:0000000000000000 IRDA_SetConfig
     /tmp/ccj5uGeq.s:209    .text.IRDA_SetConfig:00000000000000c8 $d
     /tmp/ccj5uGeq.s:213    .text.IRDA_WaitOnFlagUntilTimeout:0000000000000000 $t
     /tmp/ccj5uGeq.s:219    .text.IRDA_WaitOnFlagUntilTimeout:0000000000000000 IRDA_WaitOnFlagUntilTimeout
     /tmp/ccj5uGeq.s:265    .text.HAL_IRDA_MspInit:0000000000000000 $t
     /tmp/ccj5uGeq.s:272    .text.HAL_IRDA_MspInit:0000000000000000 HAL_IRDA_MspInit
     /tmp/ccj5uGeq.s:279    .text.HAL_IRDA_Init:0000000000000000 $t
     /tmp/ccj5uGeq.s:286    .text.HAL_IRDA_Init:0000000000000000 HAL_IRDA_Init
     /tmp/ccj5uGeq.s:348    .text.HAL_IRDA_MspDeInit:0000000000000000 $t
     /tmp/ccj5uGeq.s:355    .text.HAL_IRDA_MspDeInit:0000000000000000 HAL_IRDA_MspDeInit
     /tmp/ccj5uGeq.s:362    .text.HAL_IRDA_DeInit:0000000000000000 $t
     /tmp/ccj5uGeq.s:369    .text.HAL_IRDA_DeInit:0000000000000000 HAL_IRDA_DeInit
     /tmp/ccj5uGeq.s:393    .text.HAL_IRDA_Transmit:0000000000000000 $t
     /tmp/ccj5uGeq.s:400    .text.HAL_IRDA_Transmit:0000000000000000 HAL_IRDA_Transmit
     /tmp/ccj5uGeq.s:515    .text.HAL_IRDA_Receive:0000000000000000 $t
     /tmp/ccj5uGeq.s:522    .text.HAL_IRDA_Receive:0000000000000000 HAL_IRDA_Receive
     /tmp/ccj5uGeq.s:637    .text.HAL_IRDA_Transmit_IT:0000000000000000 $t
     /tmp/ccj5uGeq.s:644    .text.HAL_IRDA_Transmit_IT:0000000000000000 HAL_IRDA_Transmit_IT
     /tmp/ccj5uGeq.s:685    .text.HAL_IRDA_Receive_IT:0000000000000000 $t
     /tmp/ccj5uGeq.s:692    .text.HAL_IRDA_Receive_IT:0000000000000000 HAL_IRDA_Receive_IT
     /tmp/ccj5uGeq.s:737    .text.HAL_IRDA_Transmit_DMA:0000000000000000 $t
     /tmp/ccj5uGeq.s:744    .text.HAL_IRDA_Transmit_DMA:0000000000000000 HAL_IRDA_Transmit_DMA
     /tmp/ccj5uGeq.s:810    .text.HAL_IRDA_Transmit_DMA:0000000000000080 $d
     /tmp/ccj5uGeq.s:1252   .text.IRDA_DMATransmitCplt:0000000000000000 IRDA_DMATransmitCplt
     /tmp/ccj5uGeq.s:1323   .text.IRDA_DMATransmitHalfCplt:0000000000000000 IRDA_DMATransmitHalfCplt
     /tmp/ccj5uGeq.s:1514   .text.IRDA_DMAError:0000000000000000 IRDA_DMAError
     /tmp/ccj5uGeq.s:815    .text.HAL_IRDA_Receive_DMA:0000000000000000 $t
     /tmp/ccj5uGeq.s:822    .text.HAL_IRDA_Receive_DMA:0000000000000000 HAL_IRDA_Receive_DMA
     /tmp/ccj5uGeq.s:903    .text.HAL_IRDA_Receive_DMA:000000000000009c $d
     /tmp/ccj5uGeq.s:1352   .text.IRDA_DMAReceiveCplt:0000000000000000 IRDA_DMAReceiveCplt
     /tmp/ccj5uGeq.s:1485   .text.IRDA_DMAReceiveHalfCplt:0000000000000000 IRDA_DMAReceiveHalfCplt
     /tmp/ccj5uGeq.s:908    .text.HAL_IRDA_DMAPause:0000000000000000 $t
     /tmp/ccj5uGeq.s:915    .text.HAL_IRDA_DMAPause:0000000000000000 HAL_IRDA_DMAPause
     /tmp/ccj5uGeq.s:971    .text.HAL_IRDA_DMAResume:0000000000000000 $t
     /tmp/ccj5uGeq.s:978    .text.HAL_IRDA_DMAResume:0000000000000000 HAL_IRDA_DMAResume
     /tmp/ccj5uGeq.s:1038   .text.HAL_IRDA_DMAStop:0000000000000000 $t
     /tmp/ccj5uGeq.s:1045   .text.HAL_IRDA_DMAStop:0000000000000000 HAL_IRDA_DMAStop
     /tmp/ccj5uGeq.s:1096   .text.HAL_IRDA_Abort:0000000000000000 $t
     /tmp/ccj5uGeq.s:1103   .text.HAL_IRDA_Abort:0000000000000000 HAL_IRDA_Abort
     /tmp/ccj5uGeq.s:1154   .text.HAL_IRDA_AbortTransmit:0000000000000000 $t
     /tmp/ccj5uGeq.s:1161   .text.HAL_IRDA_AbortTransmit:0000000000000000 HAL_IRDA_AbortTransmit
     /tmp/ccj5uGeq.s:1191   .text.HAL_IRDA_AbortReceive:0000000000000000 $t
     /tmp/ccj5uGeq.s:1198   .text.HAL_IRDA_AbortReceive:0000000000000000 HAL_IRDA_AbortReceive
     /tmp/ccj5uGeq.s:1232   .text.HAL_IRDA_TxCpltCallback:0000000000000000 $t
     /tmp/ccj5uGeq.s:1239   .text.HAL_IRDA_TxCpltCallback:0000000000000000 HAL_IRDA_TxCpltCallback
     /tmp/ccj5uGeq.s:1246   .text.IRDA_DMATransmitCplt:0000000000000000 $t
     /tmp/ccj5uGeq.s:1278   .text.IRDA_EndTransmit_IT:0000000000000000 $t
     /tmp/ccj5uGeq.s:1284   .text.IRDA_EndTransmit_IT:0000000000000000 IRDA_EndTransmit_IT
ARM GAS  /tmp/ccj5uGeq.s 			page 38


     /tmp/ccj5uGeq.s:1303   .text.HAL_IRDA_TxHalfCpltCallback:0000000000000000 $t
     /tmp/ccj5uGeq.s:1310   .text.HAL_IRDA_TxHalfCpltCallback:0000000000000000 HAL_IRDA_TxHalfCpltCallback
     /tmp/ccj5uGeq.s:1317   .text.IRDA_DMATransmitHalfCplt:0000000000000000 $t
     /tmp/ccj5uGeq.s:1332   .text.HAL_IRDA_RxCpltCallback:0000000000000000 $t
     /tmp/ccj5uGeq.s:1339   .text.HAL_IRDA_RxCpltCallback:0000000000000000 HAL_IRDA_RxCpltCallback
     /tmp/ccj5uGeq.s:1346   .text.IRDA_DMAReceiveCplt:0000000000000000 $t
     /tmp/ccj5uGeq.s:1383   .text.IRDA_Receive_IT:0000000000000000 $t
     /tmp/ccj5uGeq.s:1389   .text.IRDA_Receive_IT:0000000000000000 IRDA_Receive_IT
     /tmp/ccj5uGeq.s:1465   .text.HAL_IRDA_RxHalfCpltCallback:0000000000000000 $t
     /tmp/ccj5uGeq.s:1472   .text.HAL_IRDA_RxHalfCpltCallback:0000000000000000 HAL_IRDA_RxHalfCpltCallback
     /tmp/ccj5uGeq.s:1479   .text.IRDA_DMAReceiveHalfCplt:0000000000000000 $t
     /tmp/ccj5uGeq.s:1494   .text.HAL_IRDA_ErrorCallback:0000000000000000 $t
     /tmp/ccj5uGeq.s:1501   .text.HAL_IRDA_ErrorCallback:0000000000000000 HAL_IRDA_ErrorCallback
     /tmp/ccj5uGeq.s:1508   .text.IRDA_DMAError:0000000000000000 $t
     /tmp/ccj5uGeq.s:1559   .text.HAL_IRDA_IRQHandler:0000000000000000 $t
     /tmp/ccj5uGeq.s:1566   .text.HAL_IRDA_IRQHandler:0000000000000000 HAL_IRDA_IRQHandler
     /tmp/ccj5uGeq.s:1699   .text.HAL_IRDA_IRQHandler:000000000000011c $d
     /tmp/ccj5uGeq.s:1708   .text.IRDA_DMAAbortOnError:0000000000000000 IRDA_DMAAbortOnError
     /tmp/ccj5uGeq.s:1702   .text.IRDA_DMAAbortOnError:0000000000000000 $t
     /tmp/ccj5uGeq.s:1720   .text.HAL_IRDA_AbortCpltCallback:0000000000000000 $t
     /tmp/ccj5uGeq.s:1727   .text.HAL_IRDA_AbortCpltCallback:0000000000000000 HAL_IRDA_AbortCpltCallback
     /tmp/ccj5uGeq.s:1734   .text.HAL_IRDA_Abort_IT:0000000000000000 $t
     /tmp/ccj5uGeq.s:1741   .text.HAL_IRDA_Abort_IT:0000000000000000 HAL_IRDA_Abort_IT
     /tmp/ccj5uGeq.s:1842   .text.HAL_IRDA_Abort_IT:00000000000000c0 $d
     /tmp/ccj5uGeq.s:1884   .text.IRDA_DMATxAbortCallback:0000000000000000 IRDA_DMATxAbortCallback
     /tmp/ccj5uGeq.s:1852   .text.IRDA_DMARxAbortCallback:0000000000000000 IRDA_DMARxAbortCallback
     /tmp/ccj5uGeq.s:1846   .text.IRDA_DMARxAbortCallback:0000000000000000 $t
     /tmp/ccj5uGeq.s:1878   .text.IRDA_DMATxAbortCallback:0000000000000000 $t
     /tmp/ccj5uGeq.s:1910   .text.HAL_IRDA_AbortTransmitCpltCallback:0000000000000000 $t
     /tmp/ccj5uGeq.s:1917   .text.HAL_IRDA_AbortTransmitCpltCallback:0000000000000000 HAL_IRDA_AbortTransmitCpltCallback
     /tmp/ccj5uGeq.s:1924   .text.HAL_IRDA_AbortTransmit_IT:0000000000000000 $t
     /tmp/ccj5uGeq.s:1931   .text.HAL_IRDA_AbortTransmit_IT:0000000000000000 HAL_IRDA_AbortTransmit_IT
     /tmp/ccj5uGeq.s:1979   .text.HAL_IRDA_AbortTransmit_IT:000000000000005c $d
     /tmp/ccj5uGeq.s:1988   .text.IRDA_DMATxOnlyAbortCallback:0000000000000000 IRDA_DMATxOnlyAbortCallback
     /tmp/ccj5uGeq.s:1982   .text.IRDA_DMATxOnlyAbortCallback:0000000000000000 $t
     /tmp/ccj5uGeq.s:2001   .text.HAL_IRDA_AbortReceiveCpltCallback:0000000000000000 $t
     /tmp/ccj5uGeq.s:2008   .text.HAL_IRDA_AbortReceiveCpltCallback:0000000000000000 HAL_IRDA_AbortReceiveCpltCallback
     /tmp/ccj5uGeq.s:2015   .text.HAL_IRDA_AbortReceive_IT:0000000000000000 $t
     /tmp/ccj5uGeq.s:2022   .text.HAL_IRDA_AbortReceive_IT:0000000000000000 HAL_IRDA_AbortReceive_IT
     /tmp/ccj5uGeq.s:2074   .text.HAL_IRDA_AbortReceive_IT:0000000000000068 $d
     /tmp/ccj5uGeq.s:2083   .text.IRDA_DMARxOnlyAbortCallback:0000000000000000 IRDA_DMARxOnlyAbortCallback
     /tmp/ccj5uGeq.s:2077   .text.IRDA_DMARxOnlyAbortCallback:0000000000000000 $t
     /tmp/ccj5uGeq.s:2096   .text.HAL_IRDA_GetState:0000000000000000 $t
     /tmp/ccj5uGeq.s:2103   .text.HAL_IRDA_GetState:0000000000000000 HAL_IRDA_GetState
     /tmp/ccj5uGeq.s:2113   .text.HAL_IRDA_GetError:0000000000000000 $t
     /tmp/ccj5uGeq.s:2120   .text.HAL_IRDA_GetError:0000000000000000 HAL_IRDA_GetError

UNDEFINED SYMBOLS
HAL_RCC_GetPCLK1Freq
HAL_RCC_GetPCLK2Freq
HAL_GetTick
HAL_DMA_Start_IT
HAL_DMA_Abort
HAL_DMA_Abort_IT
