ARM GAS  /tmp/ccX58Gwp.s 			page 1


   1              		.cpu cortex-m3
   2              		.eabi_attribute 20, 1
   3              		.eabi_attribute 21, 1
   4              		.eabi_attribute 23, 3
   5              		.eabi_attribute 24, 1
   6              		.eabi_attribute 25, 1
   7              		.eabi_attribute 26, 1
   8              		.eabi_attribute 30, 1
   9              		.eabi_attribute 34, 1
  10              		.eabi_attribute 18, 4
  11              		.file	"stm32f1xx_hal_wwdg.c"
  12              		.section	.text.HAL_WWDG_MspInit,"ax",%progbits
  13              		.align	1
  14              		.weak	HAL_WWDG_MspInit
  15              		.syntax unified
  16              		.thumb
  17              		.thumb_func
  18              		.fpu softvfp
  20              	HAL_WWDG_MspInit:
  21              		@ args = 0, pretend = 0, frame = 0
  22              		@ frame_needed = 0, uses_anonymous_args = 0
  23              		@ link register save eliminated.
  24 0000 7047     		bx	lr
  26              		.section	.text.HAL_WWDG_Init,"ax",%progbits
  27              		.align	1
  28              		.global	HAL_WWDG_Init
  29              		.syntax unified
  30              		.thumb
  31              		.thumb_func
  32              		.fpu softvfp
  34              	HAL_WWDG_Init:
  35              		@ args = 0, pretend = 0, frame = 0
  36              		@ frame_needed = 0, uses_anonymous_args = 0
  37 0000 88B1     		cbz	r0, .L4
  38 0002 10B5     		push	{r4, lr}
  39 0004 0446     		mov	r4, r0
  40 0006 FFF7FEFF 		bl	HAL_WWDG_MspInit
  41 000a 2268     		ldr	r2, [r4]
  42 000c E368     		ldr	r3, [r4, #12]
  43 000e 43F08003 		orr	r3, r3, #128
  44 0012 1360     		str	r3, [r2]
  45 0014 2268     		ldr	r2, [r4]
  46 0016 2369     		ldr	r3, [r4, #16]
  47 0018 6168     		ldr	r1, [r4, #4]
  48 001a 0B43     		orrs	r3, r3, r1
  49 001c A168     		ldr	r1, [r4, #8]
  50 001e 0B43     		orrs	r3, r3, r1
  51 0020 5360     		str	r3, [r2, #4]
  52 0022 0020     		movs	r0, #0
  53 0024 10BD     		pop	{r4, pc}
  54              	.L4:
  55 0026 0120     		movs	r0, #1
  56 0028 7047     		bx	lr
  58              		.section	.text.HAL_WWDG_Refresh,"ax",%progbits
  59              		.align	1
  60              		.global	HAL_WWDG_Refresh
  61              		.syntax unified
ARM GAS  /tmp/ccX58Gwp.s 			page 2


  62              		.thumb
  63              		.thumb_func
  64              		.fpu softvfp
  66              	HAL_WWDG_Refresh:
  67              		@ args = 0, pretend = 0, frame = 0
  68              		@ frame_needed = 0, uses_anonymous_args = 0
  69              		@ link register save eliminated.
  70 0000 0368     		ldr	r3, [r0]
  71 0002 C268     		ldr	r2, [r0, #12]
  72 0004 1A60     		str	r2, [r3]
  73 0006 0020     		movs	r0, #0
  74 0008 7047     		bx	lr
  76              		.section	.text.HAL_WWDG_EarlyWakeupCallback,"ax",%progbits
  77              		.align	1
  78              		.weak	HAL_WWDG_EarlyWakeupCallback
  79              		.syntax unified
  80              		.thumb
  81              		.thumb_func
  82              		.fpu softvfp
  84              	HAL_WWDG_EarlyWakeupCallback:
  85              		@ args = 0, pretend = 0, frame = 0
  86              		@ frame_needed = 0, uses_anonymous_args = 0
  87              		@ link register save eliminated.
  88 0000 7047     		bx	lr
  90              		.section	.text.HAL_WWDG_IRQHandler,"ax",%progbits
  91              		.align	1
  92              		.global	HAL_WWDG_IRQHandler
  93              		.syntax unified
  94              		.thumb
  95              		.thumb_func
  96              		.fpu softvfp
  98              	HAL_WWDG_IRQHandler:
  99              		@ args = 0, pretend = 0, frame = 0
 100              		@ frame_needed = 0, uses_anonymous_args = 0
 101 0000 08B5     		push	{r3, lr}
 102 0002 0368     		ldr	r3, [r0]
 103 0004 5A68     		ldr	r2, [r3, #4]
 104 0006 12F4007F 		tst	r2, #512
 105 000a 03D0     		beq	.L11
 106 000c 9A68     		ldr	r2, [r3, #8]
 107 000e 12F0010F 		tst	r2, #1
 108 0012 00D1     		bne	.L14
 109              	.L11:
 110 0014 08BD     		pop	{r3, pc}
 111              	.L14:
 112 0016 6FF00102 		mvn	r2, #1
 113 001a 9A60     		str	r2, [r3, #8]
 114 001c FFF7FEFF 		bl	HAL_WWDG_EarlyWakeupCallback
 115 0020 F8E7     		b	.L11
 117              		.ident	"GCC: (15:6.3.1+svn253039-1build1) 6.3.1 20170620"
ARM GAS  /tmp/ccX58Gwp.s 			page 3

