ARM GAS  /tmp/ccD9AYux.s 			page 1


   1              		.cpu cortex-m3
   2              		.eabi_attribute 20, 1	@ Tag_ABI_FP_denormal
   3              		.eabi_attribute 21, 1	@ Tag_ABI_FP_exceptions
   4              		.eabi_attribute 23, 3	@ Tag_ABI_FP_number_model
   5              		.eabi_attribute 24, 1	@ Tag_ABI_align8_needed
   6              		.eabi_attribute 25, 1	@ Tag_ABI_align8_preserved
   7              		.eabi_attribute 26, 1	@ Tag_ABI_enum_size
   8              		.eabi_attribute 30, 4	@ Tag_ABI_optimization_goals
   9              		.eabi_attribute 34, 1	@ Tag_CPU_unaligned_access
  10              		.eabi_attribute 18, 4	@ Tag_ABI_PCS_wchar_t
  11              		.file	"stm32f1xx_hal_tim_ex.c"
  12              	@ GNU C11 (15:6.3.1+svn253039-1build1) version 6.3.1 20170620 (arm-none-eabi)
  13              	@	compiled by GNU C version 7.2.0, GMP version 6.1.2, MPFR version 4.0.1-rc1, MPC version 1.1.0, is
  14              	@ warning: MPFR header version 4.0.1-rc1 differs from library version 4.0.1.
  15              	@ GGC heuristics: --param ggc-min-expand=100 --param ggc-min-heapsize=131072
  16              	@ options passed:  -I ./inc -I ./inc/Legacy -I ../cmsisstm32f1xx/inc
  17              	@ -I ../cmsiscore/inc -imultilib thumb/v7-m -D__USES_INITFINI__
  18              	@ -D STM32F103x6 -D RUN_FROM_FLASH=1 src/stm32f1xx_hal_tim_ex.c
  19              	@ -mcpu=cortex-m3 -mthumb -auxbase-strip bin/stm32f1xx_hal_tim_ex.o -g
  20              	@ -gdwarf-2 -Os -Wall -fomit-frame-pointer -fverbose-asm
  21              	@ options enabled:  -faggressive-loop-optimizations -falign-jumps
  22              	@ -falign-labels -falign-loops -fauto-inc-dec -fbranch-count-reg
  23              	@ -fcaller-saves -fchkp-check-incomplete-type -fchkp-check-read
  24              	@ -fchkp-check-write -fchkp-instrument-calls -fchkp-narrow-bounds
  25              	@ -fchkp-optimize -fchkp-store-bounds -fchkp-use-static-bounds
  26              	@ -fchkp-use-static-const-bounds -fchkp-use-wrappers
  27              	@ -fcombine-stack-adjustments -fcommon -fcompare-elim -fcprop-registers
  28              	@ -fcrossjumping -fcse-follow-jumps -fdefer-pop
  29              	@ -fdelete-null-pointer-checks -fdevirtualize -fdevirtualize-speculatively
  30              	@ -fdwarf2-cfi-asm -fearly-inlining -feliminate-unused-debug-types
  31              	@ -fexpensive-optimizations -fforward-propagate -ffunction-cse -fgcse
  32              	@ -fgcse-lm -fgnu-runtime -fgnu-unique -fguess-branch-probability
  33              	@ -fhoist-adjacent-loads -fident -fif-conversion -fif-conversion2
  34              	@ -findirect-inlining -finline -finline-atomics -finline-functions
  35              	@ -finline-functions-called-once -finline-small-functions -fipa-cp
  36              	@ -fipa-cp-alignment -fipa-icf -fipa-icf-functions -fipa-icf-variables
  37              	@ -fipa-profile -fipa-pure-const -fipa-ra -fipa-reference -fipa-sra
  38              	@ -fira-hoist-pressure -fira-share-save-slots -fira-share-spill-slots
  39              	@ -fisolate-erroneous-paths-dereference -fivopts -fkeep-static-consts
  40              	@ -fleading-underscore -flifetime-dse -flra-remat -flto-odr-type-merging
  41              	@ -fmath-errno -fmerge-constants -fmerge-debug-strings
  42              	@ -fmove-loop-invariants -fomit-frame-pointer -foptimize-sibling-calls
  43              	@ -fpartial-inlining -fpeephole -fpeephole2 -fplt -fprefetch-loop-arrays
  44              	@ -freg-struct-return -freorder-blocks -freorder-functions
  45              	@ -frerun-cse-after-loop -fsched-critical-path-heuristic
  46              	@ -fsched-dep-count-heuristic -fsched-group-heuristic -fsched-interblock
  47              	@ -fsched-last-insn-heuristic -fsched-pressure -fsched-rank-heuristic
  48              	@ -fsched-spec -fsched-spec-insn-heuristic -fsched-stalled-insns-dep
  49              	@ -fschedule-insns2 -fsection-anchors -fsemantic-interposition
  50              	@ -fshow-column -fsigned-zeros -fsplit-ivs-in-unroller -fsplit-wide-types
  51              	@ -fssa-backprop -fssa-phiopt -fstdarg-opt -fstrict-aliasing
  52              	@ -fstrict-overflow -fstrict-volatile-bitfields -fsync-libcalls
  53              	@ -fthread-jumps -ftoplevel-reorder -ftrapping-math -ftree-bit-ccp
  54              	@ -ftree-builtin-call-dce -ftree-ccp -ftree-ch -ftree-coalesce-vars
  55              	@ -ftree-copy-prop -ftree-cselim -ftree-dce -ftree-dominator-opts
  56              	@ -ftree-dse -ftree-forwprop -ftree-fre -ftree-loop-if-convert
  57              	@ -ftree-loop-im -ftree-loop-ivcanon -ftree-loop-optimize
ARM GAS  /tmp/ccD9AYux.s 			page 2


  58              	@ -ftree-parallelize-loops= -ftree-phiprop -ftree-pre -ftree-pta
  59              	@ -ftree-reassoc -ftree-scev-cprop -ftree-sink -ftree-slsr -ftree-sra
  60              	@ -ftree-switch-conversion -ftree-tail-merge -ftree-ter -ftree-vrp
  61              	@ -funit-at-a-time -fvar-tracking -fvar-tracking-assignments -fverbose-asm
  62              	@ -fzero-initialized-in-bss -masm-syntax-unified -mfix-cortex-m3-ldrd
  63              	@ -mlittle-endian -mpic-data-is-text-relative -msched-prolog -mthumb
  64              	@ -munaligned-access -mvectorize-with-neon-quad
  65              	
  66              		.text
  67              	.Ltext0:
  68              		.cfi_sections	.debug_frame
  69              		.align	1
  70              		.syntax unified
  71              		.thumb
  72              		.thumb_func
  73              		.fpu softvfp
  74              		.type	TIM_CCxNChannelCmd, %function
  75              	TIM_CCxNChannelCmd:
  76              	.LFB103:
  77              		.file 1 "src/stm32f1xx_hal_tim_ex.c"
   1:src/stm32f1xx_hal_tim_ex.c **** /**
   2:src/stm32f1xx_hal_tim_ex.c ****   ******************************************************************************
   3:src/stm32f1xx_hal_tim_ex.c ****   * @file    stm32f1xx_hal_tim_ex.c
   4:src/stm32f1xx_hal_tim_ex.c ****   * @author  MCD Application Team
   5:src/stm32f1xx_hal_tim_ex.c ****   * @brief   TIM HAL module driver.
   6:src/stm32f1xx_hal_tim_ex.c ****   *          This file provides firmware functions to manage the following
   7:src/stm32f1xx_hal_tim_ex.c ****   *          functionalities of the Timer Extended peripheral:
   8:src/stm32f1xx_hal_tim_ex.c ****   *           + Time Hall Sensor Interface Initialization
   9:src/stm32f1xx_hal_tim_ex.c ****   *           + Time Hall Sensor Interface Start
  10:src/stm32f1xx_hal_tim_ex.c ****   *           + Time Complementary signal break and dead time configuration
  11:src/stm32f1xx_hal_tim_ex.c ****   *           + Time Master and Slave synchronization configuration
  12:src/stm32f1xx_hal_tim_ex.c ****   *           + Timer remapping capabilities configuration
  13:src/stm32f1xx_hal_tim_ex.c ****   @verbatim
  14:src/stm32f1xx_hal_tim_ex.c ****   ==============================================================================
  15:src/stm32f1xx_hal_tim_ex.c ****                       ##### TIMER Extended features #####
  16:src/stm32f1xx_hal_tim_ex.c ****   ==============================================================================
  17:src/stm32f1xx_hal_tim_ex.c ****   [..]
  18:src/stm32f1xx_hal_tim_ex.c ****     The Timer Extended features include:
  19:src/stm32f1xx_hal_tim_ex.c ****     (#) Complementary outputs with programmable dead-time for :
  20:src/stm32f1xx_hal_tim_ex.c ****         (++) Output Compare
  21:src/stm32f1xx_hal_tim_ex.c ****         (++) PWM generation (Edge and Center-aligned Mode)
  22:src/stm32f1xx_hal_tim_ex.c ****         (++) One-pulse mode output
  23:src/stm32f1xx_hal_tim_ex.c ****     (#) Synchronization circuit to control the timer with external signals and to
  24:src/stm32f1xx_hal_tim_ex.c ****         interconnect several timers together.
  25:src/stm32f1xx_hal_tim_ex.c ****     (#) Break input to put the timer output signals in reset state or in a known state.
  26:src/stm32f1xx_hal_tim_ex.c ****     (#) Supports incremental (quadrature) encoder and hall-sensor circuitry for
  27:src/stm32f1xx_hal_tim_ex.c ****         positioning purposes
  28:src/stm32f1xx_hal_tim_ex.c **** 
  29:src/stm32f1xx_hal_tim_ex.c ****             ##### How to use this driver #####
  30:src/stm32f1xx_hal_tim_ex.c ****   ==============================================================================
  31:src/stm32f1xx_hal_tim_ex.c ****     [..]
  32:src/stm32f1xx_hal_tim_ex.c ****      (#) Initialize the TIM low level resources by implementing the following functions
  33:src/stm32f1xx_hal_tim_ex.c ****          depending on the selected feature:
  34:src/stm32f1xx_hal_tim_ex.c ****            (++) Hall Sensor output : HAL_TIMEx_HallSensor_MspInit()
  35:src/stm32f1xx_hal_tim_ex.c **** 
  36:src/stm32f1xx_hal_tim_ex.c ****      (#) Initialize the TIM low level resources :
  37:src/stm32f1xx_hal_tim_ex.c ****         (##) Enable the TIM interface clock using __HAL_RCC_TIMx_CLK_ENABLE();
ARM GAS  /tmp/ccD9AYux.s 			page 3


  38:src/stm32f1xx_hal_tim_ex.c ****         (##) TIM pins configuration
  39:src/stm32f1xx_hal_tim_ex.c ****             (+++) Enable the clock for the TIM GPIOs using the following function:
  40:src/stm32f1xx_hal_tim_ex.c ****               __HAL_RCC_GPIOx_CLK_ENABLE();
  41:src/stm32f1xx_hal_tim_ex.c ****             (+++) Configure these TIM pins in Alternate function mode using HAL_GPIO_Init();
  42:src/stm32f1xx_hal_tim_ex.c **** 
  43:src/stm32f1xx_hal_tim_ex.c ****      (#) The external Clock can be configured, if needed (the default clock is the
  44:src/stm32f1xx_hal_tim_ex.c ****          internal clock from the APBx), using the following function:
  45:src/stm32f1xx_hal_tim_ex.c ****          HAL_TIM_ConfigClockSource, the clock configuration should be done before
  46:src/stm32f1xx_hal_tim_ex.c ****          any start function.
  47:src/stm32f1xx_hal_tim_ex.c **** 
  48:src/stm32f1xx_hal_tim_ex.c ****      (#) Configure the TIM in the desired functioning mode using one of the
  49:src/stm32f1xx_hal_tim_ex.c ****          initialization function of this driver:
  50:src/stm32f1xx_hal_tim_ex.c ****           (++) HAL_TIMEx_HallSensor_Init() and HAL_TIMEx_ConfigCommutEvent(): to use the
  51:src/stm32f1xx_hal_tim_ex.c ****                Timer Hall Sensor Interface and the commutation event with the corresponding
  52:src/stm32f1xx_hal_tim_ex.c ****                Interrupt and DMA request if needed (Note that One Timer is used to interface
  53:src/stm32f1xx_hal_tim_ex.c ****                with the Hall sensor Interface and another Timer should be used to use
  54:src/stm32f1xx_hal_tim_ex.c ****                the commutation event).
  55:src/stm32f1xx_hal_tim_ex.c **** 
  56:src/stm32f1xx_hal_tim_ex.c ****      (#) Activate the TIM peripheral using one of the start functions:
  57:src/stm32f1xx_hal_tim_ex.c ****            (++) Complementary Output Compare : HAL_TIMEx_OCN_Start(), HAL_TIMEx_OCN_Start_DMA(), HA
  58:src/stm32f1xx_hal_tim_ex.c ****            (++) Complementary PWM generation : HAL_TIMEx_PWMN_Start(), HAL_TIMEx_PWMN_Start_DMA(), 
  59:src/stm32f1xx_hal_tim_ex.c ****            (++) Complementary One-pulse mode output : HAL_TIMEx_OnePulseN_Start(), HAL_TIMEx_OnePul
  60:src/stm32f1xx_hal_tim_ex.c ****            (++) Hall Sensor output : HAL_TIMEx_HallSensor_Start(), HAL_TIMEx_HallSensor_Start_DMA()
  61:src/stm32f1xx_hal_tim_ex.c **** 
  62:src/stm32f1xx_hal_tim_ex.c ****   @endverbatim
  63:src/stm32f1xx_hal_tim_ex.c ****   ******************************************************************************
  64:src/stm32f1xx_hal_tim_ex.c ****   * @attention
  65:src/stm32f1xx_hal_tim_ex.c ****   *
  66:src/stm32f1xx_hal_tim_ex.c ****   * <h2><center>&copy; Copyright (c) 2016 STMicroelectronics.
  67:src/stm32f1xx_hal_tim_ex.c ****   * All rights reserved.</center></h2>
  68:src/stm32f1xx_hal_tim_ex.c ****   *
  69:src/stm32f1xx_hal_tim_ex.c ****   * This software component is licensed by ST under BSD 3-Clause license,
  70:src/stm32f1xx_hal_tim_ex.c ****   * the "License"; You may not use this file except in compliance with the
  71:src/stm32f1xx_hal_tim_ex.c ****   * License. You may obtain a copy of the License at:
  72:src/stm32f1xx_hal_tim_ex.c ****   *                        opensource.org/licenses/BSD-3-Clause
  73:src/stm32f1xx_hal_tim_ex.c ****   *
  74:src/stm32f1xx_hal_tim_ex.c ****   ******************************************************************************
  75:src/stm32f1xx_hal_tim_ex.c ****   */
  76:src/stm32f1xx_hal_tim_ex.c **** 
  77:src/stm32f1xx_hal_tim_ex.c **** /* Includes ------------------------------------------------------------------*/
  78:src/stm32f1xx_hal_tim_ex.c **** #include "stm32f1xx_hal.h"
  79:src/stm32f1xx_hal_tim_ex.c **** 
  80:src/stm32f1xx_hal_tim_ex.c **** /** @addtogroup STM32F1xx_HAL_Driver
  81:src/stm32f1xx_hal_tim_ex.c ****   * @{
  82:src/stm32f1xx_hal_tim_ex.c ****   */
  83:src/stm32f1xx_hal_tim_ex.c **** 
  84:src/stm32f1xx_hal_tim_ex.c **** /** @defgroup TIMEx TIMEx
  85:src/stm32f1xx_hal_tim_ex.c ****   * @brief TIM Extended HAL module driver
  86:src/stm32f1xx_hal_tim_ex.c ****   * @{
  87:src/stm32f1xx_hal_tim_ex.c ****   */
  88:src/stm32f1xx_hal_tim_ex.c **** 
  89:src/stm32f1xx_hal_tim_ex.c **** #ifdef HAL_TIM_MODULE_ENABLED
  90:src/stm32f1xx_hal_tim_ex.c **** 
  91:src/stm32f1xx_hal_tim_ex.c **** /* Private typedef -----------------------------------------------------------*/
  92:src/stm32f1xx_hal_tim_ex.c **** /* Private define ------------------------------------------------------------*/
  93:src/stm32f1xx_hal_tim_ex.c **** /* Private macro -------------------------------------------------------------*/
  94:src/stm32f1xx_hal_tim_ex.c **** /* Private variables ---------------------------------------------------------*/
ARM GAS  /tmp/ccD9AYux.s 			page 4


  95:src/stm32f1xx_hal_tim_ex.c **** /* Private function prototypes -----------------------------------------------*/
  96:src/stm32f1xx_hal_tim_ex.c **** static void TIM_CCxNChannelCmd(TIM_TypeDef *TIMx, uint32_t Channel, uint32_t ChannelNState);
  97:src/stm32f1xx_hal_tim_ex.c **** 
  98:src/stm32f1xx_hal_tim_ex.c **** /* Exported functions --------------------------------------------------------*/
  99:src/stm32f1xx_hal_tim_ex.c **** /** @defgroup TIMEx_Exported_Functions TIM Extended Exported Functions
 100:src/stm32f1xx_hal_tim_ex.c ****   * @{
 101:src/stm32f1xx_hal_tim_ex.c ****   */
 102:src/stm32f1xx_hal_tim_ex.c **** 
 103:src/stm32f1xx_hal_tim_ex.c **** /** @defgroup TIMEx_Exported_Functions_Group1 Extended Timer Hall Sensor functions
 104:src/stm32f1xx_hal_tim_ex.c ****   * @brief    Timer Hall Sensor functions
 105:src/stm32f1xx_hal_tim_ex.c ****   *
 106:src/stm32f1xx_hal_tim_ex.c **** @verbatim
 107:src/stm32f1xx_hal_tim_ex.c ****   ==============================================================================
 108:src/stm32f1xx_hal_tim_ex.c ****                       ##### Timer Hall Sensor functions #####
 109:src/stm32f1xx_hal_tim_ex.c ****   ==============================================================================
 110:src/stm32f1xx_hal_tim_ex.c ****   [..]
 111:src/stm32f1xx_hal_tim_ex.c ****     This section provides functions allowing to:
 112:src/stm32f1xx_hal_tim_ex.c ****     (+) Initialize and configure TIM HAL Sensor.
 113:src/stm32f1xx_hal_tim_ex.c ****     (+) De-initialize TIM HAL Sensor.
 114:src/stm32f1xx_hal_tim_ex.c ****     (+) Start the Hall Sensor Interface.
 115:src/stm32f1xx_hal_tim_ex.c ****     (+) Stop the Hall Sensor Interface.
 116:src/stm32f1xx_hal_tim_ex.c ****     (+) Start the Hall Sensor Interface and enable interrupts.
 117:src/stm32f1xx_hal_tim_ex.c ****     (+) Stop the Hall Sensor Interface and disable interrupts.
 118:src/stm32f1xx_hal_tim_ex.c ****     (+) Start the Hall Sensor Interface and enable DMA transfers.
 119:src/stm32f1xx_hal_tim_ex.c ****     (+) Stop the Hall Sensor Interface and disable DMA transfers.
 120:src/stm32f1xx_hal_tim_ex.c **** 
 121:src/stm32f1xx_hal_tim_ex.c **** @endverbatim
 122:src/stm32f1xx_hal_tim_ex.c ****   * @{
 123:src/stm32f1xx_hal_tim_ex.c ****   */
 124:src/stm32f1xx_hal_tim_ex.c **** /**
 125:src/stm32f1xx_hal_tim_ex.c ****   * @brief  Initializes the TIM Hall Sensor Interface and initialize the associated handle.
 126:src/stm32f1xx_hal_tim_ex.c ****   * @param  htim TIM Hall Sensor Interface handle
 127:src/stm32f1xx_hal_tim_ex.c ****   * @param  sConfig TIM Hall Sensor configuration structure
 128:src/stm32f1xx_hal_tim_ex.c ****   * @retval HAL status
 129:src/stm32f1xx_hal_tim_ex.c ****   */
 130:src/stm32f1xx_hal_tim_ex.c **** HAL_StatusTypeDef HAL_TIMEx_HallSensor_Init(TIM_HandleTypeDef *htim, TIM_HallSensor_InitTypeDef *sC
 131:src/stm32f1xx_hal_tim_ex.c **** {
 132:src/stm32f1xx_hal_tim_ex.c ****   TIM_OC_InitTypeDef OC_Config;
 133:src/stm32f1xx_hal_tim_ex.c **** 
 134:src/stm32f1xx_hal_tim_ex.c ****   /* Check the TIM handle allocation */
 135:src/stm32f1xx_hal_tim_ex.c ****   if (htim == NULL)
 136:src/stm32f1xx_hal_tim_ex.c ****   {
 137:src/stm32f1xx_hal_tim_ex.c ****     return HAL_ERROR;
 138:src/stm32f1xx_hal_tim_ex.c ****   }
 139:src/stm32f1xx_hal_tim_ex.c **** 
 140:src/stm32f1xx_hal_tim_ex.c ****   /* Check the parameters */
 141:src/stm32f1xx_hal_tim_ex.c ****   assert_param(IS_TIM_HALL_SENSOR_INTERFACE_INSTANCE(htim->Instance));
 142:src/stm32f1xx_hal_tim_ex.c ****   assert_param(IS_TIM_COUNTER_MODE(htim->Init.CounterMode));
 143:src/stm32f1xx_hal_tim_ex.c ****   assert_param(IS_TIM_CLOCKDIVISION_DIV(htim->Init.ClockDivision));
 144:src/stm32f1xx_hal_tim_ex.c ****   assert_param(IS_TIM_AUTORELOAD_PRELOAD(htim->Init.AutoReloadPreload));
 145:src/stm32f1xx_hal_tim_ex.c ****   assert_param(IS_TIM_IC_POLARITY(sConfig->IC1Polarity));
 146:src/stm32f1xx_hal_tim_ex.c ****   assert_param(IS_TIM_IC_PRESCALER(sConfig->IC1Prescaler));
 147:src/stm32f1xx_hal_tim_ex.c ****   assert_param(IS_TIM_IC_FILTER(sConfig->IC1Filter));
 148:src/stm32f1xx_hal_tim_ex.c **** 
 149:src/stm32f1xx_hal_tim_ex.c ****   if (htim->State == HAL_TIM_STATE_RESET)
 150:src/stm32f1xx_hal_tim_ex.c ****   {
 151:src/stm32f1xx_hal_tim_ex.c ****     /* Allocate lock resource and initialize it */
ARM GAS  /tmp/ccD9AYux.s 			page 5


 152:src/stm32f1xx_hal_tim_ex.c ****     htim->Lock = HAL_UNLOCKED;
 153:src/stm32f1xx_hal_tim_ex.c **** 
 154:src/stm32f1xx_hal_tim_ex.c **** #if (USE_HAL_TIM_REGISTER_CALLBACKS == 1)
 155:src/stm32f1xx_hal_tim_ex.c ****     /* Reset interrupt callbacks to legacy week callbacks */
 156:src/stm32f1xx_hal_tim_ex.c ****     TIM_ResetCallback(htim);
 157:src/stm32f1xx_hal_tim_ex.c **** 
 158:src/stm32f1xx_hal_tim_ex.c ****     if (htim->HallSensor_MspInitCallback == NULL)
 159:src/stm32f1xx_hal_tim_ex.c ****     {
 160:src/stm32f1xx_hal_tim_ex.c ****       htim->HallSensor_MspInitCallback = HAL_TIMEx_HallSensor_MspInit;
 161:src/stm32f1xx_hal_tim_ex.c ****     }
 162:src/stm32f1xx_hal_tim_ex.c ****     /* Init the low level hardware : GPIO, CLOCK, NVIC */
 163:src/stm32f1xx_hal_tim_ex.c ****     htim->HallSensor_MspInitCallback(htim);
 164:src/stm32f1xx_hal_tim_ex.c **** #else
 165:src/stm32f1xx_hal_tim_ex.c ****     /* Init the low level hardware : GPIO, CLOCK, NVIC and DMA */
 166:src/stm32f1xx_hal_tim_ex.c ****     HAL_TIMEx_HallSensor_MspInit(htim);
 167:src/stm32f1xx_hal_tim_ex.c **** #endif /* USE_HAL_TIM_REGISTER_CALLBACKS */
 168:src/stm32f1xx_hal_tim_ex.c ****   }
 169:src/stm32f1xx_hal_tim_ex.c **** 
 170:src/stm32f1xx_hal_tim_ex.c ****   /* Set the TIM state */
 171:src/stm32f1xx_hal_tim_ex.c ****   htim->State = HAL_TIM_STATE_BUSY;
 172:src/stm32f1xx_hal_tim_ex.c **** 
 173:src/stm32f1xx_hal_tim_ex.c ****   /* Configure the Time base in the Encoder Mode */
 174:src/stm32f1xx_hal_tim_ex.c ****   TIM_Base_SetConfig(htim->Instance, &htim->Init);
 175:src/stm32f1xx_hal_tim_ex.c **** 
 176:src/stm32f1xx_hal_tim_ex.c ****   /* Configure the Channel 1 as Input Channel to interface with the three Outputs of the  Hall sens
 177:src/stm32f1xx_hal_tim_ex.c ****   TIM_TI1_SetConfig(htim->Instance, sConfig->IC1Polarity, TIM_ICSELECTION_TRC, sConfig->IC1Filter);
 178:src/stm32f1xx_hal_tim_ex.c **** 
 179:src/stm32f1xx_hal_tim_ex.c ****   /* Reset the IC1PSC Bits */
 180:src/stm32f1xx_hal_tim_ex.c ****   htim->Instance->CCMR1 &= ~TIM_CCMR1_IC1PSC;
 181:src/stm32f1xx_hal_tim_ex.c ****   /* Set the IC1PSC value */
 182:src/stm32f1xx_hal_tim_ex.c ****   htim->Instance->CCMR1 |= sConfig->IC1Prescaler;
 183:src/stm32f1xx_hal_tim_ex.c **** 
 184:src/stm32f1xx_hal_tim_ex.c ****   /* Enable the Hall sensor interface (XOR function of the three inputs) */
 185:src/stm32f1xx_hal_tim_ex.c ****   htim->Instance->CR2 |= TIM_CR2_TI1S;
 186:src/stm32f1xx_hal_tim_ex.c **** 
 187:src/stm32f1xx_hal_tim_ex.c ****   /* Select the TIM_TS_TI1F_ED signal as Input trigger for the TIM */
 188:src/stm32f1xx_hal_tim_ex.c ****   htim->Instance->SMCR &= ~TIM_SMCR_TS;
 189:src/stm32f1xx_hal_tim_ex.c ****   htim->Instance->SMCR |= TIM_TS_TI1F_ED;
 190:src/stm32f1xx_hal_tim_ex.c **** 
 191:src/stm32f1xx_hal_tim_ex.c ****   /* Use the TIM_TS_TI1F_ED signal to reset the TIM counter each edge detection */
 192:src/stm32f1xx_hal_tim_ex.c ****   htim->Instance->SMCR &= ~TIM_SMCR_SMS;
 193:src/stm32f1xx_hal_tim_ex.c ****   htim->Instance->SMCR |= TIM_SLAVEMODE_RESET;
 194:src/stm32f1xx_hal_tim_ex.c **** 
 195:src/stm32f1xx_hal_tim_ex.c ****   /* Program channel 2 in PWM 2 mode with the desired Commutation_Delay*/
 196:src/stm32f1xx_hal_tim_ex.c ****   OC_Config.OCFastMode = TIM_OCFAST_DISABLE;
 197:src/stm32f1xx_hal_tim_ex.c ****   OC_Config.OCIdleState = TIM_OCIDLESTATE_RESET;
 198:src/stm32f1xx_hal_tim_ex.c ****   OC_Config.OCMode = TIM_OCMODE_PWM2;
 199:src/stm32f1xx_hal_tim_ex.c ****   OC_Config.OCNIdleState = TIM_OCNIDLESTATE_RESET;
 200:src/stm32f1xx_hal_tim_ex.c ****   OC_Config.OCNPolarity = TIM_OCNPOLARITY_HIGH;
 201:src/stm32f1xx_hal_tim_ex.c ****   OC_Config.OCPolarity = TIM_OCPOLARITY_HIGH;
 202:src/stm32f1xx_hal_tim_ex.c ****   OC_Config.Pulse = sConfig->Commutation_Delay;
 203:src/stm32f1xx_hal_tim_ex.c **** 
 204:src/stm32f1xx_hal_tim_ex.c ****   TIM_OC2_SetConfig(htim->Instance, &OC_Config);
 205:src/stm32f1xx_hal_tim_ex.c **** 
 206:src/stm32f1xx_hal_tim_ex.c ****   /* Select OC2REF as trigger output on TRGO: write the MMS bits in the TIMx_CR2
 207:src/stm32f1xx_hal_tim_ex.c ****     register to 101 */
 208:src/stm32f1xx_hal_tim_ex.c ****   htim->Instance->CR2 &= ~TIM_CR2_MMS;
ARM GAS  /tmp/ccD9AYux.s 			page 6


 209:src/stm32f1xx_hal_tim_ex.c ****   htim->Instance->CR2 |= TIM_TRGO_OC2REF;
 210:src/stm32f1xx_hal_tim_ex.c **** 
 211:src/stm32f1xx_hal_tim_ex.c ****   /* Initialize the TIM state*/
 212:src/stm32f1xx_hal_tim_ex.c ****   htim->State = HAL_TIM_STATE_READY;
 213:src/stm32f1xx_hal_tim_ex.c **** 
 214:src/stm32f1xx_hal_tim_ex.c ****   return HAL_OK;
 215:src/stm32f1xx_hal_tim_ex.c **** }
 216:src/stm32f1xx_hal_tim_ex.c **** 
 217:src/stm32f1xx_hal_tim_ex.c **** /**
 218:src/stm32f1xx_hal_tim_ex.c ****   * @brief  DeInitializes the TIM Hall Sensor interface
 219:src/stm32f1xx_hal_tim_ex.c ****   * @param  htim TIM Hall Sensor Interface handle
 220:src/stm32f1xx_hal_tim_ex.c ****   * @retval HAL status
 221:src/stm32f1xx_hal_tim_ex.c ****   */
 222:src/stm32f1xx_hal_tim_ex.c **** HAL_StatusTypeDef HAL_TIMEx_HallSensor_DeInit(TIM_HandleTypeDef *htim)
 223:src/stm32f1xx_hal_tim_ex.c **** {
 224:src/stm32f1xx_hal_tim_ex.c ****   /* Check the parameters */
 225:src/stm32f1xx_hal_tim_ex.c ****   assert_param(IS_TIM_INSTANCE(htim->Instance));
 226:src/stm32f1xx_hal_tim_ex.c **** 
 227:src/stm32f1xx_hal_tim_ex.c ****   htim->State = HAL_TIM_STATE_BUSY;
 228:src/stm32f1xx_hal_tim_ex.c **** 
 229:src/stm32f1xx_hal_tim_ex.c ****   /* Disable the TIM Peripheral Clock */
 230:src/stm32f1xx_hal_tim_ex.c ****   __HAL_TIM_DISABLE(htim);
 231:src/stm32f1xx_hal_tim_ex.c **** 
 232:src/stm32f1xx_hal_tim_ex.c **** #if (USE_HAL_TIM_REGISTER_CALLBACKS == 1)
 233:src/stm32f1xx_hal_tim_ex.c ****   if (htim->HallSensor_MspDeInitCallback == NULL)
 234:src/stm32f1xx_hal_tim_ex.c ****   {
 235:src/stm32f1xx_hal_tim_ex.c ****     htim->HallSensor_MspDeInitCallback = HAL_TIMEx_HallSensor_MspDeInit;
 236:src/stm32f1xx_hal_tim_ex.c ****   }
 237:src/stm32f1xx_hal_tim_ex.c ****   /* DeInit the low level hardware */
 238:src/stm32f1xx_hal_tim_ex.c ****   htim->HallSensor_MspDeInitCallback(htim);
 239:src/stm32f1xx_hal_tim_ex.c **** #else
 240:src/stm32f1xx_hal_tim_ex.c ****   /* DeInit the low level hardware: GPIO, CLOCK, NVIC */
 241:src/stm32f1xx_hal_tim_ex.c ****   HAL_TIMEx_HallSensor_MspDeInit(htim);
 242:src/stm32f1xx_hal_tim_ex.c **** #endif /* USE_HAL_TIM_REGISTER_CALLBACKS */
 243:src/stm32f1xx_hal_tim_ex.c **** 
 244:src/stm32f1xx_hal_tim_ex.c ****   /* Change TIM state */
 245:src/stm32f1xx_hal_tim_ex.c ****   htim->State = HAL_TIM_STATE_RESET;
 246:src/stm32f1xx_hal_tim_ex.c **** 
 247:src/stm32f1xx_hal_tim_ex.c ****   /* Release Lock */
 248:src/stm32f1xx_hal_tim_ex.c ****   __HAL_UNLOCK(htim);
 249:src/stm32f1xx_hal_tim_ex.c **** 
 250:src/stm32f1xx_hal_tim_ex.c ****   return HAL_OK;
 251:src/stm32f1xx_hal_tim_ex.c **** }
 252:src/stm32f1xx_hal_tim_ex.c **** 
 253:src/stm32f1xx_hal_tim_ex.c **** /**
 254:src/stm32f1xx_hal_tim_ex.c ****   * @brief  Initializes the TIM Hall Sensor MSP.
 255:src/stm32f1xx_hal_tim_ex.c ****   * @param  htim TIM Hall Sensor Interface handle
 256:src/stm32f1xx_hal_tim_ex.c ****   * @retval None
 257:src/stm32f1xx_hal_tim_ex.c ****   */
 258:src/stm32f1xx_hal_tim_ex.c **** __weak void HAL_TIMEx_HallSensor_MspInit(TIM_HandleTypeDef *htim)
 259:src/stm32f1xx_hal_tim_ex.c **** {
 260:src/stm32f1xx_hal_tim_ex.c ****   /* Prevent unused argument(s) compilation warning */
 261:src/stm32f1xx_hal_tim_ex.c ****   UNUSED(htim);
 262:src/stm32f1xx_hal_tim_ex.c **** 
 263:src/stm32f1xx_hal_tim_ex.c ****   /* NOTE : This function should not be modified, when the callback is needed,
 264:src/stm32f1xx_hal_tim_ex.c ****             the HAL_TIMEx_HallSensor_MspInit could be implemented in the user file
 265:src/stm32f1xx_hal_tim_ex.c ****    */
ARM GAS  /tmp/ccD9AYux.s 			page 7


 266:src/stm32f1xx_hal_tim_ex.c **** }
 267:src/stm32f1xx_hal_tim_ex.c **** 
 268:src/stm32f1xx_hal_tim_ex.c **** /**
 269:src/stm32f1xx_hal_tim_ex.c ****   * @brief  DeInitializes TIM Hall Sensor MSP.
 270:src/stm32f1xx_hal_tim_ex.c ****   * @param  htim TIM Hall Sensor Interface handle
 271:src/stm32f1xx_hal_tim_ex.c ****   * @retval None
 272:src/stm32f1xx_hal_tim_ex.c ****   */
 273:src/stm32f1xx_hal_tim_ex.c **** __weak void HAL_TIMEx_HallSensor_MspDeInit(TIM_HandleTypeDef *htim)
 274:src/stm32f1xx_hal_tim_ex.c **** {
 275:src/stm32f1xx_hal_tim_ex.c ****   /* Prevent unused argument(s) compilation warning */
 276:src/stm32f1xx_hal_tim_ex.c ****   UNUSED(htim);
 277:src/stm32f1xx_hal_tim_ex.c **** 
 278:src/stm32f1xx_hal_tim_ex.c ****   /* NOTE : This function should not be modified, when the callback is needed,
 279:src/stm32f1xx_hal_tim_ex.c ****             the HAL_TIMEx_HallSensor_MspDeInit could be implemented in the user file
 280:src/stm32f1xx_hal_tim_ex.c ****    */
 281:src/stm32f1xx_hal_tim_ex.c **** }
 282:src/stm32f1xx_hal_tim_ex.c **** 
 283:src/stm32f1xx_hal_tim_ex.c **** /**
 284:src/stm32f1xx_hal_tim_ex.c ****   * @brief  Starts the TIM Hall Sensor Interface.
 285:src/stm32f1xx_hal_tim_ex.c ****   * @param  htim TIM Hall Sensor Interface handle
 286:src/stm32f1xx_hal_tim_ex.c ****   * @retval HAL status
 287:src/stm32f1xx_hal_tim_ex.c ****   */
 288:src/stm32f1xx_hal_tim_ex.c **** HAL_StatusTypeDef HAL_TIMEx_HallSensor_Start(TIM_HandleTypeDef *htim)
 289:src/stm32f1xx_hal_tim_ex.c **** {
 290:src/stm32f1xx_hal_tim_ex.c ****   uint32_t tmpsmcr;
 291:src/stm32f1xx_hal_tim_ex.c **** 
 292:src/stm32f1xx_hal_tim_ex.c ****   /* Check the parameters */
 293:src/stm32f1xx_hal_tim_ex.c ****   assert_param(IS_TIM_HALL_SENSOR_INTERFACE_INSTANCE(htim->Instance));
 294:src/stm32f1xx_hal_tim_ex.c **** 
 295:src/stm32f1xx_hal_tim_ex.c ****   /* Enable the Input Capture channel 1
 296:src/stm32f1xx_hal_tim_ex.c ****     (in the Hall Sensor Interface the three possible channels that can be used are TIM_CHANNEL_1, T
 297:src/stm32f1xx_hal_tim_ex.c ****   TIM_CCxChannelCmd(htim->Instance, TIM_CHANNEL_1, TIM_CCx_ENABLE);
 298:src/stm32f1xx_hal_tim_ex.c **** 
 299:src/stm32f1xx_hal_tim_ex.c ****   /* Enable the Peripheral, except in trigger mode where enable is automatically done with trigger 
 300:src/stm32f1xx_hal_tim_ex.c ****   tmpsmcr = htim->Instance->SMCR & TIM_SMCR_SMS;
 301:src/stm32f1xx_hal_tim_ex.c ****   if (!IS_TIM_SLAVEMODE_TRIGGER_ENABLED(tmpsmcr))
 302:src/stm32f1xx_hal_tim_ex.c ****   {
 303:src/stm32f1xx_hal_tim_ex.c ****     __HAL_TIM_ENABLE(htim);
 304:src/stm32f1xx_hal_tim_ex.c ****   }
 305:src/stm32f1xx_hal_tim_ex.c **** 
 306:src/stm32f1xx_hal_tim_ex.c ****   /* Return function status */
 307:src/stm32f1xx_hal_tim_ex.c ****   return HAL_OK;
 308:src/stm32f1xx_hal_tim_ex.c **** }
 309:src/stm32f1xx_hal_tim_ex.c **** 
 310:src/stm32f1xx_hal_tim_ex.c **** /**
 311:src/stm32f1xx_hal_tim_ex.c ****   * @brief  Stops the TIM Hall sensor Interface.
 312:src/stm32f1xx_hal_tim_ex.c ****   * @param  htim TIM Hall Sensor Interface handle
 313:src/stm32f1xx_hal_tim_ex.c ****   * @retval HAL status
 314:src/stm32f1xx_hal_tim_ex.c ****   */
 315:src/stm32f1xx_hal_tim_ex.c **** HAL_StatusTypeDef HAL_TIMEx_HallSensor_Stop(TIM_HandleTypeDef *htim)
 316:src/stm32f1xx_hal_tim_ex.c **** {
 317:src/stm32f1xx_hal_tim_ex.c ****   /* Check the parameters */
 318:src/stm32f1xx_hal_tim_ex.c ****   assert_param(IS_TIM_HALL_SENSOR_INTERFACE_INSTANCE(htim->Instance));
 319:src/stm32f1xx_hal_tim_ex.c **** 
 320:src/stm32f1xx_hal_tim_ex.c ****   /* Disable the Input Capture channels 1, 2 and 3
 321:src/stm32f1xx_hal_tim_ex.c ****     (in the Hall Sensor Interface the three possible channels that can be used are TIM_CHANNEL_1, T
 322:src/stm32f1xx_hal_tim_ex.c ****   TIM_CCxChannelCmd(htim->Instance, TIM_CHANNEL_1, TIM_CCx_DISABLE);
ARM GAS  /tmp/ccD9AYux.s 			page 8


 323:src/stm32f1xx_hal_tim_ex.c **** 
 324:src/stm32f1xx_hal_tim_ex.c ****   /* Disable the Peripheral */
 325:src/stm32f1xx_hal_tim_ex.c ****   __HAL_TIM_DISABLE(htim);
 326:src/stm32f1xx_hal_tim_ex.c **** 
 327:src/stm32f1xx_hal_tim_ex.c ****   /* Return function status */
 328:src/stm32f1xx_hal_tim_ex.c ****   return HAL_OK;
 329:src/stm32f1xx_hal_tim_ex.c **** }
 330:src/stm32f1xx_hal_tim_ex.c **** 
 331:src/stm32f1xx_hal_tim_ex.c **** /**
 332:src/stm32f1xx_hal_tim_ex.c ****   * @brief  Starts the TIM Hall Sensor Interface in interrupt mode.
 333:src/stm32f1xx_hal_tim_ex.c ****   * @param  htim TIM Hall Sensor Interface handle
 334:src/stm32f1xx_hal_tim_ex.c ****   * @retval HAL status
 335:src/stm32f1xx_hal_tim_ex.c ****   */
 336:src/stm32f1xx_hal_tim_ex.c **** HAL_StatusTypeDef HAL_TIMEx_HallSensor_Start_IT(TIM_HandleTypeDef *htim)
 337:src/stm32f1xx_hal_tim_ex.c **** {
 338:src/stm32f1xx_hal_tim_ex.c ****   uint32_t tmpsmcr;
 339:src/stm32f1xx_hal_tim_ex.c **** 
 340:src/stm32f1xx_hal_tim_ex.c ****   /* Check the parameters */
 341:src/stm32f1xx_hal_tim_ex.c ****   assert_param(IS_TIM_HALL_SENSOR_INTERFACE_INSTANCE(htim->Instance));
 342:src/stm32f1xx_hal_tim_ex.c **** 
 343:src/stm32f1xx_hal_tim_ex.c ****   /* Enable the capture compare Interrupts 1 event */
 344:src/stm32f1xx_hal_tim_ex.c ****   __HAL_TIM_ENABLE_IT(htim, TIM_IT_CC1);
 345:src/stm32f1xx_hal_tim_ex.c **** 
 346:src/stm32f1xx_hal_tim_ex.c ****   /* Enable the Input Capture channel 1
 347:src/stm32f1xx_hal_tim_ex.c ****     (in the Hall Sensor Interface the three possible channels that can be used are TIM_CHANNEL_1, T
 348:src/stm32f1xx_hal_tim_ex.c ****   TIM_CCxChannelCmd(htim->Instance, TIM_CHANNEL_1, TIM_CCx_ENABLE);
 349:src/stm32f1xx_hal_tim_ex.c **** 
 350:src/stm32f1xx_hal_tim_ex.c ****   /* Enable the Peripheral, except in trigger mode where enable is automatically done with trigger 
 351:src/stm32f1xx_hal_tim_ex.c ****   tmpsmcr = htim->Instance->SMCR & TIM_SMCR_SMS;
 352:src/stm32f1xx_hal_tim_ex.c ****   if (!IS_TIM_SLAVEMODE_TRIGGER_ENABLED(tmpsmcr))
 353:src/stm32f1xx_hal_tim_ex.c ****   {
 354:src/stm32f1xx_hal_tim_ex.c ****     __HAL_TIM_ENABLE(htim);
 355:src/stm32f1xx_hal_tim_ex.c ****   }
 356:src/stm32f1xx_hal_tim_ex.c **** 
 357:src/stm32f1xx_hal_tim_ex.c ****   /* Return function status */
 358:src/stm32f1xx_hal_tim_ex.c ****   return HAL_OK;
 359:src/stm32f1xx_hal_tim_ex.c **** }
 360:src/stm32f1xx_hal_tim_ex.c **** 
 361:src/stm32f1xx_hal_tim_ex.c **** /**
 362:src/stm32f1xx_hal_tim_ex.c ****   * @brief  Stops the TIM Hall Sensor Interface in interrupt mode.
 363:src/stm32f1xx_hal_tim_ex.c ****   * @param  htim TIM Hall Sensor Interface handle
 364:src/stm32f1xx_hal_tim_ex.c ****   * @retval HAL status
 365:src/stm32f1xx_hal_tim_ex.c ****   */
 366:src/stm32f1xx_hal_tim_ex.c **** HAL_StatusTypeDef HAL_TIMEx_HallSensor_Stop_IT(TIM_HandleTypeDef *htim)
 367:src/stm32f1xx_hal_tim_ex.c **** {
 368:src/stm32f1xx_hal_tim_ex.c ****   /* Check the parameters */
 369:src/stm32f1xx_hal_tim_ex.c ****   assert_param(IS_TIM_HALL_SENSOR_INTERFACE_INSTANCE(htim->Instance));
 370:src/stm32f1xx_hal_tim_ex.c **** 
 371:src/stm32f1xx_hal_tim_ex.c ****   /* Disable the Input Capture channel 1
 372:src/stm32f1xx_hal_tim_ex.c ****     (in the Hall Sensor Interface the three possible channels that can be used are TIM_CHANNEL_1, T
 373:src/stm32f1xx_hal_tim_ex.c ****   TIM_CCxChannelCmd(htim->Instance, TIM_CHANNEL_1, TIM_CCx_DISABLE);
 374:src/stm32f1xx_hal_tim_ex.c **** 
 375:src/stm32f1xx_hal_tim_ex.c ****   /* Disable the capture compare Interrupts event */
 376:src/stm32f1xx_hal_tim_ex.c ****   __HAL_TIM_DISABLE_IT(htim, TIM_IT_CC1);
 377:src/stm32f1xx_hal_tim_ex.c **** 
 378:src/stm32f1xx_hal_tim_ex.c ****   /* Disable the Peripheral */
 379:src/stm32f1xx_hal_tim_ex.c ****   __HAL_TIM_DISABLE(htim);
ARM GAS  /tmp/ccD9AYux.s 			page 9


 380:src/stm32f1xx_hal_tim_ex.c **** 
 381:src/stm32f1xx_hal_tim_ex.c ****   /* Return function status */
 382:src/stm32f1xx_hal_tim_ex.c ****   return HAL_OK;
 383:src/stm32f1xx_hal_tim_ex.c **** }
 384:src/stm32f1xx_hal_tim_ex.c **** 
 385:src/stm32f1xx_hal_tim_ex.c **** /**
 386:src/stm32f1xx_hal_tim_ex.c ****   * @brief  Starts the TIM Hall Sensor Interface in DMA mode.
 387:src/stm32f1xx_hal_tim_ex.c ****   * @param  htim TIM Hall Sensor Interface handle
 388:src/stm32f1xx_hal_tim_ex.c ****   * @param  pData The destination Buffer address.
 389:src/stm32f1xx_hal_tim_ex.c ****   * @param  Length The length of data to be transferred from TIM peripheral to memory.
 390:src/stm32f1xx_hal_tim_ex.c ****   * @retval HAL status
 391:src/stm32f1xx_hal_tim_ex.c ****   */
 392:src/stm32f1xx_hal_tim_ex.c **** HAL_StatusTypeDef HAL_TIMEx_HallSensor_Start_DMA(TIM_HandleTypeDef *htim, uint32_t *pData, uint16_t
 393:src/stm32f1xx_hal_tim_ex.c **** {
 394:src/stm32f1xx_hal_tim_ex.c ****   uint32_t tmpsmcr;
 395:src/stm32f1xx_hal_tim_ex.c **** 
 396:src/stm32f1xx_hal_tim_ex.c ****   /* Check the parameters */
 397:src/stm32f1xx_hal_tim_ex.c ****   assert_param(IS_TIM_HALL_SENSOR_INTERFACE_INSTANCE(htim->Instance));
 398:src/stm32f1xx_hal_tim_ex.c **** 
 399:src/stm32f1xx_hal_tim_ex.c ****   if (htim->State == HAL_TIM_STATE_BUSY)
 400:src/stm32f1xx_hal_tim_ex.c ****   {
 401:src/stm32f1xx_hal_tim_ex.c ****     return HAL_BUSY;
 402:src/stm32f1xx_hal_tim_ex.c ****   }
 403:src/stm32f1xx_hal_tim_ex.c ****   else if (htim->State == HAL_TIM_STATE_READY)
 404:src/stm32f1xx_hal_tim_ex.c ****   {
 405:src/stm32f1xx_hal_tim_ex.c ****     if (((uint32_t)pData == 0U) && (Length > 0U))
 406:src/stm32f1xx_hal_tim_ex.c ****     {
 407:src/stm32f1xx_hal_tim_ex.c ****       return HAL_ERROR;
 408:src/stm32f1xx_hal_tim_ex.c ****     }
 409:src/stm32f1xx_hal_tim_ex.c ****     else
 410:src/stm32f1xx_hal_tim_ex.c ****     {
 411:src/stm32f1xx_hal_tim_ex.c ****       htim->State = HAL_TIM_STATE_BUSY;
 412:src/stm32f1xx_hal_tim_ex.c ****     }
 413:src/stm32f1xx_hal_tim_ex.c ****   }
 414:src/stm32f1xx_hal_tim_ex.c ****   else
 415:src/stm32f1xx_hal_tim_ex.c ****   {
 416:src/stm32f1xx_hal_tim_ex.c ****     /* nothing to do */
 417:src/stm32f1xx_hal_tim_ex.c ****   }
 418:src/stm32f1xx_hal_tim_ex.c ****   /* Enable the Input Capture channel 1
 419:src/stm32f1xx_hal_tim_ex.c ****     (in the Hall Sensor Interface the three possible channels that can be used are TIM_CHANNEL_1, T
 420:src/stm32f1xx_hal_tim_ex.c ****   TIM_CCxChannelCmd(htim->Instance, TIM_CHANNEL_1, TIM_CCx_ENABLE);
 421:src/stm32f1xx_hal_tim_ex.c **** 
 422:src/stm32f1xx_hal_tim_ex.c ****   /* Set the DMA Input Capture 1 Callbacks */
 423:src/stm32f1xx_hal_tim_ex.c ****   htim->hdma[TIM_DMA_ID_CC1]->XferCpltCallback = TIM_DMACaptureCplt;
 424:src/stm32f1xx_hal_tim_ex.c ****   htim->hdma[TIM_DMA_ID_CC1]->XferHalfCpltCallback = TIM_DMACaptureHalfCplt;
 425:src/stm32f1xx_hal_tim_ex.c ****   /* Set the DMA error callback */
 426:src/stm32f1xx_hal_tim_ex.c ****   htim->hdma[TIM_DMA_ID_CC1]->XferErrorCallback = TIM_DMAError ;
 427:src/stm32f1xx_hal_tim_ex.c **** 
 428:src/stm32f1xx_hal_tim_ex.c ****   /* Enable the DMA channel for Capture 1*/
 429:src/stm32f1xx_hal_tim_ex.c ****   if (HAL_DMA_Start_IT(htim->hdma[TIM_DMA_ID_CC1], (uint32_t)&htim->Instance->CCR1, (uint32_t)pData
 430:src/stm32f1xx_hal_tim_ex.c ****   {
 431:src/stm32f1xx_hal_tim_ex.c ****     return HAL_ERROR;
 432:src/stm32f1xx_hal_tim_ex.c ****   }
 433:src/stm32f1xx_hal_tim_ex.c ****   /* Enable the capture compare 1 Interrupt */
 434:src/stm32f1xx_hal_tim_ex.c ****   __HAL_TIM_ENABLE_DMA(htim, TIM_DMA_CC1);
 435:src/stm32f1xx_hal_tim_ex.c **** 
 436:src/stm32f1xx_hal_tim_ex.c ****   /* Enable the Peripheral, except in trigger mode where enable is automatically done with trigger 
ARM GAS  /tmp/ccD9AYux.s 			page 10


 437:src/stm32f1xx_hal_tim_ex.c ****   tmpsmcr = htim->Instance->SMCR & TIM_SMCR_SMS;
 438:src/stm32f1xx_hal_tim_ex.c ****   if (!IS_TIM_SLAVEMODE_TRIGGER_ENABLED(tmpsmcr))
 439:src/stm32f1xx_hal_tim_ex.c ****   {
 440:src/stm32f1xx_hal_tim_ex.c ****     __HAL_TIM_ENABLE(htim);
 441:src/stm32f1xx_hal_tim_ex.c ****   }
 442:src/stm32f1xx_hal_tim_ex.c **** 
 443:src/stm32f1xx_hal_tim_ex.c ****   /* Return function status */
 444:src/stm32f1xx_hal_tim_ex.c ****   return HAL_OK;
 445:src/stm32f1xx_hal_tim_ex.c **** }
 446:src/stm32f1xx_hal_tim_ex.c **** 
 447:src/stm32f1xx_hal_tim_ex.c **** /**
 448:src/stm32f1xx_hal_tim_ex.c ****   * @brief  Stops the TIM Hall Sensor Interface in DMA mode.
 449:src/stm32f1xx_hal_tim_ex.c ****   * @param  htim TIM Hall Sensor Interface handle
 450:src/stm32f1xx_hal_tim_ex.c ****   * @retval HAL status
 451:src/stm32f1xx_hal_tim_ex.c ****   */
 452:src/stm32f1xx_hal_tim_ex.c **** HAL_StatusTypeDef HAL_TIMEx_HallSensor_Stop_DMA(TIM_HandleTypeDef *htim)
 453:src/stm32f1xx_hal_tim_ex.c **** {
 454:src/stm32f1xx_hal_tim_ex.c ****   /* Check the parameters */
 455:src/stm32f1xx_hal_tim_ex.c ****   assert_param(IS_TIM_HALL_SENSOR_INTERFACE_INSTANCE(htim->Instance));
 456:src/stm32f1xx_hal_tim_ex.c **** 
 457:src/stm32f1xx_hal_tim_ex.c ****   /* Disable the Input Capture channel 1
 458:src/stm32f1xx_hal_tim_ex.c ****     (in the Hall Sensor Interface the three possible channels that can be used are TIM_CHANNEL_1, T
 459:src/stm32f1xx_hal_tim_ex.c ****   TIM_CCxChannelCmd(htim->Instance, TIM_CHANNEL_1, TIM_CCx_DISABLE);
 460:src/stm32f1xx_hal_tim_ex.c **** 
 461:src/stm32f1xx_hal_tim_ex.c **** 
 462:src/stm32f1xx_hal_tim_ex.c ****   /* Disable the capture compare Interrupts 1 event */
 463:src/stm32f1xx_hal_tim_ex.c ****   __HAL_TIM_DISABLE_DMA(htim, TIM_DMA_CC1);
 464:src/stm32f1xx_hal_tim_ex.c **** 
 465:src/stm32f1xx_hal_tim_ex.c ****   (void)HAL_DMA_Abort_IT(htim->hdma[TIM_DMA_ID_CC1]);
 466:src/stm32f1xx_hal_tim_ex.c ****   /* Disable the Peripheral */
 467:src/stm32f1xx_hal_tim_ex.c ****   __HAL_TIM_DISABLE(htim);
 468:src/stm32f1xx_hal_tim_ex.c **** 
 469:src/stm32f1xx_hal_tim_ex.c ****   /* Return function status */
 470:src/stm32f1xx_hal_tim_ex.c ****   return HAL_OK;
 471:src/stm32f1xx_hal_tim_ex.c **** }
 472:src/stm32f1xx_hal_tim_ex.c **** 
 473:src/stm32f1xx_hal_tim_ex.c **** /**
 474:src/stm32f1xx_hal_tim_ex.c ****   * @}
 475:src/stm32f1xx_hal_tim_ex.c ****   */
 476:src/stm32f1xx_hal_tim_ex.c **** 
 477:src/stm32f1xx_hal_tim_ex.c **** /** @defgroup TIMEx_Exported_Functions_Group2 Extended Timer Complementary Output Compare functions
 478:src/stm32f1xx_hal_tim_ex.c ****   *  @brief   Timer Complementary Output Compare functions
 479:src/stm32f1xx_hal_tim_ex.c ****   *
 480:src/stm32f1xx_hal_tim_ex.c **** @verbatim
 481:src/stm32f1xx_hal_tim_ex.c ****   ==============================================================================
 482:src/stm32f1xx_hal_tim_ex.c ****               ##### Timer Complementary Output Compare functions #####
 483:src/stm32f1xx_hal_tim_ex.c ****   ==============================================================================
 484:src/stm32f1xx_hal_tim_ex.c ****   [..]
 485:src/stm32f1xx_hal_tim_ex.c ****     This section provides functions allowing to:
 486:src/stm32f1xx_hal_tim_ex.c ****     (+) Start the Complementary Output Compare/PWM.
 487:src/stm32f1xx_hal_tim_ex.c ****     (+) Stop the Complementary Output Compare/PWM.
 488:src/stm32f1xx_hal_tim_ex.c ****     (+) Start the Complementary Output Compare/PWM and enable interrupts.
 489:src/stm32f1xx_hal_tim_ex.c ****     (+) Stop the Complementary Output Compare/PWM and disable interrupts.
 490:src/stm32f1xx_hal_tim_ex.c ****     (+) Start the Complementary Output Compare/PWM and enable DMA transfers.
 491:src/stm32f1xx_hal_tim_ex.c ****     (+) Stop the Complementary Output Compare/PWM and disable DMA transfers.
 492:src/stm32f1xx_hal_tim_ex.c **** 
 493:src/stm32f1xx_hal_tim_ex.c **** @endverbatim
ARM GAS  /tmp/ccD9AYux.s 			page 11


 494:src/stm32f1xx_hal_tim_ex.c ****   * @{
 495:src/stm32f1xx_hal_tim_ex.c ****   */
 496:src/stm32f1xx_hal_tim_ex.c **** 
 497:src/stm32f1xx_hal_tim_ex.c **** /**
 498:src/stm32f1xx_hal_tim_ex.c ****   * @brief  Starts the TIM Output Compare signal generation on the complementary
 499:src/stm32f1xx_hal_tim_ex.c ****   *         output.
 500:src/stm32f1xx_hal_tim_ex.c ****   * @param  htim TIM Output Compare handle
 501:src/stm32f1xx_hal_tim_ex.c ****   * @param  Channel TIM Channel to be enabled
 502:src/stm32f1xx_hal_tim_ex.c ****   *          This parameter can be one of the following values:
 503:src/stm32f1xx_hal_tim_ex.c ****   *            @arg TIM_CHANNEL_1: TIM Channel 1 selected
 504:src/stm32f1xx_hal_tim_ex.c ****   *            @arg TIM_CHANNEL_2: TIM Channel 2 selected
 505:src/stm32f1xx_hal_tim_ex.c ****   *            @arg TIM_CHANNEL_3: TIM Channel 3 selected
 506:src/stm32f1xx_hal_tim_ex.c ****   * @retval HAL status
 507:src/stm32f1xx_hal_tim_ex.c ****   */
 508:src/stm32f1xx_hal_tim_ex.c **** HAL_StatusTypeDef HAL_TIMEx_OCN_Start(TIM_HandleTypeDef *htim, uint32_t Channel)
 509:src/stm32f1xx_hal_tim_ex.c **** {
 510:src/stm32f1xx_hal_tim_ex.c ****   uint32_t tmpsmcr;
 511:src/stm32f1xx_hal_tim_ex.c **** 
 512:src/stm32f1xx_hal_tim_ex.c ****   /* Check the parameters */
 513:src/stm32f1xx_hal_tim_ex.c ****   assert_param(IS_TIM_CCXN_INSTANCE(htim->Instance, Channel));
 514:src/stm32f1xx_hal_tim_ex.c **** 
 515:src/stm32f1xx_hal_tim_ex.c ****   /* Enable the Capture compare channel N */
 516:src/stm32f1xx_hal_tim_ex.c ****   TIM_CCxNChannelCmd(htim->Instance, Channel, TIM_CCxN_ENABLE);
 517:src/stm32f1xx_hal_tim_ex.c **** 
 518:src/stm32f1xx_hal_tim_ex.c ****   /* Enable the Main Output */
 519:src/stm32f1xx_hal_tim_ex.c ****   __HAL_TIM_MOE_ENABLE(htim);
 520:src/stm32f1xx_hal_tim_ex.c **** 
 521:src/stm32f1xx_hal_tim_ex.c ****   /* Enable the Peripheral, except in trigger mode where enable is automatically done with trigger 
 522:src/stm32f1xx_hal_tim_ex.c ****   tmpsmcr = htim->Instance->SMCR & TIM_SMCR_SMS;
 523:src/stm32f1xx_hal_tim_ex.c ****   if (!IS_TIM_SLAVEMODE_TRIGGER_ENABLED(tmpsmcr))
 524:src/stm32f1xx_hal_tim_ex.c ****   {
 525:src/stm32f1xx_hal_tim_ex.c ****     __HAL_TIM_ENABLE(htim);
 526:src/stm32f1xx_hal_tim_ex.c ****   }
 527:src/stm32f1xx_hal_tim_ex.c **** 
 528:src/stm32f1xx_hal_tim_ex.c ****   /* Return function status */
 529:src/stm32f1xx_hal_tim_ex.c ****   return HAL_OK;
 530:src/stm32f1xx_hal_tim_ex.c **** }
 531:src/stm32f1xx_hal_tim_ex.c **** 
 532:src/stm32f1xx_hal_tim_ex.c **** /**
 533:src/stm32f1xx_hal_tim_ex.c ****   * @brief  Stops the TIM Output Compare signal generation on the complementary
 534:src/stm32f1xx_hal_tim_ex.c ****   *         output.
 535:src/stm32f1xx_hal_tim_ex.c ****   * @param  htim TIM handle
 536:src/stm32f1xx_hal_tim_ex.c ****   * @param  Channel TIM Channel to be disabled
 537:src/stm32f1xx_hal_tim_ex.c ****   *          This parameter can be one of the following values:
 538:src/stm32f1xx_hal_tim_ex.c ****   *            @arg TIM_CHANNEL_1: TIM Channel 1 selected
 539:src/stm32f1xx_hal_tim_ex.c ****   *            @arg TIM_CHANNEL_2: TIM Channel 2 selected
 540:src/stm32f1xx_hal_tim_ex.c ****   *            @arg TIM_CHANNEL_3: TIM Channel 3 selected
 541:src/stm32f1xx_hal_tim_ex.c ****   * @retval HAL status
 542:src/stm32f1xx_hal_tim_ex.c ****   */
 543:src/stm32f1xx_hal_tim_ex.c **** HAL_StatusTypeDef HAL_TIMEx_OCN_Stop(TIM_HandleTypeDef *htim, uint32_t Channel)
 544:src/stm32f1xx_hal_tim_ex.c **** {
 545:src/stm32f1xx_hal_tim_ex.c ****   /* Check the parameters */
 546:src/stm32f1xx_hal_tim_ex.c ****   assert_param(IS_TIM_CCXN_INSTANCE(htim->Instance, Channel));
 547:src/stm32f1xx_hal_tim_ex.c **** 
 548:src/stm32f1xx_hal_tim_ex.c ****   /* Disable the Capture compare channel N */
 549:src/stm32f1xx_hal_tim_ex.c ****   TIM_CCxNChannelCmd(htim->Instance, Channel, TIM_CCxN_DISABLE);
 550:src/stm32f1xx_hal_tim_ex.c **** 
ARM GAS  /tmp/ccD9AYux.s 			page 12


 551:src/stm32f1xx_hal_tim_ex.c ****   /* Disable the Main Output */
 552:src/stm32f1xx_hal_tim_ex.c ****   __HAL_TIM_MOE_DISABLE(htim);
 553:src/stm32f1xx_hal_tim_ex.c **** 
 554:src/stm32f1xx_hal_tim_ex.c ****   /* Disable the Peripheral */
 555:src/stm32f1xx_hal_tim_ex.c ****   __HAL_TIM_DISABLE(htim);
 556:src/stm32f1xx_hal_tim_ex.c **** 
 557:src/stm32f1xx_hal_tim_ex.c ****   /* Return function status */
 558:src/stm32f1xx_hal_tim_ex.c ****   return HAL_OK;
 559:src/stm32f1xx_hal_tim_ex.c **** }
 560:src/stm32f1xx_hal_tim_ex.c **** 
 561:src/stm32f1xx_hal_tim_ex.c **** /**
 562:src/stm32f1xx_hal_tim_ex.c ****   * @brief  Starts the TIM Output Compare signal generation in interrupt mode
 563:src/stm32f1xx_hal_tim_ex.c ****   *         on the complementary output.
 564:src/stm32f1xx_hal_tim_ex.c ****   * @param  htim TIM OC handle
 565:src/stm32f1xx_hal_tim_ex.c ****   * @param  Channel TIM Channel to be enabled
 566:src/stm32f1xx_hal_tim_ex.c ****   *          This parameter can be one of the following values:
 567:src/stm32f1xx_hal_tim_ex.c ****   *            @arg TIM_CHANNEL_1: TIM Channel 1 selected
 568:src/stm32f1xx_hal_tim_ex.c ****   *            @arg TIM_CHANNEL_2: TIM Channel 2 selected
 569:src/stm32f1xx_hal_tim_ex.c ****   *            @arg TIM_CHANNEL_3: TIM Channel 3 selected
 570:src/stm32f1xx_hal_tim_ex.c ****   * @retval HAL status
 571:src/stm32f1xx_hal_tim_ex.c ****   */
 572:src/stm32f1xx_hal_tim_ex.c **** HAL_StatusTypeDef HAL_TIMEx_OCN_Start_IT(TIM_HandleTypeDef *htim, uint32_t Channel)
 573:src/stm32f1xx_hal_tim_ex.c **** {
 574:src/stm32f1xx_hal_tim_ex.c ****   uint32_t tmpsmcr;
 575:src/stm32f1xx_hal_tim_ex.c **** 
 576:src/stm32f1xx_hal_tim_ex.c ****   /* Check the parameters */
 577:src/stm32f1xx_hal_tim_ex.c ****   assert_param(IS_TIM_CCXN_INSTANCE(htim->Instance, Channel));
 578:src/stm32f1xx_hal_tim_ex.c **** 
 579:src/stm32f1xx_hal_tim_ex.c ****   switch (Channel)
 580:src/stm32f1xx_hal_tim_ex.c ****   {
 581:src/stm32f1xx_hal_tim_ex.c ****     case TIM_CHANNEL_1:
 582:src/stm32f1xx_hal_tim_ex.c ****     {
 583:src/stm32f1xx_hal_tim_ex.c ****       /* Enable the TIM Output Compare interrupt */
 584:src/stm32f1xx_hal_tim_ex.c ****       __HAL_TIM_ENABLE_IT(htim, TIM_IT_CC1);
 585:src/stm32f1xx_hal_tim_ex.c ****       break;
 586:src/stm32f1xx_hal_tim_ex.c ****     }
 587:src/stm32f1xx_hal_tim_ex.c **** 
 588:src/stm32f1xx_hal_tim_ex.c ****     case TIM_CHANNEL_2:
 589:src/stm32f1xx_hal_tim_ex.c ****     {
 590:src/stm32f1xx_hal_tim_ex.c ****       /* Enable the TIM Output Compare interrupt */
 591:src/stm32f1xx_hal_tim_ex.c ****       __HAL_TIM_ENABLE_IT(htim, TIM_IT_CC2);
 592:src/stm32f1xx_hal_tim_ex.c ****       break;
 593:src/stm32f1xx_hal_tim_ex.c ****     }
 594:src/stm32f1xx_hal_tim_ex.c **** 
 595:src/stm32f1xx_hal_tim_ex.c ****     case TIM_CHANNEL_3:
 596:src/stm32f1xx_hal_tim_ex.c ****     {
 597:src/stm32f1xx_hal_tim_ex.c ****       /* Enable the TIM Output Compare interrupt */
 598:src/stm32f1xx_hal_tim_ex.c ****       __HAL_TIM_ENABLE_IT(htim, TIM_IT_CC3);
 599:src/stm32f1xx_hal_tim_ex.c ****       break;
 600:src/stm32f1xx_hal_tim_ex.c ****     }
 601:src/stm32f1xx_hal_tim_ex.c **** 
 602:src/stm32f1xx_hal_tim_ex.c **** 
 603:src/stm32f1xx_hal_tim_ex.c ****     default:
 604:src/stm32f1xx_hal_tim_ex.c ****       break;
 605:src/stm32f1xx_hal_tim_ex.c ****   }
 606:src/stm32f1xx_hal_tim_ex.c **** 
 607:src/stm32f1xx_hal_tim_ex.c ****   /* Enable the TIM Break interrupt */
ARM GAS  /tmp/ccD9AYux.s 			page 13


 608:src/stm32f1xx_hal_tim_ex.c ****   __HAL_TIM_ENABLE_IT(htim, TIM_IT_BREAK);
 609:src/stm32f1xx_hal_tim_ex.c **** 
 610:src/stm32f1xx_hal_tim_ex.c ****   /* Enable the Capture compare channel N */
 611:src/stm32f1xx_hal_tim_ex.c ****   TIM_CCxNChannelCmd(htim->Instance, Channel, TIM_CCxN_ENABLE);
 612:src/stm32f1xx_hal_tim_ex.c **** 
 613:src/stm32f1xx_hal_tim_ex.c ****   /* Enable the Main Output */
 614:src/stm32f1xx_hal_tim_ex.c ****   __HAL_TIM_MOE_ENABLE(htim);
 615:src/stm32f1xx_hal_tim_ex.c **** 
 616:src/stm32f1xx_hal_tim_ex.c ****   /* Enable the Peripheral, except in trigger mode where enable is automatically done with trigger 
 617:src/stm32f1xx_hal_tim_ex.c ****   tmpsmcr = htim->Instance->SMCR & TIM_SMCR_SMS;
 618:src/stm32f1xx_hal_tim_ex.c ****   if (!IS_TIM_SLAVEMODE_TRIGGER_ENABLED(tmpsmcr))
 619:src/stm32f1xx_hal_tim_ex.c ****   {
 620:src/stm32f1xx_hal_tim_ex.c ****     __HAL_TIM_ENABLE(htim);
 621:src/stm32f1xx_hal_tim_ex.c ****   }
 622:src/stm32f1xx_hal_tim_ex.c **** 
 623:src/stm32f1xx_hal_tim_ex.c ****   /* Return function status */
 624:src/stm32f1xx_hal_tim_ex.c ****   return HAL_OK;
 625:src/stm32f1xx_hal_tim_ex.c **** }
 626:src/stm32f1xx_hal_tim_ex.c **** 
 627:src/stm32f1xx_hal_tim_ex.c **** /**
 628:src/stm32f1xx_hal_tim_ex.c ****   * @brief  Stops the TIM Output Compare signal generation in interrupt mode
 629:src/stm32f1xx_hal_tim_ex.c ****   *         on the complementary output.
 630:src/stm32f1xx_hal_tim_ex.c ****   * @param  htim TIM Output Compare handle
 631:src/stm32f1xx_hal_tim_ex.c ****   * @param  Channel TIM Channel to be disabled
 632:src/stm32f1xx_hal_tim_ex.c ****   *          This parameter can be one of the following values:
 633:src/stm32f1xx_hal_tim_ex.c ****   *            @arg TIM_CHANNEL_1: TIM Channel 1 selected
 634:src/stm32f1xx_hal_tim_ex.c ****   *            @arg TIM_CHANNEL_2: TIM Channel 2 selected
 635:src/stm32f1xx_hal_tim_ex.c ****   *            @arg TIM_CHANNEL_3: TIM Channel 3 selected
 636:src/stm32f1xx_hal_tim_ex.c ****   * @retval HAL status
 637:src/stm32f1xx_hal_tim_ex.c ****   */
 638:src/stm32f1xx_hal_tim_ex.c **** HAL_StatusTypeDef HAL_TIMEx_OCN_Stop_IT(TIM_HandleTypeDef *htim, uint32_t Channel)
 639:src/stm32f1xx_hal_tim_ex.c **** {
 640:src/stm32f1xx_hal_tim_ex.c ****   uint32_t tmpccer;
 641:src/stm32f1xx_hal_tim_ex.c ****   /* Check the parameters */
 642:src/stm32f1xx_hal_tim_ex.c ****   assert_param(IS_TIM_CCXN_INSTANCE(htim->Instance, Channel));
 643:src/stm32f1xx_hal_tim_ex.c **** 
 644:src/stm32f1xx_hal_tim_ex.c ****   switch (Channel)
 645:src/stm32f1xx_hal_tim_ex.c ****   {
 646:src/stm32f1xx_hal_tim_ex.c ****     case TIM_CHANNEL_1:
 647:src/stm32f1xx_hal_tim_ex.c ****     {
 648:src/stm32f1xx_hal_tim_ex.c ****       /* Disable the TIM Output Compare interrupt */
 649:src/stm32f1xx_hal_tim_ex.c ****       __HAL_TIM_DISABLE_IT(htim, TIM_IT_CC1);
 650:src/stm32f1xx_hal_tim_ex.c ****       break;
 651:src/stm32f1xx_hal_tim_ex.c ****     }
 652:src/stm32f1xx_hal_tim_ex.c **** 
 653:src/stm32f1xx_hal_tim_ex.c ****     case TIM_CHANNEL_2:
 654:src/stm32f1xx_hal_tim_ex.c ****     {
 655:src/stm32f1xx_hal_tim_ex.c ****       /* Disable the TIM Output Compare interrupt */
 656:src/stm32f1xx_hal_tim_ex.c ****       __HAL_TIM_DISABLE_IT(htim, TIM_IT_CC2);
 657:src/stm32f1xx_hal_tim_ex.c ****       break;
 658:src/stm32f1xx_hal_tim_ex.c ****     }
 659:src/stm32f1xx_hal_tim_ex.c **** 
 660:src/stm32f1xx_hal_tim_ex.c ****     case TIM_CHANNEL_3:
 661:src/stm32f1xx_hal_tim_ex.c ****     {
 662:src/stm32f1xx_hal_tim_ex.c ****       /* Disable the TIM Output Compare interrupt */
 663:src/stm32f1xx_hal_tim_ex.c ****       __HAL_TIM_DISABLE_IT(htim, TIM_IT_CC3);
 664:src/stm32f1xx_hal_tim_ex.c ****       break;
ARM GAS  /tmp/ccD9AYux.s 			page 14


 665:src/stm32f1xx_hal_tim_ex.c ****     }
 666:src/stm32f1xx_hal_tim_ex.c **** 
 667:src/stm32f1xx_hal_tim_ex.c ****     default:
 668:src/stm32f1xx_hal_tim_ex.c ****       break;
 669:src/stm32f1xx_hal_tim_ex.c ****   }
 670:src/stm32f1xx_hal_tim_ex.c **** 
 671:src/stm32f1xx_hal_tim_ex.c ****   /* Disable the Capture compare channel N */
 672:src/stm32f1xx_hal_tim_ex.c ****   TIM_CCxNChannelCmd(htim->Instance, Channel, TIM_CCxN_DISABLE);
 673:src/stm32f1xx_hal_tim_ex.c **** 
 674:src/stm32f1xx_hal_tim_ex.c ****   /* Disable the TIM Break interrupt (only if no more channel is active) */
 675:src/stm32f1xx_hal_tim_ex.c ****   tmpccer = htim->Instance->CCER;
 676:src/stm32f1xx_hal_tim_ex.c ****   if ((tmpccer & (TIM_CCER_CC1NE | TIM_CCER_CC2NE | TIM_CCER_CC3NE)) == (uint32_t)RESET)
 677:src/stm32f1xx_hal_tim_ex.c ****   {
 678:src/stm32f1xx_hal_tim_ex.c ****     __HAL_TIM_DISABLE_IT(htim, TIM_IT_BREAK);
 679:src/stm32f1xx_hal_tim_ex.c ****   }
 680:src/stm32f1xx_hal_tim_ex.c **** 
 681:src/stm32f1xx_hal_tim_ex.c ****   /* Disable the Main Output */
 682:src/stm32f1xx_hal_tim_ex.c ****   __HAL_TIM_MOE_DISABLE(htim);
 683:src/stm32f1xx_hal_tim_ex.c **** 
 684:src/stm32f1xx_hal_tim_ex.c ****   /* Disable the Peripheral */
 685:src/stm32f1xx_hal_tim_ex.c ****   __HAL_TIM_DISABLE(htim);
 686:src/stm32f1xx_hal_tim_ex.c **** 
 687:src/stm32f1xx_hal_tim_ex.c ****   /* Return function status */
 688:src/stm32f1xx_hal_tim_ex.c ****   return HAL_OK;
 689:src/stm32f1xx_hal_tim_ex.c **** }
 690:src/stm32f1xx_hal_tim_ex.c **** 
 691:src/stm32f1xx_hal_tim_ex.c **** /**
 692:src/stm32f1xx_hal_tim_ex.c ****   * @brief  Starts the TIM Output Compare signal generation in DMA mode
 693:src/stm32f1xx_hal_tim_ex.c ****   *         on the complementary output.
 694:src/stm32f1xx_hal_tim_ex.c ****   * @param  htim TIM Output Compare handle
 695:src/stm32f1xx_hal_tim_ex.c ****   * @param  Channel TIM Channel to be enabled
 696:src/stm32f1xx_hal_tim_ex.c ****   *          This parameter can be one of the following values:
 697:src/stm32f1xx_hal_tim_ex.c ****   *            @arg TIM_CHANNEL_1: TIM Channel 1 selected
 698:src/stm32f1xx_hal_tim_ex.c ****   *            @arg TIM_CHANNEL_2: TIM Channel 2 selected
 699:src/stm32f1xx_hal_tim_ex.c ****   *            @arg TIM_CHANNEL_3: TIM Channel 3 selected
 700:src/stm32f1xx_hal_tim_ex.c ****   * @param  pData The source Buffer address.
 701:src/stm32f1xx_hal_tim_ex.c ****   * @param  Length The length of data to be transferred from memory to TIM peripheral
 702:src/stm32f1xx_hal_tim_ex.c ****   * @retval HAL status
 703:src/stm32f1xx_hal_tim_ex.c ****   */
 704:src/stm32f1xx_hal_tim_ex.c **** HAL_StatusTypeDef HAL_TIMEx_OCN_Start_DMA(TIM_HandleTypeDef *htim, uint32_t Channel, uint32_t *pDat
 705:src/stm32f1xx_hal_tim_ex.c **** {
 706:src/stm32f1xx_hal_tim_ex.c ****   uint32_t tmpsmcr;
 707:src/stm32f1xx_hal_tim_ex.c **** 
 708:src/stm32f1xx_hal_tim_ex.c ****   /* Check the parameters */
 709:src/stm32f1xx_hal_tim_ex.c ****   assert_param(IS_TIM_CCXN_INSTANCE(htim->Instance, Channel));
 710:src/stm32f1xx_hal_tim_ex.c **** 
 711:src/stm32f1xx_hal_tim_ex.c ****   if (htim->State == HAL_TIM_STATE_BUSY)
 712:src/stm32f1xx_hal_tim_ex.c ****   {
 713:src/stm32f1xx_hal_tim_ex.c ****     return HAL_BUSY;
 714:src/stm32f1xx_hal_tim_ex.c ****   }
 715:src/stm32f1xx_hal_tim_ex.c ****   else if (htim->State == HAL_TIM_STATE_READY)
 716:src/stm32f1xx_hal_tim_ex.c ****   {
 717:src/stm32f1xx_hal_tim_ex.c ****     if (((uint32_t)pData == 0U) && (Length > 0U))
 718:src/stm32f1xx_hal_tim_ex.c ****     {
 719:src/stm32f1xx_hal_tim_ex.c ****       return HAL_ERROR;
 720:src/stm32f1xx_hal_tim_ex.c ****     }
 721:src/stm32f1xx_hal_tim_ex.c ****     else
ARM GAS  /tmp/ccD9AYux.s 			page 15


 722:src/stm32f1xx_hal_tim_ex.c ****     {
 723:src/stm32f1xx_hal_tim_ex.c ****       htim->State = HAL_TIM_STATE_BUSY;
 724:src/stm32f1xx_hal_tim_ex.c ****     }
 725:src/stm32f1xx_hal_tim_ex.c ****   }
 726:src/stm32f1xx_hal_tim_ex.c ****   else
 727:src/stm32f1xx_hal_tim_ex.c ****   {
 728:src/stm32f1xx_hal_tim_ex.c ****     /* nothing to do  */
 729:src/stm32f1xx_hal_tim_ex.c ****   }
 730:src/stm32f1xx_hal_tim_ex.c **** 
 731:src/stm32f1xx_hal_tim_ex.c ****   switch (Channel)
 732:src/stm32f1xx_hal_tim_ex.c ****   {
 733:src/stm32f1xx_hal_tim_ex.c ****     case TIM_CHANNEL_1:
 734:src/stm32f1xx_hal_tim_ex.c ****     {
 735:src/stm32f1xx_hal_tim_ex.c ****       /* Set the DMA compare callbacks */
 736:src/stm32f1xx_hal_tim_ex.c ****       htim->hdma[TIM_DMA_ID_CC1]->XferCpltCallback = TIM_DMADelayPulseCplt;
 737:src/stm32f1xx_hal_tim_ex.c ****       htim->hdma[TIM_DMA_ID_CC1]->XferHalfCpltCallback = TIM_DMADelayPulseHalfCplt;
 738:src/stm32f1xx_hal_tim_ex.c **** 
 739:src/stm32f1xx_hal_tim_ex.c ****       /* Set the DMA error callback */
 740:src/stm32f1xx_hal_tim_ex.c ****       htim->hdma[TIM_DMA_ID_CC1]->XferErrorCallback = TIM_DMAError ;
 741:src/stm32f1xx_hal_tim_ex.c **** 
 742:src/stm32f1xx_hal_tim_ex.c ****       /* Enable the DMA channel */
 743:src/stm32f1xx_hal_tim_ex.c ****       if (HAL_DMA_Start_IT(htim->hdma[TIM_DMA_ID_CC1], (uint32_t)pData, (uint32_t)&htim->Instance->
 744:src/stm32f1xx_hal_tim_ex.c ****       {
 745:src/stm32f1xx_hal_tim_ex.c ****         return HAL_ERROR;
 746:src/stm32f1xx_hal_tim_ex.c ****       }
 747:src/stm32f1xx_hal_tim_ex.c ****       /* Enable the TIM Output Compare DMA request */
 748:src/stm32f1xx_hal_tim_ex.c ****       __HAL_TIM_ENABLE_DMA(htim, TIM_DMA_CC1);
 749:src/stm32f1xx_hal_tim_ex.c ****       break;
 750:src/stm32f1xx_hal_tim_ex.c ****     }
 751:src/stm32f1xx_hal_tim_ex.c **** 
 752:src/stm32f1xx_hal_tim_ex.c ****     case TIM_CHANNEL_2:
 753:src/stm32f1xx_hal_tim_ex.c ****     {
 754:src/stm32f1xx_hal_tim_ex.c ****       /* Set the DMA compare callbacks */
 755:src/stm32f1xx_hal_tim_ex.c ****       htim->hdma[TIM_DMA_ID_CC2]->XferCpltCallback = TIM_DMADelayPulseCplt;
 756:src/stm32f1xx_hal_tim_ex.c ****       htim->hdma[TIM_DMA_ID_CC2]->XferHalfCpltCallback = TIM_DMADelayPulseHalfCplt;
 757:src/stm32f1xx_hal_tim_ex.c **** 
 758:src/stm32f1xx_hal_tim_ex.c ****       /* Set the DMA error callback */
 759:src/stm32f1xx_hal_tim_ex.c ****       htim->hdma[TIM_DMA_ID_CC2]->XferErrorCallback = TIM_DMAError ;
 760:src/stm32f1xx_hal_tim_ex.c **** 
 761:src/stm32f1xx_hal_tim_ex.c ****       /* Enable the DMA channel */
 762:src/stm32f1xx_hal_tim_ex.c ****       if (HAL_DMA_Start_IT(htim->hdma[TIM_DMA_ID_CC2], (uint32_t)pData, (uint32_t)&htim->Instance->
 763:src/stm32f1xx_hal_tim_ex.c ****       {
 764:src/stm32f1xx_hal_tim_ex.c ****         return HAL_ERROR;
 765:src/stm32f1xx_hal_tim_ex.c ****       }
 766:src/stm32f1xx_hal_tim_ex.c ****       /* Enable the TIM Output Compare DMA request */
 767:src/stm32f1xx_hal_tim_ex.c ****       __HAL_TIM_ENABLE_DMA(htim, TIM_DMA_CC2);
 768:src/stm32f1xx_hal_tim_ex.c ****       break;
 769:src/stm32f1xx_hal_tim_ex.c ****     }
 770:src/stm32f1xx_hal_tim_ex.c **** 
 771:src/stm32f1xx_hal_tim_ex.c ****     case TIM_CHANNEL_3:
 772:src/stm32f1xx_hal_tim_ex.c ****     {
 773:src/stm32f1xx_hal_tim_ex.c ****       /* Set the DMA compare callbacks */
 774:src/stm32f1xx_hal_tim_ex.c ****       htim->hdma[TIM_DMA_ID_CC3]->XferCpltCallback = TIM_DMADelayPulseCplt;
 775:src/stm32f1xx_hal_tim_ex.c ****       htim->hdma[TIM_DMA_ID_CC3]->XferHalfCpltCallback = TIM_DMADelayPulseHalfCplt;
 776:src/stm32f1xx_hal_tim_ex.c **** 
 777:src/stm32f1xx_hal_tim_ex.c ****       /* Set the DMA error callback */
 778:src/stm32f1xx_hal_tim_ex.c ****       htim->hdma[TIM_DMA_ID_CC3]->XferErrorCallback = TIM_DMAError ;
ARM GAS  /tmp/ccD9AYux.s 			page 16


 779:src/stm32f1xx_hal_tim_ex.c **** 
 780:src/stm32f1xx_hal_tim_ex.c ****       /* Enable the DMA channel */
 781:src/stm32f1xx_hal_tim_ex.c ****       if (HAL_DMA_Start_IT(htim->hdma[TIM_DMA_ID_CC3], (uint32_t)pData, (uint32_t)&htim->Instance->
 782:src/stm32f1xx_hal_tim_ex.c ****       {
 783:src/stm32f1xx_hal_tim_ex.c ****         return HAL_ERROR;
 784:src/stm32f1xx_hal_tim_ex.c ****       }
 785:src/stm32f1xx_hal_tim_ex.c ****       /* Enable the TIM Output Compare DMA request */
 786:src/stm32f1xx_hal_tim_ex.c ****       __HAL_TIM_ENABLE_DMA(htim, TIM_DMA_CC3);
 787:src/stm32f1xx_hal_tim_ex.c ****       break;
 788:src/stm32f1xx_hal_tim_ex.c ****     }
 789:src/stm32f1xx_hal_tim_ex.c **** 
 790:src/stm32f1xx_hal_tim_ex.c ****     default:
 791:src/stm32f1xx_hal_tim_ex.c ****       break;
 792:src/stm32f1xx_hal_tim_ex.c ****   }
 793:src/stm32f1xx_hal_tim_ex.c **** 
 794:src/stm32f1xx_hal_tim_ex.c ****   /* Enable the Capture compare channel N */
 795:src/stm32f1xx_hal_tim_ex.c ****   TIM_CCxNChannelCmd(htim->Instance, Channel, TIM_CCxN_ENABLE);
 796:src/stm32f1xx_hal_tim_ex.c **** 
 797:src/stm32f1xx_hal_tim_ex.c ****   /* Enable the Main Output */
 798:src/stm32f1xx_hal_tim_ex.c ****   __HAL_TIM_MOE_ENABLE(htim);
 799:src/stm32f1xx_hal_tim_ex.c **** 
 800:src/stm32f1xx_hal_tim_ex.c ****   /* Enable the Peripheral, except in trigger mode where enable is automatically done with trigger 
 801:src/stm32f1xx_hal_tim_ex.c ****   tmpsmcr = htim->Instance->SMCR & TIM_SMCR_SMS;
 802:src/stm32f1xx_hal_tim_ex.c ****   if (!IS_TIM_SLAVEMODE_TRIGGER_ENABLED(tmpsmcr))
 803:src/stm32f1xx_hal_tim_ex.c ****   {
 804:src/stm32f1xx_hal_tim_ex.c ****     __HAL_TIM_ENABLE(htim);
 805:src/stm32f1xx_hal_tim_ex.c ****   }
 806:src/stm32f1xx_hal_tim_ex.c **** 
 807:src/stm32f1xx_hal_tim_ex.c ****   /* Return function status */
 808:src/stm32f1xx_hal_tim_ex.c ****   return HAL_OK;
 809:src/stm32f1xx_hal_tim_ex.c **** }
 810:src/stm32f1xx_hal_tim_ex.c **** 
 811:src/stm32f1xx_hal_tim_ex.c **** /**
 812:src/stm32f1xx_hal_tim_ex.c ****   * @brief  Stops the TIM Output Compare signal generation in DMA mode
 813:src/stm32f1xx_hal_tim_ex.c ****   *         on the complementary output.
 814:src/stm32f1xx_hal_tim_ex.c ****   * @param  htim TIM Output Compare handle
 815:src/stm32f1xx_hal_tim_ex.c ****   * @param  Channel TIM Channel to be disabled
 816:src/stm32f1xx_hal_tim_ex.c ****   *          This parameter can be one of the following values:
 817:src/stm32f1xx_hal_tim_ex.c ****   *            @arg TIM_CHANNEL_1: TIM Channel 1 selected
 818:src/stm32f1xx_hal_tim_ex.c ****   *            @arg TIM_CHANNEL_2: TIM Channel 2 selected
 819:src/stm32f1xx_hal_tim_ex.c ****   *            @arg TIM_CHANNEL_3: TIM Channel 3 selected
 820:src/stm32f1xx_hal_tim_ex.c ****   * @retval HAL status
 821:src/stm32f1xx_hal_tim_ex.c ****   */
 822:src/stm32f1xx_hal_tim_ex.c **** HAL_StatusTypeDef HAL_TIMEx_OCN_Stop_DMA(TIM_HandleTypeDef *htim, uint32_t Channel)
 823:src/stm32f1xx_hal_tim_ex.c **** {
 824:src/stm32f1xx_hal_tim_ex.c ****   /* Check the parameters */
 825:src/stm32f1xx_hal_tim_ex.c ****   assert_param(IS_TIM_CCXN_INSTANCE(htim->Instance, Channel));
 826:src/stm32f1xx_hal_tim_ex.c **** 
 827:src/stm32f1xx_hal_tim_ex.c ****   switch (Channel)
 828:src/stm32f1xx_hal_tim_ex.c ****   {
 829:src/stm32f1xx_hal_tim_ex.c ****     case TIM_CHANNEL_1:
 830:src/stm32f1xx_hal_tim_ex.c ****     {
 831:src/stm32f1xx_hal_tim_ex.c ****       /* Disable the TIM Output Compare DMA request */
 832:src/stm32f1xx_hal_tim_ex.c ****       __HAL_TIM_DISABLE_DMA(htim, TIM_DMA_CC1);
 833:src/stm32f1xx_hal_tim_ex.c ****       (void)HAL_DMA_Abort_IT(htim->hdma[TIM_DMA_ID_CC1]);
 834:src/stm32f1xx_hal_tim_ex.c ****       break;
 835:src/stm32f1xx_hal_tim_ex.c ****     }
ARM GAS  /tmp/ccD9AYux.s 			page 17


 836:src/stm32f1xx_hal_tim_ex.c **** 
 837:src/stm32f1xx_hal_tim_ex.c ****     case TIM_CHANNEL_2:
 838:src/stm32f1xx_hal_tim_ex.c ****     {
 839:src/stm32f1xx_hal_tim_ex.c ****       /* Disable the TIM Output Compare DMA request */
 840:src/stm32f1xx_hal_tim_ex.c ****       __HAL_TIM_DISABLE_DMA(htim, TIM_DMA_CC2);
 841:src/stm32f1xx_hal_tim_ex.c ****       (void)HAL_DMA_Abort_IT(htim->hdma[TIM_DMA_ID_CC2]);
 842:src/stm32f1xx_hal_tim_ex.c ****       break;
 843:src/stm32f1xx_hal_tim_ex.c ****     }
 844:src/stm32f1xx_hal_tim_ex.c **** 
 845:src/stm32f1xx_hal_tim_ex.c ****     case TIM_CHANNEL_3:
 846:src/stm32f1xx_hal_tim_ex.c ****     {
 847:src/stm32f1xx_hal_tim_ex.c ****       /* Disable the TIM Output Compare DMA request */
 848:src/stm32f1xx_hal_tim_ex.c ****       __HAL_TIM_DISABLE_DMA(htim, TIM_DMA_CC3);
 849:src/stm32f1xx_hal_tim_ex.c ****       (void)HAL_DMA_Abort_IT(htim->hdma[TIM_DMA_ID_CC3]);
 850:src/stm32f1xx_hal_tim_ex.c ****       break;
 851:src/stm32f1xx_hal_tim_ex.c ****     }
 852:src/stm32f1xx_hal_tim_ex.c **** 
 853:src/stm32f1xx_hal_tim_ex.c ****     default:
 854:src/stm32f1xx_hal_tim_ex.c ****       break;
 855:src/stm32f1xx_hal_tim_ex.c ****   }
 856:src/stm32f1xx_hal_tim_ex.c **** 
 857:src/stm32f1xx_hal_tim_ex.c ****   /* Disable the Capture compare channel N */
 858:src/stm32f1xx_hal_tim_ex.c ****   TIM_CCxNChannelCmd(htim->Instance, Channel, TIM_CCxN_DISABLE);
 859:src/stm32f1xx_hal_tim_ex.c **** 
 860:src/stm32f1xx_hal_tim_ex.c ****   /* Disable the Main Output */
 861:src/stm32f1xx_hal_tim_ex.c ****   __HAL_TIM_MOE_DISABLE(htim);
 862:src/stm32f1xx_hal_tim_ex.c **** 
 863:src/stm32f1xx_hal_tim_ex.c ****   /* Disable the Peripheral */
 864:src/stm32f1xx_hal_tim_ex.c ****   __HAL_TIM_DISABLE(htim);
 865:src/stm32f1xx_hal_tim_ex.c **** 
 866:src/stm32f1xx_hal_tim_ex.c ****   /* Change the htim state */
 867:src/stm32f1xx_hal_tim_ex.c ****   htim->State = HAL_TIM_STATE_READY;
 868:src/stm32f1xx_hal_tim_ex.c **** 
 869:src/stm32f1xx_hal_tim_ex.c ****   /* Return function status */
 870:src/stm32f1xx_hal_tim_ex.c ****   return HAL_OK;
 871:src/stm32f1xx_hal_tim_ex.c **** }
 872:src/stm32f1xx_hal_tim_ex.c **** 
 873:src/stm32f1xx_hal_tim_ex.c **** /**
 874:src/stm32f1xx_hal_tim_ex.c ****   * @}
 875:src/stm32f1xx_hal_tim_ex.c ****   */
 876:src/stm32f1xx_hal_tim_ex.c **** 
 877:src/stm32f1xx_hal_tim_ex.c **** /** @defgroup TIMEx_Exported_Functions_Group3 Extended Timer Complementary PWM functions
 878:src/stm32f1xx_hal_tim_ex.c ****   * @brief    Timer Complementary PWM functions
 879:src/stm32f1xx_hal_tim_ex.c ****   *
 880:src/stm32f1xx_hal_tim_ex.c **** @verbatim
 881:src/stm32f1xx_hal_tim_ex.c ****   ==============================================================================
 882:src/stm32f1xx_hal_tim_ex.c ****                  ##### Timer Complementary PWM functions #####
 883:src/stm32f1xx_hal_tim_ex.c ****   ==============================================================================
 884:src/stm32f1xx_hal_tim_ex.c ****   [..]
 885:src/stm32f1xx_hal_tim_ex.c ****     This section provides functions allowing to:
 886:src/stm32f1xx_hal_tim_ex.c ****     (+) Start the Complementary PWM.
 887:src/stm32f1xx_hal_tim_ex.c ****     (+) Stop the Complementary PWM.
 888:src/stm32f1xx_hal_tim_ex.c ****     (+) Start the Complementary PWM and enable interrupts.
 889:src/stm32f1xx_hal_tim_ex.c ****     (+) Stop the Complementary PWM and disable interrupts.
 890:src/stm32f1xx_hal_tim_ex.c ****     (+) Start the Complementary PWM and enable DMA transfers.
 891:src/stm32f1xx_hal_tim_ex.c ****     (+) Stop the Complementary PWM and disable DMA transfers.
 892:src/stm32f1xx_hal_tim_ex.c ****     (+) Start the Complementary Input Capture measurement.
ARM GAS  /tmp/ccD9AYux.s 			page 18


 893:src/stm32f1xx_hal_tim_ex.c ****     (+) Stop the Complementary Input Capture.
 894:src/stm32f1xx_hal_tim_ex.c ****     (+) Start the Complementary Input Capture and enable interrupts.
 895:src/stm32f1xx_hal_tim_ex.c ****     (+) Stop the Complementary Input Capture and disable interrupts.
 896:src/stm32f1xx_hal_tim_ex.c ****     (+) Start the Complementary Input Capture and enable DMA transfers.
 897:src/stm32f1xx_hal_tim_ex.c ****     (+) Stop the Complementary Input Capture and disable DMA transfers.
 898:src/stm32f1xx_hal_tim_ex.c ****     (+) Start the Complementary One Pulse generation.
 899:src/stm32f1xx_hal_tim_ex.c ****     (+) Stop the Complementary One Pulse.
 900:src/stm32f1xx_hal_tim_ex.c ****     (+) Start the Complementary One Pulse and enable interrupts.
 901:src/stm32f1xx_hal_tim_ex.c ****     (+) Stop the Complementary One Pulse and disable interrupts.
 902:src/stm32f1xx_hal_tim_ex.c **** 
 903:src/stm32f1xx_hal_tim_ex.c **** @endverbatim
 904:src/stm32f1xx_hal_tim_ex.c ****   * @{
 905:src/stm32f1xx_hal_tim_ex.c ****   */
 906:src/stm32f1xx_hal_tim_ex.c **** 
 907:src/stm32f1xx_hal_tim_ex.c **** /**
 908:src/stm32f1xx_hal_tim_ex.c ****   * @brief  Starts the PWM signal generation on the complementary output.
 909:src/stm32f1xx_hal_tim_ex.c ****   * @param  htim TIM handle
 910:src/stm32f1xx_hal_tim_ex.c ****   * @param  Channel TIM Channel to be enabled
 911:src/stm32f1xx_hal_tim_ex.c ****   *          This parameter can be one of the following values:
 912:src/stm32f1xx_hal_tim_ex.c ****   *            @arg TIM_CHANNEL_1: TIM Channel 1 selected
 913:src/stm32f1xx_hal_tim_ex.c ****   *            @arg TIM_CHANNEL_2: TIM Channel 2 selected
 914:src/stm32f1xx_hal_tim_ex.c ****   *            @arg TIM_CHANNEL_3: TIM Channel 3 selected
 915:src/stm32f1xx_hal_tim_ex.c ****   * @retval HAL status
 916:src/stm32f1xx_hal_tim_ex.c ****   */
 917:src/stm32f1xx_hal_tim_ex.c **** HAL_StatusTypeDef HAL_TIMEx_PWMN_Start(TIM_HandleTypeDef *htim, uint32_t Channel)
 918:src/stm32f1xx_hal_tim_ex.c **** {
 919:src/stm32f1xx_hal_tim_ex.c ****   uint32_t tmpsmcr;
 920:src/stm32f1xx_hal_tim_ex.c **** 
 921:src/stm32f1xx_hal_tim_ex.c ****   /* Check the parameters */
 922:src/stm32f1xx_hal_tim_ex.c ****   assert_param(IS_TIM_CCXN_INSTANCE(htim->Instance, Channel));
 923:src/stm32f1xx_hal_tim_ex.c **** 
 924:src/stm32f1xx_hal_tim_ex.c ****   /* Enable the complementary PWM output  */
 925:src/stm32f1xx_hal_tim_ex.c ****   TIM_CCxNChannelCmd(htim->Instance, Channel, TIM_CCxN_ENABLE);
 926:src/stm32f1xx_hal_tim_ex.c **** 
 927:src/stm32f1xx_hal_tim_ex.c ****   /* Enable the Main Output */
 928:src/stm32f1xx_hal_tim_ex.c ****   __HAL_TIM_MOE_ENABLE(htim);
 929:src/stm32f1xx_hal_tim_ex.c **** 
 930:src/stm32f1xx_hal_tim_ex.c ****   /* Enable the Peripheral, except in trigger mode where enable is automatically done with trigger 
 931:src/stm32f1xx_hal_tim_ex.c ****   tmpsmcr = htim->Instance->SMCR & TIM_SMCR_SMS;
 932:src/stm32f1xx_hal_tim_ex.c ****   if (!IS_TIM_SLAVEMODE_TRIGGER_ENABLED(tmpsmcr))
 933:src/stm32f1xx_hal_tim_ex.c ****   {
 934:src/stm32f1xx_hal_tim_ex.c ****     __HAL_TIM_ENABLE(htim);
 935:src/stm32f1xx_hal_tim_ex.c ****   }
 936:src/stm32f1xx_hal_tim_ex.c **** 
 937:src/stm32f1xx_hal_tim_ex.c ****   /* Return function status */
 938:src/stm32f1xx_hal_tim_ex.c ****   return HAL_OK;
 939:src/stm32f1xx_hal_tim_ex.c **** }
 940:src/stm32f1xx_hal_tim_ex.c **** 
 941:src/stm32f1xx_hal_tim_ex.c **** /**
 942:src/stm32f1xx_hal_tim_ex.c ****   * @brief  Stops the PWM signal generation on the complementary output.
 943:src/stm32f1xx_hal_tim_ex.c ****   * @param  htim TIM handle
 944:src/stm32f1xx_hal_tim_ex.c ****   * @param  Channel TIM Channel to be disabled
 945:src/stm32f1xx_hal_tim_ex.c ****   *          This parameter can be one of the following values:
 946:src/stm32f1xx_hal_tim_ex.c ****   *            @arg TIM_CHANNEL_1: TIM Channel 1 selected
 947:src/stm32f1xx_hal_tim_ex.c ****   *            @arg TIM_CHANNEL_2: TIM Channel 2 selected
 948:src/stm32f1xx_hal_tim_ex.c ****   *            @arg TIM_CHANNEL_3: TIM Channel 3 selected
 949:src/stm32f1xx_hal_tim_ex.c ****   * @retval HAL status
ARM GAS  /tmp/ccD9AYux.s 			page 19


 950:src/stm32f1xx_hal_tim_ex.c ****   */
 951:src/stm32f1xx_hal_tim_ex.c **** HAL_StatusTypeDef HAL_TIMEx_PWMN_Stop(TIM_HandleTypeDef *htim, uint32_t Channel)
 952:src/stm32f1xx_hal_tim_ex.c **** {
 953:src/stm32f1xx_hal_tim_ex.c ****   /* Check the parameters */
 954:src/stm32f1xx_hal_tim_ex.c ****   assert_param(IS_TIM_CCXN_INSTANCE(htim->Instance, Channel));
 955:src/stm32f1xx_hal_tim_ex.c **** 
 956:src/stm32f1xx_hal_tim_ex.c ****   /* Disable the complementary PWM output  */
 957:src/stm32f1xx_hal_tim_ex.c ****   TIM_CCxNChannelCmd(htim->Instance, Channel, TIM_CCxN_DISABLE);
 958:src/stm32f1xx_hal_tim_ex.c **** 
 959:src/stm32f1xx_hal_tim_ex.c ****   /* Disable the Main Output */
 960:src/stm32f1xx_hal_tim_ex.c ****   __HAL_TIM_MOE_DISABLE(htim);
 961:src/stm32f1xx_hal_tim_ex.c **** 
 962:src/stm32f1xx_hal_tim_ex.c ****   /* Disable the Peripheral */
 963:src/stm32f1xx_hal_tim_ex.c ****   __HAL_TIM_DISABLE(htim);
 964:src/stm32f1xx_hal_tim_ex.c **** 
 965:src/stm32f1xx_hal_tim_ex.c ****   /* Return function status */
 966:src/stm32f1xx_hal_tim_ex.c ****   return HAL_OK;
 967:src/stm32f1xx_hal_tim_ex.c **** }
 968:src/stm32f1xx_hal_tim_ex.c **** 
 969:src/stm32f1xx_hal_tim_ex.c **** /**
 970:src/stm32f1xx_hal_tim_ex.c ****   * @brief  Starts the PWM signal generation in interrupt mode on the
 971:src/stm32f1xx_hal_tim_ex.c ****   *         complementary output.
 972:src/stm32f1xx_hal_tim_ex.c ****   * @param  htim TIM handle
 973:src/stm32f1xx_hal_tim_ex.c ****   * @param  Channel TIM Channel to be disabled
 974:src/stm32f1xx_hal_tim_ex.c ****   *          This parameter can be one of the following values:
 975:src/stm32f1xx_hal_tim_ex.c ****   *            @arg TIM_CHANNEL_1: TIM Channel 1 selected
 976:src/stm32f1xx_hal_tim_ex.c ****   *            @arg TIM_CHANNEL_2: TIM Channel 2 selected
 977:src/stm32f1xx_hal_tim_ex.c ****   *            @arg TIM_CHANNEL_3: TIM Channel 3 selected
 978:src/stm32f1xx_hal_tim_ex.c ****   * @retval HAL status
 979:src/stm32f1xx_hal_tim_ex.c ****   */
 980:src/stm32f1xx_hal_tim_ex.c **** HAL_StatusTypeDef HAL_TIMEx_PWMN_Start_IT(TIM_HandleTypeDef *htim, uint32_t Channel)
 981:src/stm32f1xx_hal_tim_ex.c **** {
 982:src/stm32f1xx_hal_tim_ex.c ****   uint32_t tmpsmcr;
 983:src/stm32f1xx_hal_tim_ex.c **** 
 984:src/stm32f1xx_hal_tim_ex.c ****   /* Check the parameters */
 985:src/stm32f1xx_hal_tim_ex.c ****   assert_param(IS_TIM_CCXN_INSTANCE(htim->Instance, Channel));
 986:src/stm32f1xx_hal_tim_ex.c **** 
 987:src/stm32f1xx_hal_tim_ex.c ****   switch (Channel)
 988:src/stm32f1xx_hal_tim_ex.c ****   {
 989:src/stm32f1xx_hal_tim_ex.c ****     case TIM_CHANNEL_1:
 990:src/stm32f1xx_hal_tim_ex.c ****     {
 991:src/stm32f1xx_hal_tim_ex.c ****       /* Enable the TIM Capture/Compare 1 interrupt */
 992:src/stm32f1xx_hal_tim_ex.c ****       __HAL_TIM_ENABLE_IT(htim, TIM_IT_CC1);
 993:src/stm32f1xx_hal_tim_ex.c ****       break;
 994:src/stm32f1xx_hal_tim_ex.c ****     }
 995:src/stm32f1xx_hal_tim_ex.c **** 
 996:src/stm32f1xx_hal_tim_ex.c ****     case TIM_CHANNEL_2:
 997:src/stm32f1xx_hal_tim_ex.c ****     {
 998:src/stm32f1xx_hal_tim_ex.c ****       /* Enable the TIM Capture/Compare 2 interrupt */
 999:src/stm32f1xx_hal_tim_ex.c ****       __HAL_TIM_ENABLE_IT(htim, TIM_IT_CC2);
1000:src/stm32f1xx_hal_tim_ex.c ****       break;
1001:src/stm32f1xx_hal_tim_ex.c ****     }
1002:src/stm32f1xx_hal_tim_ex.c **** 
1003:src/stm32f1xx_hal_tim_ex.c ****     case TIM_CHANNEL_3:
1004:src/stm32f1xx_hal_tim_ex.c ****     {
1005:src/stm32f1xx_hal_tim_ex.c ****       /* Enable the TIM Capture/Compare 3 interrupt */
1006:src/stm32f1xx_hal_tim_ex.c ****       __HAL_TIM_ENABLE_IT(htim, TIM_IT_CC3);
ARM GAS  /tmp/ccD9AYux.s 			page 20


1007:src/stm32f1xx_hal_tim_ex.c ****       break;
1008:src/stm32f1xx_hal_tim_ex.c ****     }
1009:src/stm32f1xx_hal_tim_ex.c **** 
1010:src/stm32f1xx_hal_tim_ex.c ****     default:
1011:src/stm32f1xx_hal_tim_ex.c ****       break;
1012:src/stm32f1xx_hal_tim_ex.c ****   }
1013:src/stm32f1xx_hal_tim_ex.c **** 
1014:src/stm32f1xx_hal_tim_ex.c ****   /* Enable the TIM Break interrupt */
1015:src/stm32f1xx_hal_tim_ex.c ****   __HAL_TIM_ENABLE_IT(htim, TIM_IT_BREAK);
1016:src/stm32f1xx_hal_tim_ex.c **** 
1017:src/stm32f1xx_hal_tim_ex.c ****   /* Enable the complementary PWM output  */
1018:src/stm32f1xx_hal_tim_ex.c ****   TIM_CCxNChannelCmd(htim->Instance, Channel, TIM_CCxN_ENABLE);
1019:src/stm32f1xx_hal_tim_ex.c **** 
1020:src/stm32f1xx_hal_tim_ex.c ****   /* Enable the Main Output */
1021:src/stm32f1xx_hal_tim_ex.c ****   __HAL_TIM_MOE_ENABLE(htim);
1022:src/stm32f1xx_hal_tim_ex.c **** 
1023:src/stm32f1xx_hal_tim_ex.c ****   /* Enable the Peripheral, except in trigger mode where enable is automatically done with trigger 
1024:src/stm32f1xx_hal_tim_ex.c ****   tmpsmcr = htim->Instance->SMCR & TIM_SMCR_SMS;
1025:src/stm32f1xx_hal_tim_ex.c ****   if (!IS_TIM_SLAVEMODE_TRIGGER_ENABLED(tmpsmcr))
1026:src/stm32f1xx_hal_tim_ex.c ****   {
1027:src/stm32f1xx_hal_tim_ex.c ****     __HAL_TIM_ENABLE(htim);
1028:src/stm32f1xx_hal_tim_ex.c ****   }
1029:src/stm32f1xx_hal_tim_ex.c **** 
1030:src/stm32f1xx_hal_tim_ex.c ****   /* Return function status */
1031:src/stm32f1xx_hal_tim_ex.c ****   return HAL_OK;
1032:src/stm32f1xx_hal_tim_ex.c **** }
1033:src/stm32f1xx_hal_tim_ex.c **** 
1034:src/stm32f1xx_hal_tim_ex.c **** /**
1035:src/stm32f1xx_hal_tim_ex.c ****   * @brief  Stops the PWM signal generation in interrupt mode on the
1036:src/stm32f1xx_hal_tim_ex.c ****   *         complementary output.
1037:src/stm32f1xx_hal_tim_ex.c ****   * @param  htim TIM handle
1038:src/stm32f1xx_hal_tim_ex.c ****   * @param  Channel TIM Channel to be disabled
1039:src/stm32f1xx_hal_tim_ex.c ****   *          This parameter can be one of the following values:
1040:src/stm32f1xx_hal_tim_ex.c ****   *            @arg TIM_CHANNEL_1: TIM Channel 1 selected
1041:src/stm32f1xx_hal_tim_ex.c ****   *            @arg TIM_CHANNEL_2: TIM Channel 2 selected
1042:src/stm32f1xx_hal_tim_ex.c ****   *            @arg TIM_CHANNEL_3: TIM Channel 3 selected
1043:src/stm32f1xx_hal_tim_ex.c ****   * @retval HAL status
1044:src/stm32f1xx_hal_tim_ex.c ****   */
1045:src/stm32f1xx_hal_tim_ex.c **** HAL_StatusTypeDef HAL_TIMEx_PWMN_Stop_IT(TIM_HandleTypeDef *htim, uint32_t Channel)
1046:src/stm32f1xx_hal_tim_ex.c **** {
1047:src/stm32f1xx_hal_tim_ex.c ****   uint32_t tmpccer;
1048:src/stm32f1xx_hal_tim_ex.c **** 
1049:src/stm32f1xx_hal_tim_ex.c ****   /* Check the parameters */
1050:src/stm32f1xx_hal_tim_ex.c ****   assert_param(IS_TIM_CCXN_INSTANCE(htim->Instance, Channel));
1051:src/stm32f1xx_hal_tim_ex.c **** 
1052:src/stm32f1xx_hal_tim_ex.c ****   switch (Channel)
1053:src/stm32f1xx_hal_tim_ex.c ****   {
1054:src/stm32f1xx_hal_tim_ex.c ****     case TIM_CHANNEL_1:
1055:src/stm32f1xx_hal_tim_ex.c ****     {
1056:src/stm32f1xx_hal_tim_ex.c ****       /* Disable the TIM Capture/Compare 1 interrupt */
1057:src/stm32f1xx_hal_tim_ex.c ****       __HAL_TIM_DISABLE_IT(htim, TIM_IT_CC1);
1058:src/stm32f1xx_hal_tim_ex.c ****       break;
1059:src/stm32f1xx_hal_tim_ex.c ****     }
1060:src/stm32f1xx_hal_tim_ex.c **** 
1061:src/stm32f1xx_hal_tim_ex.c ****     case TIM_CHANNEL_2:
1062:src/stm32f1xx_hal_tim_ex.c ****     {
1063:src/stm32f1xx_hal_tim_ex.c ****       /* Disable the TIM Capture/Compare 2 interrupt */
ARM GAS  /tmp/ccD9AYux.s 			page 21


1064:src/stm32f1xx_hal_tim_ex.c ****       __HAL_TIM_DISABLE_IT(htim, TIM_IT_CC2);
1065:src/stm32f1xx_hal_tim_ex.c ****       break;
1066:src/stm32f1xx_hal_tim_ex.c ****     }
1067:src/stm32f1xx_hal_tim_ex.c **** 
1068:src/stm32f1xx_hal_tim_ex.c ****     case TIM_CHANNEL_3:
1069:src/stm32f1xx_hal_tim_ex.c ****     {
1070:src/stm32f1xx_hal_tim_ex.c ****       /* Disable the TIM Capture/Compare 3 interrupt */
1071:src/stm32f1xx_hal_tim_ex.c ****       __HAL_TIM_DISABLE_IT(htim, TIM_IT_CC3);
1072:src/stm32f1xx_hal_tim_ex.c ****       break;
1073:src/stm32f1xx_hal_tim_ex.c ****     }
1074:src/stm32f1xx_hal_tim_ex.c **** 
1075:src/stm32f1xx_hal_tim_ex.c ****     default:
1076:src/stm32f1xx_hal_tim_ex.c ****       break;
1077:src/stm32f1xx_hal_tim_ex.c ****   }
1078:src/stm32f1xx_hal_tim_ex.c **** 
1079:src/stm32f1xx_hal_tim_ex.c ****   /* Disable the complementary PWM output  */
1080:src/stm32f1xx_hal_tim_ex.c ****   TIM_CCxNChannelCmd(htim->Instance, Channel, TIM_CCxN_DISABLE);
1081:src/stm32f1xx_hal_tim_ex.c **** 
1082:src/stm32f1xx_hal_tim_ex.c ****   /* Disable the TIM Break interrupt (only if no more channel is active) */
1083:src/stm32f1xx_hal_tim_ex.c ****   tmpccer = htim->Instance->CCER;
1084:src/stm32f1xx_hal_tim_ex.c ****   if ((tmpccer & (TIM_CCER_CC1NE | TIM_CCER_CC2NE | TIM_CCER_CC3NE)) == (uint32_t)RESET)
1085:src/stm32f1xx_hal_tim_ex.c ****   {
1086:src/stm32f1xx_hal_tim_ex.c ****     __HAL_TIM_DISABLE_IT(htim, TIM_IT_BREAK);
1087:src/stm32f1xx_hal_tim_ex.c ****   }
1088:src/stm32f1xx_hal_tim_ex.c **** 
1089:src/stm32f1xx_hal_tim_ex.c ****   /* Disable the Main Output */
1090:src/stm32f1xx_hal_tim_ex.c ****   __HAL_TIM_MOE_DISABLE(htim);
1091:src/stm32f1xx_hal_tim_ex.c **** 
1092:src/stm32f1xx_hal_tim_ex.c ****   /* Disable the Peripheral */
1093:src/stm32f1xx_hal_tim_ex.c ****   __HAL_TIM_DISABLE(htim);
1094:src/stm32f1xx_hal_tim_ex.c **** 
1095:src/stm32f1xx_hal_tim_ex.c ****   /* Return function status */
1096:src/stm32f1xx_hal_tim_ex.c ****   return HAL_OK;
1097:src/stm32f1xx_hal_tim_ex.c **** }
1098:src/stm32f1xx_hal_tim_ex.c **** 
1099:src/stm32f1xx_hal_tim_ex.c **** /**
1100:src/stm32f1xx_hal_tim_ex.c ****   * @brief  Starts the TIM PWM signal generation in DMA mode on the
1101:src/stm32f1xx_hal_tim_ex.c ****   *         complementary output
1102:src/stm32f1xx_hal_tim_ex.c ****   * @param  htim TIM handle
1103:src/stm32f1xx_hal_tim_ex.c ****   * @param  Channel TIM Channel to be enabled
1104:src/stm32f1xx_hal_tim_ex.c ****   *          This parameter can be one of the following values:
1105:src/stm32f1xx_hal_tim_ex.c ****   *            @arg TIM_CHANNEL_1: TIM Channel 1 selected
1106:src/stm32f1xx_hal_tim_ex.c ****   *            @arg TIM_CHANNEL_2: TIM Channel 2 selected
1107:src/stm32f1xx_hal_tim_ex.c ****   *            @arg TIM_CHANNEL_3: TIM Channel 3 selected
1108:src/stm32f1xx_hal_tim_ex.c ****   * @param  pData The source Buffer address.
1109:src/stm32f1xx_hal_tim_ex.c ****   * @param  Length The length of data to be transferred from memory to TIM peripheral
1110:src/stm32f1xx_hal_tim_ex.c ****   * @retval HAL status
1111:src/stm32f1xx_hal_tim_ex.c ****   */
1112:src/stm32f1xx_hal_tim_ex.c **** HAL_StatusTypeDef HAL_TIMEx_PWMN_Start_DMA(TIM_HandleTypeDef *htim, uint32_t Channel, uint32_t *pDa
1113:src/stm32f1xx_hal_tim_ex.c **** {
1114:src/stm32f1xx_hal_tim_ex.c ****   uint32_t tmpsmcr;
1115:src/stm32f1xx_hal_tim_ex.c **** 
1116:src/stm32f1xx_hal_tim_ex.c ****   /* Check the parameters */
1117:src/stm32f1xx_hal_tim_ex.c ****   assert_param(IS_TIM_CCXN_INSTANCE(htim->Instance, Channel));
1118:src/stm32f1xx_hal_tim_ex.c **** 
1119:src/stm32f1xx_hal_tim_ex.c ****   if (htim->State == HAL_TIM_STATE_BUSY)
1120:src/stm32f1xx_hal_tim_ex.c ****   {
ARM GAS  /tmp/ccD9AYux.s 			page 22


1121:src/stm32f1xx_hal_tim_ex.c ****     return HAL_BUSY;
1122:src/stm32f1xx_hal_tim_ex.c ****   }
1123:src/stm32f1xx_hal_tim_ex.c ****   else if (htim->State == HAL_TIM_STATE_READY)
1124:src/stm32f1xx_hal_tim_ex.c ****   {
1125:src/stm32f1xx_hal_tim_ex.c ****     if (((uint32_t)pData == 0U) && (Length > 0U))
1126:src/stm32f1xx_hal_tim_ex.c ****     {
1127:src/stm32f1xx_hal_tim_ex.c ****       return HAL_ERROR;
1128:src/stm32f1xx_hal_tim_ex.c ****     }
1129:src/stm32f1xx_hal_tim_ex.c ****     else
1130:src/stm32f1xx_hal_tim_ex.c ****     {
1131:src/stm32f1xx_hal_tim_ex.c ****       htim->State = HAL_TIM_STATE_BUSY;
1132:src/stm32f1xx_hal_tim_ex.c ****     }
1133:src/stm32f1xx_hal_tim_ex.c ****   }
1134:src/stm32f1xx_hal_tim_ex.c ****   else
1135:src/stm32f1xx_hal_tim_ex.c ****   {
1136:src/stm32f1xx_hal_tim_ex.c ****     /* nothing to do */
1137:src/stm32f1xx_hal_tim_ex.c ****   }
1138:src/stm32f1xx_hal_tim_ex.c ****   switch (Channel)
1139:src/stm32f1xx_hal_tim_ex.c ****   {
1140:src/stm32f1xx_hal_tim_ex.c ****     case TIM_CHANNEL_1:
1141:src/stm32f1xx_hal_tim_ex.c ****     {
1142:src/stm32f1xx_hal_tim_ex.c ****       /* Set the DMA compare callbacks */
1143:src/stm32f1xx_hal_tim_ex.c ****       htim->hdma[TIM_DMA_ID_CC1]->XferCpltCallback = TIM_DMADelayPulseCplt;
1144:src/stm32f1xx_hal_tim_ex.c ****       htim->hdma[TIM_DMA_ID_CC1]->XferHalfCpltCallback = TIM_DMADelayPulseHalfCplt;
1145:src/stm32f1xx_hal_tim_ex.c **** 
1146:src/stm32f1xx_hal_tim_ex.c ****       /* Set the DMA error callback */
1147:src/stm32f1xx_hal_tim_ex.c ****       htim->hdma[TIM_DMA_ID_CC1]->XferErrorCallback = TIM_DMAError ;
1148:src/stm32f1xx_hal_tim_ex.c **** 
1149:src/stm32f1xx_hal_tim_ex.c ****       /* Enable the DMA channel */
1150:src/stm32f1xx_hal_tim_ex.c ****       if (HAL_DMA_Start_IT(htim->hdma[TIM_DMA_ID_CC1], (uint32_t)pData, (uint32_t)&htim->Instance->
1151:src/stm32f1xx_hal_tim_ex.c ****       {
1152:src/stm32f1xx_hal_tim_ex.c ****         return HAL_ERROR;
1153:src/stm32f1xx_hal_tim_ex.c ****       }
1154:src/stm32f1xx_hal_tim_ex.c ****       /* Enable the TIM Capture/Compare 1 DMA request */
1155:src/stm32f1xx_hal_tim_ex.c ****       __HAL_TIM_ENABLE_DMA(htim, TIM_DMA_CC1);
1156:src/stm32f1xx_hal_tim_ex.c ****       break;
1157:src/stm32f1xx_hal_tim_ex.c ****     }
1158:src/stm32f1xx_hal_tim_ex.c **** 
1159:src/stm32f1xx_hal_tim_ex.c ****     case TIM_CHANNEL_2:
1160:src/stm32f1xx_hal_tim_ex.c ****     {
1161:src/stm32f1xx_hal_tim_ex.c ****       /* Set the DMA compare callbacks */
1162:src/stm32f1xx_hal_tim_ex.c ****       htim->hdma[TIM_DMA_ID_CC2]->XferCpltCallback = TIM_DMADelayPulseCplt;
1163:src/stm32f1xx_hal_tim_ex.c ****       htim->hdma[TIM_DMA_ID_CC2]->XferHalfCpltCallback = TIM_DMADelayPulseHalfCplt;
1164:src/stm32f1xx_hal_tim_ex.c **** 
1165:src/stm32f1xx_hal_tim_ex.c ****       /* Set the DMA error callback */
1166:src/stm32f1xx_hal_tim_ex.c ****       htim->hdma[TIM_DMA_ID_CC2]->XferErrorCallback = TIM_DMAError ;
1167:src/stm32f1xx_hal_tim_ex.c **** 
1168:src/stm32f1xx_hal_tim_ex.c ****       /* Enable the DMA channel */
1169:src/stm32f1xx_hal_tim_ex.c ****       if (HAL_DMA_Start_IT(htim->hdma[TIM_DMA_ID_CC2], (uint32_t)pData, (uint32_t)&htim->Instance->
1170:src/stm32f1xx_hal_tim_ex.c ****       {
1171:src/stm32f1xx_hal_tim_ex.c ****         return HAL_ERROR;
1172:src/stm32f1xx_hal_tim_ex.c ****       }
1173:src/stm32f1xx_hal_tim_ex.c ****       /* Enable the TIM Capture/Compare 2 DMA request */
1174:src/stm32f1xx_hal_tim_ex.c ****       __HAL_TIM_ENABLE_DMA(htim, TIM_DMA_CC2);
1175:src/stm32f1xx_hal_tim_ex.c ****       break;
1176:src/stm32f1xx_hal_tim_ex.c ****     }
1177:src/stm32f1xx_hal_tim_ex.c **** 
ARM GAS  /tmp/ccD9AYux.s 			page 23


1178:src/stm32f1xx_hal_tim_ex.c ****     case TIM_CHANNEL_3:
1179:src/stm32f1xx_hal_tim_ex.c ****     {
1180:src/stm32f1xx_hal_tim_ex.c ****       /* Set the DMA compare callbacks */
1181:src/stm32f1xx_hal_tim_ex.c ****       htim->hdma[TIM_DMA_ID_CC3]->XferCpltCallback = TIM_DMADelayPulseCplt;
1182:src/stm32f1xx_hal_tim_ex.c ****       htim->hdma[TIM_DMA_ID_CC3]->XferHalfCpltCallback = TIM_DMADelayPulseHalfCplt;
1183:src/stm32f1xx_hal_tim_ex.c **** 
1184:src/stm32f1xx_hal_tim_ex.c ****       /* Set the DMA error callback */
1185:src/stm32f1xx_hal_tim_ex.c ****       htim->hdma[TIM_DMA_ID_CC3]->XferErrorCallback = TIM_DMAError ;
1186:src/stm32f1xx_hal_tim_ex.c **** 
1187:src/stm32f1xx_hal_tim_ex.c ****       /* Enable the DMA channel */
1188:src/stm32f1xx_hal_tim_ex.c ****       if (HAL_DMA_Start_IT(htim->hdma[TIM_DMA_ID_CC3], (uint32_t)pData, (uint32_t)&htim->Instance->
1189:src/stm32f1xx_hal_tim_ex.c ****       {
1190:src/stm32f1xx_hal_tim_ex.c ****         return HAL_ERROR;
1191:src/stm32f1xx_hal_tim_ex.c ****       }
1192:src/stm32f1xx_hal_tim_ex.c ****       /* Enable the TIM Capture/Compare 3 DMA request */
1193:src/stm32f1xx_hal_tim_ex.c ****       __HAL_TIM_ENABLE_DMA(htim, TIM_DMA_CC3);
1194:src/stm32f1xx_hal_tim_ex.c ****       break;
1195:src/stm32f1xx_hal_tim_ex.c ****     }
1196:src/stm32f1xx_hal_tim_ex.c **** 
1197:src/stm32f1xx_hal_tim_ex.c ****     default:
1198:src/stm32f1xx_hal_tim_ex.c ****       break;
1199:src/stm32f1xx_hal_tim_ex.c ****   }
1200:src/stm32f1xx_hal_tim_ex.c **** 
1201:src/stm32f1xx_hal_tim_ex.c ****   /* Enable the complementary PWM output  */
1202:src/stm32f1xx_hal_tim_ex.c ****   TIM_CCxNChannelCmd(htim->Instance, Channel, TIM_CCxN_ENABLE);
1203:src/stm32f1xx_hal_tim_ex.c **** 
1204:src/stm32f1xx_hal_tim_ex.c ****   /* Enable the Main Output */
1205:src/stm32f1xx_hal_tim_ex.c ****   __HAL_TIM_MOE_ENABLE(htim);
1206:src/stm32f1xx_hal_tim_ex.c **** 
1207:src/stm32f1xx_hal_tim_ex.c ****   /* Enable the Peripheral, except in trigger mode where enable is automatically done with trigger 
1208:src/stm32f1xx_hal_tim_ex.c ****   tmpsmcr = htim->Instance->SMCR & TIM_SMCR_SMS;
1209:src/stm32f1xx_hal_tim_ex.c ****   if (!IS_TIM_SLAVEMODE_TRIGGER_ENABLED(tmpsmcr))
1210:src/stm32f1xx_hal_tim_ex.c ****   {
1211:src/stm32f1xx_hal_tim_ex.c ****     __HAL_TIM_ENABLE(htim);
1212:src/stm32f1xx_hal_tim_ex.c ****   }
1213:src/stm32f1xx_hal_tim_ex.c **** 
1214:src/stm32f1xx_hal_tim_ex.c ****   /* Return function status */
1215:src/stm32f1xx_hal_tim_ex.c ****   return HAL_OK;
1216:src/stm32f1xx_hal_tim_ex.c **** }
1217:src/stm32f1xx_hal_tim_ex.c **** 
1218:src/stm32f1xx_hal_tim_ex.c **** /**
1219:src/stm32f1xx_hal_tim_ex.c ****   * @brief  Stops the TIM PWM signal generation in DMA mode on the complementary
1220:src/stm32f1xx_hal_tim_ex.c ****   *         output
1221:src/stm32f1xx_hal_tim_ex.c ****   * @param  htim TIM handle
1222:src/stm32f1xx_hal_tim_ex.c ****   * @param  Channel TIM Channel to be disabled
1223:src/stm32f1xx_hal_tim_ex.c ****   *          This parameter can be one of the following values:
1224:src/stm32f1xx_hal_tim_ex.c ****   *            @arg TIM_CHANNEL_1: TIM Channel 1 selected
1225:src/stm32f1xx_hal_tim_ex.c ****   *            @arg TIM_CHANNEL_2: TIM Channel 2 selected
1226:src/stm32f1xx_hal_tim_ex.c ****   *            @arg TIM_CHANNEL_3: TIM Channel 3 selected
1227:src/stm32f1xx_hal_tim_ex.c ****   * @retval HAL status
1228:src/stm32f1xx_hal_tim_ex.c ****   */
1229:src/stm32f1xx_hal_tim_ex.c **** HAL_StatusTypeDef HAL_TIMEx_PWMN_Stop_DMA(TIM_HandleTypeDef *htim, uint32_t Channel)
1230:src/stm32f1xx_hal_tim_ex.c **** {
1231:src/stm32f1xx_hal_tim_ex.c ****   /* Check the parameters */
1232:src/stm32f1xx_hal_tim_ex.c ****   assert_param(IS_TIM_CCXN_INSTANCE(htim->Instance, Channel));
1233:src/stm32f1xx_hal_tim_ex.c **** 
1234:src/stm32f1xx_hal_tim_ex.c ****   switch (Channel)
ARM GAS  /tmp/ccD9AYux.s 			page 24


1235:src/stm32f1xx_hal_tim_ex.c ****   {
1236:src/stm32f1xx_hal_tim_ex.c ****     case TIM_CHANNEL_1:
1237:src/stm32f1xx_hal_tim_ex.c ****     {
1238:src/stm32f1xx_hal_tim_ex.c ****       /* Disable the TIM Capture/Compare 1 DMA request */
1239:src/stm32f1xx_hal_tim_ex.c ****       __HAL_TIM_DISABLE_DMA(htim, TIM_DMA_CC1);
1240:src/stm32f1xx_hal_tim_ex.c ****       (void)HAL_DMA_Abort_IT(htim->hdma[TIM_DMA_ID_CC1]);
1241:src/stm32f1xx_hal_tim_ex.c ****       break;
1242:src/stm32f1xx_hal_tim_ex.c ****     }
1243:src/stm32f1xx_hal_tim_ex.c **** 
1244:src/stm32f1xx_hal_tim_ex.c ****     case TIM_CHANNEL_2:
1245:src/stm32f1xx_hal_tim_ex.c ****     {
1246:src/stm32f1xx_hal_tim_ex.c ****       /* Disable the TIM Capture/Compare 2 DMA request */
1247:src/stm32f1xx_hal_tim_ex.c ****       __HAL_TIM_DISABLE_DMA(htim, TIM_DMA_CC2);
1248:src/stm32f1xx_hal_tim_ex.c ****       (void)HAL_DMA_Abort_IT(htim->hdma[TIM_DMA_ID_CC2]);
1249:src/stm32f1xx_hal_tim_ex.c ****       break;
1250:src/stm32f1xx_hal_tim_ex.c ****     }
1251:src/stm32f1xx_hal_tim_ex.c **** 
1252:src/stm32f1xx_hal_tim_ex.c ****     case TIM_CHANNEL_3:
1253:src/stm32f1xx_hal_tim_ex.c ****     {
1254:src/stm32f1xx_hal_tim_ex.c ****       /* Disable the TIM Capture/Compare 3 DMA request */
1255:src/stm32f1xx_hal_tim_ex.c ****       __HAL_TIM_DISABLE_DMA(htim, TIM_DMA_CC3);
1256:src/stm32f1xx_hal_tim_ex.c ****       (void)HAL_DMA_Abort_IT(htim->hdma[TIM_DMA_ID_CC3]);
1257:src/stm32f1xx_hal_tim_ex.c ****       break;
1258:src/stm32f1xx_hal_tim_ex.c ****     }
1259:src/stm32f1xx_hal_tim_ex.c **** 
1260:src/stm32f1xx_hal_tim_ex.c ****     default:
1261:src/stm32f1xx_hal_tim_ex.c ****       break;
1262:src/stm32f1xx_hal_tim_ex.c ****   }
1263:src/stm32f1xx_hal_tim_ex.c **** 
1264:src/stm32f1xx_hal_tim_ex.c ****   /* Disable the complementary PWM output */
1265:src/stm32f1xx_hal_tim_ex.c ****   TIM_CCxNChannelCmd(htim->Instance, Channel, TIM_CCxN_DISABLE);
1266:src/stm32f1xx_hal_tim_ex.c **** 
1267:src/stm32f1xx_hal_tim_ex.c ****   /* Disable the Main Output */
1268:src/stm32f1xx_hal_tim_ex.c ****   __HAL_TIM_MOE_DISABLE(htim);
1269:src/stm32f1xx_hal_tim_ex.c **** 
1270:src/stm32f1xx_hal_tim_ex.c ****   /* Disable the Peripheral */
1271:src/stm32f1xx_hal_tim_ex.c ****   __HAL_TIM_DISABLE(htim);
1272:src/stm32f1xx_hal_tim_ex.c **** 
1273:src/stm32f1xx_hal_tim_ex.c ****   /* Change the htim state */
1274:src/stm32f1xx_hal_tim_ex.c ****   htim->State = HAL_TIM_STATE_READY;
1275:src/stm32f1xx_hal_tim_ex.c **** 
1276:src/stm32f1xx_hal_tim_ex.c ****   /* Return function status */
1277:src/stm32f1xx_hal_tim_ex.c ****   return HAL_OK;
1278:src/stm32f1xx_hal_tim_ex.c **** }
1279:src/stm32f1xx_hal_tim_ex.c **** 
1280:src/stm32f1xx_hal_tim_ex.c **** /**
1281:src/stm32f1xx_hal_tim_ex.c ****   * @}
1282:src/stm32f1xx_hal_tim_ex.c ****   */
1283:src/stm32f1xx_hal_tim_ex.c **** 
1284:src/stm32f1xx_hal_tim_ex.c **** /** @defgroup TIMEx_Exported_Functions_Group4 Extended Timer Complementary One Pulse functions
1285:src/stm32f1xx_hal_tim_ex.c ****   * @brief    Timer Complementary One Pulse functions
1286:src/stm32f1xx_hal_tim_ex.c ****   *
1287:src/stm32f1xx_hal_tim_ex.c **** @verbatim
1288:src/stm32f1xx_hal_tim_ex.c ****   ==============================================================================
1289:src/stm32f1xx_hal_tim_ex.c ****                 ##### Timer Complementary One Pulse functions #####
1290:src/stm32f1xx_hal_tim_ex.c ****   ==============================================================================
1291:src/stm32f1xx_hal_tim_ex.c ****   [..]
ARM GAS  /tmp/ccD9AYux.s 			page 25


1292:src/stm32f1xx_hal_tim_ex.c ****     This section provides functions allowing to:
1293:src/stm32f1xx_hal_tim_ex.c ****     (+) Start the Complementary One Pulse generation.
1294:src/stm32f1xx_hal_tim_ex.c ****     (+) Stop the Complementary One Pulse.
1295:src/stm32f1xx_hal_tim_ex.c ****     (+) Start the Complementary One Pulse and enable interrupts.
1296:src/stm32f1xx_hal_tim_ex.c ****     (+) Stop the Complementary One Pulse and disable interrupts.
1297:src/stm32f1xx_hal_tim_ex.c **** 
1298:src/stm32f1xx_hal_tim_ex.c **** @endverbatim
1299:src/stm32f1xx_hal_tim_ex.c ****   * @{
1300:src/stm32f1xx_hal_tim_ex.c ****   */
1301:src/stm32f1xx_hal_tim_ex.c **** 
1302:src/stm32f1xx_hal_tim_ex.c **** /**
1303:src/stm32f1xx_hal_tim_ex.c ****   * @brief  Starts the TIM One Pulse signal generation on the complementary
1304:src/stm32f1xx_hal_tim_ex.c ****   *         output.
1305:src/stm32f1xx_hal_tim_ex.c ****   * @param  htim TIM One Pulse handle
1306:src/stm32f1xx_hal_tim_ex.c ****   * @param  OutputChannel TIM Channel to be enabled
1307:src/stm32f1xx_hal_tim_ex.c ****   *          This parameter can be one of the following values:
1308:src/stm32f1xx_hal_tim_ex.c ****   *            @arg TIM_CHANNEL_1: TIM Channel 1 selected
1309:src/stm32f1xx_hal_tim_ex.c ****   *            @arg TIM_CHANNEL_2: TIM Channel 2 selected
1310:src/stm32f1xx_hal_tim_ex.c ****   * @retval HAL status
1311:src/stm32f1xx_hal_tim_ex.c ****   */
1312:src/stm32f1xx_hal_tim_ex.c **** HAL_StatusTypeDef HAL_TIMEx_OnePulseN_Start(TIM_HandleTypeDef *htim, uint32_t OutputChannel)
1313:src/stm32f1xx_hal_tim_ex.c **** {
1314:src/stm32f1xx_hal_tim_ex.c ****   /* Check the parameters */
1315:src/stm32f1xx_hal_tim_ex.c ****   assert_param(IS_TIM_CCXN_INSTANCE(htim->Instance, OutputChannel));
1316:src/stm32f1xx_hal_tim_ex.c **** 
1317:src/stm32f1xx_hal_tim_ex.c ****   /* Enable the complementary One Pulse output */
1318:src/stm32f1xx_hal_tim_ex.c ****   TIM_CCxNChannelCmd(htim->Instance, OutputChannel, TIM_CCxN_ENABLE);
1319:src/stm32f1xx_hal_tim_ex.c **** 
1320:src/stm32f1xx_hal_tim_ex.c ****   /* Enable the Main Output */
1321:src/stm32f1xx_hal_tim_ex.c ****   __HAL_TIM_MOE_ENABLE(htim);
1322:src/stm32f1xx_hal_tim_ex.c **** 
1323:src/stm32f1xx_hal_tim_ex.c ****   /* Return function status */
1324:src/stm32f1xx_hal_tim_ex.c ****   return HAL_OK;
1325:src/stm32f1xx_hal_tim_ex.c **** }
1326:src/stm32f1xx_hal_tim_ex.c **** 
1327:src/stm32f1xx_hal_tim_ex.c **** /**
1328:src/stm32f1xx_hal_tim_ex.c ****   * @brief  Stops the TIM One Pulse signal generation on the complementary
1329:src/stm32f1xx_hal_tim_ex.c ****   *         output.
1330:src/stm32f1xx_hal_tim_ex.c ****   * @param  htim TIM One Pulse handle
1331:src/stm32f1xx_hal_tim_ex.c ****   * @param  OutputChannel TIM Channel to be disabled
1332:src/stm32f1xx_hal_tim_ex.c ****   *          This parameter can be one of the following values:
1333:src/stm32f1xx_hal_tim_ex.c ****   *            @arg TIM_CHANNEL_1: TIM Channel 1 selected
1334:src/stm32f1xx_hal_tim_ex.c ****   *            @arg TIM_CHANNEL_2: TIM Channel 2 selected
1335:src/stm32f1xx_hal_tim_ex.c ****   * @retval HAL status
1336:src/stm32f1xx_hal_tim_ex.c ****   */
1337:src/stm32f1xx_hal_tim_ex.c **** HAL_StatusTypeDef HAL_TIMEx_OnePulseN_Stop(TIM_HandleTypeDef *htim, uint32_t OutputChannel)
1338:src/stm32f1xx_hal_tim_ex.c **** {
1339:src/stm32f1xx_hal_tim_ex.c **** 
1340:src/stm32f1xx_hal_tim_ex.c ****   /* Check the parameters */
1341:src/stm32f1xx_hal_tim_ex.c ****   assert_param(IS_TIM_CCXN_INSTANCE(htim->Instance, OutputChannel));
1342:src/stm32f1xx_hal_tim_ex.c **** 
1343:src/stm32f1xx_hal_tim_ex.c ****   /* Disable the complementary One Pulse output */
1344:src/stm32f1xx_hal_tim_ex.c ****   TIM_CCxNChannelCmd(htim->Instance, OutputChannel, TIM_CCxN_DISABLE);
1345:src/stm32f1xx_hal_tim_ex.c **** 
1346:src/stm32f1xx_hal_tim_ex.c ****   /* Disable the Main Output */
1347:src/stm32f1xx_hal_tim_ex.c ****   __HAL_TIM_MOE_DISABLE(htim);
1348:src/stm32f1xx_hal_tim_ex.c **** 
ARM GAS  /tmp/ccD9AYux.s 			page 26


1349:src/stm32f1xx_hal_tim_ex.c ****   /* Disable the Peripheral */
1350:src/stm32f1xx_hal_tim_ex.c ****   __HAL_TIM_DISABLE(htim);
1351:src/stm32f1xx_hal_tim_ex.c **** 
1352:src/stm32f1xx_hal_tim_ex.c ****   /* Return function status */
1353:src/stm32f1xx_hal_tim_ex.c ****   return HAL_OK;
1354:src/stm32f1xx_hal_tim_ex.c **** }
1355:src/stm32f1xx_hal_tim_ex.c **** 
1356:src/stm32f1xx_hal_tim_ex.c **** /**
1357:src/stm32f1xx_hal_tim_ex.c ****   * @brief  Starts the TIM One Pulse signal generation in interrupt mode on the
1358:src/stm32f1xx_hal_tim_ex.c ****   *         complementary channel.
1359:src/stm32f1xx_hal_tim_ex.c ****   * @param  htim TIM One Pulse handle
1360:src/stm32f1xx_hal_tim_ex.c ****   * @param  OutputChannel TIM Channel to be enabled
1361:src/stm32f1xx_hal_tim_ex.c ****   *          This parameter can be one of the following values:
1362:src/stm32f1xx_hal_tim_ex.c ****   *            @arg TIM_CHANNEL_1: TIM Channel 1 selected
1363:src/stm32f1xx_hal_tim_ex.c ****   *            @arg TIM_CHANNEL_2: TIM Channel 2 selected
1364:src/stm32f1xx_hal_tim_ex.c ****   * @retval HAL status
1365:src/stm32f1xx_hal_tim_ex.c ****   */
1366:src/stm32f1xx_hal_tim_ex.c **** HAL_StatusTypeDef HAL_TIMEx_OnePulseN_Start_IT(TIM_HandleTypeDef *htim, uint32_t OutputChannel)
1367:src/stm32f1xx_hal_tim_ex.c **** {
1368:src/stm32f1xx_hal_tim_ex.c ****   /* Check the parameters */
1369:src/stm32f1xx_hal_tim_ex.c ****   assert_param(IS_TIM_CCXN_INSTANCE(htim->Instance, OutputChannel));
1370:src/stm32f1xx_hal_tim_ex.c **** 
1371:src/stm32f1xx_hal_tim_ex.c ****   /* Enable the TIM Capture/Compare 1 interrupt */
1372:src/stm32f1xx_hal_tim_ex.c ****   __HAL_TIM_ENABLE_IT(htim, TIM_IT_CC1);
1373:src/stm32f1xx_hal_tim_ex.c **** 
1374:src/stm32f1xx_hal_tim_ex.c ****   /* Enable the TIM Capture/Compare 2 interrupt */
1375:src/stm32f1xx_hal_tim_ex.c ****   __HAL_TIM_ENABLE_IT(htim, TIM_IT_CC2);
1376:src/stm32f1xx_hal_tim_ex.c **** 
1377:src/stm32f1xx_hal_tim_ex.c ****   /* Enable the complementary One Pulse output */
1378:src/stm32f1xx_hal_tim_ex.c ****   TIM_CCxNChannelCmd(htim->Instance, OutputChannel, TIM_CCxN_ENABLE);
1379:src/stm32f1xx_hal_tim_ex.c **** 
1380:src/stm32f1xx_hal_tim_ex.c ****   /* Enable the Main Output */
1381:src/stm32f1xx_hal_tim_ex.c ****   __HAL_TIM_MOE_ENABLE(htim);
1382:src/stm32f1xx_hal_tim_ex.c **** 
1383:src/stm32f1xx_hal_tim_ex.c ****   /* Return function status */
1384:src/stm32f1xx_hal_tim_ex.c ****   return HAL_OK;
1385:src/stm32f1xx_hal_tim_ex.c **** }
1386:src/stm32f1xx_hal_tim_ex.c **** 
1387:src/stm32f1xx_hal_tim_ex.c **** /**
1388:src/stm32f1xx_hal_tim_ex.c ****   * @brief  Stops the TIM One Pulse signal generation in interrupt mode on the
1389:src/stm32f1xx_hal_tim_ex.c ****   *         complementary channel.
1390:src/stm32f1xx_hal_tim_ex.c ****   * @param  htim TIM One Pulse handle
1391:src/stm32f1xx_hal_tim_ex.c ****   * @param  OutputChannel TIM Channel to be disabled
1392:src/stm32f1xx_hal_tim_ex.c ****   *          This parameter can be one of the following values:
1393:src/stm32f1xx_hal_tim_ex.c ****   *            @arg TIM_CHANNEL_1: TIM Channel 1 selected
1394:src/stm32f1xx_hal_tim_ex.c ****   *            @arg TIM_CHANNEL_2: TIM Channel 2 selected
1395:src/stm32f1xx_hal_tim_ex.c ****   * @retval HAL status
1396:src/stm32f1xx_hal_tim_ex.c ****   */
1397:src/stm32f1xx_hal_tim_ex.c **** HAL_StatusTypeDef HAL_TIMEx_OnePulseN_Stop_IT(TIM_HandleTypeDef *htim, uint32_t OutputChannel)
1398:src/stm32f1xx_hal_tim_ex.c **** {
1399:src/stm32f1xx_hal_tim_ex.c ****   /* Check the parameters */
1400:src/stm32f1xx_hal_tim_ex.c ****   assert_param(IS_TIM_CCXN_INSTANCE(htim->Instance, OutputChannel));
1401:src/stm32f1xx_hal_tim_ex.c **** 
1402:src/stm32f1xx_hal_tim_ex.c ****   /* Disable the TIM Capture/Compare 1 interrupt */
1403:src/stm32f1xx_hal_tim_ex.c ****   __HAL_TIM_DISABLE_IT(htim, TIM_IT_CC1);
1404:src/stm32f1xx_hal_tim_ex.c **** 
1405:src/stm32f1xx_hal_tim_ex.c ****   /* Disable the TIM Capture/Compare 2 interrupt */
ARM GAS  /tmp/ccD9AYux.s 			page 27


1406:src/stm32f1xx_hal_tim_ex.c ****   __HAL_TIM_DISABLE_IT(htim, TIM_IT_CC2);
1407:src/stm32f1xx_hal_tim_ex.c **** 
1408:src/stm32f1xx_hal_tim_ex.c ****   /* Disable the complementary One Pulse output */
1409:src/stm32f1xx_hal_tim_ex.c ****   TIM_CCxNChannelCmd(htim->Instance, OutputChannel, TIM_CCxN_DISABLE);
1410:src/stm32f1xx_hal_tim_ex.c **** 
1411:src/stm32f1xx_hal_tim_ex.c ****   /* Disable the Main Output */
1412:src/stm32f1xx_hal_tim_ex.c ****   __HAL_TIM_MOE_DISABLE(htim);
1413:src/stm32f1xx_hal_tim_ex.c **** 
1414:src/stm32f1xx_hal_tim_ex.c ****   /* Disable the Peripheral */
1415:src/stm32f1xx_hal_tim_ex.c ****   __HAL_TIM_DISABLE(htim);
1416:src/stm32f1xx_hal_tim_ex.c **** 
1417:src/stm32f1xx_hal_tim_ex.c ****   /* Return function status */
1418:src/stm32f1xx_hal_tim_ex.c ****   return HAL_OK;
1419:src/stm32f1xx_hal_tim_ex.c **** }
1420:src/stm32f1xx_hal_tim_ex.c **** 
1421:src/stm32f1xx_hal_tim_ex.c **** /**
1422:src/stm32f1xx_hal_tim_ex.c ****   * @}
1423:src/stm32f1xx_hal_tim_ex.c ****   */
1424:src/stm32f1xx_hal_tim_ex.c **** 
1425:src/stm32f1xx_hal_tim_ex.c **** /** @defgroup TIMEx_Exported_Functions_Group5 Extended Peripheral Control functions
1426:src/stm32f1xx_hal_tim_ex.c ****   * @brief    Peripheral Control functions
1427:src/stm32f1xx_hal_tim_ex.c ****   *
1428:src/stm32f1xx_hal_tim_ex.c **** @verbatim
1429:src/stm32f1xx_hal_tim_ex.c ****   ==============================================================================
1430:src/stm32f1xx_hal_tim_ex.c ****                     ##### Peripheral Control functions #####
1431:src/stm32f1xx_hal_tim_ex.c ****   ==============================================================================
1432:src/stm32f1xx_hal_tim_ex.c ****   [..]
1433:src/stm32f1xx_hal_tim_ex.c ****     This section provides functions allowing to:
1434:src/stm32f1xx_hal_tim_ex.c ****       (+) Configure the commutation event in case of use of the Hall sensor interface.
1435:src/stm32f1xx_hal_tim_ex.c ****       (+) Configure Output channels for OC and PWM mode.
1436:src/stm32f1xx_hal_tim_ex.c **** 
1437:src/stm32f1xx_hal_tim_ex.c ****       (+) Configure Complementary channels, break features and dead time.
1438:src/stm32f1xx_hal_tim_ex.c ****       (+) Configure Master synchronization.
1439:src/stm32f1xx_hal_tim_ex.c ****       (+) Configure timer remapping capabilities.
1440:src/stm32f1xx_hal_tim_ex.c **** 
1441:src/stm32f1xx_hal_tim_ex.c **** @endverbatim
1442:src/stm32f1xx_hal_tim_ex.c ****   * @{
1443:src/stm32f1xx_hal_tim_ex.c ****   */
1444:src/stm32f1xx_hal_tim_ex.c **** 
1445:src/stm32f1xx_hal_tim_ex.c **** /**
1446:src/stm32f1xx_hal_tim_ex.c ****   * @brief  Configure the TIM commutation event sequence.
1447:src/stm32f1xx_hal_tim_ex.c ****   * @note  This function is mandatory to use the commutation event in order to
1448:src/stm32f1xx_hal_tim_ex.c ****   *        update the configuration at each commutation detection on the TRGI input of the Timer,
1449:src/stm32f1xx_hal_tim_ex.c ****   *        the typical use of this feature is with the use of another Timer(interface Timer)
1450:src/stm32f1xx_hal_tim_ex.c ****   *        configured in Hall sensor interface, this interface Timer will generate the
1451:src/stm32f1xx_hal_tim_ex.c ****   *        commutation at its TRGO output (connected to Timer used in this function) each time
1452:src/stm32f1xx_hal_tim_ex.c ****   *        the TI1 of the Interface Timer detect a commutation at its input TI1.
1453:src/stm32f1xx_hal_tim_ex.c ****   * @param  htim TIM handle
1454:src/stm32f1xx_hal_tim_ex.c ****   * @param  InputTrigger the Internal trigger corresponding to the Timer Interfacing with the Hall 
1455:src/stm32f1xx_hal_tim_ex.c ****   *          This parameter can be one of the following values:
1456:src/stm32f1xx_hal_tim_ex.c ****   *            @arg TIM_TS_ITR0: Internal trigger 0 selected
1457:src/stm32f1xx_hal_tim_ex.c ****   *            @arg TIM_TS_ITR1: Internal trigger 1 selected
1458:src/stm32f1xx_hal_tim_ex.c ****   *            @arg TIM_TS_ITR2: Internal trigger 2 selected
1459:src/stm32f1xx_hal_tim_ex.c ****   *            @arg TIM_TS_ITR3: Internal trigger 3 selected
1460:src/stm32f1xx_hal_tim_ex.c ****   *            @arg TIM_TS_NONE: No trigger is needed
1461:src/stm32f1xx_hal_tim_ex.c ****   * @param  CommutationSource the Commutation Event source
1462:src/stm32f1xx_hal_tim_ex.c ****   *          This parameter can be one of the following values:
ARM GAS  /tmp/ccD9AYux.s 			page 28


1463:src/stm32f1xx_hal_tim_ex.c ****   *            @arg TIM_COMMUTATION_TRGI: Commutation source is the TRGI of the Interface Timer
1464:src/stm32f1xx_hal_tim_ex.c ****   *            @arg TIM_COMMUTATION_SOFTWARE:  Commutation source is set by software using the COMG
1465:src/stm32f1xx_hal_tim_ex.c ****   * @retval HAL status
1466:src/stm32f1xx_hal_tim_ex.c ****   */
1467:src/stm32f1xx_hal_tim_ex.c **** HAL_StatusTypeDef HAL_TIMEx_ConfigCommutEvent(TIM_HandleTypeDef *htim, uint32_t  InputTrigger,
1468:src/stm32f1xx_hal_tim_ex.c ****                                               uint32_t  CommutationSource)
1469:src/stm32f1xx_hal_tim_ex.c **** {
1470:src/stm32f1xx_hal_tim_ex.c ****   /* Check the parameters */
1471:src/stm32f1xx_hal_tim_ex.c ****   assert_param(IS_TIM_COMMUTATION_EVENT_INSTANCE(htim->Instance));
1472:src/stm32f1xx_hal_tim_ex.c ****   assert_param(IS_TIM_INTERNAL_TRIGGEREVENT_SELECTION(InputTrigger));
1473:src/stm32f1xx_hal_tim_ex.c **** 
1474:src/stm32f1xx_hal_tim_ex.c ****   __HAL_LOCK(htim);
1475:src/stm32f1xx_hal_tim_ex.c **** 
1476:src/stm32f1xx_hal_tim_ex.c ****   if ((InputTrigger == TIM_TS_ITR0) || (InputTrigger == TIM_TS_ITR1) ||
1477:src/stm32f1xx_hal_tim_ex.c ****       (InputTrigger == TIM_TS_ITR2) || (InputTrigger == TIM_TS_ITR3))
1478:src/stm32f1xx_hal_tim_ex.c ****   {
1479:src/stm32f1xx_hal_tim_ex.c ****     /* Select the Input trigger */
1480:src/stm32f1xx_hal_tim_ex.c ****     htim->Instance->SMCR &= ~TIM_SMCR_TS;
1481:src/stm32f1xx_hal_tim_ex.c ****     htim->Instance->SMCR |= InputTrigger;
1482:src/stm32f1xx_hal_tim_ex.c ****   }
1483:src/stm32f1xx_hal_tim_ex.c **** 
1484:src/stm32f1xx_hal_tim_ex.c ****   /* Select the Capture Compare preload feature */
1485:src/stm32f1xx_hal_tim_ex.c ****   htim->Instance->CR2 |= TIM_CR2_CCPC;
1486:src/stm32f1xx_hal_tim_ex.c ****   /* Select the Commutation event source */
1487:src/stm32f1xx_hal_tim_ex.c ****   htim->Instance->CR2 &= ~TIM_CR2_CCUS;
1488:src/stm32f1xx_hal_tim_ex.c ****   htim->Instance->CR2 |= CommutationSource;
1489:src/stm32f1xx_hal_tim_ex.c **** 
1490:src/stm32f1xx_hal_tim_ex.c ****   /* Disable Commutation Interrupt */
1491:src/stm32f1xx_hal_tim_ex.c ****   __HAL_TIM_DISABLE_IT(htim, TIM_IT_COM);
1492:src/stm32f1xx_hal_tim_ex.c **** 
1493:src/stm32f1xx_hal_tim_ex.c ****   /* Disable Commutation DMA request */
1494:src/stm32f1xx_hal_tim_ex.c ****   __HAL_TIM_DISABLE_DMA(htim, TIM_DMA_COM);
1495:src/stm32f1xx_hal_tim_ex.c **** 
1496:src/stm32f1xx_hal_tim_ex.c ****   __HAL_UNLOCK(htim);
1497:src/stm32f1xx_hal_tim_ex.c **** 
1498:src/stm32f1xx_hal_tim_ex.c ****   return HAL_OK;
1499:src/stm32f1xx_hal_tim_ex.c **** }
1500:src/stm32f1xx_hal_tim_ex.c **** 
1501:src/stm32f1xx_hal_tim_ex.c **** /**
1502:src/stm32f1xx_hal_tim_ex.c ****   * @brief  Configure the TIM commutation event sequence with interrupt.
1503:src/stm32f1xx_hal_tim_ex.c ****   * @note  This function is mandatory to use the commutation event in order to
1504:src/stm32f1xx_hal_tim_ex.c ****   *        update the configuration at each commutation detection on the TRGI input of the Timer,
1505:src/stm32f1xx_hal_tim_ex.c ****   *        the typical use of this feature is with the use of another Timer(interface Timer)
1506:src/stm32f1xx_hal_tim_ex.c ****   *        configured in Hall sensor interface, this interface Timer will generate the
1507:src/stm32f1xx_hal_tim_ex.c ****   *        commutation at its TRGO output (connected to Timer used in this function) each time
1508:src/stm32f1xx_hal_tim_ex.c ****   *        the TI1 of the Interface Timer detect a commutation at its input TI1.
1509:src/stm32f1xx_hal_tim_ex.c ****   * @param  htim TIM handle
1510:src/stm32f1xx_hal_tim_ex.c ****   * @param  InputTrigger the Internal trigger corresponding to the Timer Interfacing with the Hall 
1511:src/stm32f1xx_hal_tim_ex.c ****   *          This parameter can be one of the following values:
1512:src/stm32f1xx_hal_tim_ex.c ****   *            @arg TIM_TS_ITR0: Internal trigger 0 selected
1513:src/stm32f1xx_hal_tim_ex.c ****   *            @arg TIM_TS_ITR1: Internal trigger 1 selected
1514:src/stm32f1xx_hal_tim_ex.c ****   *            @arg TIM_TS_ITR2: Internal trigger 2 selected
1515:src/stm32f1xx_hal_tim_ex.c ****   *            @arg TIM_TS_ITR3: Internal trigger 3 selected
1516:src/stm32f1xx_hal_tim_ex.c ****   *            @arg TIM_TS_NONE: No trigger is needed
1517:src/stm32f1xx_hal_tim_ex.c ****   * @param  CommutationSource the Commutation Event source
1518:src/stm32f1xx_hal_tim_ex.c ****   *          This parameter can be one of the following values:
1519:src/stm32f1xx_hal_tim_ex.c ****   *            @arg TIM_COMMUTATION_TRGI: Commutation source is the TRGI of the Interface Timer
ARM GAS  /tmp/ccD9AYux.s 			page 29


1520:src/stm32f1xx_hal_tim_ex.c ****   *            @arg TIM_COMMUTATION_SOFTWARE:  Commutation source is set by software using the COMG
1521:src/stm32f1xx_hal_tim_ex.c ****   * @retval HAL status
1522:src/stm32f1xx_hal_tim_ex.c ****   */
1523:src/stm32f1xx_hal_tim_ex.c **** HAL_StatusTypeDef HAL_TIMEx_ConfigCommutEvent_IT(TIM_HandleTypeDef *htim, uint32_t  InputTrigger,
1524:src/stm32f1xx_hal_tim_ex.c ****                                                  uint32_t  CommutationSource)
1525:src/stm32f1xx_hal_tim_ex.c **** {
1526:src/stm32f1xx_hal_tim_ex.c ****   /* Check the parameters */
1527:src/stm32f1xx_hal_tim_ex.c ****   assert_param(IS_TIM_COMMUTATION_EVENT_INSTANCE(htim->Instance));
1528:src/stm32f1xx_hal_tim_ex.c ****   assert_param(IS_TIM_INTERNAL_TRIGGEREVENT_SELECTION(InputTrigger));
1529:src/stm32f1xx_hal_tim_ex.c **** 
1530:src/stm32f1xx_hal_tim_ex.c ****   __HAL_LOCK(htim);
1531:src/stm32f1xx_hal_tim_ex.c **** 
1532:src/stm32f1xx_hal_tim_ex.c ****   if ((InputTrigger == TIM_TS_ITR0) || (InputTrigger == TIM_TS_ITR1) ||
1533:src/stm32f1xx_hal_tim_ex.c ****       (InputTrigger == TIM_TS_ITR2) || (InputTrigger == TIM_TS_ITR3))
1534:src/stm32f1xx_hal_tim_ex.c ****   {
1535:src/stm32f1xx_hal_tim_ex.c ****     /* Select the Input trigger */
1536:src/stm32f1xx_hal_tim_ex.c ****     htim->Instance->SMCR &= ~TIM_SMCR_TS;
1537:src/stm32f1xx_hal_tim_ex.c ****     htim->Instance->SMCR |= InputTrigger;
1538:src/stm32f1xx_hal_tim_ex.c ****   }
1539:src/stm32f1xx_hal_tim_ex.c **** 
1540:src/stm32f1xx_hal_tim_ex.c ****   /* Select the Capture Compare preload feature */
1541:src/stm32f1xx_hal_tim_ex.c ****   htim->Instance->CR2 |= TIM_CR2_CCPC;
1542:src/stm32f1xx_hal_tim_ex.c ****   /* Select the Commutation event source */
1543:src/stm32f1xx_hal_tim_ex.c ****   htim->Instance->CR2 &= ~TIM_CR2_CCUS;
1544:src/stm32f1xx_hal_tim_ex.c ****   htim->Instance->CR2 |= CommutationSource;
1545:src/stm32f1xx_hal_tim_ex.c **** 
1546:src/stm32f1xx_hal_tim_ex.c ****   /* Disable Commutation DMA request */
1547:src/stm32f1xx_hal_tim_ex.c ****   __HAL_TIM_DISABLE_DMA(htim, TIM_DMA_COM);
1548:src/stm32f1xx_hal_tim_ex.c **** 
1549:src/stm32f1xx_hal_tim_ex.c ****   /* Enable the Commutation Interrupt */
1550:src/stm32f1xx_hal_tim_ex.c ****   __HAL_TIM_ENABLE_IT(htim, TIM_IT_COM);
1551:src/stm32f1xx_hal_tim_ex.c **** 
1552:src/stm32f1xx_hal_tim_ex.c ****   __HAL_UNLOCK(htim);
1553:src/stm32f1xx_hal_tim_ex.c **** 
1554:src/stm32f1xx_hal_tim_ex.c ****   return HAL_OK;
1555:src/stm32f1xx_hal_tim_ex.c **** }
1556:src/stm32f1xx_hal_tim_ex.c **** 
1557:src/stm32f1xx_hal_tim_ex.c **** /**
1558:src/stm32f1xx_hal_tim_ex.c ****   * @brief  Configure the TIM commutation event sequence with DMA.
1559:src/stm32f1xx_hal_tim_ex.c ****   * @note  This function is mandatory to use the commutation event in order to
1560:src/stm32f1xx_hal_tim_ex.c ****   *        update the configuration at each commutation detection on the TRGI input of the Timer,
1561:src/stm32f1xx_hal_tim_ex.c ****   *        the typical use of this feature is with the use of another Timer(interface Timer)
1562:src/stm32f1xx_hal_tim_ex.c ****   *        configured in Hall sensor interface, this interface Timer will generate the
1563:src/stm32f1xx_hal_tim_ex.c ****   *        commutation at its TRGO output (connected to Timer used in this function) each time
1564:src/stm32f1xx_hal_tim_ex.c ****   *        the TI1 of the Interface Timer detect a commutation at its input TI1.
1565:src/stm32f1xx_hal_tim_ex.c ****   * @note  The user should configure the DMA in his own software, in This function only the COMDE b
1566:src/stm32f1xx_hal_tim_ex.c ****   * @param  htim TIM handle
1567:src/stm32f1xx_hal_tim_ex.c ****   * @param  InputTrigger the Internal trigger corresponding to the Timer Interfacing with the Hall 
1568:src/stm32f1xx_hal_tim_ex.c ****   *          This parameter can be one of the following values:
1569:src/stm32f1xx_hal_tim_ex.c ****   *            @arg TIM_TS_ITR0: Internal trigger 0 selected
1570:src/stm32f1xx_hal_tim_ex.c ****   *            @arg TIM_TS_ITR1: Internal trigger 1 selected
1571:src/stm32f1xx_hal_tim_ex.c ****   *            @arg TIM_TS_ITR2: Internal trigger 2 selected
1572:src/stm32f1xx_hal_tim_ex.c ****   *            @arg TIM_TS_ITR3: Internal trigger 3 selected
1573:src/stm32f1xx_hal_tim_ex.c ****   *            @arg TIM_TS_NONE: No trigger is needed
1574:src/stm32f1xx_hal_tim_ex.c ****   * @param  CommutationSource the Commutation Event source
1575:src/stm32f1xx_hal_tim_ex.c ****   *          This parameter can be one of the following values:
1576:src/stm32f1xx_hal_tim_ex.c ****   *            @arg TIM_COMMUTATION_TRGI: Commutation source is the TRGI of the Interface Timer
ARM GAS  /tmp/ccD9AYux.s 			page 30


1577:src/stm32f1xx_hal_tim_ex.c ****   *            @arg TIM_COMMUTATION_SOFTWARE:  Commutation source is set by software using the COMG
1578:src/stm32f1xx_hal_tim_ex.c ****   * @retval HAL status
1579:src/stm32f1xx_hal_tim_ex.c ****   */
1580:src/stm32f1xx_hal_tim_ex.c **** HAL_StatusTypeDef HAL_TIMEx_ConfigCommutEvent_DMA(TIM_HandleTypeDef *htim, uint32_t  InputTrigger,
1581:src/stm32f1xx_hal_tim_ex.c ****                                                   uint32_t  CommutationSource)
1582:src/stm32f1xx_hal_tim_ex.c **** {
1583:src/stm32f1xx_hal_tim_ex.c ****   /* Check the parameters */
1584:src/stm32f1xx_hal_tim_ex.c ****   assert_param(IS_TIM_COMMUTATION_EVENT_INSTANCE(htim->Instance));
1585:src/stm32f1xx_hal_tim_ex.c ****   assert_param(IS_TIM_INTERNAL_TRIGGEREVENT_SELECTION(InputTrigger));
1586:src/stm32f1xx_hal_tim_ex.c **** 
1587:src/stm32f1xx_hal_tim_ex.c ****   __HAL_LOCK(htim);
1588:src/stm32f1xx_hal_tim_ex.c **** 
1589:src/stm32f1xx_hal_tim_ex.c ****   if ((InputTrigger == TIM_TS_ITR0) || (InputTrigger == TIM_TS_ITR1) ||
1590:src/stm32f1xx_hal_tim_ex.c ****       (InputTrigger == TIM_TS_ITR2) || (InputTrigger == TIM_TS_ITR3))
1591:src/stm32f1xx_hal_tim_ex.c ****   {
1592:src/stm32f1xx_hal_tim_ex.c ****     /* Select the Input trigger */
1593:src/stm32f1xx_hal_tim_ex.c ****     htim->Instance->SMCR &= ~TIM_SMCR_TS;
1594:src/stm32f1xx_hal_tim_ex.c ****     htim->Instance->SMCR |= InputTrigger;
1595:src/stm32f1xx_hal_tim_ex.c ****   }
1596:src/stm32f1xx_hal_tim_ex.c **** 
1597:src/stm32f1xx_hal_tim_ex.c ****   /* Select the Capture Compare preload feature */
1598:src/stm32f1xx_hal_tim_ex.c ****   htim->Instance->CR2 |= TIM_CR2_CCPC;
1599:src/stm32f1xx_hal_tim_ex.c ****   /* Select the Commutation event source */
1600:src/stm32f1xx_hal_tim_ex.c ****   htim->Instance->CR2 &= ~TIM_CR2_CCUS;
1601:src/stm32f1xx_hal_tim_ex.c ****   htim->Instance->CR2 |= CommutationSource;
1602:src/stm32f1xx_hal_tim_ex.c **** 
1603:src/stm32f1xx_hal_tim_ex.c ****   /* Enable the Commutation DMA Request */
1604:src/stm32f1xx_hal_tim_ex.c ****   /* Set the DMA Commutation Callback */
1605:src/stm32f1xx_hal_tim_ex.c ****   htim->hdma[TIM_DMA_ID_COMMUTATION]->XferCpltCallback = TIMEx_DMACommutationCplt;
1606:src/stm32f1xx_hal_tim_ex.c ****   htim->hdma[TIM_DMA_ID_COMMUTATION]->XferHalfCpltCallback = TIMEx_DMACommutationHalfCplt;
1607:src/stm32f1xx_hal_tim_ex.c ****   /* Set the DMA error callback */
1608:src/stm32f1xx_hal_tim_ex.c ****   htim->hdma[TIM_DMA_ID_COMMUTATION]->XferErrorCallback = TIM_DMAError;
1609:src/stm32f1xx_hal_tim_ex.c **** 
1610:src/stm32f1xx_hal_tim_ex.c ****   /* Disable Commutation Interrupt */
1611:src/stm32f1xx_hal_tim_ex.c ****   __HAL_TIM_DISABLE_IT(htim, TIM_IT_COM);
1612:src/stm32f1xx_hal_tim_ex.c **** 
1613:src/stm32f1xx_hal_tim_ex.c ****   /* Enable the Commutation DMA Request */
1614:src/stm32f1xx_hal_tim_ex.c ****   __HAL_TIM_ENABLE_DMA(htim, TIM_DMA_COM);
1615:src/stm32f1xx_hal_tim_ex.c **** 
1616:src/stm32f1xx_hal_tim_ex.c ****   __HAL_UNLOCK(htim);
1617:src/stm32f1xx_hal_tim_ex.c **** 
1618:src/stm32f1xx_hal_tim_ex.c ****   return HAL_OK;
1619:src/stm32f1xx_hal_tim_ex.c **** }
1620:src/stm32f1xx_hal_tim_ex.c **** 
1621:src/stm32f1xx_hal_tim_ex.c **** /**
1622:src/stm32f1xx_hal_tim_ex.c ****   * @brief  Configures the TIM in master mode.
1623:src/stm32f1xx_hal_tim_ex.c ****   * @param  htim TIM handle.
1624:src/stm32f1xx_hal_tim_ex.c ****   * @param  sMasterConfig pointer to a TIM_MasterConfigTypeDef structure that
1625:src/stm32f1xx_hal_tim_ex.c ****   *         contains the selected trigger output (TRGO) and the Master/Slave
1626:src/stm32f1xx_hal_tim_ex.c ****   *         mode.
1627:src/stm32f1xx_hal_tim_ex.c ****   * @retval HAL status
1628:src/stm32f1xx_hal_tim_ex.c ****   */
1629:src/stm32f1xx_hal_tim_ex.c **** HAL_StatusTypeDef HAL_TIMEx_MasterConfigSynchronization(TIM_HandleTypeDef *htim,
1630:src/stm32f1xx_hal_tim_ex.c ****                                                         TIM_MasterConfigTypeDef *sMasterConfig)
1631:src/stm32f1xx_hal_tim_ex.c **** {
1632:src/stm32f1xx_hal_tim_ex.c ****   uint32_t tmpcr2;
1633:src/stm32f1xx_hal_tim_ex.c ****   uint32_t tmpsmcr;
ARM GAS  /tmp/ccD9AYux.s 			page 31


1634:src/stm32f1xx_hal_tim_ex.c **** 
1635:src/stm32f1xx_hal_tim_ex.c ****   /* Check the parameters */
1636:src/stm32f1xx_hal_tim_ex.c ****   assert_param(IS_TIM_SYNCHRO_INSTANCE(htim->Instance));
1637:src/stm32f1xx_hal_tim_ex.c ****   assert_param(IS_TIM_TRGO_SOURCE(sMasterConfig->MasterOutputTrigger));
1638:src/stm32f1xx_hal_tim_ex.c ****   assert_param(IS_TIM_MSM_STATE(sMasterConfig->MasterSlaveMode));
1639:src/stm32f1xx_hal_tim_ex.c **** 
1640:src/stm32f1xx_hal_tim_ex.c ****   /* Check input state */
1641:src/stm32f1xx_hal_tim_ex.c ****   __HAL_LOCK(htim);
1642:src/stm32f1xx_hal_tim_ex.c **** 
1643:src/stm32f1xx_hal_tim_ex.c ****   /* Change the handler state */
1644:src/stm32f1xx_hal_tim_ex.c ****   htim->State = HAL_TIM_STATE_BUSY;
1645:src/stm32f1xx_hal_tim_ex.c **** 
1646:src/stm32f1xx_hal_tim_ex.c ****   /* Get the TIMx CR2 register value */
1647:src/stm32f1xx_hal_tim_ex.c ****   tmpcr2 = htim->Instance->CR2;
1648:src/stm32f1xx_hal_tim_ex.c **** 
1649:src/stm32f1xx_hal_tim_ex.c ****   /* Get the TIMx SMCR register value */
1650:src/stm32f1xx_hal_tim_ex.c ****   tmpsmcr = htim->Instance->SMCR;
1651:src/stm32f1xx_hal_tim_ex.c **** 
1652:src/stm32f1xx_hal_tim_ex.c ****   /* Reset the MMS Bits */
1653:src/stm32f1xx_hal_tim_ex.c ****   tmpcr2 &= ~TIM_CR2_MMS;
1654:src/stm32f1xx_hal_tim_ex.c ****   /* Select the TRGO source */
1655:src/stm32f1xx_hal_tim_ex.c ****   tmpcr2 |=  sMasterConfig->MasterOutputTrigger;
1656:src/stm32f1xx_hal_tim_ex.c **** 
1657:src/stm32f1xx_hal_tim_ex.c ****   /* Reset the MSM Bit */
1658:src/stm32f1xx_hal_tim_ex.c ****   tmpsmcr &= ~TIM_SMCR_MSM;
1659:src/stm32f1xx_hal_tim_ex.c ****   /* Set master mode */
1660:src/stm32f1xx_hal_tim_ex.c ****   tmpsmcr |= sMasterConfig->MasterSlaveMode;
1661:src/stm32f1xx_hal_tim_ex.c **** 
1662:src/stm32f1xx_hal_tim_ex.c ****   /* Update TIMx CR2 */
1663:src/stm32f1xx_hal_tim_ex.c ****   htim->Instance->CR2 = tmpcr2;
1664:src/stm32f1xx_hal_tim_ex.c **** 
1665:src/stm32f1xx_hal_tim_ex.c ****   /* Update TIMx SMCR */
1666:src/stm32f1xx_hal_tim_ex.c ****   htim->Instance->SMCR = tmpsmcr;
1667:src/stm32f1xx_hal_tim_ex.c **** 
1668:src/stm32f1xx_hal_tim_ex.c ****   /* Change the htim state */
1669:src/stm32f1xx_hal_tim_ex.c ****   htim->State = HAL_TIM_STATE_READY;
1670:src/stm32f1xx_hal_tim_ex.c **** 
1671:src/stm32f1xx_hal_tim_ex.c ****   __HAL_UNLOCK(htim);
1672:src/stm32f1xx_hal_tim_ex.c **** 
1673:src/stm32f1xx_hal_tim_ex.c ****   return HAL_OK;
1674:src/stm32f1xx_hal_tim_ex.c **** }
1675:src/stm32f1xx_hal_tim_ex.c **** 
1676:src/stm32f1xx_hal_tim_ex.c **** /**
1677:src/stm32f1xx_hal_tim_ex.c ****   * @brief  Configures the Break feature, dead time, Lock level, OSSI/OSSR State
1678:src/stm32f1xx_hal_tim_ex.c ****   *         and the AOE(automatic output enable).
1679:src/stm32f1xx_hal_tim_ex.c ****   * @param  htim TIM handle
1680:src/stm32f1xx_hal_tim_ex.c ****   * @param  sBreakDeadTimeConfig pointer to a TIM_ConfigBreakDeadConfigTypeDef structure that
1681:src/stm32f1xx_hal_tim_ex.c ****   *         contains the BDTR Register configuration  information for the TIM peripheral.
1682:src/stm32f1xx_hal_tim_ex.c ****   * @note   Interrupts can be generated when an active level is detected on the
1683:src/stm32f1xx_hal_tim_ex.c ****   *         break input, the break 2 input or the system break input. Break
1684:src/stm32f1xx_hal_tim_ex.c ****   *         interrupt can be enabled by calling the @ref __HAL_TIM_ENABLE_IT macro.
1685:src/stm32f1xx_hal_tim_ex.c ****   * @retval HAL status
1686:src/stm32f1xx_hal_tim_ex.c ****   */
1687:src/stm32f1xx_hal_tim_ex.c **** HAL_StatusTypeDef HAL_TIMEx_ConfigBreakDeadTime(TIM_HandleTypeDef *htim,
1688:src/stm32f1xx_hal_tim_ex.c ****                                                 TIM_BreakDeadTimeConfigTypeDef *sBreakDeadTimeConfi
1689:src/stm32f1xx_hal_tim_ex.c **** {
1690:src/stm32f1xx_hal_tim_ex.c ****   /* Keep this variable initialized to 0 as it is used to configure BDTR register */
ARM GAS  /tmp/ccD9AYux.s 			page 32


1691:src/stm32f1xx_hal_tim_ex.c ****   uint32_t tmpbdtr = 0U;
1692:src/stm32f1xx_hal_tim_ex.c **** 
1693:src/stm32f1xx_hal_tim_ex.c ****   /* Check the parameters */
1694:src/stm32f1xx_hal_tim_ex.c ****   assert_param(IS_TIM_BREAK_INSTANCE(htim->Instance));
1695:src/stm32f1xx_hal_tim_ex.c ****   assert_param(IS_TIM_OSSR_STATE(sBreakDeadTimeConfig->OffStateRunMode));
1696:src/stm32f1xx_hal_tim_ex.c ****   assert_param(IS_TIM_OSSI_STATE(sBreakDeadTimeConfig->OffStateIDLEMode));
1697:src/stm32f1xx_hal_tim_ex.c ****   assert_param(IS_TIM_LOCK_LEVEL(sBreakDeadTimeConfig->LockLevel));
1698:src/stm32f1xx_hal_tim_ex.c ****   assert_param(IS_TIM_DEADTIME(sBreakDeadTimeConfig->DeadTime));
1699:src/stm32f1xx_hal_tim_ex.c ****   assert_param(IS_TIM_BREAK_STATE(sBreakDeadTimeConfig->BreakState));
1700:src/stm32f1xx_hal_tim_ex.c ****   assert_param(IS_TIM_BREAK_POLARITY(sBreakDeadTimeConfig->BreakPolarity));
1701:src/stm32f1xx_hal_tim_ex.c ****   assert_param(IS_TIM_AUTOMATIC_OUTPUT_STATE(sBreakDeadTimeConfig->AutomaticOutput));
1702:src/stm32f1xx_hal_tim_ex.c **** 
1703:src/stm32f1xx_hal_tim_ex.c ****   /* Check input state */
1704:src/stm32f1xx_hal_tim_ex.c ****   __HAL_LOCK(htim);
1705:src/stm32f1xx_hal_tim_ex.c **** 
1706:src/stm32f1xx_hal_tim_ex.c ****   /* Set the Lock level, the Break enable Bit and the Polarity, the OSSR State,
1707:src/stm32f1xx_hal_tim_ex.c ****      the OSSI State, the dead time value and the Automatic Output Enable Bit */
1708:src/stm32f1xx_hal_tim_ex.c **** 
1709:src/stm32f1xx_hal_tim_ex.c ****   /* Set the BDTR bits */
1710:src/stm32f1xx_hal_tim_ex.c ****   MODIFY_REG(tmpbdtr, TIM_BDTR_DTG, sBreakDeadTimeConfig->DeadTime);
1711:src/stm32f1xx_hal_tim_ex.c ****   MODIFY_REG(tmpbdtr, TIM_BDTR_LOCK, sBreakDeadTimeConfig->LockLevel);
1712:src/stm32f1xx_hal_tim_ex.c ****   MODIFY_REG(tmpbdtr, TIM_BDTR_OSSI, sBreakDeadTimeConfig->OffStateIDLEMode);
1713:src/stm32f1xx_hal_tim_ex.c ****   MODIFY_REG(tmpbdtr, TIM_BDTR_OSSR, sBreakDeadTimeConfig->OffStateRunMode);
1714:src/stm32f1xx_hal_tim_ex.c ****   MODIFY_REG(tmpbdtr, TIM_BDTR_BKE, sBreakDeadTimeConfig->BreakState);
1715:src/stm32f1xx_hal_tim_ex.c ****   MODIFY_REG(tmpbdtr, TIM_BDTR_BKP, sBreakDeadTimeConfig->BreakPolarity);
1716:src/stm32f1xx_hal_tim_ex.c ****   MODIFY_REG(tmpbdtr, TIM_BDTR_AOE, sBreakDeadTimeConfig->AutomaticOutput);
1717:src/stm32f1xx_hal_tim_ex.c **** 
1718:src/stm32f1xx_hal_tim_ex.c **** 
1719:src/stm32f1xx_hal_tim_ex.c ****   /* Set TIMx_BDTR */
1720:src/stm32f1xx_hal_tim_ex.c ****   htim->Instance->BDTR = tmpbdtr;
1721:src/stm32f1xx_hal_tim_ex.c **** 
1722:src/stm32f1xx_hal_tim_ex.c ****   __HAL_UNLOCK(htim);
1723:src/stm32f1xx_hal_tim_ex.c **** 
1724:src/stm32f1xx_hal_tim_ex.c ****   return HAL_OK;
1725:src/stm32f1xx_hal_tim_ex.c **** }
1726:src/stm32f1xx_hal_tim_ex.c **** 
1727:src/stm32f1xx_hal_tim_ex.c **** /**
1728:src/stm32f1xx_hal_tim_ex.c ****   * @brief  Configures the TIMx Remapping input capabilities.
1729:src/stm32f1xx_hal_tim_ex.c ****   * @param  htim TIM handle.
1730:src/stm32f1xx_hal_tim_ex.c ****   * @param  Remap specifies the TIM remapping source.
1731:src/stm32f1xx_hal_tim_ex.c ****   *
1732:src/stm32f1xx_hal_tim_ex.c ****   * @retval HAL status
1733:src/stm32f1xx_hal_tim_ex.c ****   */
1734:src/stm32f1xx_hal_tim_ex.c **** HAL_StatusTypeDef HAL_TIMEx_RemapConfig(TIM_HandleTypeDef *htim, uint32_t Remap)
1735:src/stm32f1xx_hal_tim_ex.c **** {
1736:src/stm32f1xx_hal_tim_ex.c **** 
1737:src/stm32f1xx_hal_tim_ex.c ****   return HAL_OK;
1738:src/stm32f1xx_hal_tim_ex.c **** }
1739:src/stm32f1xx_hal_tim_ex.c **** 
1740:src/stm32f1xx_hal_tim_ex.c **** /**
1741:src/stm32f1xx_hal_tim_ex.c ****   * @}
1742:src/stm32f1xx_hal_tim_ex.c ****   */
1743:src/stm32f1xx_hal_tim_ex.c **** 
1744:src/stm32f1xx_hal_tim_ex.c **** /** @defgroup TIMEx_Exported_Functions_Group6 Extended Callbacks functions
1745:src/stm32f1xx_hal_tim_ex.c ****   * @brief    Extended Callbacks functions
1746:src/stm32f1xx_hal_tim_ex.c ****   *
1747:src/stm32f1xx_hal_tim_ex.c **** @verbatim
ARM GAS  /tmp/ccD9AYux.s 			page 33


1748:src/stm32f1xx_hal_tim_ex.c ****   ==============================================================================
1749:src/stm32f1xx_hal_tim_ex.c ****                     ##### Extended Callbacks functions #####
1750:src/stm32f1xx_hal_tim_ex.c ****   ==============================================================================
1751:src/stm32f1xx_hal_tim_ex.c ****   [..]
1752:src/stm32f1xx_hal_tim_ex.c ****     This section provides Extended TIM callback functions:
1753:src/stm32f1xx_hal_tim_ex.c ****     (+) Timer Commutation callback
1754:src/stm32f1xx_hal_tim_ex.c ****     (+) Timer Break callback
1755:src/stm32f1xx_hal_tim_ex.c **** 
1756:src/stm32f1xx_hal_tim_ex.c **** @endverbatim
1757:src/stm32f1xx_hal_tim_ex.c ****   * @{
1758:src/stm32f1xx_hal_tim_ex.c ****   */
1759:src/stm32f1xx_hal_tim_ex.c **** 
1760:src/stm32f1xx_hal_tim_ex.c **** /**
1761:src/stm32f1xx_hal_tim_ex.c ****   * @brief  Hall commutation changed callback in non-blocking mode
1762:src/stm32f1xx_hal_tim_ex.c ****   * @param  htim TIM handle
1763:src/stm32f1xx_hal_tim_ex.c ****   * @retval None
1764:src/stm32f1xx_hal_tim_ex.c ****   */
1765:src/stm32f1xx_hal_tim_ex.c **** __weak void HAL_TIMEx_CommutCallback(TIM_HandleTypeDef *htim)
1766:src/stm32f1xx_hal_tim_ex.c **** {
1767:src/stm32f1xx_hal_tim_ex.c ****   /* Prevent unused argument(s) compilation warning */
1768:src/stm32f1xx_hal_tim_ex.c ****   UNUSED(htim);
1769:src/stm32f1xx_hal_tim_ex.c **** 
1770:src/stm32f1xx_hal_tim_ex.c ****   /* NOTE : This function should not be modified, when the callback is needed,
1771:src/stm32f1xx_hal_tim_ex.c ****             the HAL_TIMEx_CommutCallback could be implemented in the user file
1772:src/stm32f1xx_hal_tim_ex.c ****    */
1773:src/stm32f1xx_hal_tim_ex.c **** }
1774:src/stm32f1xx_hal_tim_ex.c **** /**
1775:src/stm32f1xx_hal_tim_ex.c ****   * @brief  Hall commutation changed half complete callback in non-blocking mode
1776:src/stm32f1xx_hal_tim_ex.c ****   * @param  htim TIM handle
1777:src/stm32f1xx_hal_tim_ex.c ****   * @retval None
1778:src/stm32f1xx_hal_tim_ex.c ****   */
1779:src/stm32f1xx_hal_tim_ex.c **** __weak void HAL_TIMEx_CommutHalfCpltCallback(TIM_HandleTypeDef *htim)
1780:src/stm32f1xx_hal_tim_ex.c **** {
1781:src/stm32f1xx_hal_tim_ex.c ****   /* Prevent unused argument(s) compilation warning */
1782:src/stm32f1xx_hal_tim_ex.c ****   UNUSED(htim);
1783:src/stm32f1xx_hal_tim_ex.c **** 
1784:src/stm32f1xx_hal_tim_ex.c ****   /* NOTE : This function should not be modified, when the callback is needed,
1785:src/stm32f1xx_hal_tim_ex.c ****             the HAL_TIMEx_CommutHalfCpltCallback could be implemented in the user file
1786:src/stm32f1xx_hal_tim_ex.c ****    */
1787:src/stm32f1xx_hal_tim_ex.c **** }
1788:src/stm32f1xx_hal_tim_ex.c **** 
1789:src/stm32f1xx_hal_tim_ex.c **** /**
1790:src/stm32f1xx_hal_tim_ex.c ****   * @brief  Hall Break detection callback in non-blocking mode
1791:src/stm32f1xx_hal_tim_ex.c ****   * @param  htim TIM handle
1792:src/stm32f1xx_hal_tim_ex.c ****   * @retval None
1793:src/stm32f1xx_hal_tim_ex.c ****   */
1794:src/stm32f1xx_hal_tim_ex.c **** __weak void HAL_TIMEx_BreakCallback(TIM_HandleTypeDef *htim)
1795:src/stm32f1xx_hal_tim_ex.c **** {
1796:src/stm32f1xx_hal_tim_ex.c ****   /* Prevent unused argument(s) compilation warning */
1797:src/stm32f1xx_hal_tim_ex.c ****   UNUSED(htim);
1798:src/stm32f1xx_hal_tim_ex.c **** 
1799:src/stm32f1xx_hal_tim_ex.c ****   /* NOTE : This function should not be modified, when the callback is needed,
1800:src/stm32f1xx_hal_tim_ex.c ****             the HAL_TIMEx_BreakCallback could be implemented in the user file
1801:src/stm32f1xx_hal_tim_ex.c ****    */
1802:src/stm32f1xx_hal_tim_ex.c **** }
1803:src/stm32f1xx_hal_tim_ex.c **** /**
1804:src/stm32f1xx_hal_tim_ex.c ****   * @}
ARM GAS  /tmp/ccD9AYux.s 			page 34


1805:src/stm32f1xx_hal_tim_ex.c ****   */
1806:src/stm32f1xx_hal_tim_ex.c **** 
1807:src/stm32f1xx_hal_tim_ex.c **** /** @defgroup TIMEx_Exported_Functions_Group7 Extended Peripheral State functions
1808:src/stm32f1xx_hal_tim_ex.c ****   * @brief    Extended Peripheral State functions
1809:src/stm32f1xx_hal_tim_ex.c ****   *
1810:src/stm32f1xx_hal_tim_ex.c **** @verbatim
1811:src/stm32f1xx_hal_tim_ex.c ****   ==============================================================================
1812:src/stm32f1xx_hal_tim_ex.c ****                 ##### Extended Peripheral State functions #####
1813:src/stm32f1xx_hal_tim_ex.c ****   ==============================================================================
1814:src/stm32f1xx_hal_tim_ex.c ****   [..]
1815:src/stm32f1xx_hal_tim_ex.c ****     This subsection permits to get in run-time the status of the peripheral
1816:src/stm32f1xx_hal_tim_ex.c ****     and the data flow.
1817:src/stm32f1xx_hal_tim_ex.c **** 
1818:src/stm32f1xx_hal_tim_ex.c **** @endverbatim
1819:src/stm32f1xx_hal_tim_ex.c ****   * @{
1820:src/stm32f1xx_hal_tim_ex.c ****   */
1821:src/stm32f1xx_hal_tim_ex.c **** 
1822:src/stm32f1xx_hal_tim_ex.c **** /**
1823:src/stm32f1xx_hal_tim_ex.c ****   * @brief  Return the TIM Hall Sensor interface handle state.
1824:src/stm32f1xx_hal_tim_ex.c ****   * @param  htim TIM Hall Sensor handle
1825:src/stm32f1xx_hal_tim_ex.c ****   * @retval HAL state
1826:src/stm32f1xx_hal_tim_ex.c ****   */
1827:src/stm32f1xx_hal_tim_ex.c **** HAL_TIM_StateTypeDef HAL_TIMEx_HallSensor_GetState(TIM_HandleTypeDef *htim)
1828:src/stm32f1xx_hal_tim_ex.c **** {
1829:src/stm32f1xx_hal_tim_ex.c ****   return htim->State;
1830:src/stm32f1xx_hal_tim_ex.c **** }
1831:src/stm32f1xx_hal_tim_ex.c **** 
1832:src/stm32f1xx_hal_tim_ex.c **** /**
1833:src/stm32f1xx_hal_tim_ex.c ****   * @}
1834:src/stm32f1xx_hal_tim_ex.c ****   */
1835:src/stm32f1xx_hal_tim_ex.c **** 
1836:src/stm32f1xx_hal_tim_ex.c **** /**
1837:src/stm32f1xx_hal_tim_ex.c ****   * @}
1838:src/stm32f1xx_hal_tim_ex.c ****   */
1839:src/stm32f1xx_hal_tim_ex.c **** 
1840:src/stm32f1xx_hal_tim_ex.c **** /* Private functions ---------------------------------------------------------*/
1841:src/stm32f1xx_hal_tim_ex.c **** /** @defgroup TIMEx_Private_Functions TIMEx Private Functions
1842:src/stm32f1xx_hal_tim_ex.c ****   * @{
1843:src/stm32f1xx_hal_tim_ex.c ****   */
1844:src/stm32f1xx_hal_tim_ex.c **** 
1845:src/stm32f1xx_hal_tim_ex.c **** /**
1846:src/stm32f1xx_hal_tim_ex.c ****   * @brief  TIM DMA Commutation callback.
1847:src/stm32f1xx_hal_tim_ex.c ****   * @param  hdma pointer to DMA handle.
1848:src/stm32f1xx_hal_tim_ex.c ****   * @retval None
1849:src/stm32f1xx_hal_tim_ex.c ****   */
1850:src/stm32f1xx_hal_tim_ex.c **** void TIMEx_DMACommutationCplt(DMA_HandleTypeDef *hdma)
1851:src/stm32f1xx_hal_tim_ex.c **** {
1852:src/stm32f1xx_hal_tim_ex.c ****   TIM_HandleTypeDef *htim = (TIM_HandleTypeDef *)((DMA_HandleTypeDef *)hdma)->Parent;
1853:src/stm32f1xx_hal_tim_ex.c **** 
1854:src/stm32f1xx_hal_tim_ex.c ****   /* Change the htim state */
1855:src/stm32f1xx_hal_tim_ex.c ****   htim->State = HAL_TIM_STATE_READY;
1856:src/stm32f1xx_hal_tim_ex.c **** 
1857:src/stm32f1xx_hal_tim_ex.c **** #if (USE_HAL_TIM_REGISTER_CALLBACKS == 1)
1858:src/stm32f1xx_hal_tim_ex.c ****   htim->CommutationCallback(htim);
1859:src/stm32f1xx_hal_tim_ex.c **** #else
1860:src/stm32f1xx_hal_tim_ex.c ****   HAL_TIMEx_CommutCallback(htim);
1861:src/stm32f1xx_hal_tim_ex.c **** #endif /* USE_HAL_TIM_REGISTER_CALLBACKS */
ARM GAS  /tmp/ccD9AYux.s 			page 35


1862:src/stm32f1xx_hal_tim_ex.c **** }
1863:src/stm32f1xx_hal_tim_ex.c **** 
1864:src/stm32f1xx_hal_tim_ex.c **** /**
1865:src/stm32f1xx_hal_tim_ex.c ****   * @brief  TIM DMA Commutation half complete callback.
1866:src/stm32f1xx_hal_tim_ex.c ****   * @param  hdma pointer to DMA handle.
1867:src/stm32f1xx_hal_tim_ex.c ****   * @retval None
1868:src/stm32f1xx_hal_tim_ex.c ****   */
1869:src/stm32f1xx_hal_tim_ex.c **** void TIMEx_DMACommutationHalfCplt(DMA_HandleTypeDef *hdma)
1870:src/stm32f1xx_hal_tim_ex.c **** {
1871:src/stm32f1xx_hal_tim_ex.c ****   TIM_HandleTypeDef *htim = (TIM_HandleTypeDef *)((DMA_HandleTypeDef *)hdma)->Parent;
1872:src/stm32f1xx_hal_tim_ex.c **** 
1873:src/stm32f1xx_hal_tim_ex.c ****   /* Change the htim state */
1874:src/stm32f1xx_hal_tim_ex.c ****   htim->State = HAL_TIM_STATE_READY;
1875:src/stm32f1xx_hal_tim_ex.c **** 
1876:src/stm32f1xx_hal_tim_ex.c **** #if (USE_HAL_TIM_REGISTER_CALLBACKS == 1)
1877:src/stm32f1xx_hal_tim_ex.c ****   htim->CommutationHalfCpltCallback(htim);
1878:src/stm32f1xx_hal_tim_ex.c **** #else
1879:src/stm32f1xx_hal_tim_ex.c ****   HAL_TIMEx_CommutHalfCpltCallback(htim);
1880:src/stm32f1xx_hal_tim_ex.c **** #endif /* USE_HAL_TIM_REGISTER_CALLBACKS */
1881:src/stm32f1xx_hal_tim_ex.c **** }
1882:src/stm32f1xx_hal_tim_ex.c **** 
1883:src/stm32f1xx_hal_tim_ex.c **** 
1884:src/stm32f1xx_hal_tim_ex.c **** /**
1885:src/stm32f1xx_hal_tim_ex.c ****   * @brief  Enables or disables the TIM Capture Compare Channel xN.
1886:src/stm32f1xx_hal_tim_ex.c ****   * @param  TIMx to select the TIM peripheral
1887:src/stm32f1xx_hal_tim_ex.c ****   * @param  Channel specifies the TIM Channel
1888:src/stm32f1xx_hal_tim_ex.c ****   *          This parameter can be one of the following values:
1889:src/stm32f1xx_hal_tim_ex.c ****   *            @arg TIM_CHANNEL_1: TIM Channel 1
1890:src/stm32f1xx_hal_tim_ex.c ****   *            @arg TIM_CHANNEL_2: TIM Channel 2
1891:src/stm32f1xx_hal_tim_ex.c ****   *            @arg TIM_CHANNEL_3: TIM Channel 3
1892:src/stm32f1xx_hal_tim_ex.c ****   * @param  ChannelNState specifies the TIM Channel CCxNE bit new state.
1893:src/stm32f1xx_hal_tim_ex.c ****   *          This parameter can be: TIM_CCxN_ENABLE or TIM_CCxN_Disable.
1894:src/stm32f1xx_hal_tim_ex.c ****   * @retval None
1895:src/stm32f1xx_hal_tim_ex.c ****   */
1896:src/stm32f1xx_hal_tim_ex.c **** static void TIM_CCxNChannelCmd(TIM_TypeDef *TIMx, uint32_t Channel, uint32_t ChannelNState)
1897:src/stm32f1xx_hal_tim_ex.c **** {
  78              		.loc 1 1897 0
  79              		.cfi_startproc
  80              		@ args = 0, pretend = 0, frame = 0
  81              		@ frame_needed = 0, uses_anonymous_args = 0
  82              	.LVL0:
  83 0000 10B5     		push	{r4, lr}	@
  84              	.LCFI0:
  85              		.cfi_def_cfa_offset 8
  86              		.cfi_offset 4, -8
  87              		.cfi_offset 14, -4
1898:src/stm32f1xx_hal_tim_ex.c ****   uint32_t tmp;
1899:src/stm32f1xx_hal_tim_ex.c **** 
1900:src/stm32f1xx_hal_tim_ex.c ****   tmp = TIM_CCER_CC1NE << (Channel & 0x1FU); /* 0x1FU = 31 bits max shift */
  88              		.loc 1 1900 0
  89 0002 0424     		movs	r4, #4	@ tmp122,
1901:src/stm32f1xx_hal_tim_ex.c **** 
1902:src/stm32f1xx_hal_tim_ex.c ****   /* Reset the CCxNE Bit */
1903:src/stm32f1xx_hal_tim_ex.c ****   TIMx->CCER &=  ~tmp;
  90              		.loc 1 1903 0
  91 0004 036A     		ldr	r3, [r0, #32]	@ _6, TIMx_5(D)->CCER
1900:src/stm32f1xx_hal_tim_ex.c **** 
ARM GAS  /tmp/ccD9AYux.s 			page 36


  92              		.loc 1 1900 0
  93 0006 01F01F01 		and	r1, r1, #31	@ _2, Channel,
  94              	.LVL1:
  95 000a 8C40     		lsls	r4, r4, r1	@ tmp, tmp122, _2
  96              	.LVL2:
  97              		.loc 1 1903 0
  98 000c 23EA0403 		bic	r3, r3, r4	@ _8, _6, tmp
  99 0010 0362     		str	r3, [r0, #32]	@ _8, TIMx_5(D)->CCER
1904:src/stm32f1xx_hal_tim_ex.c **** 
1905:src/stm32f1xx_hal_tim_ex.c ****   /* Set or reset the CCxNE Bit */
1906:src/stm32f1xx_hal_tim_ex.c ****   TIMx->CCER |= (uint32_t)(ChannelNState << (Channel & 0x1FU)); /* 0x1FU = 31 bits max shift */
 100              		.loc 1 1906 0
 101 0012 036A     		ldr	r3, [r0, #32]	@ _10, TIMx_5(D)->CCER
 102 0014 8A40     		lsls	r2, r2, r1	@ tmp124, ChannelNState, _2
 103              	.LVL3:
 104 0016 1A43     		orrs	r2, r2, r3	@, _13, tmp124, _10
 105 0018 0262     		str	r2, [r0, #32]	@ _13, TIMx_5(D)->CCER
 106 001a 10BD     		pop	{r4, pc}	@
 107              		.cfi_endproc
 108              	.LFE103:
 109              		.size	TIM_CCxNChannelCmd, .-TIM_CCxNChannelCmd
 110              		.align	1
 111              		.weak	HAL_TIMEx_HallSensor_MspInit
 112              		.syntax unified
 113              		.thumb
 114              		.thumb_func
 115              		.fpu softvfp
 116              		.type	HAL_TIMEx_HallSensor_MspInit, %function
 117              	HAL_TIMEx_HallSensor_MspInit:
 118              	.LFB119:
 119              		.cfi_startproc
 120              		@ args = 0, pretend = 0, frame = 0
 121              		@ frame_needed = 0, uses_anonymous_args = 0
 122              		@ link register save eliminated.
 123 001c 7047     		bx	lr	@
 124              		.cfi_endproc
 125              	.LFE119:
 126              		.size	HAL_TIMEx_HallSensor_MspInit, .-HAL_TIMEx_HallSensor_MspInit
 127              		.align	1
 128              		.global	HAL_TIMEx_HallSensor_Init
 129              		.syntax unified
 130              		.thumb
 131              		.thumb_func
 132              		.fpu softvfp
 133              		.type	HAL_TIMEx_HallSensor_Init, %function
 134              	HAL_TIMEx_HallSensor_Init:
 135              	.LFB65:
 131:src/stm32f1xx_hal_tim_ex.c ****   TIM_OC_InitTypeDef OC_Config;
 136              		.loc 1 131 0
 137              		.cfi_startproc
 138              		@ args = 0, pretend = 0, frame = 32
 139              		@ frame_needed = 0, uses_anonymous_args = 0
 140              	.LVL4:
 131:src/stm32f1xx_hal_tim_ex.c ****   TIM_OC_InitTypeDef OC_Config;
 141              		.loc 1 131 0
 142 001e 70B5     		push	{r4, r5, r6, lr}	@
 143              	.LCFI1:
ARM GAS  /tmp/ccD9AYux.s 			page 37


 144              		.cfi_def_cfa_offset 16
 145              		.cfi_offset 4, -16
 146              		.cfi_offset 5, -12
 147              		.cfi_offset 6, -8
 148              		.cfi_offset 14, -4
 149 0020 0E46     		mov	r6, r1	@ sConfig, sConfig
 150 0022 88B0     		sub	sp, sp, #32	@,,
 151              	.LCFI2:
 152              		.cfi_def_cfa_offset 48
 135:src/stm32f1xx_hal_tim_ex.c ****   {
 153              		.loc 1 135 0
 154 0024 0546     		mov	r5, r0	@ htim, htim
 155 0026 0028     		cmp	r0, #0	@ htim
 156 0028 4ED0     		beq	.L6	@
 149:src/stm32f1xx_hal_tim_ex.c ****   {
 157              		.loc 1 149 0
 158 002a 90F83D30 		ldrb	r3, [r0, #61]	@ zero_extendqisi2	@ htim_4(D)->State, htim_4(D)->State
 159 002e 03F0FF02 		and	r2, r3, #255	@ _6, htim_4(D)->State,
 160 0032 1BB9     		cbnz	r3, .L5	@ htim_4(D)->State,
 152:src/stm32f1xx_hal_tim_ex.c **** 
 161              		.loc 1 152 0
 162 0034 80F83C20 		strb	r2, [r0, #60]	@ _6, htim_4(D)->Lock
 166:src/stm32f1xx_hal_tim_ex.c **** #endif /* USE_HAL_TIM_REGISTER_CALLBACKS */
 163              		.loc 1 166 0
 164 0038 FFF7FEFF 		bl	HAL_TIMEx_HallSensor_MspInit	@
 165              	.LVL5:
 166              	.L5:
 171:src/stm32f1xx_hal_tim_ex.c **** 
 167              		.loc 1 171 0
 168 003c 0223     		movs	r3, #2	@ tmp146,
 174:src/stm32f1xx_hal_tim_ex.c **** 
 169              		.loc 1 174 0
 170 003e 291D     		adds	r1, r5, #4	@, htim,
 171:src/stm32f1xx_hal_tim_ex.c **** 
 171              		.loc 1 171 0
 172 0040 85F83D30 		strb	r3, [r5, #61]	@ tmp146, htim_4(D)->State
 174:src/stm32f1xx_hal_tim_ex.c **** 
 173              		.loc 1 174 0
 174 0044 2868     		ldr	r0, [r5]	@, htim_4(D)->Instance
 175 0046 FFF7FEFF 		bl	TIM_Base_SetConfig	@
 176              	.LVL6:
 177:src/stm32f1xx_hal_tim_ex.c **** 
 177              		.loc 1 177 0
 178 004a B368     		ldr	r3, [r6, #8]	@, sConfig_14(D)->IC1Filter
 179 004c 0322     		movs	r2, #3	@,
 180 004e 3168     		ldr	r1, [r6]	@, sConfig_14(D)->IC1Polarity
 181 0050 2868     		ldr	r0, [r5]	@, htim_4(D)->Instance
 182 0052 FFF7FEFF 		bl	TIM_TI1_SetConfig	@
 183              	.LVL7:
 180:src/stm32f1xx_hal_tim_ex.c ****   /* Set the IC1PSC value */
 184              		.loc 1 180 0
 185 0056 2868     		ldr	r0, [r5]	@ _18, htim_4(D)->Instance
 182:src/stm32f1xx_hal_tim_ex.c **** 
 186              		.loc 1 182 0
 187 0058 7268     		ldr	r2, [r6, #4]	@ sConfig_14(D)->IC1Prescaler, sConfig_14(D)->IC1Prescaler
 180:src/stm32f1xx_hal_tim_ex.c ****   /* Set the IC1PSC value */
 188              		.loc 1 180 0
ARM GAS  /tmp/ccD9AYux.s 			page 38


 189 005a 8369     		ldr	r3, [r0, #24]	@ _19, _18->CCMR1
 196:src/stm32f1xx_hal_tim_ex.c ****   OC_Config.OCIdleState = TIM_OCIDLESTATE_RESET;
 190              		.loc 1 196 0
 191 005c 0024     		movs	r4, #0	@ tmp150,
 180:src/stm32f1xx_hal_tim_ex.c ****   /* Set the IC1PSC value */
 192              		.loc 1 180 0
 193 005e 23F00C03 		bic	r3, r3, #12	@ _20, _19,
 194 0062 8361     		str	r3, [r0, #24]	@ _20, _18->CCMR1
 182:src/stm32f1xx_hal_tim_ex.c **** 
 195              		.loc 1 182 0
 196 0064 8369     		ldr	r3, [r0, #24]	@ _22, _18->CCMR1
 204:src/stm32f1xx_hal_tim_ex.c **** 
 197              		.loc 1 204 0
 198 0066 01A9     		add	r1, sp, #4	@,,
 182:src/stm32f1xx_hal_tim_ex.c **** 
 199              		.loc 1 182 0
 200 0068 1343     		orrs	r3, r3, r2	@, _24, _22, sConfig_14(D)->IC1Prescaler
 201 006a 8361     		str	r3, [r0, #24]	@ _24, _18->CCMR1
 185:src/stm32f1xx_hal_tim_ex.c **** 
 202              		.loc 1 185 0
 203 006c 4368     		ldr	r3, [r0, #4]	@ _26, _18->CR2
 204 006e 43F08003 		orr	r3, r3, #128	@ _27, _26,
 205 0072 4360     		str	r3, [r0, #4]	@ _27, _18->CR2
 188:src/stm32f1xx_hal_tim_ex.c ****   htim->Instance->SMCR |= TIM_TS_TI1F_ED;
 206              		.loc 1 188 0
 207 0074 8368     		ldr	r3, [r0, #8]	@ _29, _18->SMCR
 208 0076 23F07003 		bic	r3, r3, #112	@ _30, _29,
 209 007a 8360     		str	r3, [r0, #8]	@ _30, _18->SMCR
 189:src/stm32f1xx_hal_tim_ex.c **** 
 210              		.loc 1 189 0
 211 007c 8368     		ldr	r3, [r0, #8]	@ _32, _18->SMCR
 212 007e 43F04003 		orr	r3, r3, #64	@ _33, _32,
 213 0082 8360     		str	r3, [r0, #8]	@ _33, _18->SMCR
 192:src/stm32f1xx_hal_tim_ex.c ****   htim->Instance->SMCR |= TIM_SLAVEMODE_RESET;
 214              		.loc 1 192 0
 215 0084 8368     		ldr	r3, [r0, #8]	@ _35, _18->SMCR
 216 0086 23F00703 		bic	r3, r3, #7	@ _36, _35,
 217 008a 8360     		str	r3, [r0, #8]	@ _36, _18->SMCR
 193:src/stm32f1xx_hal_tim_ex.c **** 
 218              		.loc 1 193 0
 219 008c 8368     		ldr	r3, [r0, #8]	@ _38, _18->SMCR
 220 008e 43F00403 		orr	r3, r3, #4	@ _39, _38,
 221 0092 8360     		str	r3, [r0, #8]	@ _39, _18->SMCR
 198:src/stm32f1xx_hal_tim_ex.c ****   OC_Config.OCNIdleState = TIM_OCNIDLESTATE_RESET;
 222              		.loc 1 198 0
 223 0094 7023     		movs	r3, #112	@ tmp152,
 224 0096 0193     		str	r3, [sp, #4]	@ tmp152, OC_Config.OCMode
 202:src/stm32f1xx_hal_tim_ex.c **** 
 225              		.loc 1 202 0
 226 0098 F368     		ldr	r3, [r6, #12]	@ sConfig_14(D)->Commutation_Delay, sConfig_14(D)->Commutation_Delay
 196:src/stm32f1xx_hal_tim_ex.c ****   OC_Config.OCIdleState = TIM_OCIDLESTATE_RESET;
 227              		.loc 1 196 0
 228 009a 0594     		str	r4, [sp, #20]	@ tmp150, OC_Config.OCFastMode
 202:src/stm32f1xx_hal_tim_ex.c **** 
 229              		.loc 1 202 0
 230 009c 0293     		str	r3, [sp, #8]	@ sConfig_14(D)->Commutation_Delay, OC_Config.Pulse
 197:src/stm32f1xx_hal_tim_ex.c ****   OC_Config.OCMode = TIM_OCMODE_PWM2;
ARM GAS  /tmp/ccD9AYux.s 			page 39


 231              		.loc 1 197 0
 232 009e 0694     		str	r4, [sp, #24]	@ tmp150, OC_Config.OCIdleState
 199:src/stm32f1xx_hal_tim_ex.c ****   OC_Config.OCNPolarity = TIM_OCNPOLARITY_HIGH;
 233              		.loc 1 199 0
 234 00a0 0794     		str	r4, [sp, #28]	@ tmp150, OC_Config.OCNIdleState
 200:src/stm32f1xx_hal_tim_ex.c ****   OC_Config.OCPolarity = TIM_OCPOLARITY_HIGH;
 235              		.loc 1 200 0
 236 00a2 0494     		str	r4, [sp, #16]	@ tmp150, OC_Config.OCNPolarity
 201:src/stm32f1xx_hal_tim_ex.c ****   OC_Config.Pulse = sConfig->Commutation_Delay;
 237              		.loc 1 201 0
 238 00a4 0394     		str	r4, [sp, #12]	@ tmp150, OC_Config.OCPolarity
 204:src/stm32f1xx_hal_tim_ex.c **** 
 239              		.loc 1 204 0
 240 00a6 FFF7FEFF 		bl	TIM_OC2_SetConfig	@
 241              	.LVL8:
 208:src/stm32f1xx_hal_tim_ex.c ****   htim->Instance->CR2 |= TIM_TRGO_OC2REF;
 242              		.loc 1 208 0
 243 00aa 2B68     		ldr	r3, [r5]	@ _50, htim_4(D)->Instance
 214:src/stm32f1xx_hal_tim_ex.c **** }
 244              		.loc 1 214 0
 245 00ac 2046     		mov	r0, r4	@ <retval>, tmp150
 208:src/stm32f1xx_hal_tim_ex.c ****   htim->Instance->CR2 |= TIM_TRGO_OC2REF;
 246              		.loc 1 208 0
 247 00ae 5A68     		ldr	r2, [r3, #4]	@ _51, _50->CR2
 248 00b0 22F07002 		bic	r2, r2, #112	@ _52, _51,
 249 00b4 5A60     		str	r2, [r3, #4]	@ _52, _50->CR2
 209:src/stm32f1xx_hal_tim_ex.c **** 
 250              		.loc 1 209 0
 251 00b6 5A68     		ldr	r2, [r3, #4]	@ _54, _50->CR2
 252 00b8 42F05002 		orr	r2, r2, #80	@ _55, _54,
 253 00bc 5A60     		str	r2, [r3, #4]	@ _55, _50->CR2
 212:src/stm32f1xx_hal_tim_ex.c **** 
 254              		.loc 1 212 0
 255 00be 0123     		movs	r3, #1	@ tmp158,
 256 00c0 85F83D30 		strb	r3, [r5, #61]	@ tmp158, htim_4(D)->State
 257              	.L4:
 215:src/stm32f1xx_hal_tim_ex.c **** 
 258              		.loc 1 215 0
 259 00c4 08B0     		add	sp, sp, #32	@,,
 260              	.LCFI3:
 261              		.cfi_remember_state
 262              		.cfi_def_cfa_offset 16
 263              		@ sp needed	@
 264 00c6 70BD     		pop	{r4, r5, r6, pc}	@
 265              	.LVL9:
 266              	.L6:
 267              	.LCFI4:
 268              		.cfi_restore_state
 137:src/stm32f1xx_hal_tim_ex.c ****   }
 269              		.loc 1 137 0
 270 00c8 0120     		movs	r0, #1	@ <retval>,
 271              	.LVL10:
 272 00ca FBE7     		b	.L4	@
 273              		.cfi_endproc
 274              	.LFE65:
 275              		.size	HAL_TIMEx_HallSensor_Init, .-HAL_TIMEx_HallSensor_Init
 276              		.align	1
ARM GAS  /tmp/ccD9AYux.s 			page 40


 277              		.weak	HAL_TIMEx_HallSensor_MspDeInit
 278              		.syntax unified
 279              		.thumb
 280              		.thumb_func
 281              		.fpu softvfp
 282              		.type	HAL_TIMEx_HallSensor_MspDeInit, %function
 283              	HAL_TIMEx_HallSensor_MspDeInit:
 284              	.LFB117:
 285              		.cfi_startproc
 286              		@ args = 0, pretend = 0, frame = 0
 287              		@ frame_needed = 0, uses_anonymous_args = 0
 288              		@ link register save eliminated.
 289 00cc 7047     		bx	lr	@
 290              		.cfi_endproc
 291              	.LFE117:
 292              		.size	HAL_TIMEx_HallSensor_MspDeInit, .-HAL_TIMEx_HallSensor_MspDeInit
 293              		.align	1
 294              		.global	HAL_TIMEx_HallSensor_DeInit
 295              		.syntax unified
 296              		.thumb
 297              		.thumb_func
 298              		.fpu softvfp
 299              		.type	HAL_TIMEx_HallSensor_DeInit, %function
 300              	HAL_TIMEx_HallSensor_DeInit:
 301              	.LFB66:
 223:src/stm32f1xx_hal_tim_ex.c ****   /* Check the parameters */
 302              		.loc 1 223 0
 303              		.cfi_startproc
 304              		@ args = 0, pretend = 0, frame = 0
 305              		@ frame_needed = 0, uses_anonymous_args = 0
 306              	.LVL11:
 227:src/stm32f1xx_hal_tim_ex.c **** 
 307              		.loc 1 227 0
 308 00ce 0223     		movs	r3, #2	@ tmp119,
 230:src/stm32f1xx_hal_tim_ex.c **** 
 309              		.loc 1 230 0
 310 00d0 41F21112 		movw	r2, #4369	@ tmp121,
 223:src/stm32f1xx_hal_tim_ex.c ****   /* Check the parameters */
 311              		.loc 1 223 0
 312 00d4 10B5     		push	{r4, lr}	@
 313              	.LCFI5:
 314              		.cfi_def_cfa_offset 8
 315              		.cfi_offset 4, -8
 316              		.cfi_offset 14, -4
 227:src/stm32f1xx_hal_tim_ex.c **** 
 317              		.loc 1 227 0
 318 00d6 80F83D30 		strb	r3, [r0, #61]	@ tmp119, htim_3(D)->State
 230:src/stm32f1xx_hal_tim_ex.c **** 
 319              		.loc 1 230 0
 320 00da 0368     		ldr	r3, [r0]	@ _5, htim_3(D)->Instance
 223:src/stm32f1xx_hal_tim_ex.c ****   /* Check the parameters */
 321              		.loc 1 223 0
 322 00dc 0446     		mov	r4, r0	@ htim, htim
 230:src/stm32f1xx_hal_tim_ex.c **** 
 323              		.loc 1 230 0
 324 00de 196A     		ldr	r1, [r3, #32]	@ _6, _5->CCER
 325 00e0 1142     		tst	r1, r2	@ _6, tmp121
ARM GAS  /tmp/ccD9AYux.s 			page 41


 326 00e2 08D1     		bne	.L9	@,
 230:src/stm32f1xx_hal_tim_ex.c **** 
 327              		.loc 1 230 0 is_stmt 0 discriminator 1
 328 00e4 40F24442 		movw	r2, #1092	@ tmp123,
 329 00e8 196A     		ldr	r1, [r3, #32]	@ _8, _5->CCER
 330 00ea 1142     		tst	r1, r2	@ _8, tmp123
 331 00ec 02BF     		ittt	eq
 332 00ee 1A68     		ldreq	r2, [r3]	@ _10, _5->CR1
 333 00f0 22F00102 		biceq	r2, r2, #1	@ _11, _10,
 334 00f4 1A60     		streq	r2, [r3]	@ _11, _5->CR1
 335              	.L9:
 241:src/stm32f1xx_hal_tim_ex.c **** #endif /* USE_HAL_TIM_REGISTER_CALLBACKS */
 336              		.loc 1 241 0 is_stmt 1
 337 00f6 2046     		mov	r0, r4	@, htim
 338              	.LVL12:
 339 00f8 FFF7FEFF 		bl	HAL_TIMEx_HallSensor_MspDeInit	@
 340              	.LVL13:
 245:src/stm32f1xx_hal_tim_ex.c **** 
 341              		.loc 1 245 0
 342 00fc 0020     		movs	r0, #0	@ tmp125,
 343 00fe 84F83D00 		strb	r0, [r4, #61]	@ tmp125, htim_3(D)->State
 248:src/stm32f1xx_hal_tim_ex.c **** 
 344              		.loc 1 248 0
 345 0102 84F83C00 		strb	r0, [r4, #60]	@ tmp125, htim_3(D)->Lock
 251:src/stm32f1xx_hal_tim_ex.c **** 
 346              		.loc 1 251 0
 347 0106 10BD     		pop	{r4, pc}	@
 348              		.cfi_endproc
 349              	.LFE66:
 350              		.size	HAL_TIMEx_HallSensor_DeInit, .-HAL_TIMEx_HallSensor_DeInit
 351              		.align	1
 352              		.global	HAL_TIMEx_HallSensor_Start
 353              		.syntax unified
 354              		.thumb
 355              		.thumb_func
 356              		.fpu softvfp
 357              		.type	HAL_TIMEx_HallSensor_Start, %function
 358              	HAL_TIMEx_HallSensor_Start:
 359              	.LFB69:
 289:src/stm32f1xx_hal_tim_ex.c ****   uint32_t tmpsmcr;
 360              		.loc 1 289 0
 361              		.cfi_startproc
 362              		@ args = 0, pretend = 0, frame = 0
 363              		@ frame_needed = 0, uses_anonymous_args = 0
 364              	.LVL14:
 365 0108 10B5     		push	{r4, lr}	@
 366              	.LCFI6:
 367              		.cfi_def_cfa_offset 8
 368              		.cfi_offset 4, -8
 369              		.cfi_offset 14, -4
 289:src/stm32f1xx_hal_tim_ex.c ****   uint32_t tmpsmcr;
 370              		.loc 1 289 0
 371 010a 0446     		mov	r4, r0	@ htim, htim
 297:src/stm32f1xx_hal_tim_ex.c **** 
 372              		.loc 1 297 0
 373 010c 0122     		movs	r2, #1	@,
 374 010e 0021     		movs	r1, #0	@,
ARM GAS  /tmp/ccD9AYux.s 			page 42


 375 0110 0068     		ldr	r0, [r0]	@, htim_3(D)->Instance
 376              	.LVL15:
 377 0112 FFF7FEFF 		bl	TIM_CCxChannelCmd	@
 378              	.LVL16:
 300:src/stm32f1xx_hal_tim_ex.c ****   if (!IS_TIM_SLAVEMODE_TRIGGER_ENABLED(tmpsmcr))
 379              		.loc 1 300 0
 380 0116 2368     		ldr	r3, [r4]	@ _6, htim_3(D)->Instance
 308:src/stm32f1xx_hal_tim_ex.c **** 
 381              		.loc 1 308 0
 382 0118 0020     		movs	r0, #0	@,
 300:src/stm32f1xx_hal_tim_ex.c ****   if (!IS_TIM_SLAVEMODE_TRIGGER_ENABLED(tmpsmcr))
 383              		.loc 1 300 0
 384 011a 9A68     		ldr	r2, [r3, #8]	@ _7, _6->SMCR
 385              	.LVL17:
 386 011c 02F00702 		and	r2, r2, #7	@ tmpsmcr, _7,
 387              	.LVL18:
 301:src/stm32f1xx_hal_tim_ex.c ****   {
 388              		.loc 1 301 0
 389 0120 062A     		cmp	r2, #6	@ tmpsmcr,
 303:src/stm32f1xx_hal_tim_ex.c ****   }
 390              		.loc 1 303 0
 391 0122 1EBF     		ittt	ne
 392 0124 1A68     		ldrne	r2, [r3]	@ _9, _6->CR1
 393              	.LVL19:
 394 0126 42F00102 		orrne	r2, r2, #1	@ _10, _9,
 395 012a 1A60     		strne	r2, [r3]	@ _10, _6->CR1
 308:src/stm32f1xx_hal_tim_ex.c **** 
 396              		.loc 1 308 0
 397 012c 10BD     		pop	{r4, pc}	@
 398              		.cfi_endproc
 399              	.LFE69:
 400              		.size	HAL_TIMEx_HallSensor_Start, .-HAL_TIMEx_HallSensor_Start
 401              		.align	1
 402              		.global	HAL_TIMEx_HallSensor_Stop
 403              		.syntax unified
 404              		.thumb
 405              		.thumb_func
 406              		.fpu softvfp
 407              		.type	HAL_TIMEx_HallSensor_Stop, %function
 408              	HAL_TIMEx_HallSensor_Stop:
 409              	.LFB70:
 316:src/stm32f1xx_hal_tim_ex.c ****   /* Check the parameters */
 410              		.loc 1 316 0
 411              		.cfi_startproc
 412              		@ args = 0, pretend = 0, frame = 0
 413              		@ frame_needed = 0, uses_anonymous_args = 0
 414              	.LVL20:
 322:src/stm32f1xx_hal_tim_ex.c **** 
 415              		.loc 1 322 0
 416 012e 0022     		movs	r2, #0	@,
 316:src/stm32f1xx_hal_tim_ex.c ****   /* Check the parameters */
 417              		.loc 1 316 0
 418 0130 10B5     		push	{r4, lr}	@
 419              	.LCFI7:
 420              		.cfi_def_cfa_offset 8
 421              		.cfi_offset 4, -8
 422              		.cfi_offset 14, -4
ARM GAS  /tmp/ccD9AYux.s 			page 43


 316:src/stm32f1xx_hal_tim_ex.c ****   /* Check the parameters */
 423              		.loc 1 316 0
 424 0132 0446     		mov	r4, r0	@ htim, htim
 322:src/stm32f1xx_hal_tim_ex.c **** 
 425              		.loc 1 322 0
 426 0134 1146     		mov	r1, r2	@,
 427 0136 0068     		ldr	r0, [r0]	@, htim_3(D)->Instance
 428              	.LVL21:
 429 0138 FFF7FEFF 		bl	TIM_CCxChannelCmd	@
 430              	.LVL22:
 325:src/stm32f1xx_hal_tim_ex.c **** 
 431              		.loc 1 325 0
 432 013c 41F21112 		movw	r2, #4369	@ tmp120,
 433 0140 2368     		ldr	r3, [r4]	@ _6, htim_3(D)->Instance
 434 0142 196A     		ldr	r1, [r3, #32]	@ _7, _6->CCER
 435 0144 1142     		tst	r1, r2	@ _7, tmp120
 436 0146 08D1     		bne	.L16	@,
 325:src/stm32f1xx_hal_tim_ex.c **** 
 437              		.loc 1 325 0 is_stmt 0 discriminator 1
 438 0148 40F24442 		movw	r2, #1092	@ tmp122,
 439 014c 196A     		ldr	r1, [r3, #32]	@ _9, _6->CCER
 440 014e 1142     		tst	r1, r2	@ _9, tmp122
 441 0150 02BF     		ittt	eq
 442 0152 1A68     		ldreq	r2, [r3]	@ _11, _6->CR1
 443 0154 22F00102 		biceq	r2, r2, #1	@ _12, _11,
 444 0158 1A60     		streq	r2, [r3]	@ _12, _6->CR1
 445              	.L16:
 329:src/stm32f1xx_hal_tim_ex.c **** 
 446              		.loc 1 329 0 is_stmt 1
 447 015a 0020     		movs	r0, #0	@,
 448 015c 10BD     		pop	{r4, pc}	@
 449              		.cfi_endproc
 450              	.LFE70:
 451              		.size	HAL_TIMEx_HallSensor_Stop, .-HAL_TIMEx_HallSensor_Stop
 452              		.align	1
 453              		.global	HAL_TIMEx_HallSensor_Start_IT
 454              		.syntax unified
 455              		.thumb
 456              		.thumb_func
 457              		.fpu softvfp
 458              		.type	HAL_TIMEx_HallSensor_Start_IT, %function
 459              	HAL_TIMEx_HallSensor_Start_IT:
 460              	.LFB71:
 337:src/stm32f1xx_hal_tim_ex.c ****   uint32_t tmpsmcr;
 461              		.loc 1 337 0
 462              		.cfi_startproc
 463              		@ args = 0, pretend = 0, frame = 0
 464              		@ frame_needed = 0, uses_anonymous_args = 0
 465              	.LVL23:
 466 015e 10B5     		push	{r4, lr}	@
 467              	.LCFI8:
 468              		.cfi_def_cfa_offset 8
 469              		.cfi_offset 4, -8
 470              		.cfi_offset 14, -4
 337:src/stm32f1xx_hal_tim_ex.c ****   uint32_t tmpsmcr;
 471              		.loc 1 337 0
 472 0160 0446     		mov	r4, r0	@ htim, htim
ARM GAS  /tmp/ccD9AYux.s 			page 44


 344:src/stm32f1xx_hal_tim_ex.c **** 
 473              		.loc 1 344 0
 474 0162 0068     		ldr	r0, [r0]	@ _4, htim_3(D)->Instance
 475              	.LVL24:
 348:src/stm32f1xx_hal_tim_ex.c **** 
 476              		.loc 1 348 0
 477 0164 0122     		movs	r2, #1	@,
 344:src/stm32f1xx_hal_tim_ex.c **** 
 478              		.loc 1 344 0
 479 0166 C368     		ldr	r3, [r0, #12]	@ _5, _4->DIER
 348:src/stm32f1xx_hal_tim_ex.c **** 
 480              		.loc 1 348 0
 481 0168 0021     		movs	r1, #0	@,
 344:src/stm32f1xx_hal_tim_ex.c **** 
 482              		.loc 1 344 0
 483 016a 43F00203 		orr	r3, r3, #2	@ _6, _5,
 484 016e C360     		str	r3, [r0, #12]	@ _6, _4->DIER
 348:src/stm32f1xx_hal_tim_ex.c **** 
 485              		.loc 1 348 0
 486 0170 FFF7FEFF 		bl	TIM_CCxChannelCmd	@
 487              	.LVL25:
 351:src/stm32f1xx_hal_tim_ex.c ****   if (!IS_TIM_SLAVEMODE_TRIGGER_ENABLED(tmpsmcr))
 488              		.loc 1 351 0
 489 0174 2368     		ldr	r3, [r4]	@ _9, htim_3(D)->Instance
 359:src/stm32f1xx_hal_tim_ex.c **** 
 490              		.loc 1 359 0
 491 0176 0020     		movs	r0, #0	@,
 351:src/stm32f1xx_hal_tim_ex.c ****   if (!IS_TIM_SLAVEMODE_TRIGGER_ENABLED(tmpsmcr))
 492              		.loc 1 351 0
 493 0178 9A68     		ldr	r2, [r3, #8]	@ _10, _9->SMCR
 494              	.LVL26:
 495 017a 02F00702 		and	r2, r2, #7	@ tmpsmcr, _10,
 496              	.LVL27:
 352:src/stm32f1xx_hal_tim_ex.c ****   {
 497              		.loc 1 352 0
 498 017e 062A     		cmp	r2, #6	@ tmpsmcr,
 354:src/stm32f1xx_hal_tim_ex.c ****   }
 499              		.loc 1 354 0
 500 0180 1EBF     		ittt	ne
 501 0182 1A68     		ldrne	r2, [r3]	@ _12, _9->CR1
 502              	.LVL28:
 503 0184 42F00102 		orrne	r2, r2, #1	@ _13, _12,
 504 0188 1A60     		strne	r2, [r3]	@ _13, _9->CR1
 359:src/stm32f1xx_hal_tim_ex.c **** 
 505              		.loc 1 359 0
 506 018a 10BD     		pop	{r4, pc}	@
 507              		.cfi_endproc
 508              	.LFE71:
 509              		.size	HAL_TIMEx_HallSensor_Start_IT, .-HAL_TIMEx_HallSensor_Start_IT
 510              		.align	1
 511              		.global	HAL_TIMEx_HallSensor_Stop_IT
 512              		.syntax unified
 513              		.thumb
 514              		.thumb_func
 515              		.fpu softvfp
 516              		.type	HAL_TIMEx_HallSensor_Stop_IT, %function
 517              	HAL_TIMEx_HallSensor_Stop_IT:
ARM GAS  /tmp/ccD9AYux.s 			page 45


 518              	.LFB72:
 367:src/stm32f1xx_hal_tim_ex.c ****   /* Check the parameters */
 519              		.loc 1 367 0
 520              		.cfi_startproc
 521              		@ args = 0, pretend = 0, frame = 0
 522              		@ frame_needed = 0, uses_anonymous_args = 0
 523              	.LVL29:
 373:src/stm32f1xx_hal_tim_ex.c **** 
 524              		.loc 1 373 0
 525 018c 0022     		movs	r2, #0	@,
 367:src/stm32f1xx_hal_tim_ex.c ****   /* Check the parameters */
 526              		.loc 1 367 0
 527 018e 10B5     		push	{r4, lr}	@
 528              	.LCFI9:
 529              		.cfi_def_cfa_offset 8
 530              		.cfi_offset 4, -8
 531              		.cfi_offset 14, -4
 367:src/stm32f1xx_hal_tim_ex.c ****   /* Check the parameters */
 532              		.loc 1 367 0
 533 0190 0446     		mov	r4, r0	@ htim, htim
 373:src/stm32f1xx_hal_tim_ex.c **** 
 534              		.loc 1 373 0
 535 0192 1146     		mov	r1, r2	@,
 536 0194 0068     		ldr	r0, [r0]	@, htim_3(D)->Instance
 537              	.LVL30:
 538 0196 FFF7FEFF 		bl	TIM_CCxChannelCmd	@
 539              	.LVL31:
 376:src/stm32f1xx_hal_tim_ex.c **** 
 540              		.loc 1 376 0
 541 019a 2368     		ldr	r3, [r4]	@ _6, htim_3(D)->Instance
 542 019c DA68     		ldr	r2, [r3, #12]	@ _7, _6->DIER
 543 019e 22F00202 		bic	r2, r2, #2	@ _8, _7,
 544 01a2 DA60     		str	r2, [r3, #12]	@ _8, _6->DIER
 379:src/stm32f1xx_hal_tim_ex.c **** 
 545              		.loc 1 379 0
 546 01a4 41F21112 		movw	r2, #4369	@ tmp122,
 547 01a8 196A     		ldr	r1, [r3, #32]	@ _10, _6->CCER
 548 01aa 1142     		tst	r1, r2	@ _10, tmp122
 549 01ac 08D1     		bne	.L23	@,
 379:src/stm32f1xx_hal_tim_ex.c **** 
 550              		.loc 1 379 0 is_stmt 0 discriminator 1
 551 01ae 40F24442 		movw	r2, #1092	@ tmp124,
 552 01b2 196A     		ldr	r1, [r3, #32]	@ _12, _6->CCER
 553 01b4 1142     		tst	r1, r2	@ _12, tmp124
 554 01b6 02BF     		ittt	eq
 555 01b8 1A68     		ldreq	r2, [r3]	@ _14, _6->CR1
 556 01ba 22F00102 		biceq	r2, r2, #1	@ _15, _14,
 557 01be 1A60     		streq	r2, [r3]	@ _15, _6->CR1
 558              	.L23:
 383:src/stm32f1xx_hal_tim_ex.c **** 
 559              		.loc 1 383 0 is_stmt 1
 560 01c0 0020     		movs	r0, #0	@,
 561 01c2 10BD     		pop	{r4, pc}	@
 562              		.cfi_endproc
 563              	.LFE72:
 564              		.size	HAL_TIMEx_HallSensor_Stop_IT, .-HAL_TIMEx_HallSensor_Stop_IT
 565              		.align	1
ARM GAS  /tmp/ccD9AYux.s 			page 46


 566              		.global	HAL_TIMEx_HallSensor_Start_DMA
 567              		.syntax unified
 568              		.thumb
 569              		.thumb_func
 570              		.fpu softvfp
 571              		.type	HAL_TIMEx_HallSensor_Start_DMA, %function
 572              	HAL_TIMEx_HallSensor_Start_DMA:
 573              	.LFB73:
 393:src/stm32f1xx_hal_tim_ex.c ****   uint32_t tmpsmcr;
 574              		.loc 1 393 0
 575              		.cfi_startproc
 576              		@ args = 0, pretend = 0, frame = 0
 577              		@ frame_needed = 0, uses_anonymous_args = 0
 578              	.LVL32:
 579 01c4 70B5     		push	{r4, r5, r6, lr}	@
 580              	.LCFI10:
 581              		.cfi_def_cfa_offset 16
 582              		.cfi_offset 4, -16
 583              		.cfi_offset 5, -12
 584              		.cfi_offset 6, -8
 585              		.cfi_offset 14, -4
 393:src/stm32f1xx_hal_tim_ex.c ****   uint32_t tmpsmcr;
 586              		.loc 1 393 0
 587 01c6 0446     		mov	r4, r0	@ htim, htim
 399:src/stm32f1xx_hal_tim_ex.c ****   {
 588              		.loc 1 399 0
 589 01c8 90F83D00 		ldrb	r0, [r0, #61]	@ zero_extendqisi2	@ htim_5(D)->State, htim_5(D)->State
 590              	.LVL33:
 393:src/stm32f1xx_hal_tim_ex.c ****   uint32_t tmpsmcr;
 591              		.loc 1 393 0
 592 01cc 0D46     		mov	r5, r1	@ pData, pData
 399:src/stm32f1xx_hal_tim_ex.c ****   {
 593              		.loc 1 399 0
 594 01ce C0B2     		uxtb	r0, r0	@ _6, htim_5(D)->State
 595 01d0 0228     		cmp	r0, #2	@ _6,
 393:src/stm32f1xx_hal_tim_ex.c ****   uint32_t tmpsmcr;
 596              		.loc 1 393 0
 597 01d2 1646     		mov	r6, r2	@ Length, Length
 399:src/stm32f1xx_hal_tim_ex.c ****   {
 598              		.loc 1 399 0
 599 01d4 2CD0     		beq	.L25	@,
 403:src/stm32f1xx_hal_tim_ex.c ****   {
 600              		.loc 1 403 0
 601 01d6 94F83D30 		ldrb	r3, [r4, #61]	@ zero_extendqisi2	@ htim_5(D)->State, htim_5(D)->State
 602 01da 012B     		cmp	r3, #1	@ htim_5(D)->State,
 603 01dc 06D1     		bne	.L26	@,
 405:src/stm32f1xx_hal_tim_ex.c ****     {
 604              		.loc 1 405 0
 605 01de 11B9     		cbnz	r1, .L27	@ pData,
 405:src/stm32f1xx_hal_tim_ex.c ****     {
 606              		.loc 1 405 0 is_stmt 0 discriminator 1
 607 01e0 0AB1     		cbz	r2, .L27	@ Length,
 608              	.LVL34:
 609              	.L28:
 407:src/stm32f1xx_hal_tim_ex.c ****     }
 610              		.loc 1 407 0 is_stmt 1
 611 01e2 0120     		movs	r0, #1	@ <retval>,
ARM GAS  /tmp/ccD9AYux.s 			page 47


 612 01e4 70BD     		pop	{r4, r5, r6, pc}	@
 613              	.LVL35:
 614              	.L27:
 411:src/stm32f1xx_hal_tim_ex.c ****     }
 615              		.loc 1 411 0
 616 01e6 0223     		movs	r3, #2	@ tmp137,
 617 01e8 84F83D30 		strb	r3, [r4, #61]	@ tmp137, htim_5(D)->State
 618              	.L26:
 420:src/stm32f1xx_hal_tim_ex.c **** 
 619              		.loc 1 420 0
 620 01ec 0122     		movs	r2, #1	@,
 621              	.LVL36:
 622 01ee 0021     		movs	r1, #0	@,
 623              	.LVL37:
 624 01f0 2068     		ldr	r0, [r4]	@, htim_5(D)->Instance
 625 01f2 FFF7FEFF 		bl	TIM_CCxChannelCmd	@
 626              	.LVL38:
 423:src/stm32f1xx_hal_tim_ex.c ****   htim->hdma[TIM_DMA_ID_CC1]->XferHalfCpltCallback = TIM_DMACaptureHalfCplt;
 627              		.loc 1 423 0
 628 01f6 606A     		ldr	r0, [r4, #36]	@ _14, htim_5(D)->hdma
 629 01f8 0E4B     		ldr	r3, .L36	@ tmp139,
 429:src/stm32f1xx_hal_tim_ex.c ****   {
 630              		.loc 1 429 0
 631 01fa 2168     		ldr	r1, [r4]	@ htim_5(D)->Instance, htim_5(D)->Instance
 423:src/stm32f1xx_hal_tim_ex.c ****   htim->hdma[TIM_DMA_ID_CC1]->XferHalfCpltCallback = TIM_DMACaptureHalfCplt;
 632              		.loc 1 423 0
 633 01fc 8362     		str	r3, [r0, #40]	@ tmp139, _14->XferCpltCallback
 424:src/stm32f1xx_hal_tim_ex.c ****   /* Set the DMA error callback */
 634              		.loc 1 424 0
 635 01fe 0E4B     		ldr	r3, .L36+4	@ tmp140,
 429:src/stm32f1xx_hal_tim_ex.c ****   {
 636              		.loc 1 429 0
 637 0200 2A46     		mov	r2, r5	@, pData
 424:src/stm32f1xx_hal_tim_ex.c ****   /* Set the DMA error callback */
 638              		.loc 1 424 0
 639 0202 C362     		str	r3, [r0, #44]	@ tmp140, _14->XferHalfCpltCallback
 426:src/stm32f1xx_hal_tim_ex.c **** 
 640              		.loc 1 426 0
 641 0204 0D4B     		ldr	r3, .L36+8	@ tmp141,
 429:src/stm32f1xx_hal_tim_ex.c ****   {
 642              		.loc 1 429 0
 643 0206 3431     		adds	r1, r1, #52	@, htim_5(D)->Instance,
 426:src/stm32f1xx_hal_tim_ex.c **** 
 644              		.loc 1 426 0
 645 0208 0363     		str	r3, [r0, #48]	@ tmp141, _14->XferErrorCallback
 429:src/stm32f1xx_hal_tim_ex.c ****   {
 646              		.loc 1 429 0
 647 020a 3346     		mov	r3, r6	@, Length
 648 020c FFF7FEFF 		bl	HAL_DMA_Start_IT	@
 649              	.LVL39:
 650 0210 0028     		cmp	r0, #0	@ <retval>
 651 0212 E6D1     		bne	.L28	@
 434:src/stm32f1xx_hal_tim_ex.c **** 
 652              		.loc 1 434 0
 653 0214 2368     		ldr	r3, [r4]	@ _25, htim_5(D)->Instance
 654 0216 DA68     		ldr	r2, [r3, #12]	@ _26, _25->DIER
 655 0218 42F40072 		orr	r2, r2, #512	@ _27, _26,
ARM GAS  /tmp/ccD9AYux.s 			page 48


 656 021c DA60     		str	r2, [r3, #12]	@ _27, _25->DIER
 437:src/stm32f1xx_hal_tim_ex.c ****   if (!IS_TIM_SLAVEMODE_TRIGGER_ENABLED(tmpsmcr))
 657              		.loc 1 437 0
 658 021e 9A68     		ldr	r2, [r3, #8]	@ _29, _25->SMCR
 659              	.LVL40:
 660 0220 02F00702 		and	r2, r2, #7	@ tmpsmcr, _29,
 661              	.LVL41:
 438:src/stm32f1xx_hal_tim_ex.c ****   {
 662              		.loc 1 438 0
 663 0224 062A     		cmp	r2, #6	@ tmpsmcr,
 440:src/stm32f1xx_hal_tim_ex.c ****   }
 664              		.loc 1 440 0
 665 0226 1EBF     		ittt	ne
 666 0228 1A68     		ldrne	r2, [r3]	@ _31, _25->CR1
 667              	.LVL42:
 668 022a 42F00102 		orrne	r2, r2, #1	@ _32, _31,
 669 022e 1A60     		strne	r2, [r3]	@ _32, _25->CR1
 670              	.L25:
 445:src/stm32f1xx_hal_tim_ex.c **** 
 671              		.loc 1 445 0
 672 0230 70BD     		pop	{r4, r5, r6, pc}	@
 673              	.LVL43:
 674              	.L37:
 675 0232 00BF     		.align	2
 676              	.L36:
 677 0234 00000000 		.word	TIM_DMACaptureCplt
 678 0238 00000000 		.word	TIM_DMACaptureHalfCplt
 679 023c 00000000 		.word	TIM_DMAError
 680              		.cfi_endproc
 681              	.LFE73:
 682              		.size	HAL_TIMEx_HallSensor_Start_DMA, .-HAL_TIMEx_HallSensor_Start_DMA
 683              		.align	1
 684              		.global	HAL_TIMEx_HallSensor_Stop_DMA
 685              		.syntax unified
 686              		.thumb
 687              		.thumb_func
 688              		.fpu softvfp
 689              		.type	HAL_TIMEx_HallSensor_Stop_DMA, %function
 690              	HAL_TIMEx_HallSensor_Stop_DMA:
 691              	.LFB74:
 453:src/stm32f1xx_hal_tim_ex.c ****   /* Check the parameters */
 692              		.loc 1 453 0
 693              		.cfi_startproc
 694              		@ args = 0, pretend = 0, frame = 0
 695              		@ frame_needed = 0, uses_anonymous_args = 0
 696              	.LVL44:
 459:src/stm32f1xx_hal_tim_ex.c **** 
 697              		.loc 1 459 0
 698 0240 0022     		movs	r2, #0	@,
 453:src/stm32f1xx_hal_tim_ex.c ****   /* Check the parameters */
 699              		.loc 1 453 0
 700 0242 10B5     		push	{r4, lr}	@
 701              	.LCFI11:
 702              		.cfi_def_cfa_offset 8
 703              		.cfi_offset 4, -8
 704              		.cfi_offset 14, -4
 453:src/stm32f1xx_hal_tim_ex.c ****   /* Check the parameters */
ARM GAS  /tmp/ccD9AYux.s 			page 49


 705              		.loc 1 453 0
 706 0244 0446     		mov	r4, r0	@ htim, htim
 459:src/stm32f1xx_hal_tim_ex.c **** 
 707              		.loc 1 459 0
 708 0246 1146     		mov	r1, r2	@,
 709 0248 0068     		ldr	r0, [r0]	@, htim_3(D)->Instance
 710              	.LVL45:
 711 024a FFF7FEFF 		bl	TIM_CCxChannelCmd	@
 712              	.LVL46:
 463:src/stm32f1xx_hal_tim_ex.c **** 
 713              		.loc 1 463 0
 714 024e 2268     		ldr	r2, [r4]	@ _6, htim_3(D)->Instance
 465:src/stm32f1xx_hal_tim_ex.c ****   /* Disable the Peripheral */
 715              		.loc 1 465 0
 716 0250 606A     		ldr	r0, [r4, #36]	@, htim_3(D)->hdma
 463:src/stm32f1xx_hal_tim_ex.c **** 
 717              		.loc 1 463 0
 718 0252 D368     		ldr	r3, [r2, #12]	@ _7, _6->DIER
 719 0254 23F40073 		bic	r3, r3, #512	@ _8, _7,
 720 0258 D360     		str	r3, [r2, #12]	@ _8, _6->DIER
 465:src/stm32f1xx_hal_tim_ex.c ****   /* Disable the Peripheral */
 721              		.loc 1 465 0
 722 025a FFF7FEFF 		bl	HAL_DMA_Abort_IT	@
 723              	.LVL47:
 467:src/stm32f1xx_hal_tim_ex.c **** 
 724              		.loc 1 467 0
 725 025e 41F21112 		movw	r2, #4369	@ tmp124,
 726 0262 2368     		ldr	r3, [r4]	@ _12, htim_3(D)->Instance
 727 0264 196A     		ldr	r1, [r3, #32]	@ _13, _12->CCER
 728 0266 1142     		tst	r1, r2	@ _13, tmp124
 729 0268 08D1     		bne	.L39	@,
 467:src/stm32f1xx_hal_tim_ex.c **** 
 730              		.loc 1 467 0 is_stmt 0 discriminator 1
 731 026a 40F24442 		movw	r2, #1092	@ tmp126,
 732 026e 196A     		ldr	r1, [r3, #32]	@ _15, _12->CCER
 733 0270 1142     		tst	r1, r2	@ _15, tmp126
 734 0272 02BF     		ittt	eq
 735 0274 1A68     		ldreq	r2, [r3]	@ _17, _12->CR1
 736 0276 22F00102 		biceq	r2, r2, #1	@ _18, _17,
 737 027a 1A60     		streq	r2, [r3]	@ _18, _12->CR1
 738              	.L39:
 471:src/stm32f1xx_hal_tim_ex.c **** 
 739              		.loc 1 471 0 is_stmt 1
 740 027c 0020     		movs	r0, #0	@,
 741 027e 10BD     		pop	{r4, pc}	@
 742              		.cfi_endproc
 743              	.LFE74:
 744              		.size	HAL_TIMEx_HallSensor_Stop_DMA, .-HAL_TIMEx_HallSensor_Stop_DMA
 745              		.align	1
 746              		.global	HAL_TIMEx_PWMN_Start
 747              		.syntax unified
 748              		.thumb
 749              		.thumb_func
 750              		.fpu softvfp
 751              		.type	HAL_TIMEx_PWMN_Start, %function
 752              	HAL_TIMEx_PWMN_Start:
 753              	.LFB81:
ARM GAS  /tmp/ccD9AYux.s 			page 50


 918:src/stm32f1xx_hal_tim_ex.c ****   uint32_t tmpsmcr;
 754              		.loc 1 918 0
 755              		.cfi_startproc
 756              		@ args = 0, pretend = 0, frame = 0
 757              		@ frame_needed = 0, uses_anonymous_args = 0
 758              	.LVL48:
 759 0280 10B5     		push	{r4, lr}	@
 760              	.LCFI12:
 761              		.cfi_def_cfa_offset 8
 762              		.cfi_offset 4, -8
 763              		.cfi_offset 14, -4
 918:src/stm32f1xx_hal_tim_ex.c ****   uint32_t tmpsmcr;
 764              		.loc 1 918 0
 765 0282 0446     		mov	r4, r0	@ htim, htim
 925:src/stm32f1xx_hal_tim_ex.c **** 
 766              		.loc 1 925 0
 767 0284 0422     		movs	r2, #4	@,
 768 0286 0068     		ldr	r0, [r0]	@, htim_3(D)->Instance
 769              	.LVL49:
 770 0288 FFF7BAFE 		bl	TIM_CCxNChannelCmd	@
 771              	.LVL50:
 928:src/stm32f1xx_hal_tim_ex.c **** 
 772              		.loc 1 928 0
 773 028c 2368     		ldr	r3, [r4]	@ _7, htim_3(D)->Instance
 939:src/stm32f1xx_hal_tim_ex.c **** 
 774              		.loc 1 939 0
 775 028e 0020     		movs	r0, #0	@,
 928:src/stm32f1xx_hal_tim_ex.c **** 
 776              		.loc 1 928 0
 777 0290 5A6C     		ldr	r2, [r3, #68]	@ _8, _7->BDTR
 778 0292 42F40042 		orr	r2, r2, #32768	@ _9, _8,
 779 0296 5A64     		str	r2, [r3, #68]	@ _9, _7->BDTR
 931:src/stm32f1xx_hal_tim_ex.c ****   if (!IS_TIM_SLAVEMODE_TRIGGER_ENABLED(tmpsmcr))
 780              		.loc 1 931 0
 781 0298 9A68     		ldr	r2, [r3, #8]	@ _11, _7->SMCR
 782              	.LVL51:
 783 029a 02F00702 		and	r2, r2, #7	@ tmpsmcr, _11,
 784              	.LVL52:
 932:src/stm32f1xx_hal_tim_ex.c ****   {
 785              		.loc 1 932 0
 786 029e 062A     		cmp	r2, #6	@ tmpsmcr,
 934:src/stm32f1xx_hal_tim_ex.c ****   }
 787              		.loc 1 934 0
 788 02a0 1EBF     		ittt	ne
 789 02a2 1A68     		ldrne	r2, [r3]	@ _13, _7->CR1
 790              	.LVL53:
 791 02a4 42F00102 		orrne	r2, r2, #1	@ _14, _13,
 792 02a8 1A60     		strne	r2, [r3]	@ _14, _7->CR1
 939:src/stm32f1xx_hal_tim_ex.c **** 
 793              		.loc 1 939 0
 794 02aa 10BD     		pop	{r4, pc}	@
 795              		.cfi_endproc
 796              	.LFE81:
 797              		.size	HAL_TIMEx_PWMN_Start, .-HAL_TIMEx_PWMN_Start
 798              		.align	1
 799              		.global	HAL_TIMEx_OCN_Start
 800              		.syntax unified
ARM GAS  /tmp/ccD9AYux.s 			page 51


 801              		.thumb
 802              		.thumb_func
 803              		.fpu softvfp
 804              		.type	HAL_TIMEx_OCN_Start, %function
 805              	HAL_TIMEx_OCN_Start:
 806              	.LFB123:
 807              		.cfi_startproc
 808              		@ args = 0, pretend = 0, frame = 0
 809              		@ frame_needed = 0, uses_anonymous_args = 0
 810              		@ link register save eliminated.
 811 02ac FFF7FEBF 		b	HAL_TIMEx_PWMN_Start	@
 812              		.cfi_endproc
 813              	.LFE123:
 814              		.size	HAL_TIMEx_OCN_Start, .-HAL_TIMEx_OCN_Start
 815              		.align	1
 816              		.global	HAL_TIMEx_PWMN_Start_IT
 817              		.syntax unified
 818              		.thumb
 819              		.thumb_func
 820              		.fpu softvfp
 821              		.type	HAL_TIMEx_PWMN_Start_IT, %function
 822              	HAL_TIMEx_PWMN_Start_IT:
 823              	.LFB83:
 981:src/stm32f1xx_hal_tim_ex.c ****   uint32_t tmpsmcr;
 824              		.loc 1 981 0
 825              		.cfi_startproc
 826              		@ args = 0, pretend = 0, frame = 0
 827              		@ frame_needed = 0, uses_anonymous_args = 0
 828              	.LVL54:
 987:src/stm32f1xx_hal_tim_ex.c ****   {
 829              		.loc 1 987 0
 830 02b0 0429     		cmp	r1, #4	@ Channel,
 981:src/stm32f1xx_hal_tim_ex.c ****   uint32_t tmpsmcr;
 831              		.loc 1 981 0
 832 02b2 10B5     		push	{r4, lr}	@
 833              	.LCFI13:
 834              		.cfi_def_cfa_offset 8
 835              		.cfi_offset 4, -8
 836              		.cfi_offset 14, -4
 981:src/stm32f1xx_hal_tim_ex.c ****   uint32_t tmpsmcr;
 837              		.loc 1 981 0
 838 02b4 0446     		mov	r4, r0	@ htim, htim
 839 02b6 0068     		ldr	r0, [r0]	@ _18, htim_5(D)->Instance
 840              	.LVL55:
 987:src/stm32f1xx_hal_tim_ex.c ****   {
 841              		.loc 1 987 0
 842 02b8 1DD0     		beq	.L48	@,
 843 02ba 0829     		cmp	r1, #8	@ Channel,
 844 02bc 1FD0     		beq	.L49	@,
 845 02be 19B9     		cbnz	r1, .L47	@ Channel,
 992:src/stm32f1xx_hal_tim_ex.c ****       break;
 846              		.loc 1 992 0
 847 02c0 C368     		ldr	r3, [r0, #12]	@ _7, _6->DIER
 848 02c2 43F00203 		orr	r3, r3, #2	@ _8, _7,
 849              	.L55:
1006:src/stm32f1xx_hal_tim_ex.c ****       break;
 850              		.loc 1 1006 0
ARM GAS  /tmp/ccD9AYux.s 			page 52


 851 02c6 C360     		str	r3, [r0, #12]	@ _16,
 852              	.L47:
1015:src/stm32f1xx_hal_tim_ex.c **** 
 853              		.loc 1 1015 0
 854 02c8 C368     		ldr	r3, [r0, #12]	@ _19, _18->DIER
1018:src/stm32f1xx_hal_tim_ex.c **** 
 855              		.loc 1 1018 0
 856 02ca 0422     		movs	r2, #4	@,
1015:src/stm32f1xx_hal_tim_ex.c **** 
 857              		.loc 1 1015 0
 858 02cc 43F08003 		orr	r3, r3, #128	@ _20, _19,
 859 02d0 C360     		str	r3, [r0, #12]	@ _20, _18->DIER
1018:src/stm32f1xx_hal_tim_ex.c **** 
 860              		.loc 1 1018 0
 861 02d2 FFF795FE 		bl	TIM_CCxNChannelCmd	@
 862              	.LVL56:
1021:src/stm32f1xx_hal_tim_ex.c **** 
 863              		.loc 1 1021 0
 864 02d6 2368     		ldr	r3, [r4]	@ _23, htim_5(D)->Instance
1032:src/stm32f1xx_hal_tim_ex.c **** 
 865              		.loc 1 1032 0
 866 02d8 0020     		movs	r0, #0	@,
1021:src/stm32f1xx_hal_tim_ex.c **** 
 867              		.loc 1 1021 0
 868 02da 5A6C     		ldr	r2, [r3, #68]	@ _24, _23->BDTR
 869 02dc 42F40042 		orr	r2, r2, #32768	@ _25, _24,
 870 02e0 5A64     		str	r2, [r3, #68]	@ _25, _23->BDTR
1024:src/stm32f1xx_hal_tim_ex.c ****   if (!IS_TIM_SLAVEMODE_TRIGGER_ENABLED(tmpsmcr))
 871              		.loc 1 1024 0
 872 02e2 9A68     		ldr	r2, [r3, #8]	@ _27, _23->SMCR
 873              	.LVL57:
 874 02e4 02F00702 		and	r2, r2, #7	@ tmpsmcr, _27,
 875              	.LVL58:
1025:src/stm32f1xx_hal_tim_ex.c ****   {
 876              		.loc 1 1025 0
 877 02e8 062A     		cmp	r2, #6	@ tmpsmcr,
1027:src/stm32f1xx_hal_tim_ex.c ****   }
 878              		.loc 1 1027 0
 879 02ea 1EBF     		ittt	ne
 880 02ec 1A68     		ldrne	r2, [r3]	@ _29, _23->CR1
 881              	.LVL59:
 882 02ee 42F00102 		orrne	r2, r2, #1	@ _30, _29,
 883 02f2 1A60     		strne	r2, [r3]	@ _30, _23->CR1
1032:src/stm32f1xx_hal_tim_ex.c **** 
 884              		.loc 1 1032 0
 885 02f4 10BD     		pop	{r4, pc}	@
 886              	.LVL60:
 887              	.L48:
 999:src/stm32f1xx_hal_tim_ex.c ****       break;
 888              		.loc 1 999 0
 889 02f6 C368     		ldr	r3, [r0, #12]	@ _11, _10->DIER
 890 02f8 43F00403 		orr	r3, r3, #4	@ _12, _11,
 891 02fc E3E7     		b	.L55	@
 892              	.L49:
1006:src/stm32f1xx_hal_tim_ex.c ****       break;
 893              		.loc 1 1006 0
 894 02fe C368     		ldr	r3, [r0, #12]	@ _15, _14->DIER
ARM GAS  /tmp/ccD9AYux.s 			page 53


 895 0300 43F00803 		orr	r3, r3, #8	@ _16, _15,
 896 0304 DFE7     		b	.L55	@
 897              		.cfi_endproc
 898              	.LFE83:
 899              		.size	HAL_TIMEx_PWMN_Start_IT, .-HAL_TIMEx_PWMN_Start_IT
 900              		.align	1
 901              		.global	HAL_TIMEx_OCN_Start_IT
 902              		.syntax unified
 903              		.thumb
 904              		.thumb_func
 905              		.fpu softvfp
 906              		.type	HAL_TIMEx_OCN_Start_IT, %function
 907              	HAL_TIMEx_OCN_Start_IT:
 908              	.LFB111:
 909              		.cfi_startproc
 910              		@ args = 0, pretend = 0, frame = 0
 911              		@ frame_needed = 0, uses_anonymous_args = 0
 912              		@ link register save eliminated.
 913 0306 FFF7FEBF 		b	HAL_TIMEx_PWMN_Start_IT	@
 914              		.cfi_endproc
 915              	.LFE111:
 916              		.size	HAL_TIMEx_OCN_Start_IT, .-HAL_TIMEx_OCN_Start_IT
 917              		.align	1
 918              		.global	HAL_TIMEx_PWMN_Stop_IT
 919              		.syntax unified
 920              		.thumb
 921              		.thumb_func
 922              		.fpu softvfp
 923              		.type	HAL_TIMEx_PWMN_Stop_IT, %function
 924              	HAL_TIMEx_PWMN_Stop_IT:
 925              	.LFB84:
1046:src/stm32f1xx_hal_tim_ex.c ****   uint32_t tmpccer;
 926              		.loc 1 1046 0
 927              		.cfi_startproc
 928              		@ args = 0, pretend = 0, frame = 0
 929              		@ frame_needed = 0, uses_anonymous_args = 0
 930              	.LVL61:
1052:src/stm32f1xx_hal_tim_ex.c ****   {
 931              		.loc 1 1052 0
 932 030a 0429     		cmp	r1, #4	@ Channel,
1046:src/stm32f1xx_hal_tim_ex.c ****   uint32_t tmpccer;
 933              		.loc 1 1046 0
 934 030c 10B5     		push	{r4, lr}	@
 935              	.LCFI14:
 936              		.cfi_def_cfa_offset 8
 937              		.cfi_offset 4, -8
 938              		.cfi_offset 14, -4
1046:src/stm32f1xx_hal_tim_ex.c ****   uint32_t tmpccer;
 939              		.loc 1 1046 0
 940 030e 0446     		mov	r4, r0	@ htim, htim
1052:src/stm32f1xx_hal_tim_ex.c ****   {
 941              		.loc 1 1052 0
 942 0310 33D0     		beq	.L59	@,
 943 0312 0829     		cmp	r1, #8	@ Channel,
 944 0314 36D0     		beq	.L60	@,
 945 0316 21B9     		cbnz	r1, .L58	@ Channel,
1057:src/stm32f1xx_hal_tim_ex.c ****       break;
ARM GAS  /tmp/ccD9AYux.s 			page 54


 946              		.loc 1 1057 0
 947 0318 0268     		ldr	r2, [r0]	@ _8, htim_7(D)->Instance
 948 031a D368     		ldr	r3, [r2, #12]	@ _9, _8->DIER
 949 031c 23F00203 		bic	r3, r3, #2	@ _10, _9,
 950              	.L65:
1071:src/stm32f1xx_hal_tim_ex.c ****       break;
 951              		.loc 1 1071 0
 952 0320 D360     		str	r3, [r2, #12]	@ _18,
 953              	.L58:
1080:src/stm32f1xx_hal_tim_ex.c **** 
 954              		.loc 1 1080 0
 955 0322 0022     		movs	r2, #0	@,
 956 0324 2068     		ldr	r0, [r4]	@, htim_7(D)->Instance
 957              	.LVL62:
 958 0326 FFF76BFE 		bl	TIM_CCxNChannelCmd	@
 959              	.LVL63:
1084:src/stm32f1xx_hal_tim_ex.c ****   {
 960              		.loc 1 1084 0
 961 032a 40F24442 		movw	r2, #1092	@ tmp140,
1083:src/stm32f1xx_hal_tim_ex.c ****   if ((tmpccer & (TIM_CCER_CC1NE | TIM_CCER_CC2NE | TIM_CCER_CC3NE)) == (uint32_t)RESET)
 962              		.loc 1 1083 0
 963 032e 2368     		ldr	r3, [r4]	@ _22, htim_7(D)->Instance
 964 0330 196A     		ldr	r1, [r3, #32]	@ tmpccer, _22->CCER
 965              	.LVL64:
1084:src/stm32f1xx_hal_tim_ex.c ****   {
 966              		.loc 1 1084 0
 967 0332 1142     		tst	r1, r2	@ tmpccer, tmp140
1086:src/stm32f1xx_hal_tim_ex.c ****   }
 968              		.loc 1 1086 0
 969 0334 02BF     		ittt	eq
 970 0336 DA68     		ldreq	r2, [r3, #12]	@ _25, _22->DIER
 971 0338 22F08002 		biceq	r2, r2, #128	@ _26, _25,
 972 033c DA60     		streq	r2, [r3, #12]	@ _26, _22->DIER
1090:src/stm32f1xx_hal_tim_ex.c **** 
 973              		.loc 1 1090 0
 974 033e 41F21112 		movw	r2, #4369	@ tmp142,
 975 0342 196A     		ldr	r1, [r3, #32]	@ _28, _22->CCER
 976              	.LVL65:
 977 0344 1142     		tst	r1, r2	@ _28, tmp142
 978 0346 08D1     		bne	.L63	@,
1090:src/stm32f1xx_hal_tim_ex.c **** 
 979              		.loc 1 1090 0 is_stmt 0 discriminator 1
 980 0348 40F24442 		movw	r2, #1092	@ tmp144,
 981 034c 196A     		ldr	r1, [r3, #32]	@ _30, _22->CCER
 982 034e 1142     		tst	r1, r2	@ _30, tmp144
 983 0350 02BF     		ittt	eq
 984 0352 5A6C     		ldreq	r2, [r3, #68]	@ _32, _22->BDTR
 985 0354 22F40042 		biceq	r2, r2, #32768	@ _33, _32,
 986 0358 5A64     		streq	r2, [r3, #68]	@ _33, _22->BDTR
 987              	.L63:
1093:src/stm32f1xx_hal_tim_ex.c **** 
 988              		.loc 1 1093 0 is_stmt 1
 989 035a 41F21112 		movw	r2, #4369	@ tmp146,
 990 035e 196A     		ldr	r1, [r3, #32]	@ _35, _22->CCER
 991 0360 1142     		tst	r1, r2	@ _35, tmp146
 992 0362 08D1     		bne	.L64	@,
1093:src/stm32f1xx_hal_tim_ex.c **** 
ARM GAS  /tmp/ccD9AYux.s 			page 55


 993              		.loc 1 1093 0 is_stmt 0 discriminator 1
 994 0364 40F24442 		movw	r2, #1092	@ tmp148,
 995 0368 196A     		ldr	r1, [r3, #32]	@ _37, _22->CCER
 996 036a 1142     		tst	r1, r2	@ _37, tmp148
 997 036c 02BF     		ittt	eq
 998 036e 1A68     		ldreq	r2, [r3]	@ _39, _22->CR1
 999 0370 22F00102 		biceq	r2, r2, #1	@ _40, _39,
 1000 0374 1A60     		streq	r2, [r3]	@ _40, _22->CR1
 1001              	.L64:
1097:src/stm32f1xx_hal_tim_ex.c **** 
 1002              		.loc 1 1097 0 is_stmt 1
 1003 0376 0020     		movs	r0, #0	@,
 1004 0378 10BD     		pop	{r4, pc}	@
 1005              	.LVL66:
 1006              	.L59:
1064:src/stm32f1xx_hal_tim_ex.c ****       break;
 1007              		.loc 1 1064 0
 1008 037a 0268     		ldr	r2, [r0]	@ _12, htim_7(D)->Instance
 1009 037c D368     		ldr	r3, [r2, #12]	@ _13, _12->DIER
 1010 037e 23F00403 		bic	r3, r3, #4	@ _14, _13,
 1011 0382 CDE7     		b	.L65	@
 1012              	.L60:
1071:src/stm32f1xx_hal_tim_ex.c ****       break;
 1013              		.loc 1 1071 0
 1014 0384 0268     		ldr	r2, [r0]	@ _16, htim_7(D)->Instance
 1015 0386 D368     		ldr	r3, [r2, #12]	@ _17, _16->DIER
 1016 0388 23F00803 		bic	r3, r3, #8	@ _18, _17,
 1017 038c C8E7     		b	.L65	@
 1018              		.cfi_endproc
 1019              	.LFE84:
 1020              		.size	HAL_TIMEx_PWMN_Stop_IT, .-HAL_TIMEx_PWMN_Stop_IT
 1021              		.align	1
 1022              		.global	HAL_TIMEx_OCN_Stop_IT
 1023              		.syntax unified
 1024              		.thumb
 1025              		.thumb_func
 1026              		.fpu softvfp
 1027              		.type	HAL_TIMEx_OCN_Stop_IT, %function
 1028              	HAL_TIMEx_OCN_Stop_IT:
 1029              	.LFB109:
 1030              		.cfi_startproc
 1031              		@ args = 0, pretend = 0, frame = 0
 1032              		@ frame_needed = 0, uses_anonymous_args = 0
 1033              		@ link register save eliminated.
 1034 038e FFF7FEBF 		b	HAL_TIMEx_PWMN_Stop_IT	@
 1035              		.cfi_endproc
 1036              	.LFE109:
 1037              		.size	HAL_TIMEx_OCN_Stop_IT, .-HAL_TIMEx_OCN_Stop_IT
 1038              		.align	1
 1039              		.global	HAL_TIMEx_PWMN_Start_DMA
 1040              		.syntax unified
 1041              		.thumb
 1042              		.thumb_func
 1043              		.fpu softvfp
 1044              		.type	HAL_TIMEx_PWMN_Start_DMA, %function
 1045              	HAL_TIMEx_PWMN_Start_DMA:
 1046              	.LFB85:
ARM GAS  /tmp/ccD9AYux.s 			page 56


1113:src/stm32f1xx_hal_tim_ex.c ****   uint32_t tmpsmcr;
 1047              		.loc 1 1113 0
 1048              		.cfi_startproc
 1049              		@ args = 0, pretend = 0, frame = 0
 1050              		@ frame_needed = 0, uses_anonymous_args = 0
 1051              	.LVL67:
1113:src/stm32f1xx_hal_tim_ex.c ****   uint32_t tmpsmcr;
 1052              		.loc 1 1113 0
 1053 0392 38B5     		push	{r3, r4, r5, lr}	@
 1054              	.LCFI15:
 1055              		.cfi_def_cfa_offset 16
 1056              		.cfi_offset 3, -16
 1057              		.cfi_offset 4, -12
 1058              		.cfi_offset 5, -8
 1059              		.cfi_offset 14, -4
1113:src/stm32f1xx_hal_tim_ex.c ****   uint32_t tmpsmcr;
 1060              		.loc 1 1113 0
 1061 0394 0446     		mov	r4, r0	@ htim, htim
1119:src/stm32f1xx_hal_tim_ex.c ****   {
 1062              		.loc 1 1119 0
 1063 0396 90F83D00 		ldrb	r0, [r0, #61]	@ zero_extendqisi2	@ htim_6(D)->State, htim_6(D)->State
 1064              	.LVL68:
1113:src/stm32f1xx_hal_tim_ex.c ****   uint32_t tmpsmcr;
 1065              		.loc 1 1113 0
 1066 039a 0D46     		mov	r5, r1	@ Channel, Channel
1119:src/stm32f1xx_hal_tim_ex.c ****   {
 1067              		.loc 1 1119 0
 1068 039c C0B2     		uxtb	r0, r0	@ _7, htim_6(D)->State
 1069 039e 0228     		cmp	r0, #2	@ _7,
1113:src/stm32f1xx_hal_tim_ex.c ****   uint32_t tmpsmcr;
 1070              		.loc 1 1113 0
 1071 03a0 1146     		mov	r1, r2	@ pData, pData
 1072              	.LVL69:
1119:src/stm32f1xx_hal_tim_ex.c ****   {
 1073              		.loc 1 1119 0
 1074 03a2 35D0     		beq	.L68	@,
1123:src/stm32f1xx_hal_tim_ex.c ****   {
 1075              		.loc 1 1123 0
 1076 03a4 94F83D20 		ldrb	r2, [r4, #61]	@ zero_extendqisi2	@ htim_6(D)->State, htim_6(D)->State
 1077              	.LVL70:
 1078 03a8 012A     		cmp	r2, #1	@ htim_6(D)->State,
 1079 03aa 06D1     		bne	.L69	@,
1125:src/stm32f1xx_hal_tim_ex.c ****     {
 1080              		.loc 1 1125 0
 1081 03ac 11B9     		cbnz	r1, .L70	@ pData,
1125:src/stm32f1xx_hal_tim_ex.c ****     {
 1082              		.loc 1 1125 0 is_stmt 0 discriminator 1
 1083 03ae 0BB1     		cbz	r3, .L70	@ Length,
 1084              	.LVL71:
 1085              	.L75:
1127:src/stm32f1xx_hal_tim_ex.c ****     }
 1086              		.loc 1 1127 0 is_stmt 1
 1087 03b0 0120     		movs	r0, #1	@ <retval>,
 1088 03b2 38BD     		pop	{r3, r4, r5, pc}	@
 1089              	.LVL72:
 1090              	.L70:
1131:src/stm32f1xx_hal_tim_ex.c ****     }
ARM GAS  /tmp/ccD9AYux.s 			page 57


 1091              		.loc 1 1131 0
 1092 03b4 0222     		movs	r2, #2	@ tmp162,
 1093 03b6 84F83D20 		strb	r2, [r4, #61]	@ tmp162, htim_6(D)->State
 1094              	.L69:
1138:src/stm32f1xx_hal_tim_ex.c ****   {
 1095              		.loc 1 1138 0
 1096 03ba 042D     		cmp	r5, #4	@ Channel,
 1097 03bc 29D0     		beq	.L72	@,
 1098 03be 082D     		cmp	r5, #8	@ Channel,
 1099 03c0 39D0     		beq	.L73	@,
 1100 03c2 8DB9     		cbnz	r5, .L71	@ Channel,
1143:src/stm32f1xx_hal_tim_ex.c ****       htim->hdma[TIM_DMA_ID_CC1]->XferHalfCpltCallback = TIM_DMADelayPulseHalfCplt;
 1101              		.loc 1 1143 0
 1102 03c4 606A     		ldr	r0, [r4, #36]	@ _14, htim_6(D)->hdma
 1103 03c6 254A     		ldr	r2, .L82	@ tmp164,
 1104 03c8 8262     		str	r2, [r0, #40]	@ tmp164, _14->XferCpltCallback
1144:src/stm32f1xx_hal_tim_ex.c **** 
 1105              		.loc 1 1144 0
 1106 03ca 254A     		ldr	r2, .L82+4	@ tmp165,
 1107 03cc C262     		str	r2, [r0, #44]	@ tmp165, _14->XferHalfCpltCallback
1147:src/stm32f1xx_hal_tim_ex.c **** 
 1108              		.loc 1 1147 0
 1109 03ce 254A     		ldr	r2, .L82+8	@ tmp166,
 1110 03d0 0263     		str	r2, [r0, #48]	@ tmp166, _14->XferErrorCallback
1150:src/stm32f1xx_hal_tim_ex.c ****       {
 1111              		.loc 1 1150 0
 1112 03d2 2268     		ldr	r2, [r4]	@ htim_6(D)->Instance, htim_6(D)->Instance
 1113 03d4 3432     		adds	r2, r2, #52	@, htim_6(D)->Instance,
 1114 03d6 FFF7FEFF 		bl	HAL_DMA_Start_IT	@
 1115              	.LVL73:
 1116 03da 0028     		cmp	r0, #0	@
 1117 03dc E8D1     		bne	.L75	@
1155:src/stm32f1xx_hal_tim_ex.c ****       break;
 1118              		.loc 1 1155 0
 1119 03de 2268     		ldr	r2, [r4]	@ _25, htim_6(D)->Instance
 1120 03e0 D368     		ldr	r3, [r2, #12]	@ _26, _25->DIER
 1121 03e2 43F40073 		orr	r3, r3, #512	@ _27, _26,
 1122              	.L81:
1193:src/stm32f1xx_hal_tim_ex.c ****       break;
 1123              		.loc 1 1193 0
 1124 03e6 D360     		str	r3, [r2, #12]	@ _57,
 1125              	.L71:
1202:src/stm32f1xx_hal_tim_ex.c **** 
 1126              		.loc 1 1202 0
 1127 03e8 0422     		movs	r2, #4	@,
 1128 03ea 2068     		ldr	r0, [r4]	@, htim_6(D)->Instance
 1129 03ec 2946     		mov	r1, r5	@, Channel
 1130 03ee FFF707FE 		bl	TIM_CCxNChannelCmd	@
 1131              	.LVL74:
1215:src/stm32f1xx_hal_tim_ex.c **** }
 1132              		.loc 1 1215 0
 1133 03f2 0020     		movs	r0, #0	@ <retval>,
1205:src/stm32f1xx_hal_tim_ex.c **** 
 1134              		.loc 1 1205 0
 1135 03f4 2368     		ldr	r3, [r4]	@ _61, htim_6(D)->Instance
 1136 03f6 5A6C     		ldr	r2, [r3, #68]	@ _62, _61->BDTR
 1137 03f8 42F40042 		orr	r2, r2, #32768	@ _63, _62,
ARM GAS  /tmp/ccD9AYux.s 			page 58


 1138 03fc 5A64     		str	r2, [r3, #68]	@ _63, _61->BDTR
1208:src/stm32f1xx_hal_tim_ex.c ****   if (!IS_TIM_SLAVEMODE_TRIGGER_ENABLED(tmpsmcr))
 1139              		.loc 1 1208 0
 1140 03fe 9A68     		ldr	r2, [r3, #8]	@ _65, _61->SMCR
 1141              	.LVL75:
 1142 0400 02F00702 		and	r2, r2, #7	@ tmpsmcr, _65,
 1143              	.LVL76:
1209:src/stm32f1xx_hal_tim_ex.c ****   {
 1144              		.loc 1 1209 0
 1145 0404 062A     		cmp	r2, #6	@ tmpsmcr,
1211:src/stm32f1xx_hal_tim_ex.c ****   }
 1146              		.loc 1 1211 0
 1147 0406 1EBF     		ittt	ne
 1148 0408 1A68     		ldrne	r2, [r3]	@ _67, _61->CR1
 1149              	.LVL77:
 1150 040a 42F00102 		orrne	r2, r2, #1	@ _68, _67,
 1151 040e 1A60     		strne	r2, [r3]	@ _68, _61->CR1
 1152              	.L68:
1216:src/stm32f1xx_hal_tim_ex.c **** 
 1153              		.loc 1 1216 0
 1154 0410 38BD     		pop	{r3, r4, r5, pc}	@
 1155              	.LVL78:
 1156              	.L72:
1162:src/stm32f1xx_hal_tim_ex.c ****       htim->hdma[TIM_DMA_ID_CC2]->XferHalfCpltCallback = TIM_DMADelayPulseHalfCplt;
 1157              		.loc 1 1162 0
 1158 0412 A06A     		ldr	r0, [r4, #40]	@ _29, htim_6(D)->hdma
 1159 0414 114A     		ldr	r2, .L82	@ tmp170,
 1160 0416 8262     		str	r2, [r0, #40]	@ tmp170, _29->XferCpltCallback
1163:src/stm32f1xx_hal_tim_ex.c **** 
 1161              		.loc 1 1163 0
 1162 0418 114A     		ldr	r2, .L82+4	@ tmp171,
 1163 041a C262     		str	r2, [r0, #44]	@ tmp171, _29->XferHalfCpltCallback
1166:src/stm32f1xx_hal_tim_ex.c **** 
 1164              		.loc 1 1166 0
 1165 041c 114A     		ldr	r2, .L82+8	@ tmp172,
 1166 041e 0263     		str	r2, [r0, #48]	@ tmp172, _29->XferErrorCallback
1169:src/stm32f1xx_hal_tim_ex.c ****       {
 1167              		.loc 1 1169 0
 1168 0420 2268     		ldr	r2, [r4]	@ htim_6(D)->Instance, htim_6(D)->Instance
 1169 0422 3832     		adds	r2, r2, #56	@, htim_6(D)->Instance,
 1170 0424 FFF7FEFF 		bl	HAL_DMA_Start_IT	@
 1171              	.LVL79:
 1172 0428 0028     		cmp	r0, #0	@
 1173 042a C1D1     		bne	.L75	@
1174:src/stm32f1xx_hal_tim_ex.c ****       break;
 1174              		.loc 1 1174 0
 1175 042c 2268     		ldr	r2, [r4]	@ _40, htim_6(D)->Instance
 1176 042e D368     		ldr	r3, [r2, #12]	@ _41, _40->DIER
 1177 0430 43F48063 		orr	r3, r3, #1024	@ _42, _41,
 1178 0434 D7E7     		b	.L81	@
 1179              	.LVL80:
 1180              	.L73:
1181:src/stm32f1xx_hal_tim_ex.c ****       htim->hdma[TIM_DMA_ID_CC3]->XferHalfCpltCallback = TIM_DMADelayPulseHalfCplt;
 1181              		.loc 1 1181 0
 1182 0436 E06A     		ldr	r0, [r4, #44]	@ _44, htim_6(D)->hdma
 1183 0438 084A     		ldr	r2, .L82	@ tmp176,
 1184 043a 8262     		str	r2, [r0, #40]	@ tmp176, _44->XferCpltCallback
ARM GAS  /tmp/ccD9AYux.s 			page 59


1182:src/stm32f1xx_hal_tim_ex.c **** 
 1185              		.loc 1 1182 0
 1186 043c 084A     		ldr	r2, .L82+4	@ tmp177,
 1187 043e C262     		str	r2, [r0, #44]	@ tmp177, _44->XferHalfCpltCallback
1185:src/stm32f1xx_hal_tim_ex.c **** 
 1188              		.loc 1 1185 0
 1189 0440 084A     		ldr	r2, .L82+8	@ tmp178,
 1190 0442 0263     		str	r2, [r0, #48]	@ tmp178, _44->XferErrorCallback
1188:src/stm32f1xx_hal_tim_ex.c ****       {
 1191              		.loc 1 1188 0
 1192 0444 2268     		ldr	r2, [r4]	@ htim_6(D)->Instance, htim_6(D)->Instance
 1193 0446 3C32     		adds	r2, r2, #60	@, htim_6(D)->Instance,
 1194 0448 FFF7FEFF 		bl	HAL_DMA_Start_IT	@
 1195              	.LVL81:
 1196 044c 0028     		cmp	r0, #0	@
 1197 044e AFD1     		bne	.L75	@
1193:src/stm32f1xx_hal_tim_ex.c ****       break;
 1198              		.loc 1 1193 0
 1199 0450 2268     		ldr	r2, [r4]	@ _55, htim_6(D)->Instance
 1200 0452 D368     		ldr	r3, [r2, #12]	@ _56, _55->DIER
 1201 0454 43F40063 		orr	r3, r3, #2048	@ _57, _56,
 1202 0458 C5E7     		b	.L81	@
 1203              	.L83:
 1204 045a 00BF     		.align	2
 1205              	.L82:
 1206 045c 00000000 		.word	TIM_DMADelayPulseCplt
 1207 0460 00000000 		.word	TIM_DMADelayPulseHalfCplt
 1208 0464 00000000 		.word	TIM_DMAError
 1209              		.cfi_endproc
 1210              	.LFE85:
 1211              		.size	HAL_TIMEx_PWMN_Start_DMA, .-HAL_TIMEx_PWMN_Start_DMA
 1212              		.align	1
 1213              		.global	HAL_TIMEx_OCN_Start_DMA
 1214              		.syntax unified
 1215              		.thumb
 1216              		.thumb_func
 1217              		.fpu softvfp
 1218              		.type	HAL_TIMEx_OCN_Start_DMA, %function
 1219              	HAL_TIMEx_OCN_Start_DMA:
 1220              	.LFB121:
 1221              		.cfi_startproc
 1222              		@ args = 0, pretend = 0, frame = 0
 1223              		@ frame_needed = 0, uses_anonymous_args = 0
 1224              		@ link register save eliminated.
 1225 0468 FFF7FEBF 		b	HAL_TIMEx_PWMN_Start_DMA	@
 1226              		.cfi_endproc
 1227              	.LFE121:
 1228              		.size	HAL_TIMEx_OCN_Start_DMA, .-HAL_TIMEx_OCN_Start_DMA
 1229              		.align	1
 1230              		.global	HAL_TIMEx_PWMN_Stop_DMA
 1231              		.syntax unified
 1232              		.thumb
 1233              		.thumb_func
 1234              		.fpu softvfp
 1235              		.type	HAL_TIMEx_PWMN_Stop_DMA, %function
 1236              	HAL_TIMEx_PWMN_Stop_DMA:
 1237              	.LFB86:
ARM GAS  /tmp/ccD9AYux.s 			page 60


1230:src/stm32f1xx_hal_tim_ex.c ****   /* Check the parameters */
 1238              		.loc 1 1230 0
 1239              		.cfi_startproc
 1240              		@ args = 0, pretend = 0, frame = 0
 1241              		@ frame_needed = 0, uses_anonymous_args = 0
 1242              	.LVL82:
1234:src/stm32f1xx_hal_tim_ex.c ****   {
 1243              		.loc 1 1234 0
 1244 046c 0429     		cmp	r1, #4	@ Channel,
1230:src/stm32f1xx_hal_tim_ex.c ****   /* Check the parameters */
 1245              		.loc 1 1230 0
 1246 046e 38B5     		push	{r3, r4, r5, lr}	@
 1247              	.LCFI16:
 1248              		.cfi_def_cfa_offset 16
 1249              		.cfi_offset 3, -16
 1250              		.cfi_offset 4, -12
 1251              		.cfi_offset 5, -8
 1252              		.cfi_offset 14, -4
1230:src/stm32f1xx_hal_tim_ex.c ****   /* Check the parameters */
 1253              		.loc 1 1230 0
 1254 0470 0446     		mov	r4, r0	@ htim, htim
 1255 0472 0D46     		mov	r5, r1	@ Channel, Channel
1234:src/stm32f1xx_hal_tim_ex.c ****   {
 1256              		.loc 1 1234 0
 1257 0474 31D0     		beq	.L87	@,
 1258 0476 0829     		cmp	r1, #8	@ Channel,
 1259 0478 36D0     		beq	.L88	@,
 1260 047a 39B9     		cbnz	r1, .L86	@ Channel,
1239:src/stm32f1xx_hal_tim_ex.c ****       (void)HAL_DMA_Abort_IT(htim->hdma[TIM_DMA_ID_CC1]);
 1261              		.loc 1 1239 0
 1262 047c 0268     		ldr	r2, [r0]	@ _7, htim_6(D)->Instance
1240:src/stm32f1xx_hal_tim_ex.c ****       break;
 1263              		.loc 1 1240 0
 1264 047e 406A     		ldr	r0, [r0, #36]	@, htim_6(D)->hdma
 1265              	.LVL83:
1239:src/stm32f1xx_hal_tim_ex.c ****       (void)HAL_DMA_Abort_IT(htim->hdma[TIM_DMA_ID_CC1]);
 1266              		.loc 1 1239 0
 1267 0480 D368     		ldr	r3, [r2, #12]	@ _8, _7->DIER
 1268 0482 23F40073 		bic	r3, r3, #512	@ _9, _8,
 1269 0486 D360     		str	r3, [r2, #12]	@ _9, _7->DIER
 1270              	.L92:
1256:src/stm32f1xx_hal_tim_ex.c ****       break;
 1271              		.loc 1 1256 0
 1272 0488 FFF7FEFF 		bl	HAL_DMA_Abort_IT	@
 1273              	.LVL84:
 1274              	.L86:
1265:src/stm32f1xx_hal_tim_ex.c **** 
 1275              		.loc 1 1265 0
 1276 048c 0022     		movs	r2, #0	@,
 1277 048e 2946     		mov	r1, r5	@, Channel
 1278 0490 2068     		ldr	r0, [r4]	@, htim_6(D)->Instance
 1279 0492 FFF7B5FD 		bl	TIM_CCxNChannelCmd	@
 1280              	.LVL85:
1268:src/stm32f1xx_hal_tim_ex.c **** 
 1281              		.loc 1 1268 0
 1282 0496 41F21112 		movw	r2, #4369	@ tmp139,
 1283 049a 2368     		ldr	r3, [r4]	@ _27, htim_6(D)->Instance
ARM GAS  /tmp/ccD9AYux.s 			page 61


 1284 049c 196A     		ldr	r1, [r3, #32]	@ _28, _27->CCER
 1285 049e 1142     		tst	r1, r2	@ _28, tmp139
 1286 04a0 08D1     		bne	.L90	@,
1268:src/stm32f1xx_hal_tim_ex.c **** 
 1287              		.loc 1 1268 0 is_stmt 0 discriminator 1
 1288 04a2 40F24442 		movw	r2, #1092	@ tmp141,
 1289 04a6 196A     		ldr	r1, [r3, #32]	@ _30, _27->CCER
 1290 04a8 1142     		tst	r1, r2	@ _30, tmp141
 1291 04aa 02BF     		ittt	eq
 1292 04ac 5A6C     		ldreq	r2, [r3, #68]	@ _32, _27->BDTR
 1293 04ae 22F40042 		biceq	r2, r2, #32768	@ _33, _32,
 1294 04b2 5A64     		streq	r2, [r3, #68]	@ _33, _27->BDTR
 1295              	.L90:
1271:src/stm32f1xx_hal_tim_ex.c **** 
 1296              		.loc 1 1271 0 is_stmt 1
 1297 04b4 41F21112 		movw	r2, #4369	@ tmp143,
 1298 04b8 196A     		ldr	r1, [r3, #32]	@ _35, _27->CCER
 1299 04ba 1142     		tst	r1, r2	@ _35, tmp143
 1300 04bc 08D1     		bne	.L91	@,
1271:src/stm32f1xx_hal_tim_ex.c **** 
 1301              		.loc 1 1271 0 is_stmt 0 discriminator 1
 1302 04be 40F24442 		movw	r2, #1092	@ tmp145,
 1303 04c2 196A     		ldr	r1, [r3, #32]	@ _37, _27->CCER
 1304 04c4 1142     		tst	r1, r2	@ _37, tmp145
 1305 04c6 02BF     		ittt	eq
 1306 04c8 1A68     		ldreq	r2, [r3]	@ _39, _27->CR1
 1307 04ca 22F00102 		biceq	r2, r2, #1	@ _40, _39,
 1308 04ce 1A60     		streq	r2, [r3]	@ _40, _27->CR1
 1309              	.L91:
1274:src/stm32f1xx_hal_tim_ex.c **** 
 1310              		.loc 1 1274 0 is_stmt 1
 1311 04d0 0123     		movs	r3, #1	@ tmp147,
1278:src/stm32f1xx_hal_tim_ex.c **** 
 1312              		.loc 1 1278 0
 1313 04d2 0020     		movs	r0, #0	@,
1274:src/stm32f1xx_hal_tim_ex.c **** 
 1314              		.loc 1 1274 0
 1315 04d4 84F83D30 		strb	r3, [r4, #61]	@ tmp147, htim_6(D)->State
1278:src/stm32f1xx_hal_tim_ex.c **** 
 1316              		.loc 1 1278 0
 1317 04d8 38BD     		pop	{r3, r4, r5, pc}	@
 1318              	.LVL86:
 1319              	.L87:
1247:src/stm32f1xx_hal_tim_ex.c ****       (void)HAL_DMA_Abort_IT(htim->hdma[TIM_DMA_ID_CC2]);
 1320              		.loc 1 1247 0
 1321 04da 0268     		ldr	r2, [r0]	@ _13, htim_6(D)->Instance
1248:src/stm32f1xx_hal_tim_ex.c ****       break;
 1322              		.loc 1 1248 0
 1323 04dc 806A     		ldr	r0, [r0, #40]	@, htim_6(D)->hdma
 1324              	.LVL87:
1247:src/stm32f1xx_hal_tim_ex.c ****       (void)HAL_DMA_Abort_IT(htim->hdma[TIM_DMA_ID_CC2]);
 1325              		.loc 1 1247 0
 1326 04de D368     		ldr	r3, [r2, #12]	@ _14, _13->DIER
 1327 04e0 23F48063 		bic	r3, r3, #1024	@ _15, _14,
 1328 04e4 D360     		str	r3, [r2, #12]	@ _15, _13->DIER
 1329 04e6 CFE7     		b	.L92	@
 1330              	.LVL88:
ARM GAS  /tmp/ccD9AYux.s 			page 62


 1331              	.L88:
1255:src/stm32f1xx_hal_tim_ex.c ****       (void)HAL_DMA_Abort_IT(htim->hdma[TIM_DMA_ID_CC3]);
 1332              		.loc 1 1255 0
 1333 04e8 0268     		ldr	r2, [r0]	@ _19, htim_6(D)->Instance
1256:src/stm32f1xx_hal_tim_ex.c ****       break;
 1334              		.loc 1 1256 0
 1335 04ea C06A     		ldr	r0, [r0, #44]	@, htim_6(D)->hdma
 1336              	.LVL89:
1255:src/stm32f1xx_hal_tim_ex.c ****       (void)HAL_DMA_Abort_IT(htim->hdma[TIM_DMA_ID_CC3]);
 1337              		.loc 1 1255 0
 1338 04ec D368     		ldr	r3, [r2, #12]	@ _20, _19->DIER
 1339 04ee 23F40063 		bic	r3, r3, #2048	@ _21, _20,
 1340 04f2 D360     		str	r3, [r2, #12]	@ _21, _19->DIER
 1341 04f4 C8E7     		b	.L92	@
 1342              		.cfi_endproc
 1343              	.LFE86:
 1344              		.size	HAL_TIMEx_PWMN_Stop_DMA, .-HAL_TIMEx_PWMN_Stop_DMA
 1345              		.align	1
 1346              		.global	HAL_TIMEx_OCN_Stop_DMA
 1347              		.syntax unified
 1348              		.thumb
 1349              		.thumb_func
 1350              		.fpu softvfp
 1351              		.type	HAL_TIMEx_OCN_Stop_DMA, %function
 1352              	HAL_TIMEx_OCN_Stop_DMA:
 1353              	.LFB125:
 1354              		.cfi_startproc
 1355              		@ args = 0, pretend = 0, frame = 0
 1356              		@ frame_needed = 0, uses_anonymous_args = 0
 1357              		@ link register save eliminated.
 1358 04f6 FFF7FEBF 		b	HAL_TIMEx_PWMN_Stop_DMA	@
 1359              		.cfi_endproc
 1360              	.LFE125:
 1361              		.size	HAL_TIMEx_OCN_Stop_DMA, .-HAL_TIMEx_OCN_Stop_DMA
 1362              		.align	1
 1363              		.global	HAL_TIMEx_OnePulseN_Start
 1364              		.syntax unified
 1365              		.thumb
 1366              		.thumb_func
 1367              		.fpu softvfp
 1368              		.type	HAL_TIMEx_OnePulseN_Start, %function
 1369              	HAL_TIMEx_OnePulseN_Start:
 1370              	.LFB87:
1313:src/stm32f1xx_hal_tim_ex.c ****   /* Check the parameters */
 1371              		.loc 1 1313 0
 1372              		.cfi_startproc
 1373              		@ args = 0, pretend = 0, frame = 0
 1374              		@ frame_needed = 0, uses_anonymous_args = 0
 1375              	.LVL90:
1313:src/stm32f1xx_hal_tim_ex.c ****   /* Check the parameters */
 1376              		.loc 1 1313 0
 1377 04fa 10B5     		push	{r4, lr}	@
 1378              	.LCFI17:
 1379              		.cfi_def_cfa_offset 8
 1380              		.cfi_offset 4, -8
 1381              		.cfi_offset 14, -4
1313:src/stm32f1xx_hal_tim_ex.c ****   /* Check the parameters */
ARM GAS  /tmp/ccD9AYux.s 			page 63


 1382              		.loc 1 1313 0
 1383 04fc 0446     		mov	r4, r0	@ htim, htim
1318:src/stm32f1xx_hal_tim_ex.c **** 
 1384              		.loc 1 1318 0
 1385 04fe 0422     		movs	r2, #4	@,
 1386 0500 0068     		ldr	r0, [r0]	@, htim_2(D)->Instance
 1387              	.LVL91:
 1388 0502 FFF77DFD 		bl	TIM_CCxNChannelCmd	@
 1389              	.LVL92:
1321:src/stm32f1xx_hal_tim_ex.c **** 
 1390              		.loc 1 1321 0
 1391 0506 2268     		ldr	r2, [r4]	@ _6, htim_2(D)->Instance
1325:src/stm32f1xx_hal_tim_ex.c **** 
 1392              		.loc 1 1325 0
 1393 0508 0020     		movs	r0, #0	@,
1321:src/stm32f1xx_hal_tim_ex.c **** 
 1394              		.loc 1 1321 0
 1395 050a 536C     		ldr	r3, [r2, #68]	@ _7, _6->BDTR
 1396 050c 43F40043 		orr	r3, r3, #32768	@ _8, _7,
 1397 0510 5364     		str	r3, [r2, #68]	@ _8, _6->BDTR
1325:src/stm32f1xx_hal_tim_ex.c **** 
 1398              		.loc 1 1325 0
 1399 0512 10BD     		pop	{r4, pc}	@
 1400              		.cfi_endproc
 1401              	.LFE87:
 1402              		.size	HAL_TIMEx_OnePulseN_Start, .-HAL_TIMEx_OnePulseN_Start
 1403              		.align	1
 1404              		.global	HAL_TIMEx_OnePulseN_Stop
 1405              		.syntax unified
 1406              		.thumb
 1407              		.thumb_func
 1408              		.fpu softvfp
 1409              		.type	HAL_TIMEx_OnePulseN_Stop, %function
 1410              	HAL_TIMEx_OnePulseN_Stop:
 1411              	.LFB88:
1338:src/stm32f1xx_hal_tim_ex.c **** 
 1412              		.loc 1 1338 0
 1413              		.cfi_startproc
 1414              		@ args = 0, pretend = 0, frame = 0
 1415              		@ frame_needed = 0, uses_anonymous_args = 0
 1416              	.LVL93:
 1417 0514 10B5     		push	{r4, lr}	@
 1418              	.LCFI18:
 1419              		.cfi_def_cfa_offset 8
 1420              		.cfi_offset 4, -8
 1421              		.cfi_offset 14, -4
1338:src/stm32f1xx_hal_tim_ex.c **** 
 1422              		.loc 1 1338 0
 1423 0516 0446     		mov	r4, r0	@ htim, htim
1344:src/stm32f1xx_hal_tim_ex.c **** 
 1424              		.loc 1 1344 0
 1425 0518 0022     		movs	r2, #0	@,
 1426 051a 0068     		ldr	r0, [r0]	@, htim_4(D)->Instance
 1427              	.LVL94:
 1428 051c FFF770FD 		bl	TIM_CCxNChannelCmd	@
 1429              	.LVL95:
1347:src/stm32f1xx_hal_tim_ex.c **** 
ARM GAS  /tmp/ccD9AYux.s 			page 64


 1430              		.loc 1 1347 0
 1431 0520 41F21112 		movw	r2, #4369	@ tmp127,
 1432 0524 2368     		ldr	r3, [r4]	@ _8, htim_4(D)->Instance
 1433 0526 196A     		ldr	r1, [r3, #32]	@ _9, _8->CCER
 1434 0528 1142     		tst	r1, r2	@ _9, tmp127
 1435 052a 08D1     		bne	.L96	@,
1347:src/stm32f1xx_hal_tim_ex.c **** 
 1436              		.loc 1 1347 0 is_stmt 0 discriminator 1
 1437 052c 40F24442 		movw	r2, #1092	@ tmp129,
 1438 0530 196A     		ldr	r1, [r3, #32]	@ _11, _8->CCER
 1439 0532 1142     		tst	r1, r2	@ _11, tmp129
 1440 0534 02BF     		ittt	eq
 1441 0536 5A6C     		ldreq	r2, [r3, #68]	@ _13, _8->BDTR
 1442 0538 22F40042 		biceq	r2, r2, #32768	@ _14, _13,
 1443 053c 5A64     		streq	r2, [r3, #68]	@ _14, _8->BDTR
 1444              	.L96:
1350:src/stm32f1xx_hal_tim_ex.c **** 
 1445              		.loc 1 1350 0 is_stmt 1
 1446 053e 41F21112 		movw	r2, #4369	@ tmp131,
 1447 0542 196A     		ldr	r1, [r3, #32]	@ _16, _8->CCER
 1448 0544 1142     		tst	r1, r2	@ _16, tmp131
 1449 0546 08D1     		bne	.L97	@,
1350:src/stm32f1xx_hal_tim_ex.c **** 
 1450              		.loc 1 1350 0 is_stmt 0 discriminator 1
 1451 0548 40F24442 		movw	r2, #1092	@ tmp133,
 1452 054c 196A     		ldr	r1, [r3, #32]	@ _18, _8->CCER
 1453 054e 1142     		tst	r1, r2	@ _18, tmp133
 1454 0550 02BF     		ittt	eq
 1455 0552 1A68     		ldreq	r2, [r3]	@ _20, _8->CR1
 1456 0554 22F00102 		biceq	r2, r2, #1	@ _21, _20,
 1457 0558 1A60     		streq	r2, [r3]	@ _21, _8->CR1
 1458              	.L97:
1354:src/stm32f1xx_hal_tim_ex.c **** 
 1459              		.loc 1 1354 0 is_stmt 1
 1460 055a 0020     		movs	r0, #0	@,
 1461 055c 10BD     		pop	{r4, pc}	@
 1462              		.cfi_endproc
 1463              	.LFE88:
 1464              		.size	HAL_TIMEx_OnePulseN_Stop, .-HAL_TIMEx_OnePulseN_Stop
 1465              		.align	1
 1466              		.global	HAL_TIMEx_PWMN_Stop
 1467              		.syntax unified
 1468              		.thumb
 1469              		.thumb_func
 1470              		.fpu softvfp
 1471              		.type	HAL_TIMEx_PWMN_Stop, %function
 1472              	HAL_TIMEx_PWMN_Stop:
 1473              	.LFB105:
 1474              		.cfi_startproc
 1475              		@ args = 0, pretend = 0, frame = 0
 1476              		@ frame_needed = 0, uses_anonymous_args = 0
 1477              		@ link register save eliminated.
 1478 055e FFF7FEBF 		b	HAL_TIMEx_OnePulseN_Stop	@
 1479              		.cfi_endproc
 1480              	.LFE105:
 1481              		.size	HAL_TIMEx_PWMN_Stop, .-HAL_TIMEx_PWMN_Stop
 1482              		.align	1
ARM GAS  /tmp/ccD9AYux.s 			page 65


 1483              		.global	HAL_TIMEx_OCN_Stop
 1484              		.syntax unified
 1485              		.thumb
 1486              		.thumb_func
 1487              		.fpu softvfp
 1488              		.type	HAL_TIMEx_OCN_Stop, %function
 1489              	HAL_TIMEx_OCN_Stop:
 1490              	.LFB107:
 1491              		.cfi_startproc
 1492              		@ args = 0, pretend = 0, frame = 0
 1493              		@ frame_needed = 0, uses_anonymous_args = 0
 1494              		@ link register save eliminated.
 1495 0562 FFF7FEBF 		b	HAL_TIMEx_OnePulseN_Stop	@
 1496              		.cfi_endproc
 1497              	.LFE107:
 1498              		.size	HAL_TIMEx_OCN_Stop, .-HAL_TIMEx_OCN_Stop
 1499              		.align	1
 1500              		.global	HAL_TIMEx_OnePulseN_Start_IT
 1501              		.syntax unified
 1502              		.thumb
 1503              		.thumb_func
 1504              		.fpu softvfp
 1505              		.type	HAL_TIMEx_OnePulseN_Start_IT, %function
 1506              	HAL_TIMEx_OnePulseN_Start_IT:
 1507              	.LFB89:
1367:src/stm32f1xx_hal_tim_ex.c ****   /* Check the parameters */
 1508              		.loc 1 1367 0
 1509              		.cfi_startproc
 1510              		@ args = 0, pretend = 0, frame = 0
 1511              		@ frame_needed = 0, uses_anonymous_args = 0
 1512              	.LVL96:
1367:src/stm32f1xx_hal_tim_ex.c ****   /* Check the parameters */
 1513              		.loc 1 1367 0
 1514 0566 10B5     		push	{r4, lr}	@
 1515              	.LCFI19:
 1516              		.cfi_def_cfa_offset 8
 1517              		.cfi_offset 4, -8
 1518              		.cfi_offset 14, -4
1367:src/stm32f1xx_hal_tim_ex.c ****   /* Check the parameters */
 1519              		.loc 1 1367 0
 1520 0568 0446     		mov	r4, r0	@ htim, htim
1372:src/stm32f1xx_hal_tim_ex.c **** 
 1521              		.loc 1 1372 0
 1522 056a 0068     		ldr	r0, [r0]	@ _3, htim_2(D)->Instance
 1523              	.LVL97:
1378:src/stm32f1xx_hal_tim_ex.c **** 
 1524              		.loc 1 1378 0
 1525 056c 0422     		movs	r2, #4	@,
1372:src/stm32f1xx_hal_tim_ex.c **** 
 1526              		.loc 1 1372 0
 1527 056e C368     		ldr	r3, [r0, #12]	@ _4, _3->DIER
 1528 0570 43F00203 		orr	r3, r3, #2	@ _5, _4,
 1529 0574 C360     		str	r3, [r0, #12]	@ _5, _3->DIER
1375:src/stm32f1xx_hal_tim_ex.c **** 
 1530              		.loc 1 1375 0
 1531 0576 C368     		ldr	r3, [r0, #12]	@ _7, _3->DIER
 1532 0578 43F00403 		orr	r3, r3, #4	@ _8, _7,
ARM GAS  /tmp/ccD9AYux.s 			page 66


 1533 057c C360     		str	r3, [r0, #12]	@ _8, _3->DIER
1378:src/stm32f1xx_hal_tim_ex.c **** 
 1534              		.loc 1 1378 0
 1535 057e FFF73FFD 		bl	TIM_CCxNChannelCmd	@
 1536              	.LVL98:
1381:src/stm32f1xx_hal_tim_ex.c **** 
 1537              		.loc 1 1381 0
 1538 0582 2268     		ldr	r2, [r4]	@ _12, htim_2(D)->Instance
1385:src/stm32f1xx_hal_tim_ex.c **** 
 1539              		.loc 1 1385 0
 1540 0584 0020     		movs	r0, #0	@,
1381:src/stm32f1xx_hal_tim_ex.c **** 
 1541              		.loc 1 1381 0
 1542 0586 536C     		ldr	r3, [r2, #68]	@ _13, _12->BDTR
 1543 0588 43F40043 		orr	r3, r3, #32768	@ _14, _13,
 1544 058c 5364     		str	r3, [r2, #68]	@ _14, _12->BDTR
1385:src/stm32f1xx_hal_tim_ex.c **** 
 1545              		.loc 1 1385 0
 1546 058e 10BD     		pop	{r4, pc}	@
 1547              		.cfi_endproc
 1548              	.LFE89:
 1549              		.size	HAL_TIMEx_OnePulseN_Start_IT, .-HAL_TIMEx_OnePulseN_Start_IT
 1550              		.align	1
 1551              		.global	HAL_TIMEx_OnePulseN_Stop_IT
 1552              		.syntax unified
 1553              		.thumb
 1554              		.thumb_func
 1555              		.fpu softvfp
 1556              		.type	HAL_TIMEx_OnePulseN_Stop_IT, %function
 1557              	HAL_TIMEx_OnePulseN_Stop_IT:
 1558              	.LFB90:
1398:src/stm32f1xx_hal_tim_ex.c ****   /* Check the parameters */
 1559              		.loc 1 1398 0
 1560              		.cfi_startproc
 1561              		@ args = 0, pretend = 0, frame = 0
 1562              		@ frame_needed = 0, uses_anonymous_args = 0
 1563              	.LVL99:
 1564 0590 10B5     		push	{r4, lr}	@
 1565              	.LCFI20:
 1566              		.cfi_def_cfa_offset 8
 1567              		.cfi_offset 4, -8
 1568              		.cfi_offset 14, -4
1398:src/stm32f1xx_hal_tim_ex.c ****   /* Check the parameters */
 1569              		.loc 1 1398 0
 1570 0592 0446     		mov	r4, r0	@ htim, htim
1403:src/stm32f1xx_hal_tim_ex.c **** 
 1571              		.loc 1 1403 0
 1572 0594 0068     		ldr	r0, [r0]	@ _5, htim_4(D)->Instance
 1573              	.LVL100:
1409:src/stm32f1xx_hal_tim_ex.c **** 
 1574              		.loc 1 1409 0
 1575 0596 0022     		movs	r2, #0	@,
1403:src/stm32f1xx_hal_tim_ex.c **** 
 1576              		.loc 1 1403 0
 1577 0598 C368     		ldr	r3, [r0, #12]	@ _6, _5->DIER
 1578 059a 23F00203 		bic	r3, r3, #2	@ _7, _6,
 1579 059e C360     		str	r3, [r0, #12]	@ _7, _5->DIER
ARM GAS  /tmp/ccD9AYux.s 			page 67


1406:src/stm32f1xx_hal_tim_ex.c **** 
 1580              		.loc 1 1406 0
 1581 05a0 C368     		ldr	r3, [r0, #12]	@ _9, _5->DIER
 1582 05a2 23F00403 		bic	r3, r3, #4	@ _10, _9,
 1583 05a6 C360     		str	r3, [r0, #12]	@ _10, _5->DIER
1409:src/stm32f1xx_hal_tim_ex.c **** 
 1584              		.loc 1 1409 0
 1585 05a8 FFF72AFD 		bl	TIM_CCxNChannelCmd	@
 1586              	.LVL101:
1412:src/stm32f1xx_hal_tim_ex.c **** 
 1587              		.loc 1 1412 0
 1588 05ac 41F21112 		movw	r2, #4369	@ tmp131,
 1589 05b0 2368     		ldr	r3, [r4]	@ _14, htim_4(D)->Instance
 1590 05b2 196A     		ldr	r1, [r3, #32]	@ _15, _14->CCER
 1591 05b4 1142     		tst	r1, r2	@ _15, tmp131
 1592 05b6 08D1     		bne	.L102	@,
1412:src/stm32f1xx_hal_tim_ex.c **** 
 1593              		.loc 1 1412 0 is_stmt 0 discriminator 1
 1594 05b8 40F24442 		movw	r2, #1092	@ tmp133,
 1595 05bc 196A     		ldr	r1, [r3, #32]	@ _17, _14->CCER
 1596 05be 1142     		tst	r1, r2	@ _17, tmp133
 1597 05c0 02BF     		ittt	eq
 1598 05c2 5A6C     		ldreq	r2, [r3, #68]	@ _19, _14->BDTR
 1599 05c4 22F40042 		biceq	r2, r2, #32768	@ _20, _19,
 1600 05c8 5A64     		streq	r2, [r3, #68]	@ _20, _14->BDTR
 1601              	.L102:
1415:src/stm32f1xx_hal_tim_ex.c **** 
 1602              		.loc 1 1415 0 is_stmt 1
 1603 05ca 41F21112 		movw	r2, #4369	@ tmp135,
 1604 05ce 196A     		ldr	r1, [r3, #32]	@ _22, _14->CCER
 1605 05d0 1142     		tst	r1, r2	@ _22, tmp135
 1606 05d2 08D1     		bne	.L103	@,
1415:src/stm32f1xx_hal_tim_ex.c **** 
 1607              		.loc 1 1415 0 is_stmt 0 discriminator 1
 1608 05d4 40F24442 		movw	r2, #1092	@ tmp137,
 1609 05d8 196A     		ldr	r1, [r3, #32]	@ _24, _14->CCER
 1610 05da 1142     		tst	r1, r2	@ _24, tmp137
 1611 05dc 02BF     		ittt	eq
 1612 05de 1A68     		ldreq	r2, [r3]	@ _26, _14->CR1
 1613 05e0 22F00102 		biceq	r2, r2, #1	@ _27, _26,
 1614 05e4 1A60     		streq	r2, [r3]	@ _27, _14->CR1
 1615              	.L103:
1419:src/stm32f1xx_hal_tim_ex.c **** 
 1616              		.loc 1 1419 0 is_stmt 1
 1617 05e6 0020     		movs	r0, #0	@,
 1618 05e8 10BD     		pop	{r4, pc}	@
 1619              		.cfi_endproc
 1620              	.LFE90:
 1621              		.size	HAL_TIMEx_OnePulseN_Stop_IT, .-HAL_TIMEx_OnePulseN_Stop_IT
 1622              		.align	1
 1623              		.global	HAL_TIMEx_ConfigCommutEvent
 1624              		.syntax unified
 1625              		.thumb
 1626              		.thumb_func
 1627              		.fpu softvfp
 1628              		.type	HAL_TIMEx_ConfigCommutEvent, %function
 1629              	HAL_TIMEx_ConfigCommutEvent:
ARM GAS  /tmp/ccD9AYux.s 			page 68


 1630              	.LFB91:
1469:src/stm32f1xx_hal_tim_ex.c ****   /* Check the parameters */
 1631              		.loc 1 1469 0
 1632              		.cfi_startproc
 1633              		@ args = 0, pretend = 0, frame = 0
 1634              		@ frame_needed = 0, uses_anonymous_args = 0
 1635              	.LVL102:
1474:src/stm32f1xx_hal_tim_ex.c **** 
 1636              		.loc 1 1474 0
 1637 05ea 90F83C30 		ldrb	r3, [r0, #60]	@ zero_extendqisi2	@ htim_5(D)->Lock, htim_5(D)->Lock
1469:src/stm32f1xx_hal_tim_ex.c ****   /* Check the parameters */
 1638              		.loc 1 1469 0
 1639 05ee 10B5     		push	{r4, lr}	@
 1640              	.LCFI21:
 1641              		.cfi_def_cfa_offset 8
 1642              		.cfi_offset 4, -8
 1643              		.cfi_offset 14, -4
1474:src/stm32f1xx_hal_tim_ex.c **** 
 1644              		.loc 1 1474 0
 1645 05f0 012B     		cmp	r3, #1	@ htim_5(D)->Lock,
 1646 05f2 25D0     		beq	.L107	@,
1474:src/stm32f1xx_hal_tim_ex.c **** 
 1647              		.loc 1 1474 0 is_stmt 0 discriminator 2
 1648 05f4 0123     		movs	r3, #1	@ tmp133,
 1649 05f6 80F83C30 		strb	r3, [r0, #60]	@ tmp133, htim_5(D)->Lock
1476:src/stm32f1xx_hal_tim_ex.c ****       (InputTrigger == TIM_TS_ITR2) || (InputTrigger == TIM_TS_ITR3))
 1650              		.loc 1 1476 0 is_stmt 1 discriminator 2
 1651 05fa 31F03003 		bics	r3, r1, #48	@ tmp140, InputTrigger,
 1652 05fe 0368     		ldr	r3, [r0]	@ _16, htim_5(D)->Instance
 1653 0600 06D1     		bne	.L106	@,
1480:src/stm32f1xx_hal_tim_ex.c ****     htim->Instance->SMCR |= InputTrigger;
 1654              		.loc 1 1480 0
 1655 0602 9C68     		ldr	r4, [r3, #8]	@ _10, _9->SMCR
 1656 0604 24F07004 		bic	r4, r4, #112	@ _11, _10,
 1657 0608 9C60     		str	r4, [r3, #8]	@ _11, _9->SMCR
1481:src/stm32f1xx_hal_tim_ex.c ****   }
 1658              		.loc 1 1481 0
 1659 060a 9C68     		ldr	r4, [r3, #8]	@ _13, _9->SMCR
 1660 060c 2143     		orrs	r1, r1, r4	@, _14, InputTrigger, _13
 1661              	.LVL103:
 1662 060e 9960     		str	r1, [r3, #8]	@ _14, _9->SMCR
 1663              	.L106:
1485:src/stm32f1xx_hal_tim_ex.c ****   /* Select the Commutation event source */
 1664              		.loc 1 1485 0
 1665 0610 5968     		ldr	r1, [r3, #4]	@ _17, _16->CR2
 1666 0612 41F00101 		orr	r1, r1, #1	@ _18, _17,
 1667 0616 5960     		str	r1, [r3, #4]	@ _18, _16->CR2
1487:src/stm32f1xx_hal_tim_ex.c ****   htim->Instance->CR2 |= CommutationSource;
 1668              		.loc 1 1487 0
 1669 0618 5968     		ldr	r1, [r3, #4]	@ _20, _16->CR2
 1670 061a 21F00401 		bic	r1, r1, #4	@ _21, _20,
 1671 061e 5960     		str	r1, [r3, #4]	@ _21, _16->CR2
1488:src/stm32f1xx_hal_tim_ex.c **** 
 1672              		.loc 1 1488 0
 1673 0620 5968     		ldr	r1, [r3, #4]	@ _23, _16->CR2
 1674 0622 0A43     		orrs	r2, r2, r1	@, _25, CommutationSource, _23
 1675              	.LVL104:
ARM GAS  /tmp/ccD9AYux.s 			page 69


 1676 0624 5A60     		str	r2, [r3, #4]	@ _25, _16->CR2
1491:src/stm32f1xx_hal_tim_ex.c **** 
 1677              		.loc 1 1491 0
 1678 0626 DA68     		ldr	r2, [r3, #12]	@ _27, _16->DIER
 1679 0628 22F02002 		bic	r2, r2, #32	@ _28, _27,
 1680 062c DA60     		str	r2, [r3, #12]	@ _28, _16->DIER
1494:src/stm32f1xx_hal_tim_ex.c **** 
 1681              		.loc 1 1494 0
 1682 062e DA68     		ldr	r2, [r3, #12]	@ _30, _16->DIER
 1683 0630 22F40052 		bic	r2, r2, #8192	@ _31, _30,
 1684 0634 DA60     		str	r2, [r3, #12]	@ _31, _16->DIER
1496:src/stm32f1xx_hal_tim_ex.c **** 
 1685              		.loc 1 1496 0
 1686 0636 0023     		movs	r3, #0	@ tmp136,
 1687 0638 80F83C30 		strb	r3, [r0, #60]	@ tmp136, htim_5(D)->Lock
1498:src/stm32f1xx_hal_tim_ex.c **** }
 1688              		.loc 1 1498 0
 1689 063c 1846     		mov	r0, r3	@ <retval>, tmp136
 1690              	.LVL105:
 1691 063e 10BD     		pop	{r4, pc}	@
 1692              	.LVL106:
 1693              	.L107:
1474:src/stm32f1xx_hal_tim_ex.c **** 
 1694              		.loc 1 1474 0
 1695 0640 0220     		movs	r0, #2	@ <retval>,
 1696              	.LVL107:
1499:src/stm32f1xx_hal_tim_ex.c **** 
 1697              		.loc 1 1499 0
 1698 0642 10BD     		pop	{r4, pc}	@
 1699              		.cfi_endproc
 1700              	.LFE91:
 1701              		.size	HAL_TIMEx_ConfigCommutEvent, .-HAL_TIMEx_ConfigCommutEvent
 1702              		.align	1
 1703              		.global	HAL_TIMEx_ConfigCommutEvent_IT
 1704              		.syntax unified
 1705              		.thumb
 1706              		.thumb_func
 1707              		.fpu softvfp
 1708              		.type	HAL_TIMEx_ConfigCommutEvent_IT, %function
 1709              	HAL_TIMEx_ConfigCommutEvent_IT:
 1710              	.LFB92:
1525:src/stm32f1xx_hal_tim_ex.c ****   /* Check the parameters */
 1711              		.loc 1 1525 0
 1712              		.cfi_startproc
 1713              		@ args = 0, pretend = 0, frame = 0
 1714              		@ frame_needed = 0, uses_anonymous_args = 0
 1715              	.LVL108:
1530:src/stm32f1xx_hal_tim_ex.c **** 
 1716              		.loc 1 1530 0
 1717 0644 90F83C30 		ldrb	r3, [r0, #60]	@ zero_extendqisi2	@ htim_5(D)->Lock, htim_5(D)->Lock
1525:src/stm32f1xx_hal_tim_ex.c ****   /* Check the parameters */
 1718              		.loc 1 1525 0
 1719 0648 10B5     		push	{r4, lr}	@
 1720              	.LCFI22:
 1721              		.cfi_def_cfa_offset 8
 1722              		.cfi_offset 4, -8
 1723              		.cfi_offset 14, -4
ARM GAS  /tmp/ccD9AYux.s 			page 70


1530:src/stm32f1xx_hal_tim_ex.c **** 
 1724              		.loc 1 1530 0
 1725 064a 012B     		cmp	r3, #1	@ htim_5(D)->Lock,
 1726 064c 25D0     		beq	.L111	@,
1530:src/stm32f1xx_hal_tim_ex.c **** 
 1727              		.loc 1 1530 0 is_stmt 0 discriminator 2
 1728 064e 0123     		movs	r3, #1	@ tmp133,
 1729 0650 80F83C30 		strb	r3, [r0, #60]	@ tmp133, htim_5(D)->Lock
1532:src/stm32f1xx_hal_tim_ex.c ****       (InputTrigger == TIM_TS_ITR2) || (InputTrigger == TIM_TS_ITR3))
 1730              		.loc 1 1532 0 is_stmt 1 discriminator 2
 1731 0654 31F03003 		bics	r3, r1, #48	@ tmp140, InputTrigger,
 1732 0658 0368     		ldr	r3, [r0]	@ _16, htim_5(D)->Instance
 1733 065a 06D1     		bne	.L110	@,
1536:src/stm32f1xx_hal_tim_ex.c ****     htim->Instance->SMCR |= InputTrigger;
 1734              		.loc 1 1536 0
 1735 065c 9C68     		ldr	r4, [r3, #8]	@ _10, _9->SMCR
 1736 065e 24F07004 		bic	r4, r4, #112	@ _11, _10,
 1737 0662 9C60     		str	r4, [r3, #8]	@ _11, _9->SMCR
1537:src/stm32f1xx_hal_tim_ex.c ****   }
 1738              		.loc 1 1537 0
 1739 0664 9C68     		ldr	r4, [r3, #8]	@ _13, _9->SMCR
 1740 0666 2143     		orrs	r1, r1, r4	@, _14, InputTrigger, _13
 1741              	.LVL109:
 1742 0668 9960     		str	r1, [r3, #8]	@ _14, _9->SMCR
 1743              	.L110:
1541:src/stm32f1xx_hal_tim_ex.c ****   /* Select the Commutation event source */
 1744              		.loc 1 1541 0
 1745 066a 5968     		ldr	r1, [r3, #4]	@ _17, _16->CR2
 1746 066c 41F00101 		orr	r1, r1, #1	@ _18, _17,
 1747 0670 5960     		str	r1, [r3, #4]	@ _18, _16->CR2
1543:src/stm32f1xx_hal_tim_ex.c ****   htim->Instance->CR2 |= CommutationSource;
 1748              		.loc 1 1543 0
 1749 0672 5968     		ldr	r1, [r3, #4]	@ _20, _16->CR2
 1750 0674 21F00401 		bic	r1, r1, #4	@ _21, _20,
 1751 0678 5960     		str	r1, [r3, #4]	@ _21, _16->CR2
1544:src/stm32f1xx_hal_tim_ex.c **** 
 1752              		.loc 1 1544 0
 1753 067a 5968     		ldr	r1, [r3, #4]	@ _23, _16->CR2
 1754 067c 0A43     		orrs	r2, r2, r1	@, _25, CommutationSource, _23
 1755              	.LVL110:
 1756 067e 5A60     		str	r2, [r3, #4]	@ _25, _16->CR2
1547:src/stm32f1xx_hal_tim_ex.c **** 
 1757              		.loc 1 1547 0
 1758 0680 DA68     		ldr	r2, [r3, #12]	@ _27, _16->DIER
 1759 0682 22F40052 		bic	r2, r2, #8192	@ _28, _27,
 1760 0686 DA60     		str	r2, [r3, #12]	@ _28, _16->DIER
1550:src/stm32f1xx_hal_tim_ex.c **** 
 1761              		.loc 1 1550 0
 1762 0688 DA68     		ldr	r2, [r3, #12]	@ _30, _16->DIER
 1763 068a 42F02002 		orr	r2, r2, #32	@ _31, _30,
 1764 068e DA60     		str	r2, [r3, #12]	@ _31, _16->DIER
1552:src/stm32f1xx_hal_tim_ex.c **** 
 1765              		.loc 1 1552 0
 1766 0690 0023     		movs	r3, #0	@ tmp136,
 1767 0692 80F83C30 		strb	r3, [r0, #60]	@ tmp136, htim_5(D)->Lock
1554:src/stm32f1xx_hal_tim_ex.c **** }
 1768              		.loc 1 1554 0
ARM GAS  /tmp/ccD9AYux.s 			page 71


 1769 0696 1846     		mov	r0, r3	@ <retval>, tmp136
 1770              	.LVL111:
 1771 0698 10BD     		pop	{r4, pc}	@
 1772              	.LVL112:
 1773              	.L111:
1530:src/stm32f1xx_hal_tim_ex.c **** 
 1774              		.loc 1 1530 0
 1775 069a 0220     		movs	r0, #2	@ <retval>,
 1776              	.LVL113:
1555:src/stm32f1xx_hal_tim_ex.c **** 
 1777              		.loc 1 1555 0
 1778 069c 10BD     		pop	{r4, pc}	@
 1779              		.cfi_endproc
 1780              	.LFE92:
 1781              		.size	HAL_TIMEx_ConfigCommutEvent_IT, .-HAL_TIMEx_ConfigCommutEvent_IT
 1782              		.align	1
 1783              		.global	HAL_TIMEx_ConfigCommutEvent_DMA
 1784              		.syntax unified
 1785              		.thumb
 1786              		.thumb_func
 1787              		.fpu softvfp
 1788              		.type	HAL_TIMEx_ConfigCommutEvent_DMA, %function
 1789              	HAL_TIMEx_ConfigCommutEvent_DMA:
 1790              	.LFB93:
1582:src/stm32f1xx_hal_tim_ex.c ****   /* Check the parameters */
 1791              		.loc 1 1582 0
 1792              		.cfi_startproc
 1793              		@ args = 0, pretend = 0, frame = 0
 1794              		@ frame_needed = 0, uses_anonymous_args = 0
 1795              	.LVL114:
1587:src/stm32f1xx_hal_tim_ex.c **** 
 1796              		.loc 1 1587 0
 1797 069e 90F83C30 		ldrb	r3, [r0, #60]	@ zero_extendqisi2	@ htim_5(D)->Lock, htim_5(D)->Lock
1582:src/stm32f1xx_hal_tim_ex.c ****   /* Check the parameters */
 1798              		.loc 1 1582 0
 1799 06a2 10B5     		push	{r4, lr}	@
 1800              	.LCFI23:
 1801              		.cfi_def_cfa_offset 8
 1802              		.cfi_offset 4, -8
 1803              		.cfi_offset 14, -4
1587:src/stm32f1xx_hal_tim_ex.c **** 
 1804              		.loc 1 1587 0
 1805 06a4 012B     		cmp	r3, #1	@ htim_5(D)->Lock,
 1806 06a6 2CD0     		beq	.L115	@,
1587:src/stm32f1xx_hal_tim_ex.c **** 
 1807              		.loc 1 1587 0 is_stmt 0 discriminator 2
 1808 06a8 0123     		movs	r3, #1	@ tmp134,
 1809 06aa 80F83C30 		strb	r3, [r0, #60]	@ tmp134, htim_5(D)->Lock
1589:src/stm32f1xx_hal_tim_ex.c ****       (InputTrigger == TIM_TS_ITR2) || (InputTrigger == TIM_TS_ITR3))
 1810              		.loc 1 1589 0 is_stmt 1 discriminator 2
 1811 06ae 31F03003 		bics	r3, r1, #48	@ tmp144, InputTrigger,
 1812 06b2 0368     		ldr	r3, [r0]	@ _16, htim_5(D)->Instance
 1813 06b4 06D1     		bne	.L114	@,
1593:src/stm32f1xx_hal_tim_ex.c ****     htim->Instance->SMCR |= InputTrigger;
 1814              		.loc 1 1593 0
 1815 06b6 9C68     		ldr	r4, [r3, #8]	@ _10, _9->SMCR
 1816 06b8 24F07004 		bic	r4, r4, #112	@ _11, _10,
ARM GAS  /tmp/ccD9AYux.s 			page 72


 1817 06bc 9C60     		str	r4, [r3, #8]	@ _11, _9->SMCR
1594:src/stm32f1xx_hal_tim_ex.c ****   }
 1818              		.loc 1 1594 0
 1819 06be 9C68     		ldr	r4, [r3, #8]	@ _13, _9->SMCR
 1820 06c0 2143     		orrs	r1, r1, r4	@, _14, InputTrigger, _13
 1821              	.LVL115:
 1822 06c2 9960     		str	r1, [r3, #8]	@ _14, _9->SMCR
 1823              	.L114:
1598:src/stm32f1xx_hal_tim_ex.c ****   /* Select the Commutation event source */
 1824              		.loc 1 1598 0
 1825 06c4 5968     		ldr	r1, [r3, #4]	@ _17, _16->CR2
 1826 06c6 41F00101 		orr	r1, r1, #1	@ _18, _17,
 1827 06ca 5960     		str	r1, [r3, #4]	@ _18, _16->CR2
1600:src/stm32f1xx_hal_tim_ex.c ****   htim->Instance->CR2 |= CommutationSource;
 1828              		.loc 1 1600 0
 1829 06cc 5968     		ldr	r1, [r3, #4]	@ _20, _16->CR2
 1830 06ce 21F00401 		bic	r1, r1, #4	@ _21, _20,
 1831 06d2 5960     		str	r1, [r3, #4]	@ _21, _16->CR2
1601:src/stm32f1xx_hal_tim_ex.c **** 
 1832              		.loc 1 1601 0
 1833 06d4 5968     		ldr	r1, [r3, #4]	@ _23, _16->CR2
 1834 06d6 0A43     		orrs	r2, r2, r1	@, _25, CommutationSource, _23
 1835              	.LVL116:
 1836 06d8 5A60     		str	r2, [r3, #4]	@ _25, _16->CR2
1605:src/stm32f1xx_hal_tim_ex.c ****   htim->hdma[TIM_DMA_ID_COMMUTATION]->XferHalfCpltCallback = TIMEx_DMACommutationHalfCplt;
 1837              		.loc 1 1605 0
 1838 06da 0B49     		ldr	r1, .L116	@ tmp137,
 1839 06dc 426B     		ldr	r2, [r0, #52]	@ _27, htim_5(D)->hdma
 1840 06de 9162     		str	r1, [r2, #40]	@ tmp137, _27->XferCpltCallback
1606:src/stm32f1xx_hal_tim_ex.c ****   /* Set the DMA error callback */
 1841              		.loc 1 1606 0
 1842 06e0 0A49     		ldr	r1, .L116+4	@ tmp138,
 1843 06e2 D162     		str	r1, [r2, #44]	@ tmp138, _27->XferHalfCpltCallback
1608:src/stm32f1xx_hal_tim_ex.c **** 
 1844              		.loc 1 1608 0
 1845 06e4 0A49     		ldr	r1, .L116+8	@ tmp139,
 1846 06e6 1163     		str	r1, [r2, #48]	@ tmp139, _27->XferErrorCallback
1611:src/stm32f1xx_hal_tim_ex.c **** 
 1847              		.loc 1 1611 0
 1848 06e8 DA68     		ldr	r2, [r3, #12]	@ _31, _16->DIER
 1849 06ea 22F02002 		bic	r2, r2, #32	@ _32, _31,
 1850 06ee DA60     		str	r2, [r3, #12]	@ _32, _16->DIER
1614:src/stm32f1xx_hal_tim_ex.c **** 
 1851              		.loc 1 1614 0
 1852 06f0 DA68     		ldr	r2, [r3, #12]	@ _34, _16->DIER
 1853 06f2 42F40052 		orr	r2, r2, #8192	@ _35, _34,
 1854 06f6 DA60     		str	r2, [r3, #12]	@ _35, _16->DIER
1616:src/stm32f1xx_hal_tim_ex.c **** 
 1855              		.loc 1 1616 0
 1856 06f8 0023     		movs	r3, #0	@ tmp140,
 1857 06fa 80F83C30 		strb	r3, [r0, #60]	@ tmp140, htim_5(D)->Lock
1618:src/stm32f1xx_hal_tim_ex.c **** }
 1858              		.loc 1 1618 0
 1859 06fe 1846     		mov	r0, r3	@ <retval>, tmp140
 1860              	.LVL117:
 1861 0700 10BD     		pop	{r4, pc}	@
 1862              	.LVL118:
ARM GAS  /tmp/ccD9AYux.s 			page 73


 1863              	.L115:
1587:src/stm32f1xx_hal_tim_ex.c **** 
 1864              		.loc 1 1587 0
 1865 0702 0220     		movs	r0, #2	@ <retval>,
 1866              	.LVL119:
1619:src/stm32f1xx_hal_tim_ex.c **** 
 1867              		.loc 1 1619 0
 1868 0704 10BD     		pop	{r4, pc}	@
 1869              	.L117:
 1870 0706 00BF     		.align	2
 1871              	.L116:
 1872 0708 00000000 		.word	TIMEx_DMACommutationCplt
 1873 070c 00000000 		.word	TIMEx_DMACommutationHalfCplt
 1874 0710 00000000 		.word	TIM_DMAError
 1875              		.cfi_endproc
 1876              	.LFE93:
 1877              		.size	HAL_TIMEx_ConfigCommutEvent_DMA, .-HAL_TIMEx_ConfigCommutEvent_DMA
 1878              		.align	1
 1879              		.global	HAL_TIMEx_MasterConfigSynchronization
 1880              		.syntax unified
 1881              		.thumb
 1882              		.thumb_func
 1883              		.fpu softvfp
 1884              		.type	HAL_TIMEx_MasterConfigSynchronization, %function
 1885              	HAL_TIMEx_MasterConfigSynchronization:
 1886              	.LFB94:
1631:src/stm32f1xx_hal_tim_ex.c ****   uint32_t tmpcr2;
 1887              		.loc 1 1631 0
 1888              		.cfi_startproc
 1889              		@ args = 0, pretend = 0, frame = 0
 1890              		@ frame_needed = 0, uses_anonymous_args = 0
 1891              	.LVL120:
1641:src/stm32f1xx_hal_tim_ex.c **** 
 1892              		.loc 1 1641 0
 1893 0714 90F83C30 		ldrb	r3, [r0, #60]	@ zero_extendqisi2	@ htim_4(D)->Lock, htim_4(D)->Lock
1631:src/stm32f1xx_hal_tim_ex.c ****   uint32_t tmpcr2;
 1894              		.loc 1 1631 0
 1895 0718 30B5     		push	{r4, r5, lr}	@
 1896              	.LCFI24:
 1897              		.cfi_def_cfa_offset 12
 1898              		.cfi_offset 4, -12
 1899              		.cfi_offset 5, -8
 1900              		.cfi_offset 14, -4
1641:src/stm32f1xx_hal_tim_ex.c **** 
 1901              		.loc 1 1641 0
 1902 071a 012B     		cmp	r3, #1	@ htim_4(D)->Lock,
 1903 071c 4FF00203 		mov	r3, #2	@ <retval>,
 1904 0720 14D0     		beq	.L120	@,
1647:src/stm32f1xx_hal_tim_ex.c **** 
 1905              		.loc 1 1647 0 discriminator 2
 1906 0722 0468     		ldr	r4, [r0]	@ _7, htim_4(D)->Instance
1644:src/stm32f1xx_hal_tim_ex.c **** 
 1907              		.loc 1 1644 0 discriminator 2
 1908 0724 80F83D30 		strb	r3, [r0, #61]	@ <retval>, htim_4(D)->State
1647:src/stm32f1xx_hal_tim_ex.c **** 
 1909              		.loc 1 1647 0 discriminator 2
 1910 0728 6268     		ldr	r2, [r4, #4]	@ tmpcr2, _7->CR2
ARM GAS  /tmp/ccD9AYux.s 			page 74


 1911              	.LVL121:
1650:src/stm32f1xx_hal_tim_ex.c **** 
 1912              		.loc 1 1650 0 discriminator 2
 1913 072a A368     		ldr	r3, [r4, #8]	@ tmpsmcr, _7->SMCR
 1914              	.LVL122:
1655:src/stm32f1xx_hal_tim_ex.c **** 
 1915              		.loc 1 1655 0 discriminator 2
 1916 072c 0D68     		ldr	r5, [r1]	@ sMasterConfig_11(D)->MasterOutputTrigger, sMasterConfig_11(D)->MasterOutputTrigger
1660:src/stm32f1xx_hal_tim_ex.c **** 
 1917              		.loc 1 1660 0 discriminator 2
 1918 072e 4968     		ldr	r1, [r1, #4]	@ sMasterConfig_11(D)->MasterSlaveMode, sMasterConfig_11(D)->MasterSlaveMode
 1919              	.LVL123:
1653:src/stm32f1xx_hal_tim_ex.c ****   /* Select the TRGO source */
 1920              		.loc 1 1653 0 discriminator 2
 1921 0730 22F07002 		bic	r2, r2, #112	@ tmpcr2, tmpcr2,
 1922              	.LVL124:
1658:src/stm32f1xx_hal_tim_ex.c ****   /* Set master mode */
 1923              		.loc 1 1658 0 discriminator 2
 1924 0734 23F08003 		bic	r3, r3, #128	@ tmpsmcr, tmpsmcr,
 1925              	.LVL125:
1660:src/stm32f1xx_hal_tim_ex.c **** 
 1926              		.loc 1 1660 0 discriminator 2
 1927 0738 0B43     		orrs	r3, r3, r1	@, tmpsmcr, tmpsmcr, sMasterConfig_11(D)->MasterSlaveMode
1655:src/stm32f1xx_hal_tim_ex.c **** 
 1928              		.loc 1 1655 0 discriminator 2
 1929 073a 2A43     		orrs	r2, r2, r5	@, tmpcr2, tmpcr2, sMasterConfig_11(D)->MasterOutputTrigger
 1930              	.LVL126:
1663:src/stm32f1xx_hal_tim_ex.c **** 
 1931              		.loc 1 1663 0 discriminator 2
 1932 073c 6260     		str	r2, [r4, #4]	@ tmpcr2, _7->CR2
1666:src/stm32f1xx_hal_tim_ex.c **** 
 1933              		.loc 1 1666 0 discriminator 2
 1934 073e A360     		str	r3, [r4, #8]	@ tmpsmcr, _7->SMCR
1669:src/stm32f1xx_hal_tim_ex.c **** 
 1935              		.loc 1 1669 0 discriminator 2
 1936 0740 0123     		movs	r3, #1	@ tmp128,
 1937              	.LVL127:
 1938 0742 80F83D30 		strb	r3, [r0, #61]	@ tmp128, htim_4(D)->State
 1939              	.LVL128:
1671:src/stm32f1xx_hal_tim_ex.c **** 
 1940              		.loc 1 1671 0 discriminator 2
 1941 0746 0023     		movs	r3, #0	@ tmp130,
 1942 0748 80F83C30 		strb	r3, [r0, #60]	@ tmp130, htim_4(D)->Lock
 1943              	.LVL129:
 1944              	.L120:
1641:src/stm32f1xx_hal_tim_ex.c **** 
 1945              		.loc 1 1641 0
 1946 074c 1846     		mov	r0, r3	@ <retval>, <retval>
 1947              	.LVL130:
1674:src/stm32f1xx_hal_tim_ex.c **** 
 1948              		.loc 1 1674 0
 1949 074e 30BD     		pop	{r4, r5, pc}	@
 1950              		.cfi_endproc
 1951              	.LFE94:
 1952              		.size	HAL_TIMEx_MasterConfigSynchronization, .-HAL_TIMEx_MasterConfigSynchronization
 1953              		.align	1
 1954              		.global	HAL_TIMEx_ConfigBreakDeadTime
ARM GAS  /tmp/ccD9AYux.s 			page 75


 1955              		.syntax unified
 1956              		.thumb
 1957              		.thumb_func
 1958              		.fpu softvfp
 1959              		.type	HAL_TIMEx_ConfigBreakDeadTime, %function
 1960              	HAL_TIMEx_ConfigBreakDeadTime:
 1961              	.LFB95:
1689:src/stm32f1xx_hal_tim_ex.c ****   /* Keep this variable initialized to 0 as it is used to configure BDTR register */
 1962              		.loc 1 1689 0
 1963              		.cfi_startproc
 1964              		@ args = 0, pretend = 0, frame = 0
 1965              		@ frame_needed = 0, uses_anonymous_args = 0
 1966              		@ link register save eliminated.
 1967              	.LVL131:
1704:src/stm32f1xx_hal_tim_ex.c **** 
 1968              		.loc 1 1704 0
 1969 0750 90F83C30 		ldrb	r3, [r0, #60]	@ zero_extendqisi2	@ htim_4(D)->Lock, htim_4(D)->Lock
 1970 0754 012B     		cmp	r3, #1	@ htim_4(D)->Lock,
 1971 0756 1FD0     		beq	.L123	@,
 1972              	.LVL132:
1711:src/stm32f1xx_hal_tim_ex.c ****   MODIFY_REG(tmpbdtr, TIM_BDTR_OSSI, sBreakDeadTimeConfig->OffStateIDLEMode);
 1973              		.loc 1 1711 0 discriminator 2
 1974 0758 CB68     		ldr	r3, [r1, #12]	@ sBreakDeadTimeConfig_6(D)->DeadTime, sBreakDeadTimeConfig_6(D)->DeadTime
 1975 075a 8A68     		ldr	r2, [r1, #8]	@ sBreakDeadTimeConfig_6(D)->LockLevel, sBreakDeadTimeConfig_6(D)->LockLevel
 1976 075c 23F44073 		bic	r3, r3, #768	@ tmp135, sBreakDeadTimeConfig_6(D)->DeadTime,
 1977 0760 1343     		orrs	r3, r3, r2	@, tmpbdtr, tmp135, sBreakDeadTimeConfig_6(D)->LockLevel
 1978              	.LVL133:
1712:src/stm32f1xx_hal_tim_ex.c ****   MODIFY_REG(tmpbdtr, TIM_BDTR_OSSR, sBreakDeadTimeConfig->OffStateRunMode);
 1979              		.loc 1 1712 0 discriminator 2
 1980 0762 4A68     		ldr	r2, [r1, #4]	@ sBreakDeadTimeConfig_6(D)->OffStateIDLEMode, sBreakDeadTimeConfig_6(D)->OffStat
 1981 0764 23F48063 		bic	r3, r3, #1024	@ _11, tmpbdtr,
 1982              	.LVL134:
 1983 0768 1343     		orrs	r3, r3, r2	@, tmpbdtr, _11, sBreakDeadTimeConfig_6(D)->OffStateIDLEMode
 1984              	.LVL135:
1713:src/stm32f1xx_hal_tim_ex.c ****   MODIFY_REG(tmpbdtr, TIM_BDTR_BKE, sBreakDeadTimeConfig->BreakState);
 1985              		.loc 1 1713 0 discriminator 2
 1986 076a 0A68     		ldr	r2, [r1]	@ sBreakDeadTimeConfig_6(D)->OffStateRunMode, sBreakDeadTimeConfig_6(D)->OffStateRunM
 1987 076c 23F40063 		bic	r3, r3, #2048	@ _14, tmpbdtr,
 1988              	.LVL136:
 1989 0770 1343     		orrs	r3, r3, r2	@, tmpbdtr, _14, sBreakDeadTimeConfig_6(D)->OffStateRunMode
 1990              	.LVL137:
1714:src/stm32f1xx_hal_tim_ex.c ****   MODIFY_REG(tmpbdtr, TIM_BDTR_BKP, sBreakDeadTimeConfig->BreakPolarity);
 1991              		.loc 1 1714 0 discriminator 2
 1992 0772 0A69     		ldr	r2, [r1, #16]	@ sBreakDeadTimeConfig_6(D)->BreakState, sBreakDeadTimeConfig_6(D)->BreakState
 1993 0774 23F48053 		bic	r3, r3, #4096	@ _17, tmpbdtr,
 1994              	.LVL138:
 1995 0778 1343     		orrs	r3, r3, r2	@, tmpbdtr, _17, sBreakDeadTimeConfig_6(D)->BreakState
 1996              	.LVL139:
1715:src/stm32f1xx_hal_tim_ex.c ****   MODIFY_REG(tmpbdtr, TIM_BDTR_AOE, sBreakDeadTimeConfig->AutomaticOutput);
 1997              		.loc 1 1715 0 discriminator 2
 1998 077a 4A69     		ldr	r2, [r1, #20]	@ sBreakDeadTimeConfig_6(D)->BreakPolarity, sBreakDeadTimeConfig_6(D)->BreakPola
 1999 077c 23F40053 		bic	r3, r3, #8192	@ _20, tmpbdtr,
 2000              	.LVL140:
 2001 0780 1343     		orrs	r3, r3, r2	@, tmpbdtr, _20, sBreakDeadTimeConfig_6(D)->BreakPolarity
 2002              	.LVL141:
1716:src/stm32f1xx_hal_tim_ex.c **** 
 2003              		.loc 1 1716 0 discriminator 2
ARM GAS  /tmp/ccD9AYux.s 			page 76


 2004 0782 CA69     		ldr	r2, [r1, #28]	@ sBreakDeadTimeConfig_6(D)->AutomaticOutput, sBreakDeadTimeConfig_6(D)->Automat
 2005 0784 23F48043 		bic	r3, r3, #16384	@ _23, tmpbdtr,
 2006              	.LVL142:
 2007 0788 1343     		orrs	r3, r3, r2	@, tmpbdtr, _23, sBreakDeadTimeConfig_6(D)->AutomaticOutput
 2008              	.LVL143:
1720:src/stm32f1xx_hal_tim_ex.c **** 
 2009              		.loc 1 1720 0 discriminator 2
 2010 078a 0268     		ldr	r2, [r0]	@ _26, htim_4(D)->Instance
 2011 078c 5364     		str	r3, [r2, #68]	@ tmpbdtr, _26->BDTR
1722:src/stm32f1xx_hal_tim_ex.c **** 
 2012              		.loc 1 1722 0 discriminator 2
 2013 078e 0023     		movs	r3, #0	@ tmp148,
 2014              	.LVL144:
 2015 0790 80F83C30 		strb	r3, [r0, #60]	@ tmp148, htim_4(D)->Lock
1724:src/stm32f1xx_hal_tim_ex.c **** }
 2016              		.loc 1 1724 0 discriminator 2
 2017 0794 1846     		mov	r0, r3	@ <retval>, tmp148
 2018              	.LVL145:
 2019 0796 7047     		bx	lr	@
 2020              	.LVL146:
 2021              	.L123:
1704:src/stm32f1xx_hal_tim_ex.c **** 
 2022              		.loc 1 1704 0
 2023 0798 0220     		movs	r0, #2	@ <retval>,
 2024              	.LVL147:
1725:src/stm32f1xx_hal_tim_ex.c **** 
 2025              		.loc 1 1725 0
 2026 079a 7047     		bx	lr	@
 2027              		.cfi_endproc
 2028              	.LFE95:
 2029              		.size	HAL_TIMEx_ConfigBreakDeadTime, .-HAL_TIMEx_ConfigBreakDeadTime
 2030              		.align	1
 2031              		.global	HAL_TIMEx_RemapConfig
 2032              		.syntax unified
 2033              		.thumb
 2034              		.thumb_func
 2035              		.fpu softvfp
 2036              		.type	HAL_TIMEx_RemapConfig, %function
 2037              	HAL_TIMEx_RemapConfig:
 2038              	.LFB96:
1735:src/stm32f1xx_hal_tim_ex.c **** 
 2039              		.loc 1 1735 0
 2040              		.cfi_startproc
 2041              		@ args = 0, pretend = 0, frame = 0
 2042              		@ frame_needed = 0, uses_anonymous_args = 0
 2043              		@ link register save eliminated.
 2044              	.LVL148:
1738:src/stm32f1xx_hal_tim_ex.c **** 
 2045              		.loc 1 1738 0
 2046 079c 0020     		movs	r0, #0	@,
 2047              	.LVL149:
 2048 079e 7047     		bx	lr	@
 2049              		.cfi_endproc
 2050              	.LFE96:
 2051              		.size	HAL_TIMEx_RemapConfig, .-HAL_TIMEx_RemapConfig
 2052              		.align	1
 2053              		.weak	HAL_TIMEx_CommutCallback
ARM GAS  /tmp/ccD9AYux.s 			page 77


 2054              		.syntax unified
 2055              		.thumb
 2056              		.thumb_func
 2057              		.fpu softvfp
 2058              		.type	HAL_TIMEx_CommutCallback, %function
 2059              	HAL_TIMEx_CommutCallback:
 2060              	.LFB115:
 2061              		.cfi_startproc
 2062              		@ args = 0, pretend = 0, frame = 0
 2063              		@ frame_needed = 0, uses_anonymous_args = 0
 2064              		@ link register save eliminated.
 2065 07a0 7047     		bx	lr	@
 2066              		.cfi_endproc
 2067              	.LFE115:
 2068              		.size	HAL_TIMEx_CommutCallback, .-HAL_TIMEx_CommutCallback
 2069              		.align	1
 2070              		.global	TIMEx_DMACommutationCplt
 2071              		.syntax unified
 2072              		.thumb
 2073              		.thumb_func
 2074              		.fpu softvfp
 2075              		.type	TIMEx_DMACommutationCplt, %function
 2076              	TIMEx_DMACommutationCplt:
 2077              	.LFB101:
1851:src/stm32f1xx_hal_tim_ex.c ****   TIM_HandleTypeDef *htim = (TIM_HandleTypeDef *)((DMA_HandleTypeDef *)hdma)->Parent;
 2078              		.loc 1 1851 0
 2079              		.cfi_startproc
 2080              		@ args = 0, pretend = 0, frame = 0
 2081              		@ frame_needed = 0, uses_anonymous_args = 0
 2082              	.LVL150:
1851:src/stm32f1xx_hal_tim_ex.c ****   TIM_HandleTypeDef *htim = (TIM_HandleTypeDef *)((DMA_HandleTypeDef *)hdma)->Parent;
 2083              		.loc 1 1851 0
 2084 07a2 08B5     		push	{r3, lr}	@
 2085              	.LCFI25:
 2086              		.cfi_def_cfa_offset 8
 2087              		.cfi_offset 3, -8
 2088              		.cfi_offset 14, -4
1855:src/stm32f1xx_hal_tim_ex.c **** 
 2089              		.loc 1 1855 0
 2090 07a4 0123     		movs	r3, #1	@ tmp112,
1852:src/stm32f1xx_hal_tim_ex.c **** 
 2091              		.loc 1 1852 0
 2092 07a6 406A     		ldr	r0, [r0, #36]	@ htim, hdma_2(D)->Parent
 2093              	.LVL151:
1855:src/stm32f1xx_hal_tim_ex.c **** 
 2094              		.loc 1 1855 0
 2095 07a8 80F83D30 		strb	r3, [r0, #61]	@ tmp112, htim_3->State
1860:src/stm32f1xx_hal_tim_ex.c **** #endif /* USE_HAL_TIM_REGISTER_CALLBACKS */
 2096              		.loc 1 1860 0
 2097 07ac FFF7FEFF 		bl	HAL_TIMEx_CommutCallback	@
 2098              	.LVL152:
 2099 07b0 08BD     		pop	{r3, pc}	@
 2100              		.cfi_endproc
 2101              	.LFE101:
 2102              		.size	TIMEx_DMACommutationCplt, .-TIMEx_DMACommutationCplt
 2103              		.align	1
 2104              		.weak	HAL_TIMEx_CommutHalfCpltCallback
ARM GAS  /tmp/ccD9AYux.s 			page 78


 2105              		.syntax unified
 2106              		.thumb
 2107              		.thumb_func
 2108              		.fpu softvfp
 2109              		.type	HAL_TIMEx_CommutHalfCpltCallback, %function
 2110              	HAL_TIMEx_CommutHalfCpltCallback:
 2111              	.LFB113:
 2112              		.cfi_startproc
 2113              		@ args = 0, pretend = 0, frame = 0
 2114              		@ frame_needed = 0, uses_anonymous_args = 0
 2115              		@ link register save eliminated.
 2116 07b2 7047     		bx	lr	@
 2117              		.cfi_endproc
 2118              	.LFE113:
 2119              		.size	HAL_TIMEx_CommutHalfCpltCallback, .-HAL_TIMEx_CommutHalfCpltCallback
 2120              		.align	1
 2121              		.global	TIMEx_DMACommutationHalfCplt
 2122              		.syntax unified
 2123              		.thumb
 2124              		.thumb_func
 2125              		.fpu softvfp
 2126              		.type	TIMEx_DMACommutationHalfCplt, %function
 2127              	TIMEx_DMACommutationHalfCplt:
 2128              	.LFB102:
1870:src/stm32f1xx_hal_tim_ex.c ****   TIM_HandleTypeDef *htim = (TIM_HandleTypeDef *)((DMA_HandleTypeDef *)hdma)->Parent;
 2129              		.loc 1 1870 0
 2130              		.cfi_startproc
 2131              		@ args = 0, pretend = 0, frame = 0
 2132              		@ frame_needed = 0, uses_anonymous_args = 0
 2133              	.LVL153:
1870:src/stm32f1xx_hal_tim_ex.c ****   TIM_HandleTypeDef *htim = (TIM_HandleTypeDef *)((DMA_HandleTypeDef *)hdma)->Parent;
 2134              		.loc 1 1870 0
 2135 07b4 08B5     		push	{r3, lr}	@
 2136              	.LCFI26:
 2137              		.cfi_def_cfa_offset 8
 2138              		.cfi_offset 3, -8
 2139              		.cfi_offset 14, -4
1874:src/stm32f1xx_hal_tim_ex.c **** 
 2140              		.loc 1 1874 0
 2141 07b6 0123     		movs	r3, #1	@ tmp112,
1871:src/stm32f1xx_hal_tim_ex.c **** 
 2142              		.loc 1 1871 0
 2143 07b8 406A     		ldr	r0, [r0, #36]	@ htim, hdma_2(D)->Parent
 2144              	.LVL154:
1874:src/stm32f1xx_hal_tim_ex.c **** 
 2145              		.loc 1 1874 0
 2146 07ba 80F83D30 		strb	r3, [r0, #61]	@ tmp112, htim_3->State
1879:src/stm32f1xx_hal_tim_ex.c **** #endif /* USE_HAL_TIM_REGISTER_CALLBACKS */
 2147              		.loc 1 1879 0
 2148 07be FFF7FEFF 		bl	HAL_TIMEx_CommutHalfCpltCallback	@
 2149              	.LVL155:
 2150 07c2 08BD     		pop	{r3, pc}	@
 2151              		.cfi_endproc
 2152              	.LFE102:
 2153              		.size	TIMEx_DMACommutationHalfCplt, .-TIMEx_DMACommutationHalfCplt
 2154              		.align	1
 2155              		.weak	HAL_TIMEx_BreakCallback
ARM GAS  /tmp/ccD9AYux.s 			page 79


 2156              		.syntax unified
 2157              		.thumb
 2158              		.thumb_func
 2159              		.fpu softvfp
 2160              		.type	HAL_TIMEx_BreakCallback, %function
 2161              	HAL_TIMEx_BreakCallback:
 2162              	.LFB99:
1795:src/stm32f1xx_hal_tim_ex.c ****   /* Prevent unused argument(s) compilation warning */
 2163              		.loc 1 1795 0
 2164              		.cfi_startproc
 2165              		@ args = 0, pretend = 0, frame = 0
 2166              		@ frame_needed = 0, uses_anonymous_args = 0
 2167              		@ link register save eliminated.
 2168              	.LVL156:
 2169 07c4 7047     		bx	lr	@
 2170              		.cfi_endproc
 2171              	.LFE99:
 2172              		.size	HAL_TIMEx_BreakCallback, .-HAL_TIMEx_BreakCallback
 2173              		.align	1
 2174              		.global	HAL_TIMEx_HallSensor_GetState
 2175              		.syntax unified
 2176              		.thumb
 2177              		.thumb_func
 2178              		.fpu softvfp
 2179              		.type	HAL_TIMEx_HallSensor_GetState, %function
 2180              	HAL_TIMEx_HallSensor_GetState:
 2181              	.LFB100:
1828:src/stm32f1xx_hal_tim_ex.c ****   return htim->State;
 2182              		.loc 1 1828 0
 2183              		.cfi_startproc
 2184              		@ args = 0, pretend = 0, frame = 0
 2185              		@ frame_needed = 0, uses_anonymous_args = 0
 2186              		@ link register save eliminated.
 2187              	.LVL157:
1829:src/stm32f1xx_hal_tim_ex.c **** }
 2188              		.loc 1 1829 0
 2189 07c6 90F83D00 		ldrb	r0, [r0, #61]	@ zero_extendqisi2	@ htim_2(D)->State, htim_2(D)->State
 2190              	.LVL158:
1830:src/stm32f1xx_hal_tim_ex.c **** 
 2191              		.loc 1 1830 0
 2192 07ca 7047     		bx	lr	@
 2193              		.cfi_endproc
 2194              	.LFE100:
 2195              		.size	HAL_TIMEx_HallSensor_GetState, .-HAL_TIMEx_HallSensor_GetState
 2196              	.Letext0:
 2197              		.file 2 "/usr/include/newlib/machine/_default_types.h"
 2198              		.file 3 "/usr/include/newlib/sys/_stdint.h"
 2199              		.file 4 "../cmsiscore/inc/core_cm3.h"
 2200              		.file 5 "../cmsisstm32f1xx/inc/system_stm32f1xx.h"
 2201              		.file 6 "../cmsisstm32f1xx/inc/stm32f103x6.h"
 2202              		.file 7 "../cmsisstm32f1xx/inc/stm32f1xx.h"
 2203              		.file 8 "./inc/stm32f1xx_hal_def.h"
 2204              		.file 9 "./inc/stm32f1xx_hal_dma.h"
 2205              		.file 10 "./inc/stm32f1xx_hal_tim.h"
 2206              		.file 11 "./inc/stm32f1xx_hal_tim_ex.h"
 2207              		.file 12 "./inc/stm32f1xx_hal.h"
 2208              		.section	.debug_info,"",%progbits
ARM GAS  /tmp/ccD9AYux.s 			page 80


 2209              	.Ldebug_info0:
 2210 0000 4C140000 		.4byte	0x144c
 2211 0004 0200     		.2byte	0x2
 2212 0006 00000000 		.4byte	.Ldebug_abbrev0
 2213 000a 04       		.byte	0x4
 2214 000b 01       		.uleb128 0x1
 2215 000c 5C080000 		.4byte	.LASF191
 2216 0010 0C       		.byte	0xc
 2217 0011 E50A0000 		.4byte	.LASF192
 2218 0015 56070000 		.4byte	.LASF193
 2219 0019 00000000 		.4byte	.Ltext0
 2220 001d CC070000 		.4byte	.Letext0
 2221 0021 00000000 		.4byte	.Ldebug_line0
 2222 0025 02       		.uleb128 0x2
 2223 0026 01       		.byte	0x1
 2224 0027 06       		.byte	0x6
 2225 0028 2F020000 		.4byte	.LASF0
 2226 002c 03       		.uleb128 0x3
 2227 002d C7000000 		.4byte	.LASF3
 2228 0031 02       		.byte	0x2
 2229 0032 1D       		.byte	0x1d
 2230 0033 37000000 		.4byte	0x37
 2231 0037 02       		.uleb128 0x2
 2232 0038 01       		.byte	0x1
 2233 0039 08       		.byte	0x8
 2234 003a 8A070000 		.4byte	.LASF1
 2235 003e 02       		.uleb128 0x2
 2236 003f 02       		.byte	0x2
 2237 0040 05       		.byte	0x5
 2238 0041 00000000 		.4byte	.LASF2
 2239 0045 03       		.uleb128 0x3
 2240 0046 4D030000 		.4byte	.LASF4
 2241 004a 02       		.byte	0x2
 2242 004b 2B       		.byte	0x2b
 2243 004c 50000000 		.4byte	0x50
 2244 0050 02       		.uleb128 0x2
 2245 0051 02       		.byte	0x2
 2246 0052 07       		.byte	0x7
 2247 0053 5D0A0000 		.4byte	.LASF5
 2248 0057 03       		.uleb128 0x3
 2249 0058 0F0A0000 		.4byte	.LASF6
 2250 005c 02       		.byte	0x2
 2251 005d 3F       		.byte	0x3f
 2252 005e 62000000 		.4byte	0x62
 2253 0062 02       		.uleb128 0x2
 2254 0063 04       		.byte	0x4
 2255 0064 05       		.byte	0x5
 2256 0065 9D020000 		.4byte	.LASF7
 2257 0069 03       		.uleb128 0x3
 2258 006a 5D030000 		.4byte	.LASF8
 2259 006e 02       		.byte	0x2
 2260 006f 41       		.byte	0x41
 2261 0070 74000000 		.4byte	0x74
 2262 0074 02       		.uleb128 0x2
 2263 0075 04       		.byte	0x4
 2264 0076 07       		.byte	0x7
 2265 0077 3B040000 		.4byte	.LASF9
ARM GAS  /tmp/ccD9AYux.s 			page 81


 2266 007b 02       		.uleb128 0x2
 2267 007c 08       		.byte	0x8
 2268 007d 05       		.byte	0x5
 2269 007e 21020000 		.4byte	.LASF10
 2270 0082 02       		.uleb128 0x2
 2271 0083 08       		.byte	0x8
 2272 0084 07       		.byte	0x7
 2273 0085 5E010000 		.4byte	.LASF11
 2274 0089 04       		.uleb128 0x4
 2275 008a 04       		.byte	0x4
 2276 008b 05       		.byte	0x5
 2277 008c 696E7400 		.ascii	"int\000"
 2278 0090 02       		.uleb128 0x2
 2279 0091 04       		.byte	0x4
 2280 0092 07       		.byte	0x7
 2281 0093 C4030000 		.4byte	.LASF12
 2282 0097 03       		.uleb128 0x3
 2283 0098 710B0000 		.4byte	.LASF13
 2284 009c 03       		.byte	0x3
 2285 009d 18       		.byte	0x18
 2286 009e 2C000000 		.4byte	0x2c
 2287 00a2 05       		.uleb128 0x5
 2288 00a3 97000000 		.4byte	0x97
 2289 00a7 03       		.uleb128 0x3
 2290 00a8 F0020000 		.4byte	.LASF14
 2291 00ac 03       		.byte	0x3
 2292 00ad 24       		.byte	0x24
 2293 00ae 45000000 		.4byte	0x45
 2294 00b2 03       		.uleb128 0x3
 2295 00b3 82070000 		.4byte	.LASF15
 2296 00b7 03       		.byte	0x3
 2297 00b8 2C       		.byte	0x2c
 2298 00b9 57000000 		.4byte	0x57
 2299 00bd 06       		.uleb128 0x6
 2300 00be B2000000 		.4byte	0xb2
 2301 00c2 03       		.uleb128 0x3
 2302 00c3 2C090000 		.4byte	.LASF16
 2303 00c7 03       		.byte	0x3
 2304 00c8 30       		.byte	0x30
 2305 00c9 69000000 		.4byte	0x69
 2306 00cd 06       		.uleb128 0x6
 2307 00ce C2000000 		.4byte	0xc2
 2308 00d2 02       		.uleb128 0x2
 2309 00d3 04       		.byte	0x4
 2310 00d4 07       		.byte	0x7
 2311 00d5 DD050000 		.4byte	.LASF17
 2312 00d9 07       		.uleb128 0x7
 2313 00da B3010000 		.4byte	.LASF18
 2314 00de 04       		.byte	0x4
 2315 00df 4807     		.2byte	0x748
 2316 00e1 BD000000 		.4byte	0xbd
 2317 00e5 01       		.byte	0x1
 2318 00e6 01       		.byte	0x1
 2319 00e7 08       		.uleb128 0x8
 2320 00e8 10070000 		.4byte	.LASF19
 2321 00ec 05       		.byte	0x5
 2322 00ed 33       		.byte	0x33
ARM GAS  /tmp/ccD9AYux.s 			page 82


 2323 00ee C2000000 		.4byte	0xc2
 2324 00f2 01       		.byte	0x1
 2325 00f3 01       		.byte	0x1
 2326 00f4 09       		.uleb128 0x9
 2327 00f5 A2000000 		.4byte	0xa2
 2328 00f9 04010000 		.4byte	0x104
 2329 00fd 0A       		.uleb128 0xa
 2330 00fe D2000000 		.4byte	0xd2
 2331 0102 0F       		.byte	0xf
 2332 0103 00       		.byte	0
 2333 0104 05       		.uleb128 0x5
 2334 0105 F4000000 		.4byte	0xf4
 2335 0109 08       		.uleb128 0x8
 2336 010a 21050000 		.4byte	.LASF20
 2337 010e 05       		.byte	0x5
 2338 010f 34       		.byte	0x34
 2339 0110 04010000 		.4byte	0x104
 2340 0114 01       		.byte	0x1
 2341 0115 01       		.byte	0x1
 2342 0116 09       		.uleb128 0x9
 2343 0117 A2000000 		.4byte	0xa2
 2344 011b 26010000 		.4byte	0x126
 2345 011f 0A       		.uleb128 0xa
 2346 0120 D2000000 		.4byte	0xd2
 2347 0124 07       		.byte	0x7
 2348 0125 00       		.byte	0
 2349 0126 05       		.uleb128 0x5
 2350 0127 16010000 		.4byte	0x116
 2351 012b 08       		.uleb128 0x8
 2352 012c 2F010000 		.4byte	.LASF21
 2353 0130 05       		.byte	0x5
 2354 0131 35       		.byte	0x35
 2355 0132 26010000 		.4byte	0x126
 2356 0136 01       		.byte	0x1
 2357 0137 01       		.byte	0x1
 2358 0138 0B       		.uleb128 0xb
 2359 0139 10       		.byte	0x10
 2360 013a 06       		.byte	0x6
 2361 013b 1E01     		.2byte	0x11e
 2362 013d 7E010000 		.4byte	0x17e
 2363 0141 0C       		.uleb128 0xc
 2364 0142 43435200 		.ascii	"CCR\000"
 2365 0146 06       		.byte	0x6
 2366 0147 2001     		.2byte	0x120
 2367 0149 CD000000 		.4byte	0xcd
 2368 014d 02       		.byte	0x2
 2369 014e 23       		.byte	0x23
 2370 014f 00       		.uleb128 0
 2371 0150 0D       		.uleb128 0xd
 2372 0151 280B0000 		.4byte	.LASF22
 2373 0155 06       		.byte	0x6
 2374 0156 2101     		.2byte	0x121
 2375 0158 CD000000 		.4byte	0xcd
 2376 015c 02       		.byte	0x2
 2377 015d 23       		.byte	0x23
 2378 015e 04       		.uleb128 0x4
 2379 015f 0D       		.uleb128 0xd
ARM GAS  /tmp/ccD9AYux.s 			page 83


 2380 0160 16040000 		.4byte	.LASF23
 2381 0164 06       		.byte	0x6
 2382 0165 2201     		.2byte	0x122
 2383 0167 CD000000 		.4byte	0xcd
 2384 016b 02       		.byte	0x2
 2385 016c 23       		.byte	0x23
 2386 016d 08       		.uleb128 0x8
 2387 016e 0D       		.uleb128 0xd
 2388 016f 2E0B0000 		.4byte	.LASF24
 2389 0173 06       		.byte	0x6
 2390 0174 2301     		.2byte	0x123
 2391 0176 CD000000 		.4byte	0xcd
 2392 017a 02       		.byte	0x2
 2393 017b 23       		.byte	0x23
 2394 017c 0C       		.uleb128 0xc
 2395 017d 00       		.byte	0
 2396 017e 0E       		.uleb128 0xe
 2397 017f EE060000 		.4byte	.LASF25
 2398 0183 06       		.byte	0x6
 2399 0184 2401     		.2byte	0x124
 2400 0186 38010000 		.4byte	0x138
 2401 018a 0B       		.uleb128 0xb
 2402 018b 08       		.byte	0x8
 2403 018c 06       		.byte	0x6
 2404 018d 2601     		.2byte	0x126
 2405 018f B2010000 		.4byte	0x1b2
 2406 0193 0C       		.uleb128 0xc
 2407 0194 49535200 		.ascii	"ISR\000"
 2408 0198 06       		.byte	0x6
 2409 0199 2801     		.2byte	0x128
 2410 019b CD000000 		.4byte	0xcd
 2411 019f 02       		.byte	0x2
 2412 01a0 23       		.byte	0x23
 2413 01a1 00       		.uleb128 0
 2414 01a2 0D       		.uleb128 0xd
 2415 01a3 69090000 		.4byte	.LASF26
 2416 01a7 06       		.byte	0x6
 2417 01a8 2901     		.2byte	0x129
 2418 01aa CD000000 		.4byte	0xcd
 2419 01ae 02       		.byte	0x2
 2420 01af 23       		.byte	0x23
 2421 01b0 04       		.uleb128 0x4
 2422 01b1 00       		.byte	0
 2423 01b2 0E       		.uleb128 0xe
 2424 01b3 B8030000 		.4byte	.LASF27
 2425 01b7 06       		.byte	0x6
 2426 01b8 2A01     		.2byte	0x12a
 2427 01ba 8A010000 		.4byte	0x18a
 2428 01be 0B       		.uleb128 0xb
 2429 01bf 54       		.byte	0x54
 2430 01c0 06       		.byte	0x6
 2431 01c1 D801     		.2byte	0x1d8
 2432 01c3 01030000 		.4byte	0x301
 2433 01c7 0C       		.uleb128 0xc
 2434 01c8 43523100 		.ascii	"CR1\000"
 2435 01cc 06       		.byte	0x6
 2436 01cd DA01     		.2byte	0x1da
ARM GAS  /tmp/ccD9AYux.s 			page 84


 2437 01cf CD000000 		.4byte	0xcd
 2438 01d3 02       		.byte	0x2
 2439 01d4 23       		.byte	0x23
 2440 01d5 00       		.uleb128 0
 2441 01d6 0C       		.uleb128 0xc
 2442 01d7 43523200 		.ascii	"CR2\000"
 2443 01db 06       		.byte	0x6
 2444 01dc DB01     		.2byte	0x1db
 2445 01de CD000000 		.4byte	0xcd
 2446 01e2 02       		.byte	0x2
 2447 01e3 23       		.byte	0x23
 2448 01e4 04       		.uleb128 0x4
 2449 01e5 0D       		.uleb128 0xd
 2450 01e6 AC040000 		.4byte	.LASF28
 2451 01ea 06       		.byte	0x6
 2452 01eb DC01     		.2byte	0x1dc
 2453 01ed CD000000 		.4byte	0xcd
 2454 01f1 02       		.byte	0x2
 2455 01f2 23       		.byte	0x23
 2456 01f3 08       		.uleb128 0x8
 2457 01f4 0D       		.uleb128 0xd
 2458 01f5 67000000 		.4byte	.LASF29
 2459 01f9 06       		.byte	0x6
 2460 01fa DD01     		.2byte	0x1dd
 2461 01fc CD000000 		.4byte	0xcd
 2462 0200 02       		.byte	0x2
 2463 0201 23       		.byte	0x23
 2464 0202 0C       		.uleb128 0xc
 2465 0203 0C       		.uleb128 0xc
 2466 0204 535200   		.ascii	"SR\000"
 2467 0207 06       		.byte	0x6
 2468 0208 DE01     		.2byte	0x1de
 2469 020a CD000000 		.4byte	0xcd
 2470 020e 02       		.byte	0x2
 2471 020f 23       		.byte	0x23
 2472 0210 10       		.uleb128 0x10
 2473 0211 0C       		.uleb128 0xc
 2474 0212 45475200 		.ascii	"EGR\000"
 2475 0216 06       		.byte	0x6
 2476 0217 DF01     		.2byte	0x1df
 2477 0219 CD000000 		.4byte	0xcd
 2478 021d 02       		.byte	0x2
 2479 021e 23       		.byte	0x23
 2480 021f 14       		.uleb128 0x14
 2481 0220 0D       		.uleb128 0xd
 2482 0221 15020000 		.4byte	.LASF30
 2483 0225 06       		.byte	0x6
 2484 0226 E001     		.2byte	0x1e0
 2485 0228 CD000000 		.4byte	0xcd
 2486 022c 02       		.byte	0x2
 2487 022d 23       		.byte	0x23
 2488 022e 18       		.uleb128 0x18
 2489 022f 0D       		.uleb128 0xd
 2490 0230 1B020000 		.4byte	.LASF31
 2491 0234 06       		.byte	0x6
 2492 0235 E101     		.2byte	0x1e1
 2493 0237 CD000000 		.4byte	0xcd
ARM GAS  /tmp/ccD9AYux.s 			page 85


 2494 023b 02       		.byte	0x2
 2495 023c 23       		.byte	0x23
 2496 023d 1C       		.uleb128 0x1c
 2497 023e 0D       		.uleb128 0xd
 2498 023f DF090000 		.4byte	.LASF32
 2499 0243 06       		.byte	0x6
 2500 0244 E201     		.2byte	0x1e2
 2501 0246 CD000000 		.4byte	0xcd
 2502 024a 02       		.byte	0x2
 2503 024b 23       		.byte	0x23
 2504 024c 20       		.uleb128 0x20
 2505 024d 0C       		.uleb128 0xc
 2506 024e 434E5400 		.ascii	"CNT\000"
 2507 0252 06       		.byte	0x6
 2508 0253 E301     		.2byte	0x1e3
 2509 0255 CD000000 		.4byte	0xcd
 2510 0259 02       		.byte	0x2
 2511 025a 23       		.byte	0x23
 2512 025b 24       		.uleb128 0x24
 2513 025c 0C       		.uleb128 0xc
 2514 025d 50534300 		.ascii	"PSC\000"
 2515 0261 06       		.byte	0x6
 2516 0262 E401     		.2byte	0x1e4
 2517 0264 CD000000 		.4byte	0xcd
 2518 0268 02       		.byte	0x2
 2519 0269 23       		.byte	0x23
 2520 026a 28       		.uleb128 0x28
 2521 026b 0C       		.uleb128 0xc
 2522 026c 41525200 		.ascii	"ARR\000"
 2523 0270 06       		.byte	0x6
 2524 0271 E501     		.2byte	0x1e5
 2525 0273 CD000000 		.4byte	0xcd
 2526 0277 02       		.byte	0x2
 2527 0278 23       		.byte	0x23
 2528 0279 2C       		.uleb128 0x2c
 2529 027a 0C       		.uleb128 0xc
 2530 027b 52435200 		.ascii	"RCR\000"
 2531 027f 06       		.byte	0x6
 2532 0280 E601     		.2byte	0x1e6
 2533 0282 CD000000 		.4byte	0xcd
 2534 0286 02       		.byte	0x2
 2535 0287 23       		.byte	0x23
 2536 0288 30       		.uleb128 0x30
 2537 0289 0D       		.uleb128 0xd
 2538 028a 0C0B0000 		.4byte	.LASF33
 2539 028e 06       		.byte	0x6
 2540 028f E701     		.2byte	0x1e7
 2541 0291 CD000000 		.4byte	0xcd
 2542 0295 02       		.byte	0x2
 2543 0296 23       		.byte	0x23
 2544 0297 34       		.uleb128 0x34
 2545 0298 0D       		.uleb128 0xd
 2546 0299 110B0000 		.4byte	.LASF34
 2547 029d 06       		.byte	0x6
 2548 029e E801     		.2byte	0x1e8
 2549 02a0 CD000000 		.4byte	0xcd
 2550 02a4 02       		.byte	0x2
ARM GAS  /tmp/ccD9AYux.s 			page 86


 2551 02a5 23       		.byte	0x23
 2552 02a6 38       		.uleb128 0x38
 2553 02a7 0D       		.uleb128 0xd
 2554 02a8 160B0000 		.4byte	.LASF35
 2555 02ac 06       		.byte	0x6
 2556 02ad E901     		.2byte	0x1e9
 2557 02af CD000000 		.4byte	0xcd
 2558 02b3 02       		.byte	0x2
 2559 02b4 23       		.byte	0x23
 2560 02b5 3C       		.uleb128 0x3c
 2561 02b6 0D       		.uleb128 0xd
 2562 02b7 1B0B0000 		.4byte	.LASF36
 2563 02bb 06       		.byte	0x6
 2564 02bc EA01     		.2byte	0x1ea
 2565 02be CD000000 		.4byte	0xcd
 2566 02c2 02       		.byte	0x2
 2567 02c3 23       		.byte	0x23
 2568 02c4 40       		.uleb128 0x40
 2569 02c5 0D       		.uleb128 0xd
 2570 02c6 96030000 		.4byte	.LASF37
 2571 02ca 06       		.byte	0x6
 2572 02cb EB01     		.2byte	0x1eb
 2573 02cd CD000000 		.4byte	0xcd
 2574 02d1 02       		.byte	0x2
 2575 02d2 23       		.byte	0x23
 2576 02d3 44       		.uleb128 0x44
 2577 02d4 0C       		.uleb128 0xc
 2578 02d5 44435200 		.ascii	"DCR\000"
 2579 02d9 06       		.byte	0x6
 2580 02da EC01     		.2byte	0x1ec
 2581 02dc CD000000 		.4byte	0xcd
 2582 02e0 02       		.byte	0x2
 2583 02e1 23       		.byte	0x23
 2584 02e2 48       		.uleb128 0x48
 2585 02e3 0D       		.uleb128 0xd
 2586 02e4 B0090000 		.4byte	.LASF38
 2587 02e8 06       		.byte	0x6
 2588 02e9 ED01     		.2byte	0x1ed
 2589 02eb CD000000 		.4byte	0xcd
 2590 02ef 02       		.byte	0x2
 2591 02f0 23       		.byte	0x23
 2592 02f1 4C       		.uleb128 0x4c
 2593 02f2 0C       		.uleb128 0xc
 2594 02f3 4F5200   		.ascii	"OR\000"
 2595 02f6 06       		.byte	0x6
 2596 02f7 EE01     		.2byte	0x1ee
 2597 02f9 CD000000 		.4byte	0xcd
 2598 02fd 02       		.byte	0x2
 2599 02fe 23       		.byte	0x23
 2600 02ff 50       		.uleb128 0x50
 2601 0300 00       		.byte	0
 2602 0301 0E       		.uleb128 0xe
 2603 0302 3D010000 		.4byte	.LASF39
 2604 0306 06       		.byte	0x6
 2605 0307 EF01     		.2byte	0x1ef
 2606 0309 BE010000 		.4byte	0x1be
 2607 030d 0F       		.uleb128 0xf
ARM GAS  /tmp/ccD9AYux.s 			page 87


 2608 030e 01       		.byte	0x1
 2609 030f 37000000 		.4byte	0x37
 2610 0313 07       		.byte	0x7
 2611 0314 98       		.byte	0x98
 2612 0315 26030000 		.4byte	0x326
 2613 0319 10       		.uleb128 0x10
 2614 031a 83050000 		.4byte	.LASF40
 2615 031e 00       		.byte	0
 2616 031f 11       		.uleb128 0x11
 2617 0320 53455400 		.ascii	"SET\000"
 2618 0324 01       		.byte	0x1
 2619 0325 00       		.byte	0
 2620 0326 02       		.uleb128 0x2
 2621 0327 08       		.byte	0x8
 2622 0328 04       		.byte	0x4
 2623 0329 02060000 		.4byte	.LASF41
 2624 032d 0F       		.uleb128 0xf
 2625 032e 01       		.byte	0x1
 2626 032f 37000000 		.4byte	0x37
 2627 0333 08       		.byte	0x8
 2628 0334 2A       		.byte	0x2a
 2629 0335 52030000 		.4byte	0x352
 2630 0339 10       		.uleb128 0x10
 2631 033a 7D040000 		.4byte	.LASF42
 2632 033e 00       		.byte	0
 2633 033f 10       		.uleb128 0x10
 2634 0340 47090000 		.4byte	.LASF43
 2635 0344 01       		.byte	0x1
 2636 0345 10       		.uleb128 0x10
 2637 0346 180C0000 		.4byte	.LASF44
 2638 034a 02       		.byte	0x2
 2639 034b 10       		.uleb128 0x10
 2640 034c 71040000 		.4byte	.LASF45
 2641 0350 03       		.byte	0x3
 2642 0351 00       		.byte	0
 2643 0352 03       		.uleb128 0x3
 2644 0353 03050000 		.4byte	.LASF46
 2645 0357 08       		.byte	0x8
 2646 0358 2F       		.byte	0x2f
 2647 0359 2D030000 		.4byte	0x32d
 2648 035d 0F       		.uleb128 0xf
 2649 035e 01       		.byte	0x1
 2650 035f 37000000 		.4byte	0x37
 2651 0363 08       		.byte	0x8
 2652 0364 35       		.byte	0x35
 2653 0365 76030000 		.4byte	0x376
 2654 0369 10       		.uleb128 0x10
 2655 036a 72060000 		.4byte	.LASF47
 2656 036e 00       		.byte	0
 2657 036f 10       		.uleb128 0x10
 2658 0370 42050000 		.4byte	.LASF48
 2659 0374 01       		.byte	0x1
 2660 0375 00       		.byte	0
 2661 0376 03       		.uleb128 0x3
 2662 0377 78020000 		.4byte	.LASF49
 2663 037b 08       		.byte	0x8
 2664 037c 38       		.byte	0x38
ARM GAS  /tmp/ccD9AYux.s 			page 88


 2665 037d 5D030000 		.4byte	0x35d
 2666 0381 12       		.uleb128 0x12
 2667 0382 1C       		.byte	0x1c
 2668 0383 09       		.byte	0x9
 2669 0384 30       		.byte	0x30
 2670 0385 EC030000 		.4byte	0x3ec
 2671 0389 13       		.uleb128 0x13
 2672 038a 6D030000 		.4byte	.LASF50
 2673 038e 09       		.byte	0x9
 2674 038f 32       		.byte	0x32
 2675 0390 C2000000 		.4byte	0xc2
 2676 0394 02       		.byte	0x2
 2677 0395 23       		.byte	0x23
 2678 0396 00       		.uleb128 0
 2679 0397 13       		.uleb128 0x13
 2680 0398 AD020000 		.4byte	.LASF51
 2681 039c 09       		.byte	0x9
 2682 039d 36       		.byte	0x36
 2683 039e C2000000 		.4byte	0xc2
 2684 03a2 02       		.byte	0x2
 2685 03a3 23       		.byte	0x23
 2686 03a4 04       		.uleb128 0x4
 2687 03a5 13       		.uleb128 0x13
 2688 03a6 49080000 		.4byte	.LASF52
 2689 03aa 09       		.byte	0x9
 2690 03ab 39       		.byte	0x39
 2691 03ac C2000000 		.4byte	0xc2
 2692 03b0 02       		.byte	0x2
 2693 03b1 23       		.byte	0x23
 2694 03b2 08       		.uleb128 0x8
 2695 03b3 13       		.uleb128 0x13
 2696 03b4 D10A0000 		.4byte	.LASF53
 2697 03b8 09       		.byte	0x9
 2698 03b9 3C       		.byte	0x3c
 2699 03ba C2000000 		.4byte	0xc2
 2700 03be 02       		.byte	0x2
 2701 03bf 23       		.byte	0x23
 2702 03c0 0C       		.uleb128 0xc
 2703 03c1 13       		.uleb128 0x13
 2704 03c2 89050000 		.4byte	.LASF54
 2705 03c6 09       		.byte	0x9
 2706 03c7 3F       		.byte	0x3f
 2707 03c8 C2000000 		.4byte	0xc2
 2708 03cc 02       		.byte	0x2
 2709 03cd 23       		.byte	0x23
 2710 03ce 10       		.uleb128 0x10
 2711 03cf 13       		.uleb128 0x13
 2712 03d0 68030000 		.4byte	.LASF55
 2713 03d4 09       		.byte	0x9
 2714 03d5 42       		.byte	0x42
 2715 03d6 C2000000 		.4byte	0xc2
 2716 03da 02       		.byte	0x2
 2717 03db 23       		.byte	0x23
 2718 03dc 14       		.uleb128 0x14
 2719 03dd 13       		.uleb128 0x13
 2720 03de 680B0000 		.4byte	.LASF56
 2721 03e2 09       		.byte	0x9
ARM GAS  /tmp/ccD9AYux.s 			page 89


 2722 03e3 47       		.byte	0x47
 2723 03e4 C2000000 		.4byte	0xc2
 2724 03e8 02       		.byte	0x2
 2725 03e9 23       		.byte	0x23
 2726 03ea 18       		.uleb128 0x18
 2727 03eb 00       		.byte	0
 2728 03ec 03       		.uleb128 0x3
 2729 03ed 9A000000 		.4byte	.LASF57
 2730 03f1 09       		.byte	0x9
 2731 03f2 49       		.byte	0x49
 2732 03f3 81030000 		.4byte	0x381
 2733 03f7 0F       		.uleb128 0xf
 2734 03f8 01       		.byte	0x1
 2735 03f9 37000000 		.4byte	0x37
 2736 03fd 09       		.byte	0x9
 2737 03fe 4F       		.byte	0x4f
 2738 03ff 1C040000 		.4byte	0x41c
 2739 0403 10       		.uleb128 0x10
 2740 0404 D1030000 		.4byte	.LASF58
 2741 0408 00       		.byte	0
 2742 0409 10       		.uleb128 0x10
 2743 040a 63050000 		.4byte	.LASF59
 2744 040e 01       		.byte	0x1
 2745 040f 10       		.uleb128 0x10
 2746 0410 01080000 		.4byte	.LASF60
 2747 0414 02       		.byte	0x2
 2748 0415 10       		.uleb128 0x10
 2749 0416 520B0000 		.4byte	.LASF61
 2750 041a 03       		.byte	0x3
 2751 041b 00       		.byte	0
 2752 041c 03       		.uleb128 0x3
 2753 041d DC070000 		.4byte	.LASF62
 2754 0421 09       		.byte	0x9
 2755 0422 54       		.byte	0x54
 2756 0423 F7030000 		.4byte	0x3f7
 2757 0427 14       		.uleb128 0x14
 2758 0428 320A0000 		.4byte	.LASF194
 2759 042c 44       		.byte	0x44
 2760 042d 09       		.byte	0x9
 2761 042e 6F       		.byte	0x6f
 2762 042f DC040000 		.4byte	0x4dc
 2763 0433 13       		.uleb128 0x13
 2764 0434 20070000 		.4byte	.LASF63
 2765 0438 09       		.byte	0x9
 2766 0439 71       		.byte	0x71
 2767 043a DC040000 		.4byte	0x4dc
 2768 043e 02       		.byte	0x2
 2769 043f 23       		.byte	0x23
 2770 0440 00       		.uleb128 0
 2771 0441 13       		.uleb128 0x13
 2772 0442 88000000 		.4byte	.LASF64
 2773 0446 09       		.byte	0x9
 2774 0447 73       		.byte	0x73
 2775 0448 EC030000 		.4byte	0x3ec
 2776 044c 02       		.byte	0x2
 2777 044d 23       		.byte	0x23
 2778 044e 04       		.uleb128 0x4
ARM GAS  /tmp/ccD9AYux.s 			page 90


 2779 044f 13       		.uleb128 0x13
 2780 0450 58030000 		.4byte	.LASF65
 2781 0454 09       		.byte	0x9
 2782 0455 75       		.byte	0x75
 2783 0456 76030000 		.4byte	0x376
 2784 045a 02       		.byte	0x2
 2785 045b 23       		.byte	0x23
 2786 045c 20       		.uleb128 0x20
 2787 045d 13       		.uleb128 0x13
 2788 045e 8B090000 		.4byte	.LASF66
 2789 0462 09       		.byte	0x9
 2790 0463 77       		.byte	0x77
 2791 0464 1C040000 		.4byte	0x41c
 2792 0468 02       		.byte	0x2
 2793 0469 23       		.byte	0x23
 2794 046a 21       		.uleb128 0x21
 2795 046b 13       		.uleb128 0x13
 2796 046c 18030000 		.4byte	.LASF67
 2797 0470 09       		.byte	0x9
 2798 0471 79       		.byte	0x79
 2799 0472 E2040000 		.4byte	0x4e2
 2800 0476 02       		.byte	0x2
 2801 0477 23       		.byte	0x23
 2802 0478 24       		.uleb128 0x24
 2803 0479 13       		.uleb128 0x13
 2804 047a 530C0000 		.4byte	.LASF68
 2805 047e 09       		.byte	0x9
 2806 047f 7B       		.byte	0x7b
 2807 0480 F6040000 		.4byte	0x4f6
 2808 0484 02       		.byte	0x2
 2809 0485 23       		.byte	0x23
 2810 0486 28       		.uleb128 0x28
 2811 0487 13       		.uleb128 0x13
 2812 0488 88020000 		.4byte	.LASF69
 2813 048c 09       		.byte	0x9
 2814 048d 7D       		.byte	0x7d
 2815 048e F6040000 		.4byte	0x4f6
 2816 0492 02       		.byte	0x2
 2817 0493 23       		.byte	0x23
 2818 0494 2C       		.uleb128 0x2c
 2819 0495 13       		.uleb128 0x13
 2820 0496 7F060000 		.4byte	.LASF70
 2821 049a 09       		.byte	0x9
 2822 049b 7F       		.byte	0x7f
 2823 049c F6040000 		.4byte	0x4f6
 2824 04a0 02       		.byte	0x2
 2825 04a1 23       		.byte	0x23
 2826 04a2 30       		.uleb128 0x30
 2827 04a3 13       		.uleb128 0x13
 2828 04a4 410C0000 		.4byte	.LASF71
 2829 04a8 09       		.byte	0x9
 2830 04a9 81       		.byte	0x81
 2831 04aa F6040000 		.4byte	0x4f6
 2832 04ae 02       		.byte	0x2
 2833 04af 23       		.byte	0x23
 2834 04b0 34       		.uleb128 0x34
 2835 04b1 13       		.uleb128 0x13
ARM GAS  /tmp/ccD9AYux.s 			page 91


 2836 04b2 D0040000 		.4byte	.LASF72
 2837 04b6 09       		.byte	0x9
 2838 04b7 83       		.byte	0x83
 2839 04b8 CD000000 		.4byte	0xcd
 2840 04bc 02       		.byte	0x2
 2841 04bd 23       		.byte	0x23
 2842 04be 38       		.uleb128 0x38
 2843 04bf 13       		.uleb128 0x13
 2844 04c0 C1040000 		.4byte	.LASF73
 2845 04c4 09       		.byte	0x9
 2846 04c5 85       		.byte	0x85
 2847 04c6 FC040000 		.4byte	0x4fc
 2848 04ca 02       		.byte	0x2
 2849 04cb 23       		.byte	0x23
 2850 04cc 3C       		.uleb128 0x3c
 2851 04cd 13       		.uleb128 0x13
 2852 04ce 0B030000 		.4byte	.LASF74
 2853 04d2 09       		.byte	0x9
 2854 04d3 87       		.byte	0x87
 2855 04d4 C2000000 		.4byte	0xc2
 2856 04d8 02       		.byte	0x2
 2857 04d9 23       		.byte	0x23
 2858 04da 40       		.uleb128 0x40
 2859 04db 00       		.byte	0
 2860 04dc 15       		.uleb128 0x15
 2861 04dd 04       		.byte	0x4
 2862 04de 7E010000 		.4byte	0x17e
 2863 04e2 16       		.uleb128 0x16
 2864 04e3 04       		.byte	0x4
 2865 04e4 17       		.uleb128 0x17
 2866 04e5 01       		.byte	0x1
 2867 04e6 F0040000 		.4byte	0x4f0
 2868 04ea 18       		.uleb128 0x18
 2869 04eb F0040000 		.4byte	0x4f0
 2870 04ef 00       		.byte	0
 2871 04f0 15       		.uleb128 0x15
 2872 04f1 04       		.byte	0x4
 2873 04f2 27040000 		.4byte	0x427
 2874 04f6 15       		.uleb128 0x15
 2875 04f7 04       		.byte	0x4
 2876 04f8 E4040000 		.4byte	0x4e4
 2877 04fc 15       		.uleb128 0x15
 2878 04fd 04       		.byte	0x4
 2879 04fe B2010000 		.4byte	0x1b2
 2880 0502 03       		.uleb128 0x3
 2881 0503 60060000 		.4byte	.LASF75
 2882 0507 09       		.byte	0x9
 2883 0508 89       		.byte	0x89
 2884 0509 27040000 		.4byte	0x427
 2885 050d 15       		.uleb128 0x15
 2886 050e 04       		.byte	0x4
 2887 050f 02050000 		.4byte	0x502
 2888 0513 12       		.uleb128 0x12
 2889 0514 18       		.byte	0x18
 2890 0515 0A       		.byte	0xa
 2891 0516 2F       		.byte	0x2f
 2892 0517 70050000 		.4byte	0x570
ARM GAS  /tmp/ccD9AYux.s 			page 92


 2893 051b 13       		.uleb128 0x13
 2894 051c 530A0000 		.4byte	.LASF76
 2895 0520 0A       		.byte	0xa
 2896 0521 31       		.byte	0x31
 2897 0522 C2000000 		.4byte	0xc2
 2898 0526 02       		.byte	0x2
 2899 0527 23       		.byte	0x23
 2900 0528 00       		.uleb128 0
 2901 0529 13       		.uleb128 0x13
 2902 052a 15050000 		.4byte	.LASF77
 2903 052e 0A       		.byte	0xa
 2904 052f 34       		.byte	0x34
 2905 0530 C2000000 		.4byte	0xc2
 2906 0534 02       		.byte	0x2
 2907 0535 23       		.byte	0x23
 2908 0536 04       		.uleb128 0x4
 2909 0537 13       		.uleb128 0x13
 2910 0538 52020000 		.4byte	.LASF78
 2911 053c 0A       		.byte	0xa
 2912 053d 37       		.byte	0x37
 2913 053e C2000000 		.4byte	0xc2
 2914 0542 02       		.byte	0x2
 2915 0543 23       		.byte	0x23
 2916 0544 08       		.uleb128 0x8
 2917 0545 13       		.uleb128 0x13
 2918 0546 02070000 		.4byte	.LASF79
 2919 054a 0A       		.byte	0xa
 2920 054b 3B       		.byte	0x3b
 2921 054c C2000000 		.4byte	0xc2
 2922 0550 02       		.byte	0x2
 2923 0551 23       		.byte	0x23
 2924 0552 0C       		.uleb128 0xc
 2925 0553 13       		.uleb128 0x13
 2926 0554 91060000 		.4byte	.LASF80
 2927 0558 0A       		.byte	0xa
 2928 0559 3E       		.byte	0x3e
 2929 055a C2000000 		.4byte	0xc2
 2930 055e 02       		.byte	0x2
 2931 055f 23       		.byte	0x23
 2932 0560 10       		.uleb128 0x10
 2933 0561 13       		.uleb128 0x13
 2934 0562 03020000 		.4byte	.LASF81
 2935 0566 0A       		.byte	0xa
 2936 0567 47       		.byte	0x47
 2937 0568 C2000000 		.4byte	0xc2
 2938 056c 02       		.byte	0x2
 2939 056d 23       		.byte	0x23
 2940 056e 14       		.uleb128 0x14
 2941 056f 00       		.byte	0
 2942 0570 03       		.uleb128 0x3
 2943 0571 BC0A0000 		.4byte	.LASF82
 2944 0575 0A       		.byte	0xa
 2945 0576 49       		.byte	0x49
 2946 0577 13050000 		.4byte	0x513
 2947 057b 12       		.uleb128 0x12
 2948 057c 1C       		.byte	0x1c
 2949 057d 0A       		.byte	0xa
ARM GAS  /tmp/ccD9AYux.s 			page 93


 2950 057e 4E       		.byte	0x4e
 2951 057f E6050000 		.4byte	0x5e6
 2952 0583 13       		.uleb128 0x13
 2953 0584 A6020000 		.4byte	.LASF83
 2954 0588 0A       		.byte	0xa
 2955 0589 50       		.byte	0x50
 2956 058a C2000000 		.4byte	0xc2
 2957 058e 02       		.byte	0x2
 2958 058f 23       		.byte	0x23
 2959 0590 00       		.uleb128 0
 2960 0591 13       		.uleb128 0x13
 2961 0592 3B0C0000 		.4byte	.LASF84
 2962 0596 0A       		.byte	0xa
 2963 0597 53       		.byte	0x53
 2964 0598 C2000000 		.4byte	0xc2
 2965 059c 02       		.byte	0x2
 2966 059d 23       		.byte	0x23
 2967 059e 04       		.uleb128 0x4
 2968 059f 13       		.uleb128 0x13
 2969 05a0 E1010000 		.4byte	.LASF85
 2970 05a4 0A       		.byte	0xa
 2971 05a5 56       		.byte	0x56
 2972 05a6 C2000000 		.4byte	0xc2
 2973 05aa 02       		.byte	0x2
 2974 05ab 23       		.byte	0x23
 2975 05ac 08       		.uleb128 0x8
 2976 05ad 13       		.uleb128 0x13
 2977 05ae 77050000 		.4byte	.LASF86
 2978 05b2 0A       		.byte	0xa
 2979 05b3 59       		.byte	0x59
 2980 05b4 C2000000 		.4byte	0xc2
 2981 05b8 02       		.byte	0x2
 2982 05b9 23       		.byte	0x23
 2983 05ba 0C       		.uleb128 0xc
 2984 05bb 13       		.uleb128 0x13
 2985 05bc 8B010000 		.4byte	.LASF87
 2986 05c0 0A       		.byte	0xa
 2987 05c1 5D       		.byte	0x5d
 2988 05c2 C2000000 		.4byte	0xc2
 2989 05c6 02       		.byte	0x2
 2990 05c7 23       		.byte	0x23
 2991 05c8 10       		.uleb128 0x10
 2992 05c9 13       		.uleb128 0x13
 2993 05ca B0070000 		.4byte	.LASF88
 2994 05ce 0A       		.byte	0xa
 2995 05cf 62       		.byte	0x62
 2996 05d0 C2000000 		.4byte	0xc2
 2997 05d4 02       		.byte	0x2
 2998 05d5 23       		.byte	0x23
 2999 05d6 14       		.uleb128 0x14
 3000 05d7 13       		.uleb128 0x13
 3001 05d8 460A0000 		.4byte	.LASF89
 3002 05dc 0A       		.byte	0xa
 3003 05dd 66       		.byte	0x66
 3004 05de C2000000 		.4byte	0xc2
 3005 05e2 02       		.byte	0x2
 3006 05e3 23       		.byte	0x23
ARM GAS  /tmp/ccD9AYux.s 			page 94


 3007 05e4 18       		.uleb128 0x18
 3008 05e5 00       		.byte	0
 3009 05e6 03       		.uleb128 0x3
 3010 05e7 FC080000 		.4byte	.LASF90
 3011 05eb 0A       		.byte	0xa
 3012 05ec 69       		.byte	0x69
 3013 05ed 7B050000 		.4byte	0x57b
 3014 05f1 12       		.uleb128 0x12
 3015 05f2 08       		.byte	0x8
 3016 05f3 0A       		.byte	0xa
 3017 05f4 E5       		.byte	0xe5
 3018 05f5 16060000 		.4byte	0x616
 3019 05f9 13       		.uleb128 0x13
 3020 05fa EB0B0000 		.4byte	.LASF91
 3021 05fe 0A       		.byte	0xa
 3022 05ff E7       		.byte	0xe7
 3023 0600 C2000000 		.4byte	0xc2
 3024 0604 02       		.byte	0x2
 3025 0605 23       		.byte	0x23
 3026 0606 00       		.uleb128 0
 3027 0607 13       		.uleb128 0x13
 3028 0608 3D030000 		.4byte	.LASF92
 3029 060c 0A       		.byte	0xa
 3030 060d E9       		.byte	0xe9
 3031 060e C2000000 		.4byte	0xc2
 3032 0612 02       		.byte	0x2
 3033 0613 23       		.byte	0x23
 3034 0614 04       		.uleb128 0x4
 3035 0615 00       		.byte	0
 3036 0616 03       		.uleb128 0x3
 3037 0617 B5090000 		.4byte	.LASF93
 3038 061b 0A       		.byte	0xa
 3039 061c F0       		.byte	0xf0
 3040 061d F1050000 		.4byte	0x5f1
 3041 0621 0B       		.uleb128 0xb
 3042 0622 20       		.byte	0x20
 3043 0623 0A       		.byte	0xa
 3044 0624 0901     		.2byte	0x109
 3045 0626 A3060000 		.4byte	0x6a3
 3046 062a 0D       		.uleb128 0xd
 3047 062b F1070000 		.4byte	.LASF94
 3048 062f 0A       		.byte	0xa
 3049 0630 0B01     		.2byte	0x10b
 3050 0632 C2000000 		.4byte	0xc2
 3051 0636 02       		.byte	0x2
 3052 0637 23       		.byte	0x23
 3053 0638 00       		.uleb128 0
 3054 0639 0D       		.uleb128 0xd
 3055 063a 29070000 		.4byte	.LASF95
 3056 063e 0A       		.byte	0xa
 3057 063f 0D01     		.2byte	0x10d
 3058 0641 C2000000 		.4byte	0xc2
 3059 0645 02       		.byte	0x2
 3060 0646 23       		.byte	0x23
 3061 0647 04       		.uleb128 0x4
 3062 0648 0D       		.uleb128 0xd
 3063 0649 D3050000 		.4byte	.LASF96
ARM GAS  /tmp/ccD9AYux.s 			page 95


 3064 064d 0A       		.byte	0xa
 3065 064e 0F01     		.2byte	0x10f
 3066 0650 C2000000 		.4byte	0xc2
 3067 0654 02       		.byte	0x2
 3068 0655 23       		.byte	0x23
 3069 0656 08       		.uleb128 0x8
 3070 0657 0D       		.uleb128 0xd
 3071 0658 B30A0000 		.4byte	.LASF97
 3072 065c 0A       		.byte	0xa
 3073 065d 1101     		.2byte	0x111
 3074 065f C2000000 		.4byte	0xc2
 3075 0663 02       		.byte	0x2
 3076 0664 23       		.byte	0x23
 3077 0665 0C       		.uleb128 0xc
 3078 0666 0D       		.uleb128 0xd
 3079 0667 B6040000 		.4byte	.LASF98
 3080 066b 0A       		.byte	0xa
 3081 066c 1301     		.2byte	0x113
 3082 066e C2000000 		.4byte	0xc2
 3083 0672 02       		.byte	0x2
 3084 0673 23       		.byte	0x23
 3085 0674 10       		.uleb128 0x10
 3086 0675 0D       		.uleb128 0xd
 3087 0676 6A020000 		.4byte	.LASF99
 3088 067a 0A       		.byte	0xa
 3089 067b 1501     		.2byte	0x115
 3090 067d C2000000 		.4byte	0xc2
 3091 0681 02       		.byte	0x2
 3092 0682 23       		.byte	0x23
 3093 0683 14       		.uleb128 0x14
 3094 0684 0D       		.uleb128 0xd
 3095 0685 50080000 		.4byte	.LASF100
 3096 0689 0A       		.byte	0xa
 3097 068a 1701     		.2byte	0x117
 3098 068c C2000000 		.4byte	0xc2
 3099 0690 02       		.byte	0x2
 3100 0691 23       		.byte	0x23
 3101 0692 18       		.uleb128 0x18
 3102 0693 0D       		.uleb128 0xd
 3103 0694 F3040000 		.4byte	.LASF101
 3104 0698 0A       		.byte	0xa
 3105 0699 1901     		.2byte	0x119
 3106 069b C2000000 		.4byte	0xc2
 3107 069f 02       		.byte	0x2
 3108 06a0 23       		.byte	0x23
 3109 06a1 1C       		.uleb128 0x1c
 3110 06a2 00       		.byte	0
 3111 06a3 0E       		.uleb128 0xe
 3112 06a4 330B0000 		.4byte	.LASF102
 3113 06a8 0A       		.byte	0xa
 3114 06a9 1B01     		.2byte	0x11b
 3115 06ab 21060000 		.4byte	0x621
 3116 06af 19       		.uleb128 0x19
 3117 06b0 01       		.byte	0x1
 3118 06b1 37000000 		.4byte	0x37
 3119 06b5 0A       		.byte	0xa
 3120 06b6 2101     		.2byte	0x121
ARM GAS  /tmp/ccD9AYux.s 			page 96


 3121 06b8 DB060000 		.4byte	0x6db
 3122 06bc 10       		.uleb128 0x10
 3123 06bd BF050000 		.4byte	.LASF103
 3124 06c1 00       		.byte	0
 3125 06c2 10       		.uleb128 0x10
 3126 06c3 84040000 		.4byte	.LASF104
 3127 06c7 01       		.byte	0x1
 3128 06c8 10       		.uleb128 0x10
 3129 06c9 AC050000 		.4byte	.LASF105
 3130 06cd 02       		.byte	0x2
 3131 06ce 10       		.uleb128 0x10
 3132 06cf 4D050000 		.4byte	.LASF106
 3133 06d3 03       		.byte	0x3
 3134 06d4 10       		.uleb128 0x10
 3135 06d5 98040000 		.4byte	.LASF107
 3136 06d9 04       		.byte	0x4
 3137 06da 00       		.byte	0
 3138 06db 0E       		.uleb128 0xe
 3139 06dc 77030000 		.4byte	.LASF108
 3140 06e0 0A       		.byte	0xa
 3141 06e1 2701     		.2byte	0x127
 3142 06e3 AF060000 		.4byte	0x6af
 3143 06e7 06       		.uleb128 0x6
 3144 06e8 DB060000 		.4byte	0x6db
 3145 06ec 19       		.uleb128 0x19
 3146 06ed 01       		.byte	0x1
 3147 06ee 37000000 		.4byte	0x37
 3148 06f2 0A       		.byte	0xa
 3149 06f3 2D01     		.2byte	0x12d
 3150 06f5 18070000 		.4byte	0x718
 3151 06f9 10       		.uleb128 0x10
 3152 06fa B1080000 		.4byte	.LASF109
 3153 06fe 01       		.byte	0x1
 3154 06ff 10       		.uleb128 0x10
 3155 0700 CA080000 		.4byte	.LASF110
 3156 0704 02       		.byte	0x2
 3157 0705 10       		.uleb128 0x10
 3158 0706 E3080000 		.4byte	.LASF111
 3159 070a 04       		.byte	0x4
 3160 070b 10       		.uleb128 0x10
 3161 070c FF0B0000 		.4byte	.LASF112
 3162 0710 08       		.byte	0x8
 3163 0711 10       		.uleb128 0x10
 3164 0712 700A0000 		.4byte	.LASF113
 3165 0716 00       		.byte	0
 3166 0717 00       		.byte	0
 3167 0718 0E       		.uleb128 0xe
 3168 0719 D50B0000 		.4byte	.LASF114
 3169 071d 0A       		.byte	0xa
 3170 071e 3301     		.2byte	0x133
 3171 0720 EC060000 		.4byte	0x6ec
 3172 0724 0B       		.uleb128 0xb
 3173 0725 40       		.byte	0x40
 3174 0726 0A       		.byte	0xa
 3175 0727 3B01     		.2byte	0x13b
 3176 0729 88070000 		.4byte	0x788
 3177 072d 0D       		.uleb128 0xd
ARM GAS  /tmp/ccD9AYux.s 			page 97


 3178 072e 20070000 		.4byte	.LASF63
 3179 0732 0A       		.byte	0xa
 3180 0733 3E01     		.2byte	0x13e
 3181 0735 88070000 		.4byte	0x788
 3182 0739 02       		.byte	0x2
 3183 073a 23       		.byte	0x23
 3184 073b 00       		.uleb128 0
 3185 073c 0D       		.uleb128 0xd
 3186 073d 88000000 		.4byte	.LASF64
 3187 0741 0A       		.byte	0xa
 3188 0742 3F01     		.2byte	0x13f
 3189 0744 70050000 		.4byte	0x570
 3190 0748 02       		.byte	0x2
 3191 0749 23       		.byte	0x23
 3192 074a 04       		.uleb128 0x4
 3193 074b 0D       		.uleb128 0xd
 3194 074c 4E070000 		.4byte	.LASF115
 3195 0750 0A       		.byte	0xa
 3196 0751 4001     		.2byte	0x140
 3197 0753 18070000 		.4byte	0x718
 3198 0757 02       		.byte	0x2
 3199 0758 23       		.byte	0x23
 3200 0759 1C       		.uleb128 0x1c
 3201 075a 0D       		.uleb128 0xd
 3202 075b 9A050000 		.4byte	.LASF116
 3203 075f 0A       		.byte	0xa
 3204 0760 4101     		.2byte	0x141
 3205 0762 8E070000 		.4byte	0x78e
 3206 0766 02       		.byte	0x2
 3207 0767 23       		.byte	0x23
 3208 0768 20       		.uleb128 0x20
 3209 0769 0D       		.uleb128 0xd
 3210 076a 58030000 		.4byte	.LASF65
 3211 076e 0A       		.byte	0xa
 3212 076f 4301     		.2byte	0x143
 3213 0771 76030000 		.4byte	0x376
 3214 0775 02       		.byte	0x2
 3215 0776 23       		.byte	0x23
 3216 0777 3C       		.uleb128 0x3c
 3217 0778 0D       		.uleb128 0xd
 3218 0779 8B090000 		.4byte	.LASF66
 3219 077d 0A       		.byte	0xa
 3220 077e 4401     		.2byte	0x144
 3221 0780 E7060000 		.4byte	0x6e7
 3222 0784 02       		.byte	0x2
 3223 0785 23       		.byte	0x23
 3224 0786 3D       		.uleb128 0x3d
 3225 0787 00       		.byte	0
 3226 0788 15       		.uleb128 0x15
 3227 0789 04       		.byte	0x4
 3228 078a 01030000 		.4byte	0x301
 3229 078e 09       		.uleb128 0x9
 3230 078f 0D050000 		.4byte	0x50d
 3231 0793 9E070000 		.4byte	0x79e
 3232 0797 0A       		.uleb128 0xa
 3233 0798 D2000000 		.4byte	0xd2
 3234 079c 06       		.byte	0x6
ARM GAS  /tmp/ccD9AYux.s 			page 98


 3235 079d 00       		.byte	0
 3236 079e 0E       		.uleb128 0xe
 3237 079f F9020000 		.4byte	.LASF117
 3238 07a3 0A       		.byte	0xa
 3239 07a4 6301     		.2byte	0x163
 3240 07a6 24070000 		.4byte	0x724
 3241 07aa 12       		.uleb128 0x12
 3242 07ab 10       		.byte	0x10
 3243 07ac 0B       		.byte	0xb
 3244 07ad 30       		.byte	0x30
 3245 07ae EB070000 		.4byte	0x7eb
 3246 07b2 13       		.uleb128 0x13
 3247 07b3 000B0000 		.4byte	.LASF118
 3248 07b7 0B       		.byte	0xb
 3249 07b8 32       		.byte	0x32
 3250 07b9 C2000000 		.4byte	0xc2
 3251 07bd 02       		.byte	0x2
 3252 07be 23       		.byte	0x23
 3253 07bf 00       		.uleb128 0
 3254 07c0 13       		.uleb128 0x13
 3255 07c1 1B040000 		.4byte	.LASF119
 3256 07c5 0B       		.byte	0xb
 3257 07c6 35       		.byte	0x35
 3258 07c7 C2000000 		.4byte	0xc2
 3259 07cb 02       		.byte	0x2
 3260 07cc 23       		.byte	0x23
 3261 07cd 04       		.uleb128 0x4
 3262 07ce 13       		.uleb128 0x13
 3263 07cf B7020000 		.4byte	.LASF120
 3264 07d3 0B       		.byte	0xb
 3265 07d4 38       		.byte	0x38
 3266 07d5 C2000000 		.4byte	0xc2
 3267 07d9 02       		.byte	0x2
 3268 07da 23       		.byte	0x23
 3269 07db 08       		.uleb128 0x8
 3270 07dc 13       		.uleb128 0x13
 3271 07dd 9D0C0000 		.4byte	.LASF121
 3272 07e1 0B       		.byte	0xb
 3273 07e2 3B       		.byte	0x3b
 3274 07e3 C2000000 		.4byte	0xc2
 3275 07e7 02       		.byte	0x2
 3276 07e8 23       		.byte	0x23
 3277 07e9 0C       		.uleb128 0xc
 3278 07ea 00       		.byte	0
 3279 07eb 03       		.uleb128 0x3
 3280 07ec 2E080000 		.4byte	.LASF122
 3281 07f0 0B       		.byte	0xb
 3282 07f1 3D       		.byte	0x3d
 3283 07f2 AA070000 		.4byte	0x7aa
 3284 07f6 0F       		.uleb128 0xf
 3285 07f7 01       		.byte	0x1
 3286 07f8 37000000 		.4byte	0x37
 3287 07fc 0C       		.byte	0xc
 3288 07fd 33       		.byte	0x33
 3289 07fe 1B080000 		.4byte	0x81b
 3290 0802 10       		.uleb128 0x10
 3291 0803 AC0B0000 		.4byte	.LASF123
ARM GAS  /tmp/ccD9AYux.s 			page 99


 3292 0807 64       		.byte	0x64
 3293 0808 10       		.uleb128 0x10
 3294 0809 FB090000 		.4byte	.LASF124
 3295 080d 0A       		.byte	0xa
 3296 080e 10       		.uleb128 0x10
 3297 080f 5E040000 		.4byte	.LASF125
 3298 0813 01       		.byte	0x1
 3299 0814 10       		.uleb128 0x10
 3300 0815 A3060000 		.4byte	.LASF126
 3301 0819 01       		.byte	0x1
 3302 081a 00       		.byte	0
 3303 081b 03       		.uleb128 0x3
 3304 081c 4D000000 		.4byte	.LASF127
 3305 0820 0C       		.byte	0xc
 3306 0821 38       		.byte	0x38
 3307 0822 F6070000 		.4byte	0x7f6
 3308 0826 08       		.uleb128 0x8
 3309 0827 6E090000 		.4byte	.LASF128
 3310 082b 0C       		.byte	0xc
 3311 082c 3D       		.byte	0x3d
 3312 082d C2000000 		.4byte	0xc2
 3313 0831 01       		.byte	0x1
 3314 0832 01       		.byte	0x1
 3315 0833 08       		.uleb128 0x8
 3316 0834 0B040000 		.4byte	.LASF129
 3317 0838 0C       		.byte	0xc
 3318 0839 3E       		.byte	0x3e
 3319 083a 1B080000 		.4byte	0x81b
 3320 083e 01       		.byte	0x1
 3321 083f 01       		.byte	0x1
 3322 0840 1A       		.uleb128 0x1a
 3323 0841 28040000 		.4byte	.LASF195
 3324 0845 01       		.byte	0x1
 3325 0846 6807     		.2byte	0x768
 3326 0848 01       		.byte	0x1
 3327 0849 00000000 		.4byte	.LFB103
 3328 084d 1C000000 		.4byte	.LFE103
 3329 0851 00000000 		.4byte	.LLST0
 3330 0855 01       		.byte	0x1
 3331 0856 99080000 		.4byte	0x899
 3332 085a 1B       		.uleb128 0x1b
 3333 085b B1040000 		.4byte	.LASF130
 3334 085f 01       		.byte	0x1
 3335 0860 6807     		.2byte	0x768
 3336 0862 88070000 		.4byte	0x788
 3337 0866 01       		.byte	0x1
 3338 0867 50       		.byte	0x50
 3339 0868 1C       		.uleb128 0x1c
 3340 0869 4E070000 		.4byte	.LASF115
 3341 086d 01       		.byte	0x1
 3342 086e 6807     		.2byte	0x768
 3343 0870 C2000000 		.4byte	0xc2
 3344 0874 20000000 		.4byte	.LLST1
 3345 0878 1C       		.uleb128 0x1c
 3346 0879 CD060000 		.4byte	.LASF131
 3347 087d 01       		.byte	0x1
 3348 087e 6807     		.2byte	0x768
ARM GAS  /tmp/ccD9AYux.s 			page 100


 3349 0880 C2000000 		.4byte	0xc2
 3350 0884 41000000 		.4byte	.LLST2
 3351 0888 1D       		.uleb128 0x1d
 3352 0889 746D7000 		.ascii	"tmp\000"
 3353 088d 01       		.byte	0x1
 3354 088e 6A07     		.2byte	0x76a
 3355 0890 C2000000 		.4byte	0xc2
 3356 0894 62000000 		.4byte	.LLST3
 3357 0898 00       		.byte	0
 3358 0899 1E       		.uleb128 0x1e
 3359 089a 01       		.byte	0x1
 3360 089b AA000000 		.4byte	.LASF133
 3361 089f 01       		.byte	0x1
 3362 08a0 4D07     		.2byte	0x74d
 3363 08a2 01       		.byte	0x1
 3364 08a3 B4070000 		.4byte	.LFB102
 3365 08a7 C4070000 		.4byte	.LFE102
 3366 08ab 84000000 		.4byte	.LLST82
 3367 08af 01       		.byte	0x1
 3368 08b0 DE080000 		.4byte	0x8de
 3369 08b4 1C       		.uleb128 0x1c
 3370 08b5 9A050000 		.4byte	.LASF116
 3371 08b9 01       		.byte	0x1
 3372 08ba 4D07     		.2byte	0x74d
 3373 08bc 0D050000 		.4byte	0x50d
 3374 08c0 A4000000 		.4byte	.LLST83
 3375 08c4 1F       		.uleb128 0x1f
 3376 08c5 9F050000 		.4byte	.LASF132
 3377 08c9 01       		.byte	0x1
 3378 08ca 4F07     		.2byte	0x74f
 3379 08cc DE080000 		.4byte	0x8de
 3380 08d0 C5000000 		.4byte	.LLST84
 3381 08d4 20       		.uleb128 0x20
 3382 08d5 C2070000 		.4byte	.LVL155
 3383 08d9 74090000 		.4byte	0x974
 3384 08dd 00       		.byte	0
 3385 08de 15       		.uleb128 0x15
 3386 08df 04       		.byte	0x4
 3387 08e0 9E070000 		.4byte	0x79e
 3388 08e4 1E       		.uleb128 0x1e
 3389 08e5 01       		.byte	0x1
 3390 08e6 0A000000 		.4byte	.LASF134
 3391 08ea 01       		.byte	0x1
 3392 08eb 3A07     		.2byte	0x73a
 3393 08ed 01       		.byte	0x1
 3394 08ee A2070000 		.4byte	.LFB101
 3395 08f2 B2070000 		.4byte	.LFE101
 3396 08f6 D8000000 		.4byte	.LLST79
 3397 08fa 01       		.byte	0x1
 3398 08fb 29090000 		.4byte	0x929
 3399 08ff 1C       		.uleb128 0x1c
 3400 0900 9A050000 		.4byte	.LASF116
 3401 0904 01       		.byte	0x1
 3402 0905 3A07     		.2byte	0x73a
 3403 0907 0D050000 		.4byte	0x50d
 3404 090b F8000000 		.4byte	.LLST80
 3405 090f 1F       		.uleb128 0x1f
ARM GAS  /tmp/ccD9AYux.s 			page 101


 3406 0910 9F050000 		.4byte	.LASF132
 3407 0914 01       		.byte	0x1
 3408 0915 3C07     		.2byte	0x73c
 3409 0917 DE080000 		.4byte	0x8de
 3410 091b 19010000 		.4byte	.LLST81
 3411 091f 20       		.uleb128 0x20
 3412 0920 B0070000 		.4byte	.LVL152
 3413 0924 8F090000 		.4byte	0x98f
 3414 0928 00       		.byte	0
 3415 0929 21       		.uleb128 0x21
 3416 092a 01       		.byte	0x1
 3417 092b 42060000 		.4byte	.LASF137
 3418 092f 01       		.byte	0x1
 3419 0930 2307     		.2byte	0x723
 3420 0932 01       		.byte	0x1
 3421 0933 DB060000 		.4byte	0x6db
 3422 0937 C6070000 		.4byte	.LFB100
 3423 093b CC070000 		.4byte	.LFE100
 3424 093f 02       		.byte	0x2
 3425 0940 7D       		.byte	0x7d
 3426 0941 00       		.sleb128 0
 3427 0942 01       		.byte	0x1
 3428 0943 58090000 		.4byte	0x958
 3429 0947 1C       		.uleb128 0x1c
 3430 0948 9F050000 		.4byte	.LASF132
 3431 094c 01       		.byte	0x1
 3432 094d 2307     		.2byte	0x723
 3433 094f DE080000 		.4byte	0x8de
 3434 0953 2C010000 		.4byte	.LLST85
 3435 0957 00       		.byte	0
 3436 0958 22       		.uleb128 0x22
 3437 0959 01       		.byte	0x1
 3438 095a 2A060000 		.4byte	.LASF164
 3439 095e 01       		.byte	0x1
 3440 095f 0207     		.2byte	0x702
 3441 0961 01       		.byte	0x1
 3442 0962 01       		.byte	0x1
 3443 0963 74090000 		.4byte	0x974
 3444 0967 23       		.uleb128 0x23
 3445 0968 9F050000 		.4byte	.LASF132
 3446 096c 01       		.byte	0x1
 3447 096d 0207     		.2byte	0x702
 3448 096f DE080000 		.4byte	0x8de
 3449 0973 00       		.byte	0
 3450 0974 24       		.uleb128 0x24
 3451 0975 01       		.byte	0x1
 3452 0976 0E010000 		.4byte	.LASF135
 3453 097a 01       		.byte	0x1
 3454 097b F306     		.2byte	0x6f3
 3455 097d 01       		.byte	0x1
 3456 097e 8F090000 		.4byte	0x98f
 3457 0982 23       		.uleb128 0x23
 3458 0983 9F050000 		.4byte	.LASF132
 3459 0987 01       		.byte	0x1
 3460 0988 F306     		.2byte	0x6f3
 3461 098a DE080000 		.4byte	0x8de
 3462 098e 00       		.byte	0
ARM GAS  /tmp/ccD9AYux.s 			page 102


 3463 098f 24       		.uleb128 0x24
 3464 0990 01       		.byte	0x1
 3465 0991 DA040000 		.4byte	.LASF136
 3466 0995 01       		.byte	0x1
 3467 0996 E506     		.2byte	0x6e5
 3468 0998 01       		.byte	0x1
 3469 0999 AA090000 		.4byte	0x9aa
 3470 099d 23       		.uleb128 0x23
 3471 099e 9F050000 		.4byte	.LASF132
 3472 09a2 01       		.byte	0x1
 3473 09a3 E506     		.2byte	0x6e5
 3474 09a5 DE080000 		.4byte	0x8de
 3475 09a9 00       		.byte	0
 3476 09aa 21       		.uleb128 0x21
 3477 09ab 01       		.byte	0x1
 3478 09ac BF0B0000 		.4byte	.LASF138
 3479 09b0 01       		.byte	0x1
 3480 09b1 C606     		.2byte	0x6c6
 3481 09b3 01       		.byte	0x1
 3482 09b4 52030000 		.4byte	0x352
 3483 09b8 9C070000 		.4byte	.LFB96
 3484 09bc A0070000 		.4byte	.LFE96
 3485 09c0 02       		.byte	0x2
 3486 09c1 7D       		.byte	0x7d
 3487 09c2 00       		.sleb128 0
 3488 09c3 01       		.byte	0x1
 3489 09c4 E7090000 		.4byte	0x9e7
 3490 09c8 1C       		.uleb128 0x1c
 3491 09c9 9F050000 		.4byte	.LASF132
 3492 09cd 01       		.byte	0x1
 3493 09ce C606     		.2byte	0x6c6
 3494 09d0 DE080000 		.4byte	0x8de
 3495 09d4 4D010000 		.4byte	.LLST78
 3496 09d8 1B       		.uleb128 0x1b
 3497 09d9 61000000 		.4byte	.LASF139
 3498 09dd 01       		.byte	0x1
 3499 09de C606     		.2byte	0x6c6
 3500 09e0 C2000000 		.4byte	0xc2
 3501 09e4 01       		.byte	0x1
 3502 09e5 51       		.byte	0x51
 3503 09e6 00       		.byte	0
 3504 09e7 21       		.uleb128 0x21
 3505 09e8 01       		.byte	0x1
 3506 09e9 F0000000 		.4byte	.LASF140
 3507 09ed 01       		.byte	0x1
 3508 09ee 9706     		.2byte	0x697
 3509 09f0 01       		.byte	0x1
 3510 09f1 52030000 		.4byte	0x352
 3511 09f5 50070000 		.4byte	.LFB95
 3512 09f9 9C070000 		.4byte	.LFE95
 3513 09fd 02       		.byte	0x2
 3514 09fe 7D       		.byte	0x7d
 3515 09ff 00       		.sleb128 0
 3516 0a00 01       		.byte	0x1
 3517 0a01 340A0000 		.4byte	0xa34
 3518 0a05 1C       		.uleb128 0x1c
 3519 0a06 9F050000 		.4byte	.LASF132
ARM GAS  /tmp/ccD9AYux.s 			page 103


 3520 0a0a 01       		.byte	0x1
 3521 0a0b 9706     		.2byte	0x697
 3522 0a0d DE080000 		.4byte	0x8de
 3523 0a11 6E010000 		.4byte	.LLST76
 3524 0a15 1B       		.uleb128 0x1b
 3525 0a16 9B030000 		.4byte	.LASF141
 3526 0a1a 01       		.byte	0x1
 3527 0a1b 9806     		.2byte	0x698
 3528 0a1d 340A0000 		.4byte	0xa34
 3529 0a21 01       		.byte	0x1
 3530 0a22 51       		.byte	0x51
 3531 0a23 1F       		.uleb128 0x1f
 3532 0a24 DA020000 		.4byte	.LASF142
 3533 0a28 01       		.byte	0x1
 3534 0a29 9B06     		.2byte	0x69b
 3535 0a2b C2000000 		.4byte	0xc2
 3536 0a2f A8010000 		.4byte	.LLST77
 3537 0a33 00       		.byte	0
 3538 0a34 15       		.uleb128 0x15
 3539 0a35 04       		.byte	0x4
 3540 0a36 A3060000 		.4byte	0x6a3
 3541 0a3a 25       		.uleb128 0x25
 3542 0a3b 01       		.byte	0x1
 3543 0a3c E5030000 		.4byte	.LASF143
 3544 0a40 01       		.byte	0x1
 3545 0a41 5D06     		.2byte	0x65d
 3546 0a43 01       		.byte	0x1
 3547 0a44 52030000 		.4byte	0x352
 3548 0a48 14070000 		.4byte	.LFB94
 3549 0a4c 50070000 		.4byte	.LFE94
 3550 0a50 A3020000 		.4byte	.LLST71
 3551 0a54 01       		.byte	0x1
 3552 0a55 9A0A0000 		.4byte	0xa9a
 3553 0a59 1C       		.uleb128 0x1c
 3554 0a5a 9F050000 		.4byte	.LASF132
 3555 0a5e 01       		.byte	0x1
 3556 0a5f 5D06     		.2byte	0x65d
 3557 0a61 DE080000 		.4byte	0x8de
 3558 0a65 C3020000 		.4byte	.LLST72
 3559 0a69 1C       		.uleb128 0x1c
 3560 0a6a E2020000 		.4byte	.LASF144
 3561 0a6e 01       		.byte	0x1
 3562 0a6f 5E06     		.2byte	0x65e
 3563 0a71 9A0A0000 		.4byte	0xa9a
 3564 0a75 E4020000 		.4byte	.LLST73
 3565 0a79 1F       		.uleb128 0x1f
 3566 0a7a 57010000 		.4byte	.LASF145
 3567 0a7e 01       		.byte	0x1
 3568 0a7f 6006     		.2byte	0x660
 3569 0a81 C2000000 		.4byte	0xc2
 3570 0a85 05030000 		.4byte	.LLST74
 3571 0a89 1F       		.uleb128 0x1f
 3572 0a8a A4050000 		.4byte	.LASF146
 3573 0a8e 01       		.byte	0x1
 3574 0a8f 6106     		.2byte	0x661
 3575 0a91 C2000000 		.4byte	0xc2
 3576 0a95 18030000 		.4byte	.LLST75
ARM GAS  /tmp/ccD9AYux.s 			page 104


 3577 0a99 00       		.byte	0
 3578 0a9a 15       		.uleb128 0x15
 3579 0a9b 04       		.byte	0x4
 3580 0a9c 16060000 		.4byte	0x616
 3581 0aa0 25       		.uleb128 0x25
 3582 0aa1 01       		.byte	0x1
 3583 0aa2 BC070000 		.4byte	.LASF147
 3584 0aa6 01       		.byte	0x1
 3585 0aa7 2C06     		.2byte	0x62c
 3586 0aa9 01       		.byte	0x1
 3587 0aaa 52030000 		.4byte	0x352
 3588 0aae 9E060000 		.4byte	.LFB93
 3589 0ab2 14070000 		.4byte	.LFE93
 3590 0ab6 42030000 		.4byte	.LLST67
 3591 0aba 01       		.byte	0x1
 3592 0abb F00A0000 		.4byte	0xaf0
 3593 0abf 1C       		.uleb128 0x1c
 3594 0ac0 9F050000 		.4byte	.LASF132
 3595 0ac4 01       		.byte	0x1
 3596 0ac5 2C06     		.2byte	0x62c
 3597 0ac7 DE080000 		.4byte	0x8de
 3598 0acb 62030000 		.4byte	.LLST68
 3599 0acf 1C       		.uleb128 0x1c
 3600 0ad0 8D000000 		.4byte	.LASF148
 3601 0ad4 01       		.byte	0x1
 3602 0ad5 2C06     		.2byte	0x62c
 3603 0ad7 C2000000 		.4byte	0xc2
 3604 0adb 9C030000 		.4byte	.LLST69
 3605 0adf 1C       		.uleb128 0x1c
 3606 0ae0 35090000 		.4byte	.LASF149
 3607 0ae4 01       		.byte	0x1
 3608 0ae5 2D06     		.2byte	0x62d
 3609 0ae7 C2000000 		.4byte	0xc2
 3610 0aeb C8030000 		.4byte	.LLST70
 3611 0aef 00       		.byte	0
 3612 0af0 25       		.uleb128 0x25
 3613 0af1 01       		.byte	0x1
 3614 0af2 D1000000 		.4byte	.LASF150
 3615 0af6 01       		.byte	0x1
 3616 0af7 F305     		.2byte	0x5f3
 3617 0af9 01       		.byte	0x1
 3618 0afa 52030000 		.4byte	0x352
 3619 0afe 44060000 		.4byte	.LFB92
 3620 0b02 9E060000 		.4byte	.LFE92
 3621 0b06 F4030000 		.4byte	.LLST63
 3622 0b0a 01       		.byte	0x1
 3623 0b0b 400B0000 		.4byte	0xb40
 3624 0b0f 1C       		.uleb128 0x1c
 3625 0b10 9F050000 		.4byte	.LASF132
 3626 0b14 01       		.byte	0x1
 3627 0b15 F305     		.2byte	0x5f3
 3628 0b17 DE080000 		.4byte	0x8de
 3629 0b1b 14040000 		.4byte	.LLST64
 3630 0b1f 1C       		.uleb128 0x1c
 3631 0b20 8D000000 		.4byte	.LASF148
 3632 0b24 01       		.byte	0x1
 3633 0b25 F305     		.2byte	0x5f3
ARM GAS  /tmp/ccD9AYux.s 			page 105


 3634 0b27 C2000000 		.4byte	0xc2
 3635 0b2b 4E040000 		.4byte	.LLST65
 3636 0b2f 1C       		.uleb128 0x1c
 3637 0b30 35090000 		.4byte	.LASF149
 3638 0b34 01       		.byte	0x1
 3639 0b35 F405     		.2byte	0x5f4
 3640 0b37 C2000000 		.4byte	0xc2
 3641 0b3b 7A040000 		.4byte	.LLST66
 3642 0b3f 00       		.byte	0
 3643 0b40 25       		.uleb128 0x25
 3644 0b41 01       		.byte	0x1
 3645 0b42 0E060000 		.4byte	.LASF151
 3646 0b46 01       		.byte	0x1
 3647 0b47 BB05     		.2byte	0x5bb
 3648 0b49 01       		.byte	0x1
 3649 0b4a 52030000 		.4byte	0x352
 3650 0b4e EA050000 		.4byte	.LFB91
 3651 0b52 44060000 		.4byte	.LFE91
 3652 0b56 A6040000 		.4byte	.LLST59
 3653 0b5a 01       		.byte	0x1
 3654 0b5b 900B0000 		.4byte	0xb90
 3655 0b5f 1C       		.uleb128 0x1c
 3656 0b60 9F050000 		.4byte	.LASF132
 3657 0b64 01       		.byte	0x1
 3658 0b65 BB05     		.2byte	0x5bb
 3659 0b67 DE080000 		.4byte	0x8de
 3660 0b6b C6040000 		.4byte	.LLST60
 3661 0b6f 1C       		.uleb128 0x1c
 3662 0b70 8D000000 		.4byte	.LASF148
 3663 0b74 01       		.byte	0x1
 3664 0b75 BB05     		.2byte	0x5bb
 3665 0b77 C2000000 		.4byte	0xc2
 3666 0b7b 00050000 		.4byte	.LLST61
 3667 0b7f 1C       		.uleb128 0x1c
 3668 0b80 35090000 		.4byte	.LASF149
 3669 0b84 01       		.byte	0x1
 3670 0b85 BC05     		.2byte	0x5bc
 3671 0b87 C2000000 		.4byte	0xc2
 3672 0b8b 2C050000 		.4byte	.LLST62
 3673 0b8f 00       		.byte	0
 3674 0b90 25       		.uleb128 0x25
 3675 0b91 01       		.byte	0x1
 3676 0b92 E6050000 		.4byte	.LASF152
 3677 0b96 01       		.byte	0x1
 3678 0b97 7505     		.2byte	0x575
 3679 0b99 01       		.byte	0x1
 3680 0b9a 52030000 		.4byte	0x352
 3681 0b9e 90050000 		.4byte	.LFB90
 3682 0ba2 EA050000 		.4byte	.LFE90
 3683 0ba6 58050000 		.4byte	.LLST56
 3684 0baa 01       		.byte	0x1
 3685 0bab EC0B0000 		.4byte	0xbec
 3686 0baf 1C       		.uleb128 0x1c
 3687 0bb0 9F050000 		.4byte	.LASF132
 3688 0bb4 01       		.byte	0x1
 3689 0bb5 7505     		.2byte	0x575
 3690 0bb7 DE080000 		.4byte	0x8de
ARM GAS  /tmp/ccD9AYux.s 			page 106


 3691 0bbb 78050000 		.4byte	.LLST57
 3692 0bbf 1C       		.uleb128 0x1c
 3693 0bc0 49010000 		.4byte	.LASF153
 3694 0bc4 01       		.byte	0x1
 3695 0bc5 7505     		.2byte	0x575
 3696 0bc7 C2000000 		.4byte	0xc2
 3697 0bcb 96050000 		.4byte	.LLST58
 3698 0bcf 26       		.uleb128 0x26
 3699 0bd0 AC050000 		.4byte	.LVL101
 3700 0bd4 40080000 		.4byte	0x840
 3701 0bd8 27       		.uleb128 0x27
 3702 0bd9 01       		.byte	0x1
 3703 0bda 50       		.byte	0x50
 3704 0bdb 02       		.byte	0x2
 3705 0bdc 70       		.byte	0x70
 3706 0bdd 00       		.sleb128 0
 3707 0bde 27       		.uleb128 0x27
 3708 0bdf 01       		.byte	0x1
 3709 0be0 51       		.byte	0x51
 3710 0be1 03       		.byte	0x3
 3711 0be2 F3       		.byte	0xf3
 3712 0be3 01       		.uleb128 0x1
 3713 0be4 51       		.byte	0x51
 3714 0be5 27       		.uleb128 0x27
 3715 0be6 01       		.byte	0x1
 3716 0be7 52       		.byte	0x52
 3717 0be8 01       		.byte	0x1
 3718 0be9 30       		.byte	0x30
 3719 0bea 00       		.byte	0
 3720 0beb 00       		.byte	0
 3721 0bec 25       		.uleb128 0x25
 3722 0bed 01       		.byte	0x1
 3723 0bee 0F090000 		.4byte	.LASF154
 3724 0bf2 01       		.byte	0x1
 3725 0bf3 5605     		.2byte	0x556
 3726 0bf5 01       		.byte	0x1
 3727 0bf6 52030000 		.4byte	0x352
 3728 0bfa 66050000 		.4byte	.LFB89
 3729 0bfe 90050000 		.4byte	.LFE89
 3730 0c02 B7050000 		.4byte	.LLST53
 3731 0c06 01       		.byte	0x1
 3732 0c07 480C0000 		.4byte	0xc48
 3733 0c0b 1C       		.uleb128 0x1c
 3734 0c0c 9F050000 		.4byte	.LASF132
 3735 0c10 01       		.byte	0x1
 3736 0c11 5605     		.2byte	0x556
 3737 0c13 DE080000 		.4byte	0x8de
 3738 0c17 D7050000 		.4byte	.LLST54
 3739 0c1b 1C       		.uleb128 0x1c
 3740 0c1c 49010000 		.4byte	.LASF153
 3741 0c20 01       		.byte	0x1
 3742 0c21 5605     		.2byte	0x556
 3743 0c23 C2000000 		.4byte	0xc2
 3744 0c27 F5050000 		.4byte	.LLST55
 3745 0c2b 26       		.uleb128 0x26
 3746 0c2c 82050000 		.4byte	.LVL98
 3747 0c30 40080000 		.4byte	0x840
ARM GAS  /tmp/ccD9AYux.s 			page 107


 3748 0c34 27       		.uleb128 0x27
 3749 0c35 01       		.byte	0x1
 3750 0c36 50       		.byte	0x50
 3751 0c37 02       		.byte	0x2
 3752 0c38 70       		.byte	0x70
 3753 0c39 00       		.sleb128 0
 3754 0c3a 27       		.uleb128 0x27
 3755 0c3b 01       		.byte	0x1
 3756 0c3c 51       		.byte	0x51
 3757 0c3d 03       		.byte	0x3
 3758 0c3e F3       		.byte	0xf3
 3759 0c3f 01       		.uleb128 0x1
 3760 0c40 51       		.byte	0x51
 3761 0c41 27       		.uleb128 0x27
 3762 0c42 01       		.byte	0x1
 3763 0c43 52       		.byte	0x52
 3764 0c44 01       		.byte	0x1
 3765 0c45 34       		.byte	0x34
 3766 0c46 00       		.byte	0
 3767 0c47 00       		.byte	0
 3768 0c48 25       		.uleb128 0x25
 3769 0c49 01       		.byte	0x1
 3770 0c4a 190A0000 		.4byte	.LASF155
 3771 0c4e 01       		.byte	0x1
 3772 0c4f 3905     		.2byte	0x539
 3773 0c51 01       		.byte	0x1
 3774 0c52 52030000 		.4byte	0x352
 3775 0c56 14050000 		.4byte	.LFB88
 3776 0c5a 5E050000 		.4byte	.LFE88
 3777 0c5e 16060000 		.4byte	.LLST50
 3778 0c62 01       		.byte	0x1
 3779 0c63 A40C0000 		.4byte	0xca4
 3780 0c67 1C       		.uleb128 0x1c
 3781 0c68 9F050000 		.4byte	.LASF132
 3782 0c6c 01       		.byte	0x1
 3783 0c6d 3905     		.2byte	0x539
 3784 0c6f DE080000 		.4byte	0x8de
 3785 0c73 36060000 		.4byte	.LLST51
 3786 0c77 1C       		.uleb128 0x1c
 3787 0c78 49010000 		.4byte	.LASF153
 3788 0c7c 01       		.byte	0x1
 3789 0c7d 3905     		.2byte	0x539
 3790 0c7f C2000000 		.4byte	0xc2
 3791 0c83 54060000 		.4byte	.LLST52
 3792 0c87 26       		.uleb128 0x26
 3793 0c88 20050000 		.4byte	.LVL95
 3794 0c8c 40080000 		.4byte	0x840
 3795 0c90 27       		.uleb128 0x27
 3796 0c91 01       		.byte	0x1
 3797 0c92 50       		.byte	0x50
 3798 0c93 02       		.byte	0x2
 3799 0c94 70       		.byte	0x70
 3800 0c95 00       		.sleb128 0
 3801 0c96 27       		.uleb128 0x27
 3802 0c97 01       		.byte	0x1
 3803 0c98 51       		.byte	0x51
 3804 0c99 03       		.byte	0x3
ARM GAS  /tmp/ccD9AYux.s 			page 108


 3805 0c9a F3       		.byte	0xf3
 3806 0c9b 01       		.uleb128 0x1
 3807 0c9c 51       		.byte	0x51
 3808 0c9d 27       		.uleb128 0x27
 3809 0c9e 01       		.byte	0x1
 3810 0c9f 52       		.byte	0x52
 3811 0ca0 01       		.byte	0x1
 3812 0ca1 30       		.byte	0x30
 3813 0ca2 00       		.byte	0
 3814 0ca3 00       		.byte	0
 3815 0ca4 25       		.uleb128 0x25
 3816 0ca5 01       		.byte	0x1
 3817 0ca6 640C0000 		.4byte	.LASF156
 3818 0caa 01       		.byte	0x1
 3819 0cab 2005     		.2byte	0x520
 3820 0cad 01       		.byte	0x1
 3821 0cae 52030000 		.4byte	0x352
 3822 0cb2 FA040000 		.4byte	.LFB87
 3823 0cb6 14050000 		.4byte	.LFE87
 3824 0cba 75060000 		.4byte	.LLST47
 3825 0cbe 01       		.byte	0x1
 3826 0cbf 000D0000 		.4byte	0xd00
 3827 0cc3 1C       		.uleb128 0x1c
 3828 0cc4 9F050000 		.4byte	.LASF132
 3829 0cc8 01       		.byte	0x1
 3830 0cc9 2005     		.2byte	0x520
 3831 0ccb DE080000 		.4byte	0x8de
 3832 0ccf 95060000 		.4byte	.LLST48
 3833 0cd3 1C       		.uleb128 0x1c
 3834 0cd4 49010000 		.4byte	.LASF153
 3835 0cd8 01       		.byte	0x1
 3836 0cd9 2005     		.2byte	0x520
 3837 0cdb C2000000 		.4byte	0xc2
 3838 0cdf B3060000 		.4byte	.LLST49
 3839 0ce3 26       		.uleb128 0x26
 3840 0ce4 06050000 		.4byte	.LVL92
 3841 0ce8 40080000 		.4byte	0x840
 3842 0cec 27       		.uleb128 0x27
 3843 0ced 01       		.byte	0x1
 3844 0cee 50       		.byte	0x50
 3845 0cef 02       		.byte	0x2
 3846 0cf0 70       		.byte	0x70
 3847 0cf1 00       		.sleb128 0
 3848 0cf2 27       		.uleb128 0x27
 3849 0cf3 01       		.byte	0x1
 3850 0cf4 51       		.byte	0x51
 3851 0cf5 03       		.byte	0x3
 3852 0cf6 F3       		.byte	0xf3
 3853 0cf7 01       		.uleb128 0x1
 3854 0cf8 51       		.byte	0x51
 3855 0cf9 27       		.uleb128 0x27
 3856 0cfa 01       		.byte	0x1
 3857 0cfb 52       		.byte	0x52
 3858 0cfc 01       		.byte	0x1
 3859 0cfd 34       		.byte	0x34
 3860 0cfe 00       		.byte	0
 3861 0cff 00       		.byte	0
ARM GAS  /tmp/ccD9AYux.s 			page 109


 3862 0d00 25       		.uleb128 0x25
 3863 0d01 01       		.byte	0x1
 3864 0d02 98070000 		.4byte	.LASF157
 3865 0d06 01       		.byte	0x1
 3866 0d07 CD04     		.2byte	0x4cd
 3867 0d09 01       		.byte	0x1
 3868 0d0a 52030000 		.4byte	0x352
 3869 0d0e 6C040000 		.4byte	.LFB86
 3870 0d12 F6040000 		.4byte	.LFE86
 3871 0d16 D4060000 		.4byte	.LLST44
 3872 0d1a 01       		.byte	0x1
 3873 0d1b 640D0000 		.4byte	0xd64
 3874 0d1f 1C       		.uleb128 0x1c
 3875 0d20 9F050000 		.4byte	.LASF132
 3876 0d24 01       		.byte	0x1
 3877 0d25 CD04     		.2byte	0x4cd
 3878 0d27 DE080000 		.4byte	0x8de
 3879 0d2b F4060000 		.4byte	.LLST45
 3880 0d2f 1C       		.uleb128 0x1c
 3881 0d30 4E070000 		.4byte	.LASF115
 3882 0d34 01       		.byte	0x1
 3883 0d35 CD04     		.2byte	0x4cd
 3884 0d37 C2000000 		.4byte	0xc2
 3885 0d3b 3E070000 		.4byte	.LLST46
 3886 0d3f 20       		.uleb128 0x20
 3887 0d40 8C040000 		.4byte	.LVL84
 3888 0d44 FB130000 		.4byte	0x13fb
 3889 0d48 26       		.uleb128 0x26
 3890 0d49 96040000 		.4byte	.LVL85
 3891 0d4d 40080000 		.4byte	0x840
 3892 0d51 27       		.uleb128 0x27
 3893 0d52 01       		.byte	0x1
 3894 0d53 50       		.byte	0x50
 3895 0d54 02       		.byte	0x2
 3896 0d55 70       		.byte	0x70
 3897 0d56 00       		.sleb128 0
 3898 0d57 27       		.uleb128 0x27
 3899 0d58 01       		.byte	0x1
 3900 0d59 51       		.byte	0x51
 3901 0d5a 02       		.byte	0x2
 3902 0d5b 75       		.byte	0x75
 3903 0d5c 00       		.sleb128 0
 3904 0d5d 27       		.uleb128 0x27
 3905 0d5e 01       		.byte	0x1
 3906 0d5f 52       		.byte	0x52
 3907 0d60 01       		.byte	0x1
 3908 0d61 30       		.byte	0x30
 3909 0d62 00       		.byte	0
 3910 0d63 00       		.byte	0
 3911 0d64 25       		.uleb128 0x25
 3912 0d65 01       		.byte	0x1
 3913 0d66 C1020000 		.4byte	.LASF158
 3914 0d6a 01       		.byte	0x1
 3915 0d6b 5804     		.2byte	0x458
 3916 0d6d 01       		.byte	0x1
 3917 0d6e 52030000 		.4byte	0x352
 3918 0d72 92030000 		.4byte	.LFB85
ARM GAS  /tmp/ccD9AYux.s 			page 110


 3919 0d76 68040000 		.4byte	.LFE85
 3920 0d7a 67070000 		.4byte	.LLST38
 3921 0d7e 01       		.byte	0x1
 3922 0d7f 0E0E0000 		.4byte	0xe0e
 3923 0d83 1C       		.uleb128 0x1c
 3924 0d84 9F050000 		.4byte	.LASF132
 3925 0d88 01       		.byte	0x1
 3926 0d89 5804     		.2byte	0x458
 3927 0d8b DE080000 		.4byte	0x8de
 3928 0d8f 87070000 		.4byte	.LLST39
 3929 0d93 1C       		.uleb128 0x1c
 3930 0d94 4E070000 		.4byte	.LASF115
 3931 0d98 01       		.byte	0x1
 3932 0d99 5804     		.2byte	0x458
 3933 0d9b C2000000 		.4byte	0xc2
 3934 0d9f A5070000 		.4byte	.LLST40
 3935 0da3 1C       		.uleb128 0x1c
 3936 0da4 DB010000 		.4byte	.LASF159
 3937 0da8 01       		.byte	0x1
 3938 0da9 5804     		.2byte	0x458
 3939 0dab 0E0E0000 		.4byte	0xe0e
 3940 0daf C3070000 		.4byte	.LLST41
 3941 0db3 1C       		.uleb128 0x1c
 3942 0db4 AC0A0000 		.4byte	.LASF160
 3943 0db8 01       		.byte	0x1
 3944 0db9 5804     		.2byte	0x458
 3945 0dbb A7000000 		.4byte	0xa7
 3946 0dbf 3A080000 		.4byte	.LLST42
 3947 0dc3 1F       		.uleb128 0x1f
 3948 0dc4 A4050000 		.4byte	.LASF146
 3949 0dc8 01       		.byte	0x1
 3950 0dc9 5A04     		.2byte	0x45a
 3951 0dcb C2000000 		.4byte	0xc2
 3952 0dcf A6080000 		.4byte	.LLST43
 3953 0dd3 20       		.uleb128 0x20
 3954 0dd4 DA030000 		.4byte	.LVL73
 3955 0dd8 09140000 		.4byte	0x1409
 3956 0ddc 28       		.uleb128 0x28
 3957 0ddd F2030000 		.4byte	.LVL74
 3958 0de1 40080000 		.4byte	0x840
 3959 0de5 FB0D0000 		.4byte	0xdfb
 3960 0de9 27       		.uleb128 0x27
 3961 0dea 01       		.byte	0x1
 3962 0deb 50       		.byte	0x50
 3963 0dec 02       		.byte	0x2
 3964 0ded 70       		.byte	0x70
 3965 0dee 00       		.sleb128 0
 3966 0def 27       		.uleb128 0x27
 3967 0df0 01       		.byte	0x1
 3968 0df1 51       		.byte	0x51
 3969 0df2 02       		.byte	0x2
 3970 0df3 75       		.byte	0x75
 3971 0df4 00       		.sleb128 0
 3972 0df5 27       		.uleb128 0x27
 3973 0df6 01       		.byte	0x1
 3974 0df7 52       		.byte	0x52
 3975 0df8 01       		.byte	0x1
ARM GAS  /tmp/ccD9AYux.s 			page 111


 3976 0df9 34       		.byte	0x34
 3977 0dfa 00       		.byte	0
 3978 0dfb 20       		.uleb128 0x20
 3979 0dfc 28040000 		.4byte	.LVL79
 3980 0e00 09140000 		.4byte	0x1409
 3981 0e04 20       		.uleb128 0x20
 3982 0e05 4C040000 		.4byte	.LVL81
 3983 0e09 09140000 		.4byte	0x1409
 3984 0e0d 00       		.byte	0
 3985 0e0e 15       		.uleb128 0x15
 3986 0e0f 04       		.byte	0x4
 3987 0e10 C2000000 		.4byte	0xc2
 3988 0e14 25       		.uleb128 0x25
 3989 0e15 01       		.byte	0x1
 3990 0e16 3B020000 		.4byte	.LASF161
 3991 0e1a 01       		.byte	0x1
 3992 0e1b 1504     		.2byte	0x415
 3993 0e1d 01       		.byte	0x1
 3994 0e1e 52030000 		.4byte	0x352
 3995 0e22 0A030000 		.4byte	.LFB84
 3996 0e26 8E030000 		.4byte	.LFE84
 3997 0e2a C8080000 		.4byte	.LLST34
 3998 0e2e 01       		.byte	0x1
 3999 0e2f 790E0000 		.4byte	0xe79
 4000 0e33 1C       		.uleb128 0x1c
 4001 0e34 9F050000 		.4byte	.LASF132
 4002 0e38 01       		.byte	0x1
 4003 0e39 1504     		.2byte	0x415
 4004 0e3b DE080000 		.4byte	0x8de
 4005 0e3f E8080000 		.4byte	.LLST35
 4006 0e43 1C       		.uleb128 0x1c
 4007 0e44 4E070000 		.4byte	.LASF115
 4008 0e48 01       		.byte	0x1
 4009 0e49 1504     		.2byte	0x415
 4010 0e4b C2000000 		.4byte	0xc2
 4011 0e4f 11090000 		.4byte	.LLST36
 4012 0e53 1F       		.uleb128 0x1f
 4013 0e54 B0030000 		.4byte	.LASF162
 4014 0e58 01       		.byte	0x1
 4015 0e59 1704     		.2byte	0x417
 4016 0e5b C2000000 		.4byte	0xc2
 4017 0e5f 3D090000 		.4byte	.LLST37
 4018 0e63 26       		.uleb128 0x26
 4019 0e64 2A030000 		.4byte	.LVL63
 4020 0e68 40080000 		.4byte	0x840
 4021 0e6c 27       		.uleb128 0x27
 4022 0e6d 01       		.byte	0x1
 4023 0e6e 50       		.byte	0x50
 4024 0e6f 02       		.byte	0x2
 4025 0e70 70       		.byte	0x70
 4026 0e71 00       		.sleb128 0
 4027 0e72 27       		.uleb128 0x27
 4028 0e73 01       		.byte	0x1
 4029 0e74 52       		.byte	0x52
 4030 0e75 01       		.byte	0x1
 4031 0e76 30       		.byte	0x30
 4032 0e77 00       		.byte	0
ARM GAS  /tmp/ccD9AYux.s 			page 112


 4033 0e78 00       		.byte	0
 4034 0e79 25       		.uleb128 0x25
 4035 0e7a 01       		.byte	0x1
 4036 0e7b 23000000 		.4byte	.LASF163
 4037 0e7f 01       		.byte	0x1
 4038 0e80 D403     		.2byte	0x3d4
 4039 0e82 01       		.byte	0x1
 4040 0e83 52030000 		.4byte	0x352
 4041 0e87 B0020000 		.4byte	.LFB83
 4042 0e8b 06030000 		.4byte	.LFE83
 4043 0e8f 50090000 		.4byte	.LLST30
 4044 0e93 01       		.byte	0x1
 4045 0e94 DE0E0000 		.4byte	0xede
 4046 0e98 1C       		.uleb128 0x1c
 4047 0e99 9F050000 		.4byte	.LASF132
 4048 0e9d 01       		.byte	0x1
 4049 0e9e D403     		.2byte	0x3d4
 4050 0ea0 DE080000 		.4byte	0x8de
 4051 0ea4 70090000 		.4byte	.LLST31
 4052 0ea8 1C       		.uleb128 0x1c
 4053 0ea9 4E070000 		.4byte	.LASF115
 4054 0ead 01       		.byte	0x1
 4055 0eae D403     		.2byte	0x3d4
 4056 0eb0 C2000000 		.4byte	0xc2
 4057 0eb4 8E090000 		.4byte	.LLST32
 4058 0eb8 1F       		.uleb128 0x1f
 4059 0eb9 A4050000 		.4byte	.LASF146
 4060 0ebd 01       		.byte	0x1
 4061 0ebe D603     		.2byte	0x3d6
 4062 0ec0 C2000000 		.4byte	0xc2
 4063 0ec4 BA090000 		.4byte	.LLST33
 4064 0ec8 26       		.uleb128 0x26
 4065 0ec9 D6020000 		.4byte	.LVL56
 4066 0ecd 40080000 		.4byte	0x840
 4067 0ed1 27       		.uleb128 0x27
 4068 0ed2 01       		.byte	0x1
 4069 0ed3 50       		.byte	0x50
 4070 0ed4 02       		.byte	0x2
 4071 0ed5 70       		.byte	0x70
 4072 0ed6 00       		.sleb128 0
 4073 0ed7 27       		.uleb128 0x27
 4074 0ed8 01       		.byte	0x1
 4075 0ed9 52       		.byte	0x52
 4076 0eda 01       		.byte	0x1
 4077 0edb 34       		.byte	0x34
 4078 0edc 00       		.byte	0
 4079 0edd 00       		.byte	0
 4080 0ede 29       		.uleb128 0x29
 4081 0edf 01       		.byte	0x1
 4082 0ee0 B9060000 		.4byte	.LASF165
 4083 0ee4 01       		.byte	0x1
 4084 0ee5 B703     		.2byte	0x3b7
 4085 0ee7 01       		.byte	0x1
 4086 0ee8 52030000 		.4byte	0x352
 4087 0eec 090F0000 		.4byte	0xf09
 4088 0ef0 23       		.uleb128 0x23
 4089 0ef1 9F050000 		.4byte	.LASF132
ARM GAS  /tmp/ccD9AYux.s 			page 113


 4090 0ef5 01       		.byte	0x1
 4091 0ef6 B703     		.2byte	0x3b7
 4092 0ef8 DE080000 		.4byte	0x8de
 4093 0efc 23       		.uleb128 0x23
 4094 0efd 4E070000 		.4byte	.LASF115
 4095 0f01 01       		.byte	0x1
 4096 0f02 B703     		.2byte	0x3b7
 4097 0f04 C2000000 		.4byte	0xc2
 4098 0f08 00       		.byte	0
 4099 0f09 25       		.uleb128 0x25
 4100 0f0a 01       		.byte	0x1
 4101 0f0b 790B0000 		.4byte	.LASF166
 4102 0f0f 01       		.byte	0x1
 4103 0f10 9503     		.2byte	0x395
 4104 0f12 01       		.byte	0x1
 4105 0f13 52030000 		.4byte	0x352
 4106 0f17 80020000 		.4byte	.LFB81
 4107 0f1b AC020000 		.4byte	.LFE81
 4108 0f1f DC090000 		.4byte	.LLST26
 4109 0f23 01       		.byte	0x1
 4110 0f24 750F0000 		.4byte	0xf75
 4111 0f28 1C       		.uleb128 0x1c
 4112 0f29 9F050000 		.4byte	.LASF132
 4113 0f2d 01       		.byte	0x1
 4114 0f2e 9503     		.2byte	0x395
 4115 0f30 DE080000 		.4byte	0x8de
 4116 0f34 FC090000 		.4byte	.LLST27
 4117 0f38 1C       		.uleb128 0x1c
 4118 0f39 4E070000 		.4byte	.LASF115
 4119 0f3d 01       		.byte	0x1
 4120 0f3e 9503     		.2byte	0x395
 4121 0f40 C2000000 		.4byte	0xc2
 4122 0f44 1A0A0000 		.4byte	.LLST28
 4123 0f48 1F       		.uleb128 0x1f
 4124 0f49 A4050000 		.4byte	.LASF146
 4125 0f4d 01       		.byte	0x1
 4126 0f4e 9703     		.2byte	0x397
 4127 0f50 C2000000 		.4byte	0xc2
 4128 0f54 3B0A0000 		.4byte	.LLST29
 4129 0f58 26       		.uleb128 0x26
 4130 0f59 8C020000 		.4byte	.LVL50
 4131 0f5d 40080000 		.4byte	0x840
 4132 0f61 27       		.uleb128 0x27
 4133 0f62 01       		.byte	0x1
 4134 0f63 50       		.byte	0x50
 4135 0f64 02       		.byte	0x2
 4136 0f65 70       		.byte	0x70
 4137 0f66 00       		.sleb128 0
 4138 0f67 27       		.uleb128 0x27
 4139 0f68 01       		.byte	0x1
 4140 0f69 51       		.byte	0x51
 4141 0f6a 03       		.byte	0x3
 4142 0f6b F3       		.byte	0xf3
 4143 0f6c 01       		.uleb128 0x1
 4144 0f6d 51       		.byte	0x51
 4145 0f6e 27       		.uleb128 0x27
 4146 0f6f 01       		.byte	0x1
ARM GAS  /tmp/ccD9AYux.s 			page 114


 4147 0f70 52       		.byte	0x52
 4148 0f71 01       		.byte	0x1
 4149 0f72 34       		.byte	0x34
 4150 0f73 00       		.byte	0
 4151 0f74 00       		.byte	0
 4152 0f75 29       		.uleb128 0x29
 4153 0f76 01       		.byte	0x1
 4154 0f77 EC010000 		.4byte	.LASF167
 4155 0f7b 01       		.byte	0x1
 4156 0f7c 3603     		.2byte	0x336
 4157 0f7e 01       		.byte	0x1
 4158 0f7f 52030000 		.4byte	0x352
 4159 0f83 A00F0000 		.4byte	0xfa0
 4160 0f87 23       		.uleb128 0x23
 4161 0f88 9F050000 		.4byte	.LASF132
 4162 0f8c 01       		.byte	0x1
 4163 0f8d 3603     		.2byte	0x336
 4164 0f8f DE080000 		.4byte	0x8de
 4165 0f93 23       		.uleb128 0x23
 4166 0f94 4E070000 		.4byte	.LASF115
 4167 0f98 01       		.byte	0x1
 4168 0f99 3603     		.2byte	0x336
 4169 0f9b C2000000 		.4byte	0xc2
 4170 0f9f 00       		.byte	0
 4171 0fa0 29       		.uleb128 0x29
 4172 0fa1 01       		.byte	0x1
 4173 0fa2 51090000 		.4byte	.LASF168
 4174 0fa6 01       		.byte	0x1
 4175 0fa7 C002     		.2byte	0x2c0
 4176 0fa9 01       		.byte	0x1
 4177 0faa 52030000 		.4byte	0x352
 4178 0fae EF0F0000 		.4byte	0xfef
 4179 0fb2 23       		.uleb128 0x23
 4180 0fb3 9F050000 		.4byte	.LASF132
 4181 0fb7 01       		.byte	0x1
 4182 0fb8 C002     		.2byte	0x2c0
 4183 0fba DE080000 		.4byte	0x8de
 4184 0fbe 23       		.uleb128 0x23
 4185 0fbf 4E070000 		.4byte	.LASF115
 4186 0fc3 01       		.byte	0x1
 4187 0fc4 C002     		.2byte	0x2c0
 4188 0fc6 C2000000 		.4byte	0xc2
 4189 0fca 23       		.uleb128 0x23
 4190 0fcb DB010000 		.4byte	.LASF159
 4191 0fcf 01       		.byte	0x1
 4192 0fd0 C002     		.2byte	0x2c0
 4193 0fd2 0E0E0000 		.4byte	0xe0e
 4194 0fd6 23       		.uleb128 0x23
 4195 0fd7 AC0A0000 		.4byte	.LASF160
 4196 0fdb 01       		.byte	0x1
 4197 0fdc C002     		.2byte	0x2c0
 4198 0fde A7000000 		.4byte	0xa7
 4199 0fe2 2A       		.uleb128 0x2a
 4200 0fe3 A4050000 		.4byte	.LASF146
 4201 0fe7 01       		.byte	0x1
 4202 0fe8 C202     		.2byte	0x2c2
 4203 0fea C2000000 		.4byte	0xc2
ARM GAS  /tmp/ccD9AYux.s 			page 115


 4204 0fee 00       		.byte	0
 4205 0fef 29       		.uleb128 0x29
 4206 0ff0 01       		.byte	0x1
 4207 0ff1 75010000 		.4byte	.LASF169
 4208 0ff5 01       		.byte	0x1
 4209 0ff6 7E02     		.2byte	0x27e
 4210 0ff8 01       		.byte	0x1
 4211 0ff9 52030000 		.4byte	0x352
 4212 0ffd 26100000 		.4byte	0x1026
 4213 1001 23       		.uleb128 0x23
 4214 1002 9F050000 		.4byte	.LASF132
 4215 1006 01       		.byte	0x1
 4216 1007 7E02     		.2byte	0x27e
 4217 1009 DE080000 		.4byte	0x8de
 4218 100d 23       		.uleb128 0x23
 4219 100e 4E070000 		.4byte	.LASF115
 4220 1012 01       		.byte	0x1
 4221 1013 7E02     		.2byte	0x27e
 4222 1015 C2000000 		.4byte	0xc2
 4223 1019 2A       		.uleb128 0x2a
 4224 101a B0030000 		.4byte	.LASF162
 4225 101e 01       		.byte	0x1
 4226 101f 8002     		.2byte	0x280
 4227 1021 C2000000 		.4byte	0xc2
 4228 1025 00       		.byte	0
 4229 1026 29       		.uleb128 0x29
 4230 1027 01       		.byte	0x1
 4231 1028 E4090000 		.4byte	.LASF170
 4232 102c 01       		.byte	0x1
 4233 102d 3C02     		.2byte	0x23c
 4234 102f 01       		.byte	0x1
 4235 1030 52030000 		.4byte	0x352
 4236 1034 5D100000 		.4byte	0x105d
 4237 1038 23       		.uleb128 0x23
 4238 1039 9F050000 		.4byte	.LASF132
 4239 103d 01       		.byte	0x1
 4240 103e 3C02     		.2byte	0x23c
 4241 1040 DE080000 		.4byte	0x8de
 4242 1044 23       		.uleb128 0x23
 4243 1045 4E070000 		.4byte	.LASF115
 4244 1049 01       		.byte	0x1
 4245 104a 3C02     		.2byte	0x23c
 4246 104c C2000000 		.4byte	0xc2
 4247 1050 2A       		.uleb128 0x2a
 4248 1051 A4050000 		.4byte	.LASF146
 4249 1055 01       		.byte	0x1
 4250 1056 3E02     		.2byte	0x23e
 4251 1058 C2000000 		.4byte	0xc2
 4252 105c 00       		.byte	0
 4253 105d 29       		.uleb128 0x29
 4254 105e 01       		.byte	0x1
 4255 105f DB060000 		.4byte	.LASF171
 4256 1063 01       		.byte	0x1
 4257 1064 1F02     		.2byte	0x21f
 4258 1066 01       		.byte	0x1
 4259 1067 52030000 		.4byte	0x352
 4260 106b 88100000 		.4byte	0x1088
ARM GAS  /tmp/ccD9AYux.s 			page 116


 4261 106f 23       		.uleb128 0x23
 4262 1070 9F050000 		.4byte	.LASF132
 4263 1074 01       		.byte	0x1
 4264 1075 1F02     		.2byte	0x21f
 4265 1077 DE080000 		.4byte	0x8de
 4266 107b 23       		.uleb128 0x23
 4267 107c 4E070000 		.4byte	.LASF115
 4268 1080 01       		.byte	0x1
 4269 1081 1F02     		.2byte	0x21f
 4270 1083 C2000000 		.4byte	0xc2
 4271 1087 00       		.byte	0
 4272 1088 29       		.uleb128 0x29
 4273 1089 01       		.byte	0x1
 4274 108a 3A070000 		.4byte	.LASF172
 4275 108e 01       		.byte	0x1
 4276 108f FC01     		.2byte	0x1fc
 4277 1091 01       		.byte	0x1
 4278 1092 52030000 		.4byte	0x352
 4279 1096 BF100000 		.4byte	0x10bf
 4280 109a 23       		.uleb128 0x23
 4281 109b 9F050000 		.4byte	.LASF132
 4282 109f 01       		.byte	0x1
 4283 10a0 FC01     		.2byte	0x1fc
 4284 10a2 DE080000 		.4byte	0x8de
 4285 10a6 23       		.uleb128 0x23
 4286 10a7 4E070000 		.4byte	.LASF115
 4287 10ab 01       		.byte	0x1
 4288 10ac FC01     		.2byte	0x1fc
 4289 10ae C2000000 		.4byte	0xc2
 4290 10b2 2A       		.uleb128 0x2a
 4291 10b3 A4050000 		.4byte	.LASF146
 4292 10b7 01       		.byte	0x1
 4293 10b8 FE01     		.2byte	0x1fe
 4294 10ba C2000000 		.4byte	0xc2
 4295 10be 00       		.byte	0
 4296 10bf 25       		.uleb128 0x25
 4297 10c0 01       		.byte	0x1
 4298 10c1 8E0B0000 		.4byte	.LASF173
 4299 10c5 01       		.byte	0x1
 4300 10c6 C401     		.2byte	0x1c4
 4301 10c8 01       		.byte	0x1
 4302 10c9 52030000 		.4byte	0x352
 4303 10cd 40020000 		.4byte	.LFB74
 4304 10d1 80020000 		.4byte	.LFE74
 4305 10d5 5D0A0000 		.4byte	.LLST24
 4306 10d9 01       		.byte	0x1
 4307 10da 10110000 		.4byte	0x1110
 4308 10de 1C       		.uleb128 0x1c
 4309 10df 9F050000 		.4byte	.LASF132
 4310 10e3 01       		.byte	0x1
 4311 10e4 C401     		.2byte	0x1c4
 4312 10e6 DE080000 		.4byte	0x8de
 4313 10ea 7D0A0000 		.4byte	.LLST25
 4314 10ee 28       		.uleb128 0x28
 4315 10ef 4E020000 		.4byte	.LVL46
 4316 10f3 17140000 		.4byte	0x1417
 4317 10f7 06110000 		.4byte	0x1106
ARM GAS  /tmp/ccD9AYux.s 			page 117


 4318 10fb 27       		.uleb128 0x27
 4319 10fc 01       		.byte	0x1
 4320 10fd 51       		.byte	0x51
 4321 10fe 01       		.byte	0x1
 4322 10ff 30       		.byte	0x30
 4323 1100 27       		.uleb128 0x27
 4324 1101 01       		.byte	0x1
 4325 1102 52       		.byte	0x52
 4326 1103 01       		.byte	0x1
 4327 1104 30       		.byte	0x30
 4328 1105 00       		.byte	0
 4329 1106 20       		.uleb128 0x20
 4330 1107 5E020000 		.4byte	.LVL47
 4331 110b FB130000 		.4byte	0x13fb
 4332 110f 00       		.byte	0
 4333 1110 25       		.uleb128 0x25
 4334 1111 01       		.byte	0x1
 4335 1112 7E0C0000 		.4byte	.LASF174
 4336 1116 01       		.byte	0x1
 4337 1117 8801     		.2byte	0x188
 4338 1119 01       		.byte	0x1
 4339 111a 52030000 		.4byte	0x352
 4340 111e C4010000 		.4byte	.LFB73
 4341 1122 40020000 		.4byte	.LFE73
 4342 1126 9B0A0000 		.4byte	.LLST19
 4343 112a 01       		.byte	0x1
 4344 112b 9E110000 		.4byte	0x119e
 4345 112f 1C       		.uleb128 0x1c
 4346 1130 9F050000 		.4byte	.LASF132
 4347 1134 01       		.byte	0x1
 4348 1135 8801     		.2byte	0x188
 4349 1137 DE080000 		.4byte	0x8de
 4350 113b BB0A0000 		.4byte	.LLST20
 4351 113f 1C       		.uleb128 0x1c
 4352 1140 DB010000 		.4byte	.LASF159
 4353 1144 01       		.byte	0x1
 4354 1145 8801     		.2byte	0x188
 4355 1147 0E0E0000 		.4byte	0xe0e
 4356 114b E70A0000 		.4byte	.LLST21
 4357 114f 1C       		.uleb128 0x1c
 4358 1150 AC0A0000 		.4byte	.LASF160
 4359 1154 01       		.byte	0x1
 4360 1155 8801     		.2byte	0x188
 4361 1157 A7000000 		.4byte	0xa7
 4362 115b 290B0000 		.4byte	.LLST22
 4363 115f 1F       		.uleb128 0x1f
 4364 1160 A4050000 		.4byte	.LASF146
 4365 1164 01       		.byte	0x1
 4366 1165 8A01     		.2byte	0x18a
 4367 1167 C2000000 		.4byte	0xc2
 4368 116b 630B0000 		.4byte	.LLST23
 4369 116f 28       		.uleb128 0x28
 4370 1170 F6010000 		.4byte	.LVL38
 4371 1174 17140000 		.4byte	0x1417
 4372 1178 87110000 		.4byte	0x1187
 4373 117c 27       		.uleb128 0x27
 4374 117d 01       		.byte	0x1
ARM GAS  /tmp/ccD9AYux.s 			page 118


 4375 117e 51       		.byte	0x51
 4376 117f 01       		.byte	0x1
 4377 1180 30       		.byte	0x30
 4378 1181 27       		.uleb128 0x27
 4379 1182 01       		.byte	0x1
 4380 1183 52       		.byte	0x52
 4381 1184 01       		.byte	0x1
 4382 1185 31       		.byte	0x31
 4383 1186 00       		.byte	0
 4384 1187 26       		.uleb128 0x26
 4385 1188 10020000 		.4byte	.LVL39
 4386 118c 09140000 		.4byte	0x1409
 4387 1190 27       		.uleb128 0x27
 4388 1191 01       		.byte	0x1
 4389 1192 52       		.byte	0x52
 4390 1193 02       		.byte	0x2
 4391 1194 75       		.byte	0x75
 4392 1195 00       		.sleb128 0
 4393 1196 27       		.uleb128 0x27
 4394 1197 01       		.byte	0x1
 4395 1198 53       		.byte	0x53
 4396 1199 02       		.byte	0x2
 4397 119a 76       		.byte	0x76
 4398 119b 00       		.sleb128 0
 4399 119c 00       		.byte	0
 4400 119d 00       		.byte	0
 4401 119e 25       		.uleb128 0x25
 4402 119f 01       		.byte	0x1
 4403 11a0 8F0A0000 		.4byte	.LASF175
 4404 11a4 01       		.byte	0x1
 4405 11a5 6E01     		.2byte	0x16e
 4406 11a7 01       		.byte	0x1
 4407 11a8 52030000 		.4byte	0x352
 4408 11ac 8C010000 		.4byte	.LFB72
 4409 11b0 C4010000 		.4byte	.LFE72
 4410 11b4 850B0000 		.4byte	.LLST17
 4411 11b8 01       		.byte	0x1
 4412 11b9 E2110000 		.4byte	0x11e2
 4413 11bd 1C       		.uleb128 0x1c
 4414 11be 9F050000 		.4byte	.LASF132
 4415 11c2 01       		.byte	0x1
 4416 11c3 6E01     		.2byte	0x16e
 4417 11c5 DE080000 		.4byte	0x8de
 4418 11c9 A50B0000 		.4byte	.LLST18
 4419 11cd 26       		.uleb128 0x26
 4420 11ce 9A010000 		.4byte	.LVL31
 4421 11d2 17140000 		.4byte	0x1417
 4422 11d6 27       		.uleb128 0x27
 4423 11d7 01       		.byte	0x1
 4424 11d8 51       		.byte	0x51
 4425 11d9 01       		.byte	0x1
 4426 11da 30       		.byte	0x30
 4427 11db 27       		.uleb128 0x27
 4428 11dc 01       		.byte	0x1
 4429 11dd 52       		.byte	0x52
 4430 11de 01       		.byte	0x1
 4431 11df 30       		.byte	0x30
ARM GAS  /tmp/ccD9AYux.s 			page 119


 4432 11e0 00       		.byte	0
 4433 11e1 00       		.byte	0
 4434 11e2 25       		.uleb128 0x25
 4435 11e3 01       		.byte	0x1
 4436 11e4 1F030000 		.4byte	.LASF176
 4437 11e8 01       		.byte	0x1
 4438 11e9 5001     		.2byte	0x150
 4439 11eb 01       		.byte	0x1
 4440 11ec 52030000 		.4byte	0x352
 4441 11f0 5E010000 		.4byte	.LFB71
 4442 11f4 8C010000 		.4byte	.LFE71
 4443 11f8 C30B0000 		.4byte	.LLST14
 4444 11fc 01       		.byte	0x1
 4445 11fd 36120000 		.4byte	0x1236
 4446 1201 1C       		.uleb128 0x1c
 4447 1202 9F050000 		.4byte	.LASF132
 4448 1206 01       		.byte	0x1
 4449 1207 5001     		.2byte	0x150
 4450 1209 DE080000 		.4byte	0x8de
 4451 120d E30B0000 		.4byte	.LLST15
 4452 1211 1F       		.uleb128 0x1f
 4453 1212 A4050000 		.4byte	.LASF146
 4454 1216 01       		.byte	0x1
 4455 1217 5201     		.2byte	0x152
 4456 1219 C2000000 		.4byte	0xc2
 4457 121d 010C0000 		.4byte	.LLST16
 4458 1221 26       		.uleb128 0x26
 4459 1222 74010000 		.4byte	.LVL25
 4460 1226 17140000 		.4byte	0x1417
 4461 122a 27       		.uleb128 0x27
 4462 122b 01       		.byte	0x1
 4463 122c 51       		.byte	0x51
 4464 122d 01       		.byte	0x1
 4465 122e 30       		.byte	0x30
 4466 122f 27       		.uleb128 0x27
 4467 1230 01       		.byte	0x1
 4468 1231 52       		.byte	0x52
 4469 1232 01       		.byte	0x1
 4470 1233 31       		.byte	0x31
 4471 1234 00       		.byte	0
 4472 1235 00       		.byte	0
 4473 1236 25       		.uleb128 0x25
 4474 1237 01       		.byte	0x1
 4475 1238 14080000 		.4byte	.LASF177
 4476 123c 01       		.byte	0x1
 4477 123d 3B01     		.2byte	0x13b
 4478 123f 01       		.byte	0x1
 4479 1240 52030000 		.4byte	0x352
 4480 1244 2E010000 		.4byte	.LFB70
 4481 1248 5E010000 		.4byte	.LFE70
 4482 124c 230C0000 		.4byte	.LLST12
 4483 1250 01       		.byte	0x1
 4484 1251 7A120000 		.4byte	0x127a
 4485 1255 1C       		.uleb128 0x1c
 4486 1256 9F050000 		.4byte	.LASF132
 4487 125a 01       		.byte	0x1
 4488 125b 3B01     		.2byte	0x13b
ARM GAS  /tmp/ccD9AYux.s 			page 120


 4489 125d DE080000 		.4byte	0x8de
 4490 1261 430C0000 		.4byte	.LLST13
 4491 1265 26       		.uleb128 0x26
 4492 1266 3C010000 		.4byte	.LVL22
 4493 126a 17140000 		.4byte	0x1417
 4494 126e 27       		.uleb128 0x27
 4495 126f 01       		.byte	0x1
 4496 1270 51       		.byte	0x51
 4497 1271 01       		.byte	0x1
 4498 1272 30       		.byte	0x30
 4499 1273 27       		.uleb128 0x27
 4500 1274 01       		.byte	0x1
 4501 1275 52       		.byte	0x52
 4502 1276 01       		.byte	0x1
 4503 1277 30       		.byte	0x30
 4504 1278 00       		.byte	0
 4505 1279 00       		.byte	0
 4506 127a 25       		.uleb128 0x25
 4507 127b 01       		.byte	0x1
 4508 127c C0010000 		.4byte	.LASF178
 4509 1280 01       		.byte	0x1
 4510 1281 2001     		.2byte	0x120
 4511 1283 01       		.byte	0x1
 4512 1284 52030000 		.4byte	0x352
 4513 1288 08010000 		.4byte	.LFB69
 4514 128c 2E010000 		.4byte	.LFE69
 4515 1290 610C0000 		.4byte	.LLST9
 4516 1294 01       		.byte	0x1
 4517 1295 CE120000 		.4byte	0x12ce
 4518 1299 1C       		.uleb128 0x1c
 4519 129a 9F050000 		.4byte	.LASF132
 4520 129e 01       		.byte	0x1
 4521 129f 2001     		.2byte	0x120
 4522 12a1 DE080000 		.4byte	0x8de
 4523 12a5 810C0000 		.4byte	.LLST10
 4524 12a9 1F       		.uleb128 0x1f
 4525 12aa A4050000 		.4byte	.LASF146
 4526 12ae 01       		.byte	0x1
 4527 12af 2201     		.2byte	0x122
 4528 12b1 C2000000 		.4byte	0xc2
 4529 12b5 9F0C0000 		.4byte	.LLST11
 4530 12b9 26       		.uleb128 0x26
 4531 12ba 16010000 		.4byte	.LVL16
 4532 12be 17140000 		.4byte	0x1417
 4533 12c2 27       		.uleb128 0x27
 4534 12c3 01       		.byte	0x1
 4535 12c4 51       		.byte	0x51
 4536 12c5 01       		.byte	0x1
 4537 12c6 30       		.byte	0x30
 4538 12c7 27       		.uleb128 0x27
 4539 12c8 01       		.byte	0x1
 4540 12c9 52       		.byte	0x52
 4541 12ca 01       		.byte	0x1
 4542 12cb 31       		.byte	0x31
 4543 12cc 00       		.byte	0
 4544 12cd 00       		.byte	0
 4545 12ce 24       		.uleb128 0x24
ARM GAS  /tmp/ccD9AYux.s 			page 121


 4546 12cf 01       		.byte	0x1
 4547 12d0 91090000 		.4byte	.LASF179
 4548 12d4 01       		.byte	0x1
 4549 12d5 1101     		.2byte	0x111
 4550 12d7 01       		.byte	0x1
 4551 12d8 E9120000 		.4byte	0x12e9
 4552 12dc 23       		.uleb128 0x23
 4553 12dd 9F050000 		.4byte	.LASF132
 4554 12e1 01       		.byte	0x1
 4555 12e2 1101     		.2byte	0x111
 4556 12e4 DE080000 		.4byte	0x8de
 4557 12e8 00       		.byte	0
 4558 12e9 24       		.uleb128 0x24
 4559 12ea 01       		.byte	0x1
 4560 12eb 96010000 		.4byte	.LASF180
 4561 12ef 01       		.byte	0x1
 4562 12f0 0201     		.2byte	0x102
 4563 12f2 01       		.byte	0x1
 4564 12f3 04130000 		.4byte	0x1304
 4565 12f7 23       		.uleb128 0x23
 4566 12f8 9F050000 		.4byte	.LASF132
 4567 12fc 01       		.byte	0x1
 4568 12fd 0201     		.2byte	0x102
 4569 12ff DE080000 		.4byte	0x8de
 4570 1303 00       		.byte	0
 4571 1304 2B       		.uleb128 0x2b
 4572 1305 01       		.byte	0x1
 4573 1306 6C000000 		.4byte	.LASF181
 4574 130a 01       		.byte	0x1
 4575 130b DE       		.byte	0xde
 4576 130c 01       		.byte	0x1
 4577 130d 52030000 		.4byte	0x352
 4578 1311 CE000000 		.4byte	.LFB66
 4579 1315 08010000 		.4byte	.LFE66
 4580 1319 C10C0000 		.4byte	.LLST7
 4581 131d 01       		.byte	0x1
 4582 131e 42130000 		.4byte	0x1342
 4583 1322 2C       		.uleb128 0x2c
 4584 1323 9F050000 		.4byte	.LASF132
 4585 1327 01       		.byte	0x1
 4586 1328 DE       		.byte	0xde
 4587 1329 DE080000 		.4byte	0x8de
 4588 132d E10C0000 		.4byte	.LLST8
 4589 1331 26       		.uleb128 0x26
 4590 1332 FC000000 		.4byte	.LVL13
 4591 1336 CE120000 		.4byte	0x12ce
 4592 133a 27       		.uleb128 0x27
 4593 133b 01       		.byte	0x1
 4594 133c 50       		.byte	0x50
 4595 133d 02       		.byte	0x2
 4596 133e 74       		.byte	0x74
 4597 133f 00       		.sleb128 0
 4598 1340 00       		.byte	0
 4599 1341 00       		.byte	0
 4600 1342 2B       		.uleb128 0x2b
 4601 1343 01       		.byte	0x1
 4602 1344 210C0000 		.4byte	.LASF182
ARM GAS  /tmp/ccD9AYux.s 			page 122


 4603 1348 01       		.byte	0x1
 4604 1349 82       		.byte	0x82
 4605 134a 01       		.byte	0x1
 4606 134b 52030000 		.4byte	0x352
 4607 134f 1E000000 		.4byte	.LFB65
 4608 1353 CC000000 		.4byte	.LFE65
 4609 1357 FF0C0000 		.4byte	.LLST4
 4610 135b 01       		.byte	0x1
 4611 135c D8130000 		.4byte	0x13d8
 4612 1360 2C       		.uleb128 0x2c
 4613 1361 9F050000 		.4byte	.LASF132
 4614 1365 01       		.byte	0x1
 4615 1366 82       		.byte	0x82
 4616 1367 DE080000 		.4byte	0x8de
 4617 136b 430D0000 		.4byte	.LLST5
 4618 136f 2C       		.uleb128 0x2c
 4619 1370 200B0000 		.4byte	.LASF183
 4620 1374 01       		.byte	0x1
 4621 1375 82       		.byte	0x82
 4622 1376 D8130000 		.4byte	0x13d8
 4623 137a 770D0000 		.4byte	.LLST6
 4624 137e 2D       		.uleb128 0x2d
 4625 137f 8C030000 		.4byte	.LASF184
 4626 1383 01       		.byte	0x1
 4627 1384 84       		.byte	0x84
 4628 1385 E6050000 		.4byte	0x5e6
 4629 1389 02       		.byte	0x2
 4630 138a 91       		.byte	0x91
 4631 138b 54       		.sleb128 -44
 4632 138c 28       		.uleb128 0x28
 4633 138d 3C000000 		.4byte	.LVL5
 4634 1391 E9120000 		.4byte	0x12e9
 4635 1395 A0130000 		.4byte	0x13a0
 4636 1399 27       		.uleb128 0x27
 4637 139a 01       		.byte	0x1
 4638 139b 50       		.byte	0x50
 4639 139c 02       		.byte	0x2
 4640 139d 75       		.byte	0x75
 4641 139e 00       		.sleb128 0
 4642 139f 00       		.byte	0
 4643 13a0 28       		.uleb128 0x28
 4644 13a1 4A000000 		.4byte	.LVL6
 4645 13a5 25140000 		.4byte	0x1425
 4646 13a9 B4130000 		.4byte	0x13b4
 4647 13ad 27       		.uleb128 0x27
 4648 13ae 01       		.byte	0x1
 4649 13af 51       		.byte	0x51
 4650 13b0 02       		.byte	0x2
 4651 13b1 75       		.byte	0x75
 4652 13b2 04       		.sleb128 4
 4653 13b3 00       		.byte	0
 4654 13b4 28       		.uleb128 0x28
 4655 13b5 56000000 		.4byte	.LVL7
 4656 13b9 33140000 		.4byte	0x1433
 4657 13bd C7130000 		.4byte	0x13c7
 4658 13c1 27       		.uleb128 0x27
 4659 13c2 01       		.byte	0x1
ARM GAS  /tmp/ccD9AYux.s 			page 123


 4660 13c3 52       		.byte	0x52
 4661 13c4 01       		.byte	0x1
 4662 13c5 33       		.byte	0x33
 4663 13c6 00       		.byte	0
 4664 13c7 26       		.uleb128 0x26
 4665 13c8 AA000000 		.4byte	.LVL8
 4666 13cc 41140000 		.4byte	0x1441
 4667 13d0 27       		.uleb128 0x27
 4668 13d1 01       		.byte	0x1
 4669 13d2 51       		.byte	0x51
 4670 13d3 02       		.byte	0x2
 4671 13d4 91       		.byte	0x91
 4672 13d5 54       		.sleb128 -44
 4673 13d6 00       		.byte	0
 4674 13d7 00       		.byte	0
 4675 13d8 15       		.uleb128 0x15
 4676 13d9 04       		.byte	0x4
 4677 13da EB070000 		.4byte	0x7eb
 4678 13de 2E       		.uleb128 0x2e
 4679 13df 58090000 		.4byte	0x958
 4680 13e3 C4070000 		.4byte	.LFB99
 4681 13e7 C6070000 		.4byte	.LFE99
 4682 13eb 02       		.byte	0x2
 4683 13ec 7D       		.byte	0x7d
 4684 13ed 00       		.sleb128 0
 4685 13ee 01       		.byte	0x1
 4686 13ef FB130000 		.4byte	0x13fb
 4687 13f3 2F       		.uleb128 0x2f
 4688 13f4 67090000 		.4byte	0x967
 4689 13f8 01       		.byte	0x1
 4690 13f9 50       		.byte	0x50
 4691 13fa 00       		.byte	0
 4692 13fb 30       		.uleb128 0x30
 4693 13fc 01       		.byte	0x1
 4694 13fd 01       		.byte	0x1
 4695 13fe 4D040000 		.4byte	.LASF185
 4696 1402 4D040000 		.4byte	.LASF185
 4697 1406 09       		.byte	0x9
 4698 1407 7C01     		.2byte	0x17c
 4699 1409 30       		.uleb128 0x30
 4700 140a 01       		.byte	0x1
 4701 140b 01       		.byte	0x1
 4702 140c 59020000 		.4byte	.LASF186
 4703 1410 59020000 		.4byte	.LASF186
 4704 1414 09       		.byte	0x9
 4705 1415 7A01     		.2byte	0x17a
 4706 1417 30       		.uleb128 0x30
 4707 1418 01       		.byte	0x1
 4708 1419 01       		.byte	0x1
 4709 141a 3B000000 		.4byte	.LASF187
 4710 141e 3B000000 		.4byte	.LASF187
 4711 1422 0A       		.byte	0xa
 4712 1423 C907     		.2byte	0x7c9
 4713 1425 30       		.uleb128 0x30
 4714 1426 01       		.byte	0x1
 4715 1427 01       		.byte	0x1
 4716 1428 2F050000 		.4byte	.LASF188
ARM GAS  /tmp/ccD9AYux.s 			page 124


 4717 142c 2F050000 		.4byte	.LASF188
 4718 1430 0A       		.byte	0xa
 4719 1431 BE07     		.2byte	0x7be
 4720 1433 30       		.uleb128 0x30
 4721 1434 01       		.byte	0x1
 4722 1435 01       		.byte	0x1
 4723 1436 79090000 		.4byte	.LASF189
 4724 143a 79090000 		.4byte	.LASF189
 4725 143e 0A       		.byte	0xa
 4726 143f BF07     		.2byte	0x7bf
 4727 1441 30       		.uleb128 0x30
 4728 1442 01       		.byte	0x1
 4729 1443 01       		.byte	0x1
 4730 1444 CD090000 		.4byte	.LASF190
 4731 1448 CD090000 		.4byte	.LASF190
 4732 144c 0A       		.byte	0xa
 4733 144d C007     		.2byte	0x7c0
 4734 144f 00       		.byte	0
 4735              		.section	.debug_abbrev,"",%progbits
 4736              	.Ldebug_abbrev0:
 4737 0000 01       		.uleb128 0x1
 4738 0001 11       		.uleb128 0x11
 4739 0002 01       		.byte	0x1
 4740 0003 25       		.uleb128 0x25
 4741 0004 0E       		.uleb128 0xe
 4742 0005 13       		.uleb128 0x13
 4743 0006 0B       		.uleb128 0xb
 4744 0007 03       		.uleb128 0x3
 4745 0008 0E       		.uleb128 0xe
 4746 0009 1B       		.uleb128 0x1b
 4747 000a 0E       		.uleb128 0xe
 4748 000b 11       		.uleb128 0x11
 4749 000c 01       		.uleb128 0x1
 4750 000d 12       		.uleb128 0x12
 4751 000e 01       		.uleb128 0x1
 4752 000f 10       		.uleb128 0x10
 4753 0010 06       		.uleb128 0x6
 4754 0011 00       		.byte	0
 4755 0012 00       		.byte	0
 4756 0013 02       		.uleb128 0x2
 4757 0014 24       		.uleb128 0x24
 4758 0015 00       		.byte	0
 4759 0016 0B       		.uleb128 0xb
 4760 0017 0B       		.uleb128 0xb
 4761 0018 3E       		.uleb128 0x3e
 4762 0019 0B       		.uleb128 0xb
 4763 001a 03       		.uleb128 0x3
 4764 001b 0E       		.uleb128 0xe
 4765 001c 00       		.byte	0
 4766 001d 00       		.byte	0
 4767 001e 03       		.uleb128 0x3
 4768 001f 16       		.uleb128 0x16
 4769 0020 00       		.byte	0
 4770 0021 03       		.uleb128 0x3
 4771 0022 0E       		.uleb128 0xe
 4772 0023 3A       		.uleb128 0x3a
 4773 0024 0B       		.uleb128 0xb
ARM GAS  /tmp/ccD9AYux.s 			page 125


 4774 0025 3B       		.uleb128 0x3b
 4775 0026 0B       		.uleb128 0xb
 4776 0027 49       		.uleb128 0x49
 4777 0028 13       		.uleb128 0x13
 4778 0029 00       		.byte	0
 4779 002a 00       		.byte	0
 4780 002b 04       		.uleb128 0x4
 4781 002c 24       		.uleb128 0x24
 4782 002d 00       		.byte	0
 4783 002e 0B       		.uleb128 0xb
 4784 002f 0B       		.uleb128 0xb
 4785 0030 3E       		.uleb128 0x3e
 4786 0031 0B       		.uleb128 0xb
 4787 0032 03       		.uleb128 0x3
 4788 0033 08       		.uleb128 0x8
 4789 0034 00       		.byte	0
 4790 0035 00       		.byte	0
 4791 0036 05       		.uleb128 0x5
 4792 0037 26       		.uleb128 0x26
 4793 0038 00       		.byte	0
 4794 0039 49       		.uleb128 0x49
 4795 003a 13       		.uleb128 0x13
 4796 003b 00       		.byte	0
 4797 003c 00       		.byte	0
 4798 003d 06       		.uleb128 0x6
 4799 003e 35       		.uleb128 0x35
 4800 003f 00       		.byte	0
 4801 0040 49       		.uleb128 0x49
 4802 0041 13       		.uleb128 0x13
 4803 0042 00       		.byte	0
 4804 0043 00       		.byte	0
 4805 0044 07       		.uleb128 0x7
 4806 0045 34       		.uleb128 0x34
 4807 0046 00       		.byte	0
 4808 0047 03       		.uleb128 0x3
 4809 0048 0E       		.uleb128 0xe
 4810 0049 3A       		.uleb128 0x3a
 4811 004a 0B       		.uleb128 0xb
 4812 004b 3B       		.uleb128 0x3b
 4813 004c 05       		.uleb128 0x5
 4814 004d 49       		.uleb128 0x49
 4815 004e 13       		.uleb128 0x13
 4816 004f 3F       		.uleb128 0x3f
 4817 0050 0C       		.uleb128 0xc
 4818 0051 3C       		.uleb128 0x3c
 4819 0052 0C       		.uleb128 0xc
 4820 0053 00       		.byte	0
 4821 0054 00       		.byte	0
 4822 0055 08       		.uleb128 0x8
 4823 0056 34       		.uleb128 0x34
 4824 0057 00       		.byte	0
 4825 0058 03       		.uleb128 0x3
 4826 0059 0E       		.uleb128 0xe
 4827 005a 3A       		.uleb128 0x3a
 4828 005b 0B       		.uleb128 0xb
 4829 005c 3B       		.uleb128 0x3b
 4830 005d 0B       		.uleb128 0xb
ARM GAS  /tmp/ccD9AYux.s 			page 126


 4831 005e 49       		.uleb128 0x49
 4832 005f 13       		.uleb128 0x13
 4833 0060 3F       		.uleb128 0x3f
 4834 0061 0C       		.uleb128 0xc
 4835 0062 3C       		.uleb128 0x3c
 4836 0063 0C       		.uleb128 0xc
 4837 0064 00       		.byte	0
 4838 0065 00       		.byte	0
 4839 0066 09       		.uleb128 0x9
 4840 0067 01       		.uleb128 0x1
 4841 0068 01       		.byte	0x1
 4842 0069 49       		.uleb128 0x49
 4843 006a 13       		.uleb128 0x13
 4844 006b 01       		.uleb128 0x1
 4845 006c 13       		.uleb128 0x13
 4846 006d 00       		.byte	0
 4847 006e 00       		.byte	0
 4848 006f 0A       		.uleb128 0xa
 4849 0070 21       		.uleb128 0x21
 4850 0071 00       		.byte	0
 4851 0072 49       		.uleb128 0x49
 4852 0073 13       		.uleb128 0x13
 4853 0074 2F       		.uleb128 0x2f
 4854 0075 0B       		.uleb128 0xb
 4855 0076 00       		.byte	0
 4856 0077 00       		.byte	0
 4857 0078 0B       		.uleb128 0xb
 4858 0079 13       		.uleb128 0x13
 4859 007a 01       		.byte	0x1
 4860 007b 0B       		.uleb128 0xb
 4861 007c 0B       		.uleb128 0xb
 4862 007d 3A       		.uleb128 0x3a
 4863 007e 0B       		.uleb128 0xb
 4864 007f 3B       		.uleb128 0x3b
 4865 0080 05       		.uleb128 0x5
 4866 0081 01       		.uleb128 0x1
 4867 0082 13       		.uleb128 0x13
 4868 0083 00       		.byte	0
 4869 0084 00       		.byte	0
 4870 0085 0C       		.uleb128 0xc
 4871 0086 0D       		.uleb128 0xd
 4872 0087 00       		.byte	0
 4873 0088 03       		.uleb128 0x3
 4874 0089 08       		.uleb128 0x8
 4875 008a 3A       		.uleb128 0x3a
 4876 008b 0B       		.uleb128 0xb
 4877 008c 3B       		.uleb128 0x3b
 4878 008d 05       		.uleb128 0x5
 4879 008e 49       		.uleb128 0x49
 4880 008f 13       		.uleb128 0x13
 4881 0090 38       		.uleb128 0x38
 4882 0091 0A       		.uleb128 0xa
 4883 0092 00       		.byte	0
 4884 0093 00       		.byte	0
 4885 0094 0D       		.uleb128 0xd
 4886 0095 0D       		.uleb128 0xd
 4887 0096 00       		.byte	0
ARM GAS  /tmp/ccD9AYux.s 			page 127


 4888 0097 03       		.uleb128 0x3
 4889 0098 0E       		.uleb128 0xe
 4890 0099 3A       		.uleb128 0x3a
 4891 009a 0B       		.uleb128 0xb
 4892 009b 3B       		.uleb128 0x3b
 4893 009c 05       		.uleb128 0x5
 4894 009d 49       		.uleb128 0x49
 4895 009e 13       		.uleb128 0x13
 4896 009f 38       		.uleb128 0x38
 4897 00a0 0A       		.uleb128 0xa
 4898 00a1 00       		.byte	0
 4899 00a2 00       		.byte	0
 4900 00a3 0E       		.uleb128 0xe
 4901 00a4 16       		.uleb128 0x16
 4902 00a5 00       		.byte	0
 4903 00a6 03       		.uleb128 0x3
 4904 00a7 0E       		.uleb128 0xe
 4905 00a8 3A       		.uleb128 0x3a
 4906 00a9 0B       		.uleb128 0xb
 4907 00aa 3B       		.uleb128 0x3b
 4908 00ab 05       		.uleb128 0x5
 4909 00ac 49       		.uleb128 0x49
 4910 00ad 13       		.uleb128 0x13
 4911 00ae 00       		.byte	0
 4912 00af 00       		.byte	0
 4913 00b0 0F       		.uleb128 0xf
 4914 00b1 04       		.uleb128 0x4
 4915 00b2 01       		.byte	0x1
 4916 00b3 0B       		.uleb128 0xb
 4917 00b4 0B       		.uleb128 0xb
 4918 00b5 49       		.uleb128 0x49
 4919 00b6 13       		.uleb128 0x13
 4920 00b7 3A       		.uleb128 0x3a
 4921 00b8 0B       		.uleb128 0xb
 4922 00b9 3B       		.uleb128 0x3b
 4923 00ba 0B       		.uleb128 0xb
 4924 00bb 01       		.uleb128 0x1
 4925 00bc 13       		.uleb128 0x13
 4926 00bd 00       		.byte	0
 4927 00be 00       		.byte	0
 4928 00bf 10       		.uleb128 0x10
 4929 00c0 28       		.uleb128 0x28
 4930 00c1 00       		.byte	0
 4931 00c2 03       		.uleb128 0x3
 4932 00c3 0E       		.uleb128 0xe
 4933 00c4 1C       		.uleb128 0x1c
 4934 00c5 0B       		.uleb128 0xb
 4935 00c6 00       		.byte	0
 4936 00c7 00       		.byte	0
 4937 00c8 11       		.uleb128 0x11
 4938 00c9 28       		.uleb128 0x28
 4939 00ca 00       		.byte	0
 4940 00cb 03       		.uleb128 0x3
 4941 00cc 08       		.uleb128 0x8
 4942 00cd 1C       		.uleb128 0x1c
 4943 00ce 0B       		.uleb128 0xb
 4944 00cf 00       		.byte	0
ARM GAS  /tmp/ccD9AYux.s 			page 128


 4945 00d0 00       		.byte	0
 4946 00d1 12       		.uleb128 0x12
 4947 00d2 13       		.uleb128 0x13
 4948 00d3 01       		.byte	0x1
 4949 00d4 0B       		.uleb128 0xb
 4950 00d5 0B       		.uleb128 0xb
 4951 00d6 3A       		.uleb128 0x3a
 4952 00d7 0B       		.uleb128 0xb
 4953 00d8 3B       		.uleb128 0x3b
 4954 00d9 0B       		.uleb128 0xb
 4955 00da 01       		.uleb128 0x1
 4956 00db 13       		.uleb128 0x13
 4957 00dc 00       		.byte	0
 4958 00dd 00       		.byte	0
 4959 00de 13       		.uleb128 0x13
 4960 00df 0D       		.uleb128 0xd
 4961 00e0 00       		.byte	0
 4962 00e1 03       		.uleb128 0x3
 4963 00e2 0E       		.uleb128 0xe
 4964 00e3 3A       		.uleb128 0x3a
 4965 00e4 0B       		.uleb128 0xb
 4966 00e5 3B       		.uleb128 0x3b
 4967 00e6 0B       		.uleb128 0xb
 4968 00e7 49       		.uleb128 0x49
 4969 00e8 13       		.uleb128 0x13
 4970 00e9 38       		.uleb128 0x38
 4971 00ea 0A       		.uleb128 0xa
 4972 00eb 00       		.byte	0
 4973 00ec 00       		.byte	0
 4974 00ed 14       		.uleb128 0x14
 4975 00ee 13       		.uleb128 0x13
 4976 00ef 01       		.byte	0x1
 4977 00f0 03       		.uleb128 0x3
 4978 00f1 0E       		.uleb128 0xe
 4979 00f2 0B       		.uleb128 0xb
 4980 00f3 0B       		.uleb128 0xb
 4981 00f4 3A       		.uleb128 0x3a
 4982 00f5 0B       		.uleb128 0xb
 4983 00f6 3B       		.uleb128 0x3b
 4984 00f7 0B       		.uleb128 0xb
 4985 00f8 01       		.uleb128 0x1
 4986 00f9 13       		.uleb128 0x13
 4987 00fa 00       		.byte	0
 4988 00fb 00       		.byte	0
 4989 00fc 15       		.uleb128 0x15
 4990 00fd 0F       		.uleb128 0xf
 4991 00fe 00       		.byte	0
 4992 00ff 0B       		.uleb128 0xb
 4993 0100 0B       		.uleb128 0xb
 4994 0101 49       		.uleb128 0x49
 4995 0102 13       		.uleb128 0x13
 4996 0103 00       		.byte	0
 4997 0104 00       		.byte	0
 4998 0105 16       		.uleb128 0x16
 4999 0106 0F       		.uleb128 0xf
 5000 0107 00       		.byte	0
 5001 0108 0B       		.uleb128 0xb
ARM GAS  /tmp/ccD9AYux.s 			page 129


 5002 0109 0B       		.uleb128 0xb
 5003 010a 00       		.byte	0
 5004 010b 00       		.byte	0
 5005 010c 17       		.uleb128 0x17
 5006 010d 15       		.uleb128 0x15
 5007 010e 01       		.byte	0x1
 5008 010f 27       		.uleb128 0x27
 5009 0110 0C       		.uleb128 0xc
 5010 0111 01       		.uleb128 0x1
 5011 0112 13       		.uleb128 0x13
 5012 0113 00       		.byte	0
 5013 0114 00       		.byte	0
 5014 0115 18       		.uleb128 0x18
 5015 0116 05       		.uleb128 0x5
 5016 0117 00       		.byte	0
 5017 0118 49       		.uleb128 0x49
 5018 0119 13       		.uleb128 0x13
 5019 011a 00       		.byte	0
 5020 011b 00       		.byte	0
 5021 011c 19       		.uleb128 0x19
 5022 011d 04       		.uleb128 0x4
 5023 011e 01       		.byte	0x1
 5024 011f 0B       		.uleb128 0xb
 5025 0120 0B       		.uleb128 0xb
 5026 0121 49       		.uleb128 0x49
 5027 0122 13       		.uleb128 0x13
 5028 0123 3A       		.uleb128 0x3a
 5029 0124 0B       		.uleb128 0xb
 5030 0125 3B       		.uleb128 0x3b
 5031 0126 05       		.uleb128 0x5
 5032 0127 01       		.uleb128 0x1
 5033 0128 13       		.uleb128 0x13
 5034 0129 00       		.byte	0
 5035 012a 00       		.byte	0
 5036 012b 1A       		.uleb128 0x1a
 5037 012c 2E       		.uleb128 0x2e
 5038 012d 01       		.byte	0x1
 5039 012e 03       		.uleb128 0x3
 5040 012f 0E       		.uleb128 0xe
 5041 0130 3A       		.uleb128 0x3a
 5042 0131 0B       		.uleb128 0xb
 5043 0132 3B       		.uleb128 0x3b
 5044 0133 05       		.uleb128 0x5
 5045 0134 27       		.uleb128 0x27
 5046 0135 0C       		.uleb128 0xc
 5047 0136 11       		.uleb128 0x11
 5048 0137 01       		.uleb128 0x1
 5049 0138 12       		.uleb128 0x12
 5050 0139 01       		.uleb128 0x1
 5051 013a 40       		.uleb128 0x40
 5052 013b 06       		.uleb128 0x6
 5053 013c 9742     		.uleb128 0x2117
 5054 013e 0C       		.uleb128 0xc
 5055 013f 01       		.uleb128 0x1
 5056 0140 13       		.uleb128 0x13
 5057 0141 00       		.byte	0
 5058 0142 00       		.byte	0
ARM GAS  /tmp/ccD9AYux.s 			page 130


 5059 0143 1B       		.uleb128 0x1b
 5060 0144 05       		.uleb128 0x5
 5061 0145 00       		.byte	0
 5062 0146 03       		.uleb128 0x3
 5063 0147 0E       		.uleb128 0xe
 5064 0148 3A       		.uleb128 0x3a
 5065 0149 0B       		.uleb128 0xb
 5066 014a 3B       		.uleb128 0x3b
 5067 014b 05       		.uleb128 0x5
 5068 014c 49       		.uleb128 0x49
 5069 014d 13       		.uleb128 0x13
 5070 014e 02       		.uleb128 0x2
 5071 014f 0A       		.uleb128 0xa
 5072 0150 00       		.byte	0
 5073 0151 00       		.byte	0
 5074 0152 1C       		.uleb128 0x1c
 5075 0153 05       		.uleb128 0x5
 5076 0154 00       		.byte	0
 5077 0155 03       		.uleb128 0x3
 5078 0156 0E       		.uleb128 0xe
 5079 0157 3A       		.uleb128 0x3a
 5080 0158 0B       		.uleb128 0xb
 5081 0159 3B       		.uleb128 0x3b
 5082 015a 05       		.uleb128 0x5
 5083 015b 49       		.uleb128 0x49
 5084 015c 13       		.uleb128 0x13
 5085 015d 02       		.uleb128 0x2
 5086 015e 06       		.uleb128 0x6
 5087 015f 00       		.byte	0
 5088 0160 00       		.byte	0
 5089 0161 1D       		.uleb128 0x1d
 5090 0162 34       		.uleb128 0x34
 5091 0163 00       		.byte	0
 5092 0164 03       		.uleb128 0x3
 5093 0165 08       		.uleb128 0x8
 5094 0166 3A       		.uleb128 0x3a
 5095 0167 0B       		.uleb128 0xb
 5096 0168 3B       		.uleb128 0x3b
 5097 0169 05       		.uleb128 0x5
 5098 016a 49       		.uleb128 0x49
 5099 016b 13       		.uleb128 0x13
 5100 016c 02       		.uleb128 0x2
 5101 016d 06       		.uleb128 0x6
 5102 016e 00       		.byte	0
 5103 016f 00       		.byte	0
 5104 0170 1E       		.uleb128 0x1e
 5105 0171 2E       		.uleb128 0x2e
 5106 0172 01       		.byte	0x1
 5107 0173 3F       		.uleb128 0x3f
 5108 0174 0C       		.uleb128 0xc
 5109 0175 03       		.uleb128 0x3
 5110 0176 0E       		.uleb128 0xe
 5111 0177 3A       		.uleb128 0x3a
 5112 0178 0B       		.uleb128 0xb
 5113 0179 3B       		.uleb128 0x3b
 5114 017a 05       		.uleb128 0x5
 5115 017b 27       		.uleb128 0x27
ARM GAS  /tmp/ccD9AYux.s 			page 131


 5116 017c 0C       		.uleb128 0xc
 5117 017d 11       		.uleb128 0x11
 5118 017e 01       		.uleb128 0x1
 5119 017f 12       		.uleb128 0x12
 5120 0180 01       		.uleb128 0x1
 5121 0181 40       		.uleb128 0x40
 5122 0182 06       		.uleb128 0x6
 5123 0183 9742     		.uleb128 0x2117
 5124 0185 0C       		.uleb128 0xc
 5125 0186 01       		.uleb128 0x1
 5126 0187 13       		.uleb128 0x13
 5127 0188 00       		.byte	0
 5128 0189 00       		.byte	0
 5129 018a 1F       		.uleb128 0x1f
 5130 018b 34       		.uleb128 0x34
 5131 018c 00       		.byte	0
 5132 018d 03       		.uleb128 0x3
 5133 018e 0E       		.uleb128 0xe
 5134 018f 3A       		.uleb128 0x3a
 5135 0190 0B       		.uleb128 0xb
 5136 0191 3B       		.uleb128 0x3b
 5137 0192 05       		.uleb128 0x5
 5138 0193 49       		.uleb128 0x49
 5139 0194 13       		.uleb128 0x13
 5140 0195 02       		.uleb128 0x2
 5141 0196 06       		.uleb128 0x6
 5142 0197 00       		.byte	0
 5143 0198 00       		.byte	0
 5144 0199 20       		.uleb128 0x20
 5145 019a 898201   		.uleb128 0x4109
 5146 019d 00       		.byte	0
 5147 019e 11       		.uleb128 0x11
 5148 019f 01       		.uleb128 0x1
 5149 01a0 31       		.uleb128 0x31
 5150 01a1 13       		.uleb128 0x13
 5151 01a2 00       		.byte	0
 5152 01a3 00       		.byte	0
 5153 01a4 21       		.uleb128 0x21
 5154 01a5 2E       		.uleb128 0x2e
 5155 01a6 01       		.byte	0x1
 5156 01a7 3F       		.uleb128 0x3f
 5157 01a8 0C       		.uleb128 0xc
 5158 01a9 03       		.uleb128 0x3
 5159 01aa 0E       		.uleb128 0xe
 5160 01ab 3A       		.uleb128 0x3a
 5161 01ac 0B       		.uleb128 0xb
 5162 01ad 3B       		.uleb128 0x3b
 5163 01ae 05       		.uleb128 0x5
 5164 01af 27       		.uleb128 0x27
 5165 01b0 0C       		.uleb128 0xc
 5166 01b1 49       		.uleb128 0x49
 5167 01b2 13       		.uleb128 0x13
 5168 01b3 11       		.uleb128 0x11
 5169 01b4 01       		.uleb128 0x1
 5170 01b5 12       		.uleb128 0x12
 5171 01b6 01       		.uleb128 0x1
 5172 01b7 40       		.uleb128 0x40
ARM GAS  /tmp/ccD9AYux.s 			page 132


 5173 01b8 0A       		.uleb128 0xa
 5174 01b9 9742     		.uleb128 0x2117
 5175 01bb 0C       		.uleb128 0xc
 5176 01bc 01       		.uleb128 0x1
 5177 01bd 13       		.uleb128 0x13
 5178 01be 00       		.byte	0
 5179 01bf 00       		.byte	0
 5180 01c0 22       		.uleb128 0x22
 5181 01c1 2E       		.uleb128 0x2e
 5182 01c2 01       		.byte	0x1
 5183 01c3 3F       		.uleb128 0x3f
 5184 01c4 0C       		.uleb128 0xc
 5185 01c5 03       		.uleb128 0x3
 5186 01c6 0E       		.uleb128 0xe
 5187 01c7 3A       		.uleb128 0x3a
 5188 01c8 0B       		.uleb128 0xb
 5189 01c9 3B       		.uleb128 0x3b
 5190 01ca 05       		.uleb128 0x5
 5191 01cb 27       		.uleb128 0x27
 5192 01cc 0C       		.uleb128 0xc
 5193 01cd 20       		.uleb128 0x20
 5194 01ce 0B       		.uleb128 0xb
 5195 01cf 01       		.uleb128 0x1
 5196 01d0 13       		.uleb128 0x13
 5197 01d1 00       		.byte	0
 5198 01d2 00       		.byte	0
 5199 01d3 23       		.uleb128 0x23
 5200 01d4 05       		.uleb128 0x5
 5201 01d5 00       		.byte	0
 5202 01d6 03       		.uleb128 0x3
 5203 01d7 0E       		.uleb128 0xe
 5204 01d8 3A       		.uleb128 0x3a
 5205 01d9 0B       		.uleb128 0xb
 5206 01da 3B       		.uleb128 0x3b
 5207 01db 05       		.uleb128 0x5
 5208 01dc 49       		.uleb128 0x49
 5209 01dd 13       		.uleb128 0x13
 5210 01de 00       		.byte	0
 5211 01df 00       		.byte	0
 5212 01e0 24       		.uleb128 0x24
 5213 01e1 2E       		.uleb128 0x2e
 5214 01e2 01       		.byte	0x1
 5215 01e3 3F       		.uleb128 0x3f
 5216 01e4 0C       		.uleb128 0xc
 5217 01e5 03       		.uleb128 0x3
 5218 01e6 0E       		.uleb128 0xe
 5219 01e7 3A       		.uleb128 0x3a
 5220 01e8 0B       		.uleb128 0xb
 5221 01e9 3B       		.uleb128 0x3b
 5222 01ea 05       		.uleb128 0x5
 5223 01eb 27       		.uleb128 0x27
 5224 01ec 0C       		.uleb128 0xc
 5225 01ed 01       		.uleb128 0x1
 5226 01ee 13       		.uleb128 0x13
 5227 01ef 00       		.byte	0
 5228 01f0 00       		.byte	0
 5229 01f1 25       		.uleb128 0x25
ARM GAS  /tmp/ccD9AYux.s 			page 133


 5230 01f2 2E       		.uleb128 0x2e
 5231 01f3 01       		.byte	0x1
 5232 01f4 3F       		.uleb128 0x3f
 5233 01f5 0C       		.uleb128 0xc
 5234 01f6 03       		.uleb128 0x3
 5235 01f7 0E       		.uleb128 0xe
 5236 01f8 3A       		.uleb128 0x3a
 5237 01f9 0B       		.uleb128 0xb
 5238 01fa 3B       		.uleb128 0x3b
 5239 01fb 05       		.uleb128 0x5
 5240 01fc 27       		.uleb128 0x27
 5241 01fd 0C       		.uleb128 0xc
 5242 01fe 49       		.uleb128 0x49
 5243 01ff 13       		.uleb128 0x13
 5244 0200 11       		.uleb128 0x11
 5245 0201 01       		.uleb128 0x1
 5246 0202 12       		.uleb128 0x12
 5247 0203 01       		.uleb128 0x1
 5248 0204 40       		.uleb128 0x40
 5249 0205 06       		.uleb128 0x6
 5250 0206 9742     		.uleb128 0x2117
 5251 0208 0C       		.uleb128 0xc
 5252 0209 01       		.uleb128 0x1
 5253 020a 13       		.uleb128 0x13
 5254 020b 00       		.byte	0
 5255 020c 00       		.byte	0
 5256 020d 26       		.uleb128 0x26
 5257 020e 898201   		.uleb128 0x4109
 5258 0211 01       		.byte	0x1
 5259 0212 11       		.uleb128 0x11
 5260 0213 01       		.uleb128 0x1
 5261 0214 31       		.uleb128 0x31
 5262 0215 13       		.uleb128 0x13
 5263 0216 00       		.byte	0
 5264 0217 00       		.byte	0
 5265 0218 27       		.uleb128 0x27
 5266 0219 8A8201   		.uleb128 0x410a
 5267 021c 00       		.byte	0
 5268 021d 02       		.uleb128 0x2
 5269 021e 0A       		.uleb128 0xa
 5270 021f 9142     		.uleb128 0x2111
 5271 0221 0A       		.uleb128 0xa
 5272 0222 00       		.byte	0
 5273 0223 00       		.byte	0
 5274 0224 28       		.uleb128 0x28
 5275 0225 898201   		.uleb128 0x4109
 5276 0228 01       		.byte	0x1
 5277 0229 11       		.uleb128 0x11
 5278 022a 01       		.uleb128 0x1
 5279 022b 31       		.uleb128 0x31
 5280 022c 13       		.uleb128 0x13
 5281 022d 01       		.uleb128 0x1
 5282 022e 13       		.uleb128 0x13
 5283 022f 00       		.byte	0
 5284 0230 00       		.byte	0
 5285 0231 29       		.uleb128 0x29
 5286 0232 2E       		.uleb128 0x2e
ARM GAS  /tmp/ccD9AYux.s 			page 134


 5287 0233 01       		.byte	0x1
 5288 0234 3F       		.uleb128 0x3f
 5289 0235 0C       		.uleb128 0xc
 5290 0236 03       		.uleb128 0x3
 5291 0237 0E       		.uleb128 0xe
 5292 0238 3A       		.uleb128 0x3a
 5293 0239 0B       		.uleb128 0xb
 5294 023a 3B       		.uleb128 0x3b
 5295 023b 05       		.uleb128 0x5
 5296 023c 27       		.uleb128 0x27
 5297 023d 0C       		.uleb128 0xc
 5298 023e 49       		.uleb128 0x49
 5299 023f 13       		.uleb128 0x13
 5300 0240 01       		.uleb128 0x1
 5301 0241 13       		.uleb128 0x13
 5302 0242 00       		.byte	0
 5303 0243 00       		.byte	0
 5304 0244 2A       		.uleb128 0x2a
 5305 0245 34       		.uleb128 0x34
 5306 0246 00       		.byte	0
 5307 0247 03       		.uleb128 0x3
 5308 0248 0E       		.uleb128 0xe
 5309 0249 3A       		.uleb128 0x3a
 5310 024a 0B       		.uleb128 0xb
 5311 024b 3B       		.uleb128 0x3b
 5312 024c 05       		.uleb128 0x5
 5313 024d 49       		.uleb128 0x49
 5314 024e 13       		.uleb128 0x13
 5315 024f 00       		.byte	0
 5316 0250 00       		.byte	0
 5317 0251 2B       		.uleb128 0x2b
 5318 0252 2E       		.uleb128 0x2e
 5319 0253 01       		.byte	0x1
 5320 0254 3F       		.uleb128 0x3f
 5321 0255 0C       		.uleb128 0xc
 5322 0256 03       		.uleb128 0x3
 5323 0257 0E       		.uleb128 0xe
 5324 0258 3A       		.uleb128 0x3a
 5325 0259 0B       		.uleb128 0xb
 5326 025a 3B       		.uleb128 0x3b
 5327 025b 0B       		.uleb128 0xb
 5328 025c 27       		.uleb128 0x27
 5329 025d 0C       		.uleb128 0xc
 5330 025e 49       		.uleb128 0x49
 5331 025f 13       		.uleb128 0x13
 5332 0260 11       		.uleb128 0x11
 5333 0261 01       		.uleb128 0x1
 5334 0262 12       		.uleb128 0x12
 5335 0263 01       		.uleb128 0x1
 5336 0264 40       		.uleb128 0x40
 5337 0265 06       		.uleb128 0x6
 5338 0266 9742     		.uleb128 0x2117
 5339 0268 0C       		.uleb128 0xc
 5340 0269 01       		.uleb128 0x1
 5341 026a 13       		.uleb128 0x13
 5342 026b 00       		.byte	0
 5343 026c 00       		.byte	0
ARM GAS  /tmp/ccD9AYux.s 			page 135


 5344 026d 2C       		.uleb128 0x2c
 5345 026e 05       		.uleb128 0x5
 5346 026f 00       		.byte	0
 5347 0270 03       		.uleb128 0x3
 5348 0271 0E       		.uleb128 0xe
 5349 0272 3A       		.uleb128 0x3a
 5350 0273 0B       		.uleb128 0xb
 5351 0274 3B       		.uleb128 0x3b
 5352 0275 0B       		.uleb128 0xb
 5353 0276 49       		.uleb128 0x49
 5354 0277 13       		.uleb128 0x13
 5355 0278 02       		.uleb128 0x2
 5356 0279 06       		.uleb128 0x6
 5357 027a 00       		.byte	0
 5358 027b 00       		.byte	0
 5359 027c 2D       		.uleb128 0x2d
 5360 027d 34       		.uleb128 0x34
 5361 027e 00       		.byte	0
 5362 027f 03       		.uleb128 0x3
 5363 0280 0E       		.uleb128 0xe
 5364 0281 3A       		.uleb128 0x3a
 5365 0282 0B       		.uleb128 0xb
 5366 0283 3B       		.uleb128 0x3b
 5367 0284 0B       		.uleb128 0xb
 5368 0285 49       		.uleb128 0x49
 5369 0286 13       		.uleb128 0x13
 5370 0287 02       		.uleb128 0x2
 5371 0288 0A       		.uleb128 0xa
 5372 0289 00       		.byte	0
 5373 028a 00       		.byte	0
 5374 028b 2E       		.uleb128 0x2e
 5375 028c 2E       		.uleb128 0x2e
 5376 028d 01       		.byte	0x1
 5377 028e 31       		.uleb128 0x31
 5378 028f 13       		.uleb128 0x13
 5379 0290 11       		.uleb128 0x11
 5380 0291 01       		.uleb128 0x1
 5381 0292 12       		.uleb128 0x12
 5382 0293 01       		.uleb128 0x1
 5383 0294 40       		.uleb128 0x40
 5384 0295 0A       		.uleb128 0xa
 5385 0296 9742     		.uleb128 0x2117
 5386 0298 0C       		.uleb128 0xc
 5387 0299 01       		.uleb128 0x1
 5388 029a 13       		.uleb128 0x13
 5389 029b 00       		.byte	0
 5390 029c 00       		.byte	0
 5391 029d 2F       		.uleb128 0x2f
 5392 029e 05       		.uleb128 0x5
 5393 029f 00       		.byte	0
 5394 02a0 31       		.uleb128 0x31
 5395 02a1 13       		.uleb128 0x13
 5396 02a2 02       		.uleb128 0x2
 5397 02a3 0A       		.uleb128 0xa
 5398 02a4 00       		.byte	0
 5399 02a5 00       		.byte	0
 5400 02a6 30       		.uleb128 0x30
ARM GAS  /tmp/ccD9AYux.s 			page 136


 5401 02a7 2E       		.uleb128 0x2e
 5402 02a8 00       		.byte	0
 5403 02a9 3F       		.uleb128 0x3f
 5404 02aa 0C       		.uleb128 0xc
 5405 02ab 3C       		.uleb128 0x3c
 5406 02ac 0C       		.uleb128 0xc
 5407 02ad 8740     		.uleb128 0x2007
 5408 02af 0E       		.uleb128 0xe
 5409 02b0 03       		.uleb128 0x3
 5410 02b1 0E       		.uleb128 0xe
 5411 02b2 3A       		.uleb128 0x3a
 5412 02b3 0B       		.uleb128 0xb
 5413 02b4 3B       		.uleb128 0x3b
 5414 02b5 05       		.uleb128 0x5
 5415 02b6 00       		.byte	0
 5416 02b7 00       		.byte	0
 5417 02b8 00       		.byte	0
 5418              		.section	.debug_loc,"",%progbits
 5419              	.Ldebug_loc0:
 5420              	.LLST0:
 5421 0000 00000000 		.4byte	.LFB103-.Ltext0
 5422 0004 02000000 		.4byte	.LCFI0-.Ltext0
 5423 0008 0200     		.2byte	0x2
 5424 000a 7D       		.byte	0x7d
 5425 000b 00       		.sleb128 0
 5426 000c 02000000 		.4byte	.LCFI0-.Ltext0
 5427 0010 1C000000 		.4byte	.LFE103-.Ltext0
 5428 0014 0200     		.2byte	0x2
 5429 0016 7D       		.byte	0x7d
 5430 0017 08       		.sleb128 8
 5431 0018 00000000 		.4byte	0
 5432 001c 00000000 		.4byte	0
 5433              	.LLST1:
 5434 0020 00000000 		.4byte	.LVL0-.Ltext0
 5435 0024 0A000000 		.4byte	.LVL1-.Ltext0
 5436 0028 0100     		.2byte	0x1
 5437 002a 51       		.byte	0x51
 5438 002b 0A000000 		.4byte	.LVL1-.Ltext0
 5439 002f 1C000000 		.4byte	.LFE103-.Ltext0
 5440 0033 0400     		.2byte	0x4
 5441 0035 F3       		.byte	0xf3
 5442 0036 01       		.uleb128 0x1
 5443 0037 51       		.byte	0x51
 5444 0038 9F       		.byte	0x9f
 5445 0039 00000000 		.4byte	0
 5446 003d 00000000 		.4byte	0
 5447              	.LLST2:
 5448 0041 00000000 		.4byte	.LVL0-.Ltext0
 5449 0045 16000000 		.4byte	.LVL3-.Ltext0
 5450 0049 0100     		.2byte	0x1
 5451 004b 52       		.byte	0x52
 5452 004c 16000000 		.4byte	.LVL3-.Ltext0
 5453 0050 1C000000 		.4byte	.LFE103-.Ltext0
 5454 0054 0400     		.2byte	0x4
 5455 0056 F3       		.byte	0xf3
 5456 0057 01       		.uleb128 0x1
 5457 0058 52       		.byte	0x52
ARM GAS  /tmp/ccD9AYux.s 			page 137


 5458 0059 9F       		.byte	0x9f
 5459 005a 00000000 		.4byte	0
 5460 005e 00000000 		.4byte	0
 5461              	.LLST3:
 5462 0062 0A000000 		.4byte	.LVL1-.Ltext0
 5463 0066 0C000000 		.4byte	.LVL2-.Ltext0
 5464 006a 0500     		.2byte	0x5
 5465 006c 34       		.byte	0x34
 5466 006d 71       		.byte	0x71
 5467 006e 00       		.sleb128 0
 5468 006f 24       		.byte	0x24
 5469 0070 9F       		.byte	0x9f
 5470 0071 0C000000 		.4byte	.LVL2-.Ltext0
 5471 0075 1C000000 		.4byte	.LFE103-.Ltext0
 5472 0079 0100     		.2byte	0x1
 5473 007b 54       		.byte	0x54
 5474 007c 00000000 		.4byte	0
 5475 0080 00000000 		.4byte	0
 5476              	.LLST82:
 5477 0084 B4070000 		.4byte	.LFB102-.Ltext0
 5478 0088 B6070000 		.4byte	.LCFI26-.Ltext0
 5479 008c 0200     		.2byte	0x2
 5480 008e 7D       		.byte	0x7d
 5481 008f 00       		.sleb128 0
 5482 0090 B6070000 		.4byte	.LCFI26-.Ltext0
 5483 0094 C4070000 		.4byte	.LFE102-.Ltext0
 5484 0098 0200     		.2byte	0x2
 5485 009a 7D       		.byte	0x7d
 5486 009b 08       		.sleb128 8
 5487 009c 00000000 		.4byte	0
 5488 00a0 00000000 		.4byte	0
 5489              	.LLST83:
 5490 00a4 B4070000 		.4byte	.LVL153-.Ltext0
 5491 00a8 BA070000 		.4byte	.LVL154-.Ltext0
 5492 00ac 0100     		.2byte	0x1
 5493 00ae 50       		.byte	0x50
 5494 00af BA070000 		.4byte	.LVL154-.Ltext0
 5495 00b3 C4070000 		.4byte	.LFE102-.Ltext0
 5496 00b7 0400     		.2byte	0x4
 5497 00b9 F3       		.byte	0xf3
 5498 00ba 01       		.uleb128 0x1
 5499 00bb 50       		.byte	0x50
 5500 00bc 9F       		.byte	0x9f
 5501 00bd 00000000 		.4byte	0
 5502 00c1 00000000 		.4byte	0
 5503              	.LLST84:
 5504 00c5 BA070000 		.4byte	.LVL154-.Ltext0
 5505 00c9 C1070000 		.4byte	.LVL155-1-.Ltext0
 5506 00cd 0100     		.2byte	0x1
 5507 00cf 50       		.byte	0x50
 5508 00d0 00000000 		.4byte	0
 5509 00d4 00000000 		.4byte	0
 5510              	.LLST79:
 5511 00d8 A2070000 		.4byte	.LFB101-.Ltext0
 5512 00dc A4070000 		.4byte	.LCFI25-.Ltext0
 5513 00e0 0200     		.2byte	0x2
 5514 00e2 7D       		.byte	0x7d
ARM GAS  /tmp/ccD9AYux.s 			page 138


 5515 00e3 00       		.sleb128 0
 5516 00e4 A4070000 		.4byte	.LCFI25-.Ltext0
 5517 00e8 B2070000 		.4byte	.LFE101-.Ltext0
 5518 00ec 0200     		.2byte	0x2
 5519 00ee 7D       		.byte	0x7d
 5520 00ef 08       		.sleb128 8
 5521 00f0 00000000 		.4byte	0
 5522 00f4 00000000 		.4byte	0
 5523              	.LLST80:
 5524 00f8 A2070000 		.4byte	.LVL150-.Ltext0
 5525 00fc A8070000 		.4byte	.LVL151-.Ltext0
 5526 0100 0100     		.2byte	0x1
 5527 0102 50       		.byte	0x50
 5528 0103 A8070000 		.4byte	.LVL151-.Ltext0
 5529 0107 B2070000 		.4byte	.LFE101-.Ltext0
 5530 010b 0400     		.2byte	0x4
 5531 010d F3       		.byte	0xf3
 5532 010e 01       		.uleb128 0x1
 5533 010f 50       		.byte	0x50
 5534 0110 9F       		.byte	0x9f
 5535 0111 00000000 		.4byte	0
 5536 0115 00000000 		.4byte	0
 5537              	.LLST81:
 5538 0119 A8070000 		.4byte	.LVL151-.Ltext0
 5539 011d AF070000 		.4byte	.LVL152-1-.Ltext0
 5540 0121 0100     		.2byte	0x1
 5541 0123 50       		.byte	0x50
 5542 0124 00000000 		.4byte	0
 5543 0128 00000000 		.4byte	0
 5544              	.LLST85:
 5545 012c C6070000 		.4byte	.LVL157-.Ltext0
 5546 0130 CA070000 		.4byte	.LVL158-.Ltext0
 5547 0134 0100     		.2byte	0x1
 5548 0136 50       		.byte	0x50
 5549 0137 CA070000 		.4byte	.LVL158-.Ltext0
 5550 013b CC070000 		.4byte	.LFE100-.Ltext0
 5551 013f 0400     		.2byte	0x4
 5552 0141 F3       		.byte	0xf3
 5553 0142 01       		.uleb128 0x1
 5554 0143 50       		.byte	0x50
 5555 0144 9F       		.byte	0x9f
 5556 0145 00000000 		.4byte	0
 5557 0149 00000000 		.4byte	0
 5558              	.LLST78:
 5559 014d 9C070000 		.4byte	.LVL148-.Ltext0
 5560 0151 9E070000 		.4byte	.LVL149-.Ltext0
 5561 0155 0100     		.2byte	0x1
 5562 0157 50       		.byte	0x50
 5563 0158 9E070000 		.4byte	.LVL149-.Ltext0
 5564 015c A0070000 		.4byte	.LFE96-.Ltext0
 5565 0160 0400     		.2byte	0x4
 5566 0162 F3       		.byte	0xf3
 5567 0163 01       		.uleb128 0x1
 5568 0164 50       		.byte	0x50
 5569 0165 9F       		.byte	0x9f
 5570 0166 00000000 		.4byte	0
 5571 016a 00000000 		.4byte	0
ARM GAS  /tmp/ccD9AYux.s 			page 139


 5572              	.LLST76:
 5573 016e 50070000 		.4byte	.LVL131-.Ltext0
 5574 0172 96070000 		.4byte	.LVL145-.Ltext0
 5575 0176 0100     		.2byte	0x1
 5576 0178 50       		.byte	0x50
 5577 0179 96070000 		.4byte	.LVL145-.Ltext0
 5578 017d 98070000 		.4byte	.LVL146-.Ltext0
 5579 0181 0400     		.2byte	0x4
 5580 0183 F3       		.byte	0xf3
 5581 0184 01       		.uleb128 0x1
 5582 0185 50       		.byte	0x50
 5583 0186 9F       		.byte	0x9f
 5584 0187 98070000 		.4byte	.LVL146-.Ltext0
 5585 018b 9A070000 		.4byte	.LVL147-.Ltext0
 5586 018f 0100     		.2byte	0x1
 5587 0191 50       		.byte	0x50
 5588 0192 9A070000 		.4byte	.LVL147-.Ltext0
 5589 0196 9C070000 		.4byte	.LFE95-.Ltext0
 5590 019a 0400     		.2byte	0x4
 5591 019c F3       		.byte	0xf3
 5592 019d 01       		.uleb128 0x1
 5593 019e 50       		.byte	0x50
 5594 019f 9F       		.byte	0x9f
 5595 01a0 00000000 		.4byte	0
 5596 01a4 00000000 		.4byte	0
 5597              	.LLST77:
 5598 01a8 50070000 		.4byte	.LVL131-.Ltext0
 5599 01ac 58070000 		.4byte	.LVL132-.Ltext0
 5600 01b0 0200     		.2byte	0x2
 5601 01b2 30       		.byte	0x30
 5602 01b3 9F       		.byte	0x9f
 5603 01b4 58070000 		.4byte	.LVL132-.Ltext0
 5604 01b8 62070000 		.4byte	.LVL133-.Ltext0
 5605 01bc 0C00     		.2byte	0xc
 5606 01be 71       		.byte	0x71
 5607 01bf 0C       		.sleb128 12
 5608 01c0 06       		.byte	0x6
 5609 01c1 0B       		.byte	0xb
 5610 01c2 FFFC     		.2byte	0xfcff
 5611 01c4 1A       		.byte	0x1a
 5612 01c5 71       		.byte	0x71
 5613 01c6 08       		.sleb128 8
 5614 01c7 06       		.byte	0x6
 5615 01c8 21       		.byte	0x21
 5616 01c9 9F       		.byte	0x9f
 5617 01ca 62070000 		.4byte	.LVL133-.Ltext0
 5618 01ce 68070000 		.4byte	.LVL134-.Ltext0
 5619 01d2 0100     		.2byte	0x1
 5620 01d4 53       		.byte	0x53
 5621 01d5 68070000 		.4byte	.LVL134-.Ltext0
 5622 01d9 6A070000 		.4byte	.LVL135-.Ltext0
 5623 01dd 0600     		.2byte	0x6
 5624 01df 72       		.byte	0x72
 5625 01e0 00       		.sleb128 0
 5626 01e1 73       		.byte	0x73
 5627 01e2 00       		.sleb128 0
 5628 01e3 21       		.byte	0x21
ARM GAS  /tmp/ccD9AYux.s 			page 140


 5629 01e4 9F       		.byte	0x9f
 5630 01e5 6A070000 		.4byte	.LVL135-.Ltext0
 5631 01e9 70070000 		.4byte	.LVL136-.Ltext0
 5632 01ed 0100     		.2byte	0x1
 5633 01ef 53       		.byte	0x53
 5634 01f0 70070000 		.4byte	.LVL136-.Ltext0
 5635 01f4 72070000 		.4byte	.LVL137-.Ltext0
 5636 01f8 0600     		.2byte	0x6
 5637 01fa 72       		.byte	0x72
 5638 01fb 00       		.sleb128 0
 5639 01fc 73       		.byte	0x73
 5640 01fd 00       		.sleb128 0
 5641 01fe 21       		.byte	0x21
 5642 01ff 9F       		.byte	0x9f
 5643 0200 72070000 		.4byte	.LVL137-.Ltext0
 5644 0204 78070000 		.4byte	.LVL138-.Ltext0
 5645 0208 0100     		.2byte	0x1
 5646 020a 53       		.byte	0x53
 5647 020b 78070000 		.4byte	.LVL138-.Ltext0
 5648 020f 7A070000 		.4byte	.LVL139-.Ltext0
 5649 0213 0600     		.2byte	0x6
 5650 0215 72       		.byte	0x72
 5651 0216 00       		.sleb128 0
 5652 0217 73       		.byte	0x73
 5653 0218 00       		.sleb128 0
 5654 0219 21       		.byte	0x21
 5655 021a 9F       		.byte	0x9f
 5656 021b 7A070000 		.4byte	.LVL139-.Ltext0
 5657 021f 80070000 		.4byte	.LVL140-.Ltext0
 5658 0223 0100     		.2byte	0x1
 5659 0225 53       		.byte	0x53
 5660 0226 80070000 		.4byte	.LVL140-.Ltext0
 5661 022a 82070000 		.4byte	.LVL141-.Ltext0
 5662 022e 0600     		.2byte	0x6
 5663 0230 72       		.byte	0x72
 5664 0231 00       		.sleb128 0
 5665 0232 73       		.byte	0x73
 5666 0233 00       		.sleb128 0
 5667 0234 21       		.byte	0x21
 5668 0235 9F       		.byte	0x9f
 5669 0236 82070000 		.4byte	.LVL141-.Ltext0
 5670 023a 88070000 		.4byte	.LVL142-.Ltext0
 5671 023e 0100     		.2byte	0x1
 5672 0240 53       		.byte	0x53
 5673 0241 88070000 		.4byte	.LVL142-.Ltext0
 5674 0245 8A070000 		.4byte	.LVL143-.Ltext0
 5675 0249 2C00     		.2byte	0x2c
 5676 024b 71       		.byte	0x71
 5677 024c 0C       		.sleb128 12
 5678 024d 06       		.byte	0x6
 5679 024e 0B       		.byte	0xb
 5680 024f FFFC     		.2byte	0xfcff
 5681 0251 1A       		.byte	0x1a
 5682 0252 71       		.byte	0x71
 5683 0253 08       		.sleb128 8
 5684 0254 06       		.byte	0x6
 5685 0255 21       		.byte	0x21
ARM GAS  /tmp/ccD9AYux.s 			page 141


 5686 0256 0B       		.byte	0xb
 5687 0257 FFFB     		.2byte	0xfbff
 5688 0259 1A       		.byte	0x1a
 5689 025a 71       		.byte	0x71
 5690 025b 04       		.sleb128 4
 5691 025c 06       		.byte	0x6
 5692 025d 21       		.byte	0x21
 5693 025e 0B       		.byte	0xb
 5694 025f FFF7     		.2byte	0xf7ff
 5695 0261 1A       		.byte	0x1a
 5696 0262 71       		.byte	0x71
 5697 0263 00       		.sleb128 0
 5698 0264 06       		.byte	0x6
 5699 0265 21       		.byte	0x21
 5700 0266 0B       		.byte	0xb
 5701 0267 FFEF     		.2byte	0xefff
 5702 0269 1A       		.byte	0x1a
 5703 026a 71       		.byte	0x71
 5704 026b 10       		.sleb128 16
 5705 026c 06       		.byte	0x6
 5706 026d 21       		.byte	0x21
 5707 026e 0B       		.byte	0xb
 5708 026f FFDF     		.2byte	0xdfff
 5709 0271 1A       		.byte	0x1a
 5710 0272 71       		.byte	0x71
 5711 0273 14       		.sleb128 20
 5712 0274 06       		.byte	0x6
 5713 0275 21       		.byte	0x21
 5714 0276 9F       		.byte	0x9f
 5715 0277 8A070000 		.4byte	.LVL143-.Ltext0
 5716 027b 90070000 		.4byte	.LVL144-.Ltext0
 5717 027f 0100     		.2byte	0x1
 5718 0281 53       		.byte	0x53
 5719 0282 90070000 		.4byte	.LVL144-.Ltext0
 5720 0286 98070000 		.4byte	.LVL146-.Ltext0
 5721 028a 0300     		.2byte	0x3
 5722 028c 72       		.byte	0x72
 5723 028d C400     		.sleb128 68
 5724 028f 98070000 		.4byte	.LVL146-.Ltext0
 5725 0293 9C070000 		.4byte	.LFE95-.Ltext0
 5726 0297 0200     		.2byte	0x2
 5727 0299 30       		.byte	0x30
 5728 029a 9F       		.byte	0x9f
 5729 029b 00000000 		.4byte	0
 5730 029f 00000000 		.4byte	0
 5731              	.LLST71:
 5732 02a3 14070000 		.4byte	.LFB94-.Ltext0
 5733 02a7 1A070000 		.4byte	.LCFI24-.Ltext0
 5734 02ab 0200     		.2byte	0x2
 5735 02ad 7D       		.byte	0x7d
 5736 02ae 00       		.sleb128 0
 5737 02af 1A070000 		.4byte	.LCFI24-.Ltext0
 5738 02b3 50070000 		.4byte	.LFE94-.Ltext0
 5739 02b7 0200     		.2byte	0x2
 5740 02b9 7D       		.byte	0x7d
 5741 02ba 0C       		.sleb128 12
 5742 02bb 00000000 		.4byte	0
ARM GAS  /tmp/ccD9AYux.s 			page 142


 5743 02bf 00000000 		.4byte	0
 5744              	.LLST72:
 5745 02c3 14070000 		.4byte	.LVL120-.Ltext0
 5746 02c7 4E070000 		.4byte	.LVL130-.Ltext0
 5747 02cb 0100     		.2byte	0x1
 5748 02cd 50       		.byte	0x50
 5749 02ce 4E070000 		.4byte	.LVL130-.Ltext0
 5750 02d2 50070000 		.4byte	.LFE94-.Ltext0
 5751 02d6 0400     		.2byte	0x4
 5752 02d8 F3       		.byte	0xf3
 5753 02d9 01       		.uleb128 0x1
 5754 02da 50       		.byte	0x50
 5755 02db 9F       		.byte	0x9f
 5756 02dc 00000000 		.4byte	0
 5757 02e0 00000000 		.4byte	0
 5758              	.LLST73:
 5759 02e4 14070000 		.4byte	.LVL120-.Ltext0
 5760 02e8 30070000 		.4byte	.LVL123-.Ltext0
 5761 02ec 0100     		.2byte	0x1
 5762 02ee 51       		.byte	0x51
 5763 02ef 30070000 		.4byte	.LVL123-.Ltext0
 5764 02f3 50070000 		.4byte	.LFE94-.Ltext0
 5765 02f7 0400     		.2byte	0x4
 5766 02f9 F3       		.byte	0xf3
 5767 02fa 01       		.uleb128 0x1
 5768 02fb 51       		.byte	0x51
 5769 02fc 9F       		.byte	0x9f
 5770 02fd 00000000 		.4byte	0
 5771 0301 00000000 		.4byte	0
 5772              	.LLST74:
 5773 0305 2A070000 		.4byte	.LVL121-.Ltext0
 5774 0309 4C070000 		.4byte	.LVL129-.Ltext0
 5775 030d 0100     		.2byte	0x1
 5776 030f 52       		.byte	0x52
 5777 0310 00000000 		.4byte	0
 5778 0314 00000000 		.4byte	0
 5779              	.LLST75:
 5780 0318 2C070000 		.4byte	.LVL122-.Ltext0
 5781 031c 38070000 		.4byte	.LVL125-.Ltext0
 5782 0320 0100     		.2byte	0x1
 5783 0322 53       		.byte	0x53
 5784 0323 3C070000 		.4byte	.LVL126-.Ltext0
 5785 0327 42070000 		.4byte	.LVL127-.Ltext0
 5786 032b 0100     		.2byte	0x1
 5787 032d 53       		.byte	0x53
 5788 032e 42070000 		.4byte	.LVL127-.Ltext0
 5789 0332 46070000 		.4byte	.LVL128-.Ltext0
 5790 0336 0200     		.2byte	0x2
 5791 0338 74       		.byte	0x74
 5792 0339 08       		.sleb128 8
 5793 033a 00000000 		.4byte	0
 5794 033e 00000000 		.4byte	0
 5795              	.LLST67:
 5796 0342 9E060000 		.4byte	.LFB93-.Ltext0
 5797 0346 A4060000 		.4byte	.LCFI23-.Ltext0
 5798 034a 0200     		.2byte	0x2
 5799 034c 7D       		.byte	0x7d
ARM GAS  /tmp/ccD9AYux.s 			page 143


 5800 034d 00       		.sleb128 0
 5801 034e A4060000 		.4byte	.LCFI23-.Ltext0
 5802 0352 14070000 		.4byte	.LFE93-.Ltext0
 5803 0356 0200     		.2byte	0x2
 5804 0358 7D       		.byte	0x7d
 5805 0359 08       		.sleb128 8
 5806 035a 00000000 		.4byte	0
 5807 035e 00000000 		.4byte	0
 5808              	.LLST68:
 5809 0362 9E060000 		.4byte	.LVL114-.Ltext0
 5810 0366 00070000 		.4byte	.LVL117-.Ltext0
 5811 036a 0100     		.2byte	0x1
 5812 036c 50       		.byte	0x50
 5813 036d 00070000 		.4byte	.LVL117-.Ltext0
 5814 0371 02070000 		.4byte	.LVL118-.Ltext0
 5815 0375 0400     		.2byte	0x4
 5816 0377 F3       		.byte	0xf3
 5817 0378 01       		.uleb128 0x1
 5818 0379 50       		.byte	0x50
 5819 037a 9F       		.byte	0x9f
 5820 037b 02070000 		.4byte	.LVL118-.Ltext0
 5821 037f 04070000 		.4byte	.LVL119-.Ltext0
 5822 0383 0100     		.2byte	0x1
 5823 0385 50       		.byte	0x50
 5824 0386 04070000 		.4byte	.LVL119-.Ltext0
 5825 038a 14070000 		.4byte	.LFE93-.Ltext0
 5826 038e 0400     		.2byte	0x4
 5827 0390 F3       		.byte	0xf3
 5828 0391 01       		.uleb128 0x1
 5829 0392 50       		.byte	0x50
 5830 0393 9F       		.byte	0x9f
 5831 0394 00000000 		.4byte	0
 5832 0398 00000000 		.4byte	0
 5833              	.LLST69:
 5834 039c 9E060000 		.4byte	.LVL114-.Ltext0
 5835 03a0 C2060000 		.4byte	.LVL115-.Ltext0
 5836 03a4 0100     		.2byte	0x1
 5837 03a6 51       		.byte	0x51
 5838 03a7 C2060000 		.4byte	.LVL115-.Ltext0
 5839 03ab 02070000 		.4byte	.LVL118-.Ltext0
 5840 03af 0400     		.2byte	0x4
 5841 03b1 F3       		.byte	0xf3
 5842 03b2 01       		.uleb128 0x1
 5843 03b3 51       		.byte	0x51
 5844 03b4 9F       		.byte	0x9f
 5845 03b5 02070000 		.4byte	.LVL118-.Ltext0
 5846 03b9 14070000 		.4byte	.LFE93-.Ltext0
 5847 03bd 0100     		.2byte	0x1
 5848 03bf 51       		.byte	0x51
 5849 03c0 00000000 		.4byte	0
 5850 03c4 00000000 		.4byte	0
 5851              	.LLST70:
 5852 03c8 9E060000 		.4byte	.LVL114-.Ltext0
 5853 03cc D8060000 		.4byte	.LVL116-.Ltext0
 5854 03d0 0100     		.2byte	0x1
 5855 03d2 52       		.byte	0x52
 5856 03d3 D8060000 		.4byte	.LVL116-.Ltext0
ARM GAS  /tmp/ccD9AYux.s 			page 144


 5857 03d7 02070000 		.4byte	.LVL118-.Ltext0
 5858 03db 0400     		.2byte	0x4
 5859 03dd F3       		.byte	0xf3
 5860 03de 01       		.uleb128 0x1
 5861 03df 52       		.byte	0x52
 5862 03e0 9F       		.byte	0x9f
 5863 03e1 02070000 		.4byte	.LVL118-.Ltext0
 5864 03e5 14070000 		.4byte	.LFE93-.Ltext0
 5865 03e9 0100     		.2byte	0x1
 5866 03eb 52       		.byte	0x52
 5867 03ec 00000000 		.4byte	0
 5868 03f0 00000000 		.4byte	0
 5869              	.LLST63:
 5870 03f4 44060000 		.4byte	.LFB92-.Ltext0
 5871 03f8 4A060000 		.4byte	.LCFI22-.Ltext0
 5872 03fc 0200     		.2byte	0x2
 5873 03fe 7D       		.byte	0x7d
 5874 03ff 00       		.sleb128 0
 5875 0400 4A060000 		.4byte	.LCFI22-.Ltext0
 5876 0404 9E060000 		.4byte	.LFE92-.Ltext0
 5877 0408 0200     		.2byte	0x2
 5878 040a 7D       		.byte	0x7d
 5879 040b 08       		.sleb128 8
 5880 040c 00000000 		.4byte	0
 5881 0410 00000000 		.4byte	0
 5882              	.LLST64:
 5883 0414 44060000 		.4byte	.LVL108-.Ltext0
 5884 0418 98060000 		.4byte	.LVL111-.Ltext0
 5885 041c 0100     		.2byte	0x1
 5886 041e 50       		.byte	0x50
 5887 041f 98060000 		.4byte	.LVL111-.Ltext0
 5888 0423 9A060000 		.4byte	.LVL112-.Ltext0
 5889 0427 0400     		.2byte	0x4
 5890 0429 F3       		.byte	0xf3
 5891 042a 01       		.uleb128 0x1
 5892 042b 50       		.byte	0x50
 5893 042c 9F       		.byte	0x9f
 5894 042d 9A060000 		.4byte	.LVL112-.Ltext0
 5895 0431 9C060000 		.4byte	.LVL113-.Ltext0
 5896 0435 0100     		.2byte	0x1
 5897 0437 50       		.byte	0x50
 5898 0438 9C060000 		.4byte	.LVL113-.Ltext0
 5899 043c 9E060000 		.4byte	.LFE92-.Ltext0
 5900 0440 0400     		.2byte	0x4
 5901 0442 F3       		.byte	0xf3
 5902 0443 01       		.uleb128 0x1
 5903 0444 50       		.byte	0x50
 5904 0445 9F       		.byte	0x9f
 5905 0446 00000000 		.4byte	0
 5906 044a 00000000 		.4byte	0
 5907              	.LLST65:
 5908 044e 44060000 		.4byte	.LVL108-.Ltext0
 5909 0452 68060000 		.4byte	.LVL109-.Ltext0
 5910 0456 0100     		.2byte	0x1
 5911 0458 51       		.byte	0x51
 5912 0459 68060000 		.4byte	.LVL109-.Ltext0
 5913 045d 9A060000 		.4byte	.LVL112-.Ltext0
ARM GAS  /tmp/ccD9AYux.s 			page 145


 5914 0461 0400     		.2byte	0x4
 5915 0463 F3       		.byte	0xf3
 5916 0464 01       		.uleb128 0x1
 5917 0465 51       		.byte	0x51
 5918 0466 9F       		.byte	0x9f
 5919 0467 9A060000 		.4byte	.LVL112-.Ltext0
 5920 046b 9E060000 		.4byte	.LFE92-.Ltext0
 5921 046f 0100     		.2byte	0x1
 5922 0471 51       		.byte	0x51
 5923 0472 00000000 		.4byte	0
 5924 0476 00000000 		.4byte	0
 5925              	.LLST66:
 5926 047a 44060000 		.4byte	.LVL108-.Ltext0
 5927 047e 7E060000 		.4byte	.LVL110-.Ltext0
 5928 0482 0100     		.2byte	0x1
 5929 0484 52       		.byte	0x52
 5930 0485 7E060000 		.4byte	.LVL110-.Ltext0
 5931 0489 9A060000 		.4byte	.LVL112-.Ltext0
 5932 048d 0400     		.2byte	0x4
 5933 048f F3       		.byte	0xf3
 5934 0490 01       		.uleb128 0x1
 5935 0491 52       		.byte	0x52
 5936 0492 9F       		.byte	0x9f
 5937 0493 9A060000 		.4byte	.LVL112-.Ltext0
 5938 0497 9E060000 		.4byte	.LFE92-.Ltext0
 5939 049b 0100     		.2byte	0x1
 5940 049d 52       		.byte	0x52
 5941 049e 00000000 		.4byte	0
 5942 04a2 00000000 		.4byte	0
 5943              	.LLST59:
 5944 04a6 EA050000 		.4byte	.LFB91-.Ltext0
 5945 04aa F0050000 		.4byte	.LCFI21-.Ltext0
 5946 04ae 0200     		.2byte	0x2
 5947 04b0 7D       		.byte	0x7d
 5948 04b1 00       		.sleb128 0
 5949 04b2 F0050000 		.4byte	.LCFI21-.Ltext0
 5950 04b6 44060000 		.4byte	.LFE91-.Ltext0
 5951 04ba 0200     		.2byte	0x2
 5952 04bc 7D       		.byte	0x7d
 5953 04bd 08       		.sleb128 8
 5954 04be 00000000 		.4byte	0
 5955 04c2 00000000 		.4byte	0
 5956              	.LLST60:
 5957 04c6 EA050000 		.4byte	.LVL102-.Ltext0
 5958 04ca 3E060000 		.4byte	.LVL105-.Ltext0
 5959 04ce 0100     		.2byte	0x1
 5960 04d0 50       		.byte	0x50
 5961 04d1 3E060000 		.4byte	.LVL105-.Ltext0
 5962 04d5 40060000 		.4byte	.LVL106-.Ltext0
 5963 04d9 0400     		.2byte	0x4
 5964 04db F3       		.byte	0xf3
 5965 04dc 01       		.uleb128 0x1
 5966 04dd 50       		.byte	0x50
 5967 04de 9F       		.byte	0x9f
 5968 04df 40060000 		.4byte	.LVL106-.Ltext0
 5969 04e3 42060000 		.4byte	.LVL107-.Ltext0
 5970 04e7 0100     		.2byte	0x1
ARM GAS  /tmp/ccD9AYux.s 			page 146


 5971 04e9 50       		.byte	0x50
 5972 04ea 42060000 		.4byte	.LVL107-.Ltext0
 5973 04ee 44060000 		.4byte	.LFE91-.Ltext0
 5974 04f2 0400     		.2byte	0x4
 5975 04f4 F3       		.byte	0xf3
 5976 04f5 01       		.uleb128 0x1
 5977 04f6 50       		.byte	0x50
 5978 04f7 9F       		.byte	0x9f
 5979 04f8 00000000 		.4byte	0
 5980 04fc 00000000 		.4byte	0
 5981              	.LLST61:
 5982 0500 EA050000 		.4byte	.LVL102-.Ltext0
 5983 0504 0E060000 		.4byte	.LVL103-.Ltext0
 5984 0508 0100     		.2byte	0x1
 5985 050a 51       		.byte	0x51
 5986 050b 0E060000 		.4byte	.LVL103-.Ltext0
 5987 050f 40060000 		.4byte	.LVL106-.Ltext0
 5988 0513 0400     		.2byte	0x4
 5989 0515 F3       		.byte	0xf3
 5990 0516 01       		.uleb128 0x1
 5991 0517 51       		.byte	0x51
 5992 0518 9F       		.byte	0x9f
 5993 0519 40060000 		.4byte	.LVL106-.Ltext0
 5994 051d 44060000 		.4byte	.LFE91-.Ltext0
 5995 0521 0100     		.2byte	0x1
 5996 0523 51       		.byte	0x51
 5997 0524 00000000 		.4byte	0
 5998 0528 00000000 		.4byte	0
 5999              	.LLST62:
 6000 052c EA050000 		.4byte	.LVL102-.Ltext0
 6001 0530 24060000 		.4byte	.LVL104-.Ltext0
 6002 0534 0100     		.2byte	0x1
 6003 0536 52       		.byte	0x52
 6004 0537 24060000 		.4byte	.LVL104-.Ltext0
 6005 053b 40060000 		.4byte	.LVL106-.Ltext0
 6006 053f 0400     		.2byte	0x4
 6007 0541 F3       		.byte	0xf3
 6008 0542 01       		.uleb128 0x1
 6009 0543 52       		.byte	0x52
 6010 0544 9F       		.byte	0x9f
 6011 0545 40060000 		.4byte	.LVL106-.Ltext0
 6012 0549 44060000 		.4byte	.LFE91-.Ltext0
 6013 054d 0100     		.2byte	0x1
 6014 054f 52       		.byte	0x52
 6015 0550 00000000 		.4byte	0
 6016 0554 00000000 		.4byte	0
 6017              	.LLST56:
 6018 0558 90050000 		.4byte	.LFB90-.Ltext0
 6019 055c 92050000 		.4byte	.LCFI20-.Ltext0
 6020 0560 0200     		.2byte	0x2
 6021 0562 7D       		.byte	0x7d
 6022 0563 00       		.sleb128 0
 6023 0564 92050000 		.4byte	.LCFI20-.Ltext0
 6024 0568 EA050000 		.4byte	.LFE90-.Ltext0
 6025 056c 0200     		.2byte	0x2
 6026 056e 7D       		.byte	0x7d
 6027 056f 08       		.sleb128 8
ARM GAS  /tmp/ccD9AYux.s 			page 147


 6028 0570 00000000 		.4byte	0
 6029 0574 00000000 		.4byte	0
 6030              	.LLST57:
 6031 0578 90050000 		.4byte	.LVL99-.Ltext0
 6032 057c 96050000 		.4byte	.LVL100-.Ltext0
 6033 0580 0100     		.2byte	0x1
 6034 0582 50       		.byte	0x50
 6035 0583 96050000 		.4byte	.LVL100-.Ltext0
 6036 0587 EA050000 		.4byte	.LFE90-.Ltext0
 6037 058b 0100     		.2byte	0x1
 6038 058d 54       		.byte	0x54
 6039 058e 00000000 		.4byte	0
 6040 0592 00000000 		.4byte	0
 6041              	.LLST58:
 6042 0596 90050000 		.4byte	.LVL99-.Ltext0
 6043 059a AB050000 		.4byte	.LVL101-1-.Ltext0
 6044 059e 0100     		.2byte	0x1
 6045 05a0 51       		.byte	0x51
 6046 05a1 AB050000 		.4byte	.LVL101-1-.Ltext0
 6047 05a5 EA050000 		.4byte	.LFE90-.Ltext0
 6048 05a9 0400     		.2byte	0x4
 6049 05ab F3       		.byte	0xf3
 6050 05ac 01       		.uleb128 0x1
 6051 05ad 51       		.byte	0x51
 6052 05ae 9F       		.byte	0x9f
 6053 05af 00000000 		.4byte	0
 6054 05b3 00000000 		.4byte	0
 6055              	.LLST53:
 6056 05b7 66050000 		.4byte	.LFB89-.Ltext0
 6057 05bb 68050000 		.4byte	.LCFI19-.Ltext0
 6058 05bf 0200     		.2byte	0x2
 6059 05c1 7D       		.byte	0x7d
 6060 05c2 00       		.sleb128 0
 6061 05c3 68050000 		.4byte	.LCFI19-.Ltext0
 6062 05c7 90050000 		.4byte	.LFE89-.Ltext0
 6063 05cb 0200     		.2byte	0x2
 6064 05cd 7D       		.byte	0x7d
 6065 05ce 08       		.sleb128 8
 6066 05cf 00000000 		.4byte	0
 6067 05d3 00000000 		.4byte	0
 6068              	.LLST54:
 6069 05d7 66050000 		.4byte	.LVL96-.Ltext0
 6070 05db 6C050000 		.4byte	.LVL97-.Ltext0
 6071 05df 0100     		.2byte	0x1
 6072 05e1 50       		.byte	0x50
 6073 05e2 6C050000 		.4byte	.LVL97-.Ltext0
 6074 05e6 90050000 		.4byte	.LFE89-.Ltext0
 6075 05ea 0100     		.2byte	0x1
 6076 05ec 54       		.byte	0x54
 6077 05ed 00000000 		.4byte	0
 6078 05f1 00000000 		.4byte	0
 6079              	.LLST55:
 6080 05f5 66050000 		.4byte	.LVL96-.Ltext0
 6081 05f9 81050000 		.4byte	.LVL98-1-.Ltext0
 6082 05fd 0100     		.2byte	0x1
 6083 05ff 51       		.byte	0x51
 6084 0600 81050000 		.4byte	.LVL98-1-.Ltext0
ARM GAS  /tmp/ccD9AYux.s 			page 148


 6085 0604 90050000 		.4byte	.LFE89-.Ltext0
 6086 0608 0400     		.2byte	0x4
 6087 060a F3       		.byte	0xf3
 6088 060b 01       		.uleb128 0x1
 6089 060c 51       		.byte	0x51
 6090 060d 9F       		.byte	0x9f
 6091 060e 00000000 		.4byte	0
 6092 0612 00000000 		.4byte	0
 6093              	.LLST50:
 6094 0616 14050000 		.4byte	.LFB88-.Ltext0
 6095 061a 16050000 		.4byte	.LCFI18-.Ltext0
 6096 061e 0200     		.2byte	0x2
 6097 0620 7D       		.byte	0x7d
 6098 0621 00       		.sleb128 0
 6099 0622 16050000 		.4byte	.LCFI18-.Ltext0
 6100 0626 5E050000 		.4byte	.LFE88-.Ltext0
 6101 062a 0200     		.2byte	0x2
 6102 062c 7D       		.byte	0x7d
 6103 062d 08       		.sleb128 8
 6104 062e 00000000 		.4byte	0
 6105 0632 00000000 		.4byte	0
 6106              	.LLST51:
 6107 0636 14050000 		.4byte	.LVL93-.Ltext0
 6108 063a 1C050000 		.4byte	.LVL94-.Ltext0
 6109 063e 0100     		.2byte	0x1
 6110 0640 50       		.byte	0x50
 6111 0641 1C050000 		.4byte	.LVL94-.Ltext0
 6112 0645 5E050000 		.4byte	.LFE88-.Ltext0
 6113 0649 0100     		.2byte	0x1
 6114 064b 54       		.byte	0x54
 6115 064c 00000000 		.4byte	0
 6116 0650 00000000 		.4byte	0
 6117              	.LLST52:
 6118 0654 14050000 		.4byte	.LVL93-.Ltext0
 6119 0658 1F050000 		.4byte	.LVL95-1-.Ltext0
 6120 065c 0100     		.2byte	0x1
 6121 065e 51       		.byte	0x51
 6122 065f 1F050000 		.4byte	.LVL95-1-.Ltext0
 6123 0663 5E050000 		.4byte	.LFE88-.Ltext0
 6124 0667 0400     		.2byte	0x4
 6125 0669 F3       		.byte	0xf3
 6126 066a 01       		.uleb128 0x1
 6127 066b 51       		.byte	0x51
 6128 066c 9F       		.byte	0x9f
 6129 066d 00000000 		.4byte	0
 6130 0671 00000000 		.4byte	0
 6131              	.LLST47:
 6132 0675 FA040000 		.4byte	.LFB87-.Ltext0
 6133 0679 FC040000 		.4byte	.LCFI17-.Ltext0
 6134 067d 0200     		.2byte	0x2
 6135 067f 7D       		.byte	0x7d
 6136 0680 00       		.sleb128 0
 6137 0681 FC040000 		.4byte	.LCFI17-.Ltext0
 6138 0685 14050000 		.4byte	.LFE87-.Ltext0
 6139 0689 0200     		.2byte	0x2
 6140 068b 7D       		.byte	0x7d
 6141 068c 08       		.sleb128 8
ARM GAS  /tmp/ccD9AYux.s 			page 149


 6142 068d 00000000 		.4byte	0
 6143 0691 00000000 		.4byte	0
 6144              	.LLST48:
 6145 0695 FA040000 		.4byte	.LVL90-.Ltext0
 6146 0699 02050000 		.4byte	.LVL91-.Ltext0
 6147 069d 0100     		.2byte	0x1
 6148 069f 50       		.byte	0x50
 6149 06a0 02050000 		.4byte	.LVL91-.Ltext0
 6150 06a4 14050000 		.4byte	.LFE87-.Ltext0
 6151 06a8 0100     		.2byte	0x1
 6152 06aa 54       		.byte	0x54
 6153 06ab 00000000 		.4byte	0
 6154 06af 00000000 		.4byte	0
 6155              	.LLST49:
 6156 06b3 FA040000 		.4byte	.LVL90-.Ltext0
 6157 06b7 05050000 		.4byte	.LVL92-1-.Ltext0
 6158 06bb 0100     		.2byte	0x1
 6159 06bd 51       		.byte	0x51
 6160 06be 05050000 		.4byte	.LVL92-1-.Ltext0
 6161 06c2 14050000 		.4byte	.LFE87-.Ltext0
 6162 06c6 0400     		.2byte	0x4
 6163 06c8 F3       		.byte	0xf3
 6164 06c9 01       		.uleb128 0x1
 6165 06ca 51       		.byte	0x51
 6166 06cb 9F       		.byte	0x9f
 6167 06cc 00000000 		.4byte	0
 6168 06d0 00000000 		.4byte	0
 6169              	.LLST44:
 6170 06d4 6C040000 		.4byte	.LFB86-.Ltext0
 6171 06d8 70040000 		.4byte	.LCFI16-.Ltext0
 6172 06dc 0200     		.2byte	0x2
 6173 06de 7D       		.byte	0x7d
 6174 06df 00       		.sleb128 0
 6175 06e0 70040000 		.4byte	.LCFI16-.Ltext0
 6176 06e4 F6040000 		.4byte	.LFE86-.Ltext0
 6177 06e8 0200     		.2byte	0x2
 6178 06ea 7D       		.byte	0x7d
 6179 06eb 10       		.sleb128 16
 6180 06ec 00000000 		.4byte	0
 6181 06f0 00000000 		.4byte	0
 6182              	.LLST45:
 6183 06f4 6C040000 		.4byte	.LVL82-.Ltext0
 6184 06f8 80040000 		.4byte	.LVL83-.Ltext0
 6185 06fc 0100     		.2byte	0x1
 6186 06fe 50       		.byte	0x50
 6187 06ff 80040000 		.4byte	.LVL83-.Ltext0
 6188 0703 DA040000 		.4byte	.LVL86-.Ltext0
 6189 0707 0100     		.2byte	0x1
 6190 0709 54       		.byte	0x54
 6191 070a DA040000 		.4byte	.LVL86-.Ltext0
 6192 070e DE040000 		.4byte	.LVL87-.Ltext0
 6193 0712 0100     		.2byte	0x1
 6194 0714 50       		.byte	0x50
 6195 0715 DE040000 		.4byte	.LVL87-.Ltext0
 6196 0719 E8040000 		.4byte	.LVL88-.Ltext0
 6197 071d 0100     		.2byte	0x1
 6198 071f 54       		.byte	0x54
ARM GAS  /tmp/ccD9AYux.s 			page 150


 6199 0720 E8040000 		.4byte	.LVL88-.Ltext0
 6200 0724 EC040000 		.4byte	.LVL89-.Ltext0
 6201 0728 0100     		.2byte	0x1
 6202 072a 50       		.byte	0x50
 6203 072b EC040000 		.4byte	.LVL89-.Ltext0
 6204 072f F6040000 		.4byte	.LFE86-.Ltext0
 6205 0733 0100     		.2byte	0x1
 6206 0735 54       		.byte	0x54
 6207 0736 00000000 		.4byte	0
 6208 073a 00000000 		.4byte	0
 6209              	.LLST46:
 6210 073e 6C040000 		.4byte	.LVL82-.Ltext0
 6211 0742 8B040000 		.4byte	.LVL84-1-.Ltext0
 6212 0746 0100     		.2byte	0x1
 6213 0748 51       		.byte	0x51
 6214 0749 8B040000 		.4byte	.LVL84-1-.Ltext0
 6215 074d DA040000 		.4byte	.LVL86-.Ltext0
 6216 0751 0100     		.2byte	0x1
 6217 0753 55       		.byte	0x55
 6218 0754 DA040000 		.4byte	.LVL86-.Ltext0
 6219 0758 F6040000 		.4byte	.LFE86-.Ltext0
 6220 075c 0100     		.2byte	0x1
 6221 075e 51       		.byte	0x51
 6222 075f 00000000 		.4byte	0
 6223 0763 00000000 		.4byte	0
 6224              	.LLST38:
 6225 0767 92030000 		.4byte	.LFB85-.Ltext0
 6226 076b 94030000 		.4byte	.LCFI15-.Ltext0
 6227 076f 0200     		.2byte	0x2
 6228 0771 7D       		.byte	0x7d
 6229 0772 00       		.sleb128 0
 6230 0773 94030000 		.4byte	.LCFI15-.Ltext0
 6231 0777 68040000 		.4byte	.LFE85-.Ltext0
 6232 077b 0200     		.2byte	0x2
 6233 077d 7D       		.byte	0x7d
 6234 077e 10       		.sleb128 16
 6235 077f 00000000 		.4byte	0
 6236 0783 00000000 		.4byte	0
 6237              	.LLST39:
 6238 0787 92030000 		.4byte	.LVL67-.Ltext0
 6239 078b 9A030000 		.4byte	.LVL68-.Ltext0
 6240 078f 0100     		.2byte	0x1
 6241 0791 50       		.byte	0x50
 6242 0792 9A030000 		.4byte	.LVL68-.Ltext0
 6243 0796 68040000 		.4byte	.LFE85-.Ltext0
 6244 079a 0100     		.2byte	0x1
 6245 079c 54       		.byte	0x54
 6246 079d 00000000 		.4byte	0
 6247 07a1 00000000 		.4byte	0
 6248              	.LLST40:
 6249 07a5 92030000 		.4byte	.LVL67-.Ltext0
 6250 07a9 A2030000 		.4byte	.LVL69-.Ltext0
 6251 07ad 0100     		.2byte	0x1
 6252 07af 51       		.byte	0x51
 6253 07b0 A2030000 		.4byte	.LVL69-.Ltext0
 6254 07b4 68040000 		.4byte	.LFE85-.Ltext0
 6255 07b8 0100     		.2byte	0x1
ARM GAS  /tmp/ccD9AYux.s 			page 151


 6256 07ba 55       		.byte	0x55
 6257 07bb 00000000 		.4byte	0
 6258 07bf 00000000 		.4byte	0
 6259              	.LLST41:
 6260 07c3 92030000 		.4byte	.LVL67-.Ltext0
 6261 07c7 A8030000 		.4byte	.LVL70-.Ltext0
 6262 07cb 0100     		.2byte	0x1
 6263 07cd 52       		.byte	0x52
 6264 07ce A8030000 		.4byte	.LVL70-.Ltext0
 6265 07d2 B0030000 		.4byte	.LVL71-.Ltext0
 6266 07d6 0100     		.2byte	0x1
 6267 07d8 51       		.byte	0x51
 6268 07d9 B0030000 		.4byte	.LVL71-.Ltext0
 6269 07dd B4030000 		.4byte	.LVL72-.Ltext0
 6270 07e1 0400     		.2byte	0x4
 6271 07e3 F3       		.byte	0xf3
 6272 07e4 01       		.uleb128 0x1
 6273 07e5 52       		.byte	0x52
 6274 07e6 9F       		.byte	0x9f
 6275 07e7 B4030000 		.4byte	.LVL72-.Ltext0
 6276 07eb D9030000 		.4byte	.LVL73-1-.Ltext0
 6277 07ef 0100     		.2byte	0x1
 6278 07f1 51       		.byte	0x51
 6279 07f2 D9030000 		.4byte	.LVL73-1-.Ltext0
 6280 07f6 12040000 		.4byte	.LVL78-.Ltext0
 6281 07fa 0400     		.2byte	0x4
 6282 07fc F3       		.byte	0xf3
 6283 07fd 01       		.uleb128 0x1
 6284 07fe 52       		.byte	0x52
 6285 07ff 9F       		.byte	0x9f
 6286 0800 12040000 		.4byte	.LVL78-.Ltext0
 6287 0804 27040000 		.4byte	.LVL79-1-.Ltext0
 6288 0808 0100     		.2byte	0x1
 6289 080a 51       		.byte	0x51
 6290 080b 27040000 		.4byte	.LVL79-1-.Ltext0
 6291 080f 36040000 		.4byte	.LVL80-.Ltext0
 6292 0813 0400     		.2byte	0x4
 6293 0815 F3       		.byte	0xf3
 6294 0816 01       		.uleb128 0x1
 6295 0817 52       		.byte	0x52
 6296 0818 9F       		.byte	0x9f
 6297 0819 36040000 		.4byte	.LVL80-.Ltext0
 6298 081d 4B040000 		.4byte	.LVL81-1-.Ltext0
 6299 0821 0100     		.2byte	0x1
 6300 0823 51       		.byte	0x51
 6301 0824 4B040000 		.4byte	.LVL81-1-.Ltext0
 6302 0828 68040000 		.4byte	.LFE85-.Ltext0
 6303 082c 0400     		.2byte	0x4
 6304 082e F3       		.byte	0xf3
 6305 082f 01       		.uleb128 0x1
 6306 0830 52       		.byte	0x52
 6307 0831 9F       		.byte	0x9f
 6308 0832 00000000 		.4byte	0
 6309 0836 00000000 		.4byte	0
 6310              	.LLST42:
 6311 083a 92030000 		.4byte	.LVL67-.Ltext0
 6312 083e B0030000 		.4byte	.LVL71-.Ltext0
ARM GAS  /tmp/ccD9AYux.s 			page 152


 6313 0842 0100     		.2byte	0x1
 6314 0844 53       		.byte	0x53
 6315 0845 B0030000 		.4byte	.LVL71-.Ltext0
 6316 0849 B4030000 		.4byte	.LVL72-.Ltext0
 6317 084d 0400     		.2byte	0x4
 6318 084f F3       		.byte	0xf3
 6319 0850 01       		.uleb128 0x1
 6320 0851 53       		.byte	0x53
 6321 0852 9F       		.byte	0x9f
 6322 0853 B4030000 		.4byte	.LVL72-.Ltext0
 6323 0857 D9030000 		.4byte	.LVL73-1-.Ltext0
 6324 085b 0100     		.2byte	0x1
 6325 085d 53       		.byte	0x53
 6326 085e D9030000 		.4byte	.LVL73-1-.Ltext0
 6327 0862 12040000 		.4byte	.LVL78-.Ltext0
 6328 0866 0400     		.2byte	0x4
 6329 0868 F3       		.byte	0xf3
 6330 0869 01       		.uleb128 0x1
 6331 086a 53       		.byte	0x53
 6332 086b 9F       		.byte	0x9f
 6333 086c 12040000 		.4byte	.LVL78-.Ltext0
 6334 0870 27040000 		.4byte	.LVL79-1-.Ltext0
 6335 0874 0100     		.2byte	0x1
 6336 0876 53       		.byte	0x53
 6337 0877 27040000 		.4byte	.LVL79-1-.Ltext0
 6338 087b 36040000 		.4byte	.LVL80-.Ltext0
 6339 087f 0400     		.2byte	0x4
 6340 0881 F3       		.byte	0xf3
 6341 0882 01       		.uleb128 0x1
 6342 0883 53       		.byte	0x53
 6343 0884 9F       		.byte	0x9f
 6344 0885 36040000 		.4byte	.LVL80-.Ltext0
 6345 0889 4B040000 		.4byte	.LVL81-1-.Ltext0
 6346 088d 0100     		.2byte	0x1
 6347 088f 53       		.byte	0x53
 6348 0890 4B040000 		.4byte	.LVL81-1-.Ltext0
 6349 0894 68040000 		.4byte	.LFE85-.Ltext0
 6350 0898 0400     		.2byte	0x4
 6351 089a F3       		.byte	0xf3
 6352 089b 01       		.uleb128 0x1
 6353 089c 53       		.byte	0x53
 6354 089d 9F       		.byte	0x9f
 6355 089e 00000000 		.4byte	0
 6356 08a2 00000000 		.4byte	0
 6357              	.LLST43:
 6358 08a6 00040000 		.4byte	.LVL75-.Ltext0
 6359 08aa 04040000 		.4byte	.LVL76-.Ltext0
 6360 08ae 0500     		.2byte	0x5
 6361 08b0 72       		.byte	0x72
 6362 08b1 00       		.sleb128 0
 6363 08b2 37       		.byte	0x37
 6364 08b3 1A       		.byte	0x1a
 6365 08b4 9F       		.byte	0x9f
 6366 08b5 04040000 		.4byte	.LVL76-.Ltext0
 6367 08b9 0A040000 		.4byte	.LVL77-.Ltext0
 6368 08bd 0100     		.2byte	0x1
 6369 08bf 52       		.byte	0x52
ARM GAS  /tmp/ccD9AYux.s 			page 153


 6370 08c0 00000000 		.4byte	0
 6371 08c4 00000000 		.4byte	0
 6372              	.LLST34:
 6373 08c8 0A030000 		.4byte	.LFB84-.Ltext0
 6374 08cc 0E030000 		.4byte	.LCFI14-.Ltext0
 6375 08d0 0200     		.2byte	0x2
 6376 08d2 7D       		.byte	0x7d
 6377 08d3 00       		.sleb128 0
 6378 08d4 0E030000 		.4byte	.LCFI14-.Ltext0
 6379 08d8 8E030000 		.4byte	.LFE84-.Ltext0
 6380 08dc 0200     		.2byte	0x2
 6381 08de 7D       		.byte	0x7d
 6382 08df 08       		.sleb128 8
 6383 08e0 00000000 		.4byte	0
 6384 08e4 00000000 		.4byte	0
 6385              	.LLST35:
 6386 08e8 0A030000 		.4byte	.LVL61-.Ltext0
 6387 08ec 26030000 		.4byte	.LVL62-.Ltext0
 6388 08f0 0100     		.2byte	0x1
 6389 08f2 50       		.byte	0x50
 6390 08f3 26030000 		.4byte	.LVL62-.Ltext0
 6391 08f7 7A030000 		.4byte	.LVL66-.Ltext0
 6392 08fb 0100     		.2byte	0x1
 6393 08fd 54       		.byte	0x54
 6394 08fe 7A030000 		.4byte	.LVL66-.Ltext0
 6395 0902 8E030000 		.4byte	.LFE84-.Ltext0
 6396 0906 0100     		.2byte	0x1
 6397 0908 50       		.byte	0x50
 6398 0909 00000000 		.4byte	0
 6399 090d 00000000 		.4byte	0
 6400              	.LLST36:
 6401 0911 0A030000 		.4byte	.LVL61-.Ltext0
 6402 0915 29030000 		.4byte	.LVL63-1-.Ltext0
 6403 0919 0100     		.2byte	0x1
 6404 091b 51       		.byte	0x51
 6405 091c 29030000 		.4byte	.LVL63-1-.Ltext0
 6406 0920 7A030000 		.4byte	.LVL66-.Ltext0
 6407 0924 0400     		.2byte	0x4
 6408 0926 F3       		.byte	0xf3
 6409 0927 01       		.uleb128 0x1
 6410 0928 51       		.byte	0x51
 6411 0929 9F       		.byte	0x9f
 6412 092a 7A030000 		.4byte	.LVL66-.Ltext0
 6413 092e 8E030000 		.4byte	.LFE84-.Ltext0
 6414 0932 0100     		.2byte	0x1
 6415 0934 51       		.byte	0x51
 6416 0935 00000000 		.4byte	0
 6417 0939 00000000 		.4byte	0
 6418              	.LLST37:
 6419 093d 32030000 		.4byte	.LVL64-.Ltext0
 6420 0941 44030000 		.4byte	.LVL65-.Ltext0
 6421 0945 0100     		.2byte	0x1
 6422 0947 51       		.byte	0x51
 6423 0948 00000000 		.4byte	0
 6424 094c 00000000 		.4byte	0
 6425              	.LLST30:
 6426 0950 B0020000 		.4byte	.LFB83-.Ltext0
ARM GAS  /tmp/ccD9AYux.s 			page 154


 6427 0954 B4020000 		.4byte	.LCFI13-.Ltext0
 6428 0958 0200     		.2byte	0x2
 6429 095a 7D       		.byte	0x7d
 6430 095b 00       		.sleb128 0
 6431 095c B4020000 		.4byte	.LCFI13-.Ltext0
 6432 0960 06030000 		.4byte	.LFE83-.Ltext0
 6433 0964 0200     		.2byte	0x2
 6434 0966 7D       		.byte	0x7d
 6435 0967 08       		.sleb128 8
 6436 0968 00000000 		.4byte	0
 6437 096c 00000000 		.4byte	0
 6438              	.LLST31:
 6439 0970 B0020000 		.4byte	.LVL54-.Ltext0
 6440 0974 B8020000 		.4byte	.LVL55-.Ltext0
 6441 0978 0100     		.2byte	0x1
 6442 097a 50       		.byte	0x50
 6443 097b B8020000 		.4byte	.LVL55-.Ltext0
 6444 097f 06030000 		.4byte	.LFE83-.Ltext0
 6445 0983 0100     		.2byte	0x1
 6446 0985 54       		.byte	0x54
 6447 0986 00000000 		.4byte	0
 6448 098a 00000000 		.4byte	0
 6449              	.LLST32:
 6450 098e B0020000 		.4byte	.LVL54-.Ltext0
 6451 0992 D5020000 		.4byte	.LVL56-1-.Ltext0
 6452 0996 0100     		.2byte	0x1
 6453 0998 51       		.byte	0x51
 6454 0999 D5020000 		.4byte	.LVL56-1-.Ltext0
 6455 099d F6020000 		.4byte	.LVL60-.Ltext0
 6456 09a1 0400     		.2byte	0x4
 6457 09a3 F3       		.byte	0xf3
 6458 09a4 01       		.uleb128 0x1
 6459 09a5 51       		.byte	0x51
 6460 09a6 9F       		.byte	0x9f
 6461 09a7 F6020000 		.4byte	.LVL60-.Ltext0
 6462 09ab 06030000 		.4byte	.LFE83-.Ltext0
 6463 09af 0100     		.2byte	0x1
 6464 09b1 51       		.byte	0x51
 6465 09b2 00000000 		.4byte	0
 6466 09b6 00000000 		.4byte	0
 6467              	.LLST33:
 6468 09ba E4020000 		.4byte	.LVL57-.Ltext0
 6469 09be E8020000 		.4byte	.LVL58-.Ltext0
 6470 09c2 0500     		.2byte	0x5
 6471 09c4 72       		.byte	0x72
 6472 09c5 00       		.sleb128 0
 6473 09c6 37       		.byte	0x37
 6474 09c7 1A       		.byte	0x1a
 6475 09c8 9F       		.byte	0x9f
 6476 09c9 E8020000 		.4byte	.LVL58-.Ltext0
 6477 09cd EE020000 		.4byte	.LVL59-.Ltext0
 6478 09d1 0100     		.2byte	0x1
 6479 09d3 52       		.byte	0x52
 6480 09d4 00000000 		.4byte	0
 6481 09d8 00000000 		.4byte	0
 6482              	.LLST26:
 6483 09dc 80020000 		.4byte	.LFB81-.Ltext0
ARM GAS  /tmp/ccD9AYux.s 			page 155


 6484 09e0 82020000 		.4byte	.LCFI12-.Ltext0
 6485 09e4 0200     		.2byte	0x2
 6486 09e6 7D       		.byte	0x7d
 6487 09e7 00       		.sleb128 0
 6488 09e8 82020000 		.4byte	.LCFI12-.Ltext0
 6489 09ec AC020000 		.4byte	.LFE81-.Ltext0
 6490 09f0 0200     		.2byte	0x2
 6491 09f2 7D       		.byte	0x7d
 6492 09f3 08       		.sleb128 8
 6493 09f4 00000000 		.4byte	0
 6494 09f8 00000000 		.4byte	0
 6495              	.LLST27:
 6496 09fc 80020000 		.4byte	.LVL48-.Ltext0
 6497 0a00 88020000 		.4byte	.LVL49-.Ltext0
 6498 0a04 0100     		.2byte	0x1
 6499 0a06 50       		.byte	0x50
 6500 0a07 88020000 		.4byte	.LVL49-.Ltext0
 6501 0a0b AC020000 		.4byte	.LFE81-.Ltext0
 6502 0a0f 0100     		.2byte	0x1
 6503 0a11 54       		.byte	0x54
 6504 0a12 00000000 		.4byte	0
 6505 0a16 00000000 		.4byte	0
 6506              	.LLST28:
 6507 0a1a 80020000 		.4byte	.LVL48-.Ltext0
 6508 0a1e 8B020000 		.4byte	.LVL50-1-.Ltext0
 6509 0a22 0100     		.2byte	0x1
 6510 0a24 51       		.byte	0x51
 6511 0a25 8B020000 		.4byte	.LVL50-1-.Ltext0
 6512 0a29 AC020000 		.4byte	.LFE81-.Ltext0
 6513 0a2d 0400     		.2byte	0x4
 6514 0a2f F3       		.byte	0xf3
 6515 0a30 01       		.uleb128 0x1
 6516 0a31 51       		.byte	0x51
 6517 0a32 9F       		.byte	0x9f
 6518 0a33 00000000 		.4byte	0
 6519 0a37 00000000 		.4byte	0
 6520              	.LLST29:
 6521 0a3b 9A020000 		.4byte	.LVL51-.Ltext0
 6522 0a3f 9E020000 		.4byte	.LVL52-.Ltext0
 6523 0a43 0500     		.2byte	0x5
 6524 0a45 72       		.byte	0x72
 6525 0a46 00       		.sleb128 0
 6526 0a47 37       		.byte	0x37
 6527 0a48 1A       		.byte	0x1a
 6528 0a49 9F       		.byte	0x9f
 6529 0a4a 9E020000 		.4byte	.LVL52-.Ltext0
 6530 0a4e A4020000 		.4byte	.LVL53-.Ltext0
 6531 0a52 0100     		.2byte	0x1
 6532 0a54 52       		.byte	0x52
 6533 0a55 00000000 		.4byte	0
 6534 0a59 00000000 		.4byte	0
 6535              	.LLST24:
 6536 0a5d 40020000 		.4byte	.LFB74-.Ltext0
 6537 0a61 44020000 		.4byte	.LCFI11-.Ltext0
 6538 0a65 0200     		.2byte	0x2
 6539 0a67 7D       		.byte	0x7d
 6540 0a68 00       		.sleb128 0
ARM GAS  /tmp/ccD9AYux.s 			page 156


 6541 0a69 44020000 		.4byte	.LCFI11-.Ltext0
 6542 0a6d 80020000 		.4byte	.LFE74-.Ltext0
 6543 0a71 0200     		.2byte	0x2
 6544 0a73 7D       		.byte	0x7d
 6545 0a74 08       		.sleb128 8
 6546 0a75 00000000 		.4byte	0
 6547 0a79 00000000 		.4byte	0
 6548              	.LLST25:
 6549 0a7d 40020000 		.4byte	.LVL44-.Ltext0
 6550 0a81 4A020000 		.4byte	.LVL45-.Ltext0
 6551 0a85 0100     		.2byte	0x1
 6552 0a87 50       		.byte	0x50
 6553 0a88 4A020000 		.4byte	.LVL45-.Ltext0
 6554 0a8c 80020000 		.4byte	.LFE74-.Ltext0
 6555 0a90 0100     		.2byte	0x1
 6556 0a92 54       		.byte	0x54
 6557 0a93 00000000 		.4byte	0
 6558 0a97 00000000 		.4byte	0
 6559              	.LLST19:
 6560 0a9b C4010000 		.4byte	.LFB73-.Ltext0
 6561 0a9f C6010000 		.4byte	.LCFI10-.Ltext0
 6562 0aa3 0200     		.2byte	0x2
 6563 0aa5 7D       		.byte	0x7d
 6564 0aa6 00       		.sleb128 0
 6565 0aa7 C6010000 		.4byte	.LCFI10-.Ltext0
 6566 0aab 40020000 		.4byte	.LFE73-.Ltext0
 6567 0aaf 0200     		.2byte	0x2
 6568 0ab1 7D       		.byte	0x7d
 6569 0ab2 10       		.sleb128 16
 6570 0ab3 00000000 		.4byte	0
 6571 0ab7 00000000 		.4byte	0
 6572              	.LLST20:
 6573 0abb C4010000 		.4byte	.LVL32-.Ltext0
 6574 0abf CC010000 		.4byte	.LVL33-.Ltext0
 6575 0ac3 0100     		.2byte	0x1
 6576 0ac5 50       		.byte	0x50
 6577 0ac6 CC010000 		.4byte	.LVL33-.Ltext0
 6578 0aca 32020000 		.4byte	.LVL43-.Ltext0
 6579 0ace 0100     		.2byte	0x1
 6580 0ad0 54       		.byte	0x54
 6581 0ad1 32020000 		.4byte	.LVL43-.Ltext0
 6582 0ad5 40020000 		.4byte	.LFE73-.Ltext0
 6583 0ad9 0400     		.2byte	0x4
 6584 0adb F3       		.byte	0xf3
 6585 0adc 01       		.uleb128 0x1
 6586 0add 50       		.byte	0x50
 6587 0ade 9F       		.byte	0x9f
 6588 0adf 00000000 		.4byte	0
 6589 0ae3 00000000 		.4byte	0
 6590              	.LLST21:
 6591 0ae7 C4010000 		.4byte	.LVL32-.Ltext0
 6592 0aeb E2010000 		.4byte	.LVL34-.Ltext0
 6593 0aef 0100     		.2byte	0x1
 6594 0af1 51       		.byte	0x51
 6595 0af2 E2010000 		.4byte	.LVL34-.Ltext0
 6596 0af6 E6010000 		.4byte	.LVL35-.Ltext0
 6597 0afa 0100     		.2byte	0x1
ARM GAS  /tmp/ccD9AYux.s 			page 157


 6598 0afc 55       		.byte	0x55
 6599 0afd E6010000 		.4byte	.LVL35-.Ltext0
 6600 0b01 F0010000 		.4byte	.LVL37-.Ltext0
 6601 0b05 0100     		.2byte	0x1
 6602 0b07 51       		.byte	0x51
 6603 0b08 F0010000 		.4byte	.LVL37-.Ltext0
 6604 0b0c 32020000 		.4byte	.LVL43-.Ltext0
 6605 0b10 0100     		.2byte	0x1
 6606 0b12 55       		.byte	0x55
 6607 0b13 32020000 		.4byte	.LVL43-.Ltext0
 6608 0b17 40020000 		.4byte	.LFE73-.Ltext0
 6609 0b1b 0400     		.2byte	0x4
 6610 0b1d F3       		.byte	0xf3
 6611 0b1e 01       		.uleb128 0x1
 6612 0b1f 51       		.byte	0x51
 6613 0b20 9F       		.byte	0x9f
 6614 0b21 00000000 		.4byte	0
 6615 0b25 00000000 		.4byte	0
 6616              	.LLST22:
 6617 0b29 C4010000 		.4byte	.LVL32-.Ltext0
 6618 0b2d E2010000 		.4byte	.LVL34-.Ltext0
 6619 0b31 0100     		.2byte	0x1
 6620 0b33 52       		.byte	0x52
 6621 0b34 E2010000 		.4byte	.LVL34-.Ltext0
 6622 0b38 E6010000 		.4byte	.LVL35-.Ltext0
 6623 0b3c 0400     		.2byte	0x4
 6624 0b3e F3       		.byte	0xf3
 6625 0b3f 01       		.uleb128 0x1
 6626 0b40 52       		.byte	0x52
 6627 0b41 9F       		.byte	0x9f
 6628 0b42 E6010000 		.4byte	.LVL35-.Ltext0
 6629 0b46 EE010000 		.4byte	.LVL36-.Ltext0
 6630 0b4a 0100     		.2byte	0x1
 6631 0b4c 52       		.byte	0x52
 6632 0b4d EE010000 		.4byte	.LVL36-.Ltext0
 6633 0b51 40020000 		.4byte	.LFE73-.Ltext0
 6634 0b55 0400     		.2byte	0x4
 6635 0b57 F3       		.byte	0xf3
 6636 0b58 01       		.uleb128 0x1
 6637 0b59 52       		.byte	0x52
 6638 0b5a 9F       		.byte	0x9f
 6639 0b5b 00000000 		.4byte	0
 6640 0b5f 00000000 		.4byte	0
 6641              	.LLST23:
 6642 0b63 20020000 		.4byte	.LVL40-.Ltext0
 6643 0b67 24020000 		.4byte	.LVL41-.Ltext0
 6644 0b6b 0500     		.2byte	0x5
 6645 0b6d 72       		.byte	0x72
 6646 0b6e 00       		.sleb128 0
 6647 0b6f 37       		.byte	0x37
 6648 0b70 1A       		.byte	0x1a
 6649 0b71 9F       		.byte	0x9f
 6650 0b72 24020000 		.4byte	.LVL41-.Ltext0
 6651 0b76 2A020000 		.4byte	.LVL42-.Ltext0
 6652 0b7a 0100     		.2byte	0x1
 6653 0b7c 52       		.byte	0x52
 6654 0b7d 00000000 		.4byte	0
ARM GAS  /tmp/ccD9AYux.s 			page 158


 6655 0b81 00000000 		.4byte	0
 6656              	.LLST17:
 6657 0b85 8C010000 		.4byte	.LFB72-.Ltext0
 6658 0b89 90010000 		.4byte	.LCFI9-.Ltext0
 6659 0b8d 0200     		.2byte	0x2
 6660 0b8f 7D       		.byte	0x7d
 6661 0b90 00       		.sleb128 0
 6662 0b91 90010000 		.4byte	.LCFI9-.Ltext0
 6663 0b95 C4010000 		.4byte	.LFE72-.Ltext0
 6664 0b99 0200     		.2byte	0x2
 6665 0b9b 7D       		.byte	0x7d
 6666 0b9c 08       		.sleb128 8
 6667 0b9d 00000000 		.4byte	0
 6668 0ba1 00000000 		.4byte	0
 6669              	.LLST18:
 6670 0ba5 8C010000 		.4byte	.LVL29-.Ltext0
 6671 0ba9 96010000 		.4byte	.LVL30-.Ltext0
 6672 0bad 0100     		.2byte	0x1
 6673 0baf 50       		.byte	0x50
 6674 0bb0 96010000 		.4byte	.LVL30-.Ltext0
 6675 0bb4 C4010000 		.4byte	.LFE72-.Ltext0
 6676 0bb8 0100     		.2byte	0x1
 6677 0bba 54       		.byte	0x54
 6678 0bbb 00000000 		.4byte	0
 6679 0bbf 00000000 		.4byte	0
 6680              	.LLST14:
 6681 0bc3 5E010000 		.4byte	.LFB71-.Ltext0
 6682 0bc7 60010000 		.4byte	.LCFI8-.Ltext0
 6683 0bcb 0200     		.2byte	0x2
 6684 0bcd 7D       		.byte	0x7d
 6685 0bce 00       		.sleb128 0
 6686 0bcf 60010000 		.4byte	.LCFI8-.Ltext0
 6687 0bd3 8C010000 		.4byte	.LFE71-.Ltext0
 6688 0bd7 0200     		.2byte	0x2
 6689 0bd9 7D       		.byte	0x7d
 6690 0bda 08       		.sleb128 8
 6691 0bdb 00000000 		.4byte	0
 6692 0bdf 00000000 		.4byte	0
 6693              	.LLST15:
 6694 0be3 5E010000 		.4byte	.LVL23-.Ltext0
 6695 0be7 64010000 		.4byte	.LVL24-.Ltext0
 6696 0beb 0100     		.2byte	0x1
 6697 0bed 50       		.byte	0x50
 6698 0bee 64010000 		.4byte	.LVL24-.Ltext0
 6699 0bf2 8C010000 		.4byte	.LFE71-.Ltext0
 6700 0bf6 0100     		.2byte	0x1
 6701 0bf8 54       		.byte	0x54
 6702 0bf9 00000000 		.4byte	0
 6703 0bfd 00000000 		.4byte	0
 6704              	.LLST16:
 6705 0c01 7A010000 		.4byte	.LVL26-.Ltext0
 6706 0c05 7E010000 		.4byte	.LVL27-.Ltext0
 6707 0c09 0500     		.2byte	0x5
 6708 0c0b 72       		.byte	0x72
 6709 0c0c 00       		.sleb128 0
 6710 0c0d 37       		.byte	0x37
 6711 0c0e 1A       		.byte	0x1a
ARM GAS  /tmp/ccD9AYux.s 			page 159


 6712 0c0f 9F       		.byte	0x9f
 6713 0c10 7E010000 		.4byte	.LVL27-.Ltext0
 6714 0c14 84010000 		.4byte	.LVL28-.Ltext0
 6715 0c18 0100     		.2byte	0x1
 6716 0c1a 52       		.byte	0x52
 6717 0c1b 00000000 		.4byte	0
 6718 0c1f 00000000 		.4byte	0
 6719              	.LLST12:
 6720 0c23 2E010000 		.4byte	.LFB70-.Ltext0
 6721 0c27 32010000 		.4byte	.LCFI7-.Ltext0
 6722 0c2b 0200     		.2byte	0x2
 6723 0c2d 7D       		.byte	0x7d
 6724 0c2e 00       		.sleb128 0
 6725 0c2f 32010000 		.4byte	.LCFI7-.Ltext0
 6726 0c33 5E010000 		.4byte	.LFE70-.Ltext0
 6727 0c37 0200     		.2byte	0x2
 6728 0c39 7D       		.byte	0x7d
 6729 0c3a 08       		.sleb128 8
 6730 0c3b 00000000 		.4byte	0
 6731 0c3f 00000000 		.4byte	0
 6732              	.LLST13:
 6733 0c43 2E010000 		.4byte	.LVL20-.Ltext0
 6734 0c47 38010000 		.4byte	.LVL21-.Ltext0
 6735 0c4b 0100     		.2byte	0x1
 6736 0c4d 50       		.byte	0x50
 6737 0c4e 38010000 		.4byte	.LVL21-.Ltext0
 6738 0c52 5E010000 		.4byte	.LFE70-.Ltext0
 6739 0c56 0100     		.2byte	0x1
 6740 0c58 54       		.byte	0x54
 6741 0c59 00000000 		.4byte	0
 6742 0c5d 00000000 		.4byte	0
 6743              	.LLST9:
 6744 0c61 08010000 		.4byte	.LFB69-.Ltext0
 6745 0c65 0A010000 		.4byte	.LCFI6-.Ltext0
 6746 0c69 0200     		.2byte	0x2
 6747 0c6b 7D       		.byte	0x7d
 6748 0c6c 00       		.sleb128 0
 6749 0c6d 0A010000 		.4byte	.LCFI6-.Ltext0
 6750 0c71 2E010000 		.4byte	.LFE69-.Ltext0
 6751 0c75 0200     		.2byte	0x2
 6752 0c77 7D       		.byte	0x7d
 6753 0c78 08       		.sleb128 8
 6754 0c79 00000000 		.4byte	0
 6755 0c7d 00000000 		.4byte	0
 6756              	.LLST10:
 6757 0c81 08010000 		.4byte	.LVL14-.Ltext0
 6758 0c85 12010000 		.4byte	.LVL15-.Ltext0
 6759 0c89 0100     		.2byte	0x1
 6760 0c8b 50       		.byte	0x50
 6761 0c8c 12010000 		.4byte	.LVL15-.Ltext0
 6762 0c90 2E010000 		.4byte	.LFE69-.Ltext0
 6763 0c94 0100     		.2byte	0x1
 6764 0c96 54       		.byte	0x54
 6765 0c97 00000000 		.4byte	0
 6766 0c9b 00000000 		.4byte	0
 6767              	.LLST11:
 6768 0c9f 1C010000 		.4byte	.LVL17-.Ltext0
ARM GAS  /tmp/ccD9AYux.s 			page 160


 6769 0ca3 20010000 		.4byte	.LVL18-.Ltext0
 6770 0ca7 0500     		.2byte	0x5
 6771 0ca9 72       		.byte	0x72
 6772 0caa 00       		.sleb128 0
 6773 0cab 37       		.byte	0x37
 6774 0cac 1A       		.byte	0x1a
 6775 0cad 9F       		.byte	0x9f
 6776 0cae 20010000 		.4byte	.LVL18-.Ltext0
 6777 0cb2 26010000 		.4byte	.LVL19-.Ltext0
 6778 0cb6 0100     		.2byte	0x1
 6779 0cb8 52       		.byte	0x52
 6780 0cb9 00000000 		.4byte	0
 6781 0cbd 00000000 		.4byte	0
 6782              	.LLST7:
 6783 0cc1 CE000000 		.4byte	.LFB66-.Ltext0
 6784 0cc5 D6000000 		.4byte	.LCFI5-.Ltext0
 6785 0cc9 0200     		.2byte	0x2
 6786 0ccb 7D       		.byte	0x7d
 6787 0ccc 00       		.sleb128 0
 6788 0ccd D6000000 		.4byte	.LCFI5-.Ltext0
 6789 0cd1 08010000 		.4byte	.LFE66-.Ltext0
 6790 0cd5 0200     		.2byte	0x2
 6791 0cd7 7D       		.byte	0x7d
 6792 0cd8 08       		.sleb128 8
 6793 0cd9 00000000 		.4byte	0
 6794 0cdd 00000000 		.4byte	0
 6795              	.LLST8:
 6796 0ce1 CE000000 		.4byte	.LVL11-.Ltext0
 6797 0ce5 F8000000 		.4byte	.LVL12-.Ltext0
 6798 0ce9 0100     		.2byte	0x1
 6799 0ceb 50       		.byte	0x50
 6800 0cec F8000000 		.4byte	.LVL12-.Ltext0
 6801 0cf0 08010000 		.4byte	.LFE66-.Ltext0
 6802 0cf4 0100     		.2byte	0x1
 6803 0cf6 54       		.byte	0x54
 6804 0cf7 00000000 		.4byte	0
 6805 0cfb 00000000 		.4byte	0
 6806              	.LLST4:
 6807 0cff 1E000000 		.4byte	.LFB65-.Ltext0
 6808 0d03 20000000 		.4byte	.LCFI1-.Ltext0
 6809 0d07 0200     		.2byte	0x2
 6810 0d09 7D       		.byte	0x7d
 6811 0d0a 00       		.sleb128 0
 6812 0d0b 20000000 		.4byte	.LCFI1-.Ltext0
 6813 0d0f 24000000 		.4byte	.LCFI2-.Ltext0
 6814 0d13 0200     		.2byte	0x2
 6815 0d15 7D       		.byte	0x7d
 6816 0d16 10       		.sleb128 16
 6817 0d17 24000000 		.4byte	.LCFI2-.Ltext0
 6818 0d1b C6000000 		.4byte	.LCFI3-.Ltext0
 6819 0d1f 0200     		.2byte	0x2
 6820 0d21 7D       		.byte	0x7d
 6821 0d22 30       		.sleb128 48
 6822 0d23 C6000000 		.4byte	.LCFI3-.Ltext0
 6823 0d27 C8000000 		.4byte	.LCFI4-.Ltext0
 6824 0d2b 0200     		.2byte	0x2
 6825 0d2d 7D       		.byte	0x7d
ARM GAS  /tmp/ccD9AYux.s 			page 161


 6826 0d2e 10       		.sleb128 16
 6827 0d2f C8000000 		.4byte	.LCFI4-.Ltext0
 6828 0d33 CC000000 		.4byte	.LFE65-.Ltext0
 6829 0d37 0200     		.2byte	0x2
 6830 0d39 7D       		.byte	0x7d
 6831 0d3a 30       		.sleb128 48
 6832 0d3b 00000000 		.4byte	0
 6833 0d3f 00000000 		.4byte	0
 6834              	.LLST5:
 6835 0d43 1E000000 		.4byte	.LVL4-.Ltext0
 6836 0d47 3B000000 		.4byte	.LVL5-1-.Ltext0
 6837 0d4b 0100     		.2byte	0x1
 6838 0d4d 50       		.byte	0x50
 6839 0d4e 3B000000 		.4byte	.LVL5-1-.Ltext0
 6840 0d52 C8000000 		.4byte	.LVL9-.Ltext0
 6841 0d56 0100     		.2byte	0x1
 6842 0d58 55       		.byte	0x55
 6843 0d59 C8000000 		.4byte	.LVL9-.Ltext0
 6844 0d5d CA000000 		.4byte	.LVL10-.Ltext0
 6845 0d61 0100     		.2byte	0x1
 6846 0d63 50       		.byte	0x50
 6847 0d64 CA000000 		.4byte	.LVL10-.Ltext0
 6848 0d68 CC000000 		.4byte	.LFE65-.Ltext0
 6849 0d6c 0100     		.2byte	0x1
 6850 0d6e 55       		.byte	0x55
 6851 0d6f 00000000 		.4byte	0
 6852 0d73 00000000 		.4byte	0
 6853              	.LLST6:
 6854 0d77 1E000000 		.4byte	.LVL4-.Ltext0
 6855 0d7b 3B000000 		.4byte	.LVL5-1-.Ltext0
 6856 0d7f 0100     		.2byte	0x1
 6857 0d81 51       		.byte	0x51
 6858 0d82 3B000000 		.4byte	.LVL5-1-.Ltext0
 6859 0d86 C8000000 		.4byte	.LVL9-.Ltext0
 6860 0d8a 0100     		.2byte	0x1
 6861 0d8c 56       		.byte	0x56
 6862 0d8d C8000000 		.4byte	.LVL9-.Ltext0
 6863 0d91 CC000000 		.4byte	.LFE65-.Ltext0
 6864 0d95 0100     		.2byte	0x1
 6865 0d97 51       		.byte	0x51
 6866 0d98 00000000 		.4byte	0
 6867 0d9c 00000000 		.4byte	0
 6868              		.section	.debug_aranges,"",%progbits
 6869 0000 1C000000 		.4byte	0x1c
 6870 0004 0200     		.2byte	0x2
 6871 0006 00000000 		.4byte	.Ldebug_info0
 6872 000a 04       		.byte	0x4
 6873 000b 00       		.byte	0
 6874 000c 0000     		.2byte	0
 6875 000e 0000     		.2byte	0
 6876 0010 00000000 		.4byte	.Ltext0
 6877 0014 CC070000 		.4byte	.Letext0-.Ltext0
 6878 0018 00000000 		.4byte	0
 6879 001c 00000000 		.4byte	0
 6880              		.section	.debug_line,"",%progbits
 6881              	.Ldebug_line0:
 6882 0000 82040000 		.section	.debug_str,"MS",%progbits,1
ARM GAS  /tmp/ccD9AYux.s 			page 162


 6882      02006901 
 6882      00000201 
 6882      FB0E0D00 
 6882      01010101 
 6883              	.LASF2:
 6884 0000 73686F72 		.ascii	"short int\000"
 6884      7420696E 
 6884      7400
 6885              	.LASF134:
 6886 000a 54494D45 		.ascii	"TIMEx_DMACommutationCplt\000"
 6886      785F444D 
 6886      41436F6D 
 6886      6D757461 
 6886      74696F6E 
 6887              	.LASF163:
 6888 0023 48414C5F 		.ascii	"HAL_TIMEx_PWMN_Start_IT\000"
 6888      54494D45 
 6888      785F5057 
 6888      4D4E5F53 
 6888      74617274 
 6889              	.LASF187:
 6890 003b 54494D5F 		.ascii	"TIM_CCxChannelCmd\000"
 6890      43437843 
 6890      68616E6E 
 6890      656C436D 
 6890      6400
 6891              	.LASF127:
 6892 004d 48414C5F 		.ascii	"HAL_TickFreqTypeDef\000"
 6892      5469636B 
 6892      46726571 
 6892      54797065 
 6892      44656600 
 6893              	.LASF139:
 6894 0061 52656D61 		.ascii	"Remap\000"
 6894      7000
 6895              	.LASF29:
 6896 0067 44494552 		.ascii	"DIER\000"
 6896      00
 6897              	.LASF181:
 6898 006c 48414C5F 		.ascii	"HAL_TIMEx_HallSensor_DeInit\000"
 6898      54494D45 
 6898      785F4861 
 6898      6C6C5365 
 6898      6E736F72 
 6899              	.LASF64:
 6900 0088 496E6974 		.ascii	"Init\000"
 6900      00
 6901              	.LASF148:
 6902 008d 496E7075 		.ascii	"InputTrigger\000"
 6902      74547269 
 6902      67676572 
 6902      00
 6903              	.LASF57:
 6904 009a 444D415F 		.ascii	"DMA_InitTypeDef\000"
 6904      496E6974 
 6904      54797065 
 6904      44656600 
ARM GAS  /tmp/ccD9AYux.s 			page 163


 6905              	.LASF133:
 6906 00aa 54494D45 		.ascii	"TIMEx_DMACommutationHalfCplt\000"
 6906      785F444D 
 6906      41436F6D 
 6906      6D757461 
 6906      74696F6E 
 6907              	.LASF3:
 6908 00c7 5F5F7569 		.ascii	"__uint8_t\000"
 6908      6E74385F 
 6908      7400
 6909              	.LASF150:
 6910 00d1 48414C5F 		.ascii	"HAL_TIMEx_ConfigCommutEvent_IT\000"
 6910      54494D45 
 6910      785F436F 
 6910      6E666967 
 6910      436F6D6D 
 6911              	.LASF140:
 6912 00f0 48414C5F 		.ascii	"HAL_TIMEx_ConfigBreakDeadTime\000"
 6912      54494D45 
 6912      785F436F 
 6912      6E666967 
 6912      42726561 
 6913              	.LASF135:
 6914 010e 48414C5F 		.ascii	"HAL_TIMEx_CommutHalfCpltCallback\000"
 6914      54494D45 
 6914      785F436F 
 6914      6D6D7574 
 6914      48616C66 
 6915              	.LASF21:
 6916 012f 41504250 		.ascii	"APBPrescTable\000"
 6916      72657363 
 6916      5461626C 
 6916      6500
 6917              	.LASF39:
 6918 013d 54494D5F 		.ascii	"TIM_TypeDef\000"
 6918      54797065 
 6918      44656600 
 6919              	.LASF153:
 6920 0149 4F757470 		.ascii	"OutputChannel\000"
 6920      75744368 
 6920      616E6E65 
 6920      6C00
 6921              	.LASF145:
 6922 0157 746D7063 		.ascii	"tmpcr2\000"
 6922      723200
 6923              	.LASF11:
 6924 015e 6C6F6E67 		.ascii	"long long unsigned int\000"
 6924      206C6F6E 
 6924      6720756E 
 6924      7369676E 
 6924      65642069 
 6925              	.LASF169:
 6926 0175 48414C5F 		.ascii	"HAL_TIMEx_OCN_Stop_IT\000"
 6926      54494D45 
 6926      785F4F43 
 6926      4E5F5374 
 6926      6F705F49 
ARM GAS  /tmp/ccD9AYux.s 			page 164


 6927              	.LASF87:
 6928 018b 4F434661 		.ascii	"OCFastMode\000"
 6928      73744D6F 
 6928      646500
 6929              	.LASF180:
 6930 0196 48414C5F 		.ascii	"HAL_TIMEx_HallSensor_MspInit\000"
 6930      54494D45 
 6930      785F4861 
 6930      6C6C5365 
 6930      6E736F72 
 6931              	.LASF18:
 6932 01b3 49544D5F 		.ascii	"ITM_RxBuffer\000"
 6932      52784275 
 6932      66666572 
 6932      00
 6933              	.LASF178:
 6934 01c0 48414C5F 		.ascii	"HAL_TIMEx_HallSensor_Start\000"
 6934      54494D45 
 6934      785F4861 
 6934      6C6C5365 
 6934      6E736F72 
 6935              	.LASF159:
 6936 01db 70446174 		.ascii	"pData\000"
 6936      6100
 6937              	.LASF85:
 6938 01e1 4F43506F 		.ascii	"OCPolarity\000"
 6938      6C617269 
 6938      747900
 6939              	.LASF167:
 6940 01ec 48414C5F 		.ascii	"HAL_TIMEx_OCN_Stop_DMA\000"
 6940      54494D45 
 6940      785F4F43 
 6940      4E5F5374 
 6940      6F705F44 
 6941              	.LASF81:
 6942 0203 4175746F 		.ascii	"AutoReloadPreload\000"
 6942      52656C6F 
 6942      61645072 
 6942      656C6F61 
 6942      6400
 6943              	.LASF30:
 6944 0215 43434D52 		.ascii	"CCMR1\000"
 6944      3100
 6945              	.LASF31:
 6946 021b 43434D52 		.ascii	"CCMR2\000"
 6946      3200
 6947              	.LASF10:
 6948 0221 6C6F6E67 		.ascii	"long long int\000"
 6948      206C6F6E 
 6948      6720696E 
 6948      7400
 6949              	.LASF0:
 6950 022f 7369676E 		.ascii	"signed char\000"
 6950      65642063 
 6950      68617200 
 6951              	.LASF161:
 6952 023b 48414C5F 		.ascii	"HAL_TIMEx_PWMN_Stop_IT\000"
ARM GAS  /tmp/ccD9AYux.s 			page 165


 6952      54494D45 
 6952      785F5057 
 6952      4D4E5F53 
 6952      746F705F 
 6953              	.LASF78:
 6954 0252 50657269 		.ascii	"Period\000"
 6954      6F6400
 6955              	.LASF186:
 6956 0259 48414C5F 		.ascii	"HAL_DMA_Start_IT\000"
 6956      444D415F 
 6956      53746172 
 6956      745F4954 
 6956      00
 6957              	.LASF99:
 6958 026a 42726561 		.ascii	"BreakPolarity\000"
 6958      6B506F6C 
 6958      61726974 
 6958      7900
 6959              	.LASF49:
 6960 0278 48414C5F 		.ascii	"HAL_LockTypeDef\000"
 6960      4C6F636B 
 6960      54797065 
 6960      44656600 
 6961              	.LASF69:
 6962 0288 58666572 		.ascii	"XferHalfCpltCallback\000"
 6962      48616C66 
 6962      43706C74 
 6962      43616C6C 
 6962      6261636B 
 6963              	.LASF7:
 6964 029d 6C6F6E67 		.ascii	"long int\000"
 6964      20696E74 
 6964      00
 6965              	.LASF83:
 6966 02a6 4F434D6F 		.ascii	"OCMode\000"
 6966      646500
 6967              	.LASF51:
 6968 02ad 50657269 		.ascii	"PeriphInc\000"
 6968      7068496E 
 6968      6300
 6969              	.LASF120:
 6970 02b7 49433146 		.ascii	"IC1Filter\000"
 6970      696C7465 
 6970      7200
 6971              	.LASF158:
 6972 02c1 48414C5F 		.ascii	"HAL_TIMEx_PWMN_Start_DMA\000"
 6972      54494D45 
 6972      785F5057 
 6972      4D4E5F53 
 6972      74617274 
 6973              	.LASF142:
 6974 02da 746D7062 		.ascii	"tmpbdtr\000"
 6974      64747200 
 6975              	.LASF144:
 6976 02e2 734D6173 		.ascii	"sMasterConfig\000"
 6976      74657243 
 6976      6F6E6669 
ARM GAS  /tmp/ccD9AYux.s 			page 166


 6976      6700
 6977              	.LASF14:
 6978 02f0 75696E74 		.ascii	"uint16_t\000"
 6978      31365F74 
 6978      00
 6979              	.LASF117:
 6980 02f9 54494D5F 		.ascii	"TIM_HandleTypeDef\000"
 6980      48616E64 
 6980      6C655479 
 6980      70654465 
 6980      6600
 6981              	.LASF74:
 6982 030b 4368616E 		.ascii	"ChannelIndex\000"
 6982      6E656C49 
 6982      6E646578 
 6982      00
 6983              	.LASF67:
 6984 0318 50617265 		.ascii	"Parent\000"
 6984      6E7400
 6985              	.LASF176:
 6986 031f 48414C5F 		.ascii	"HAL_TIMEx_HallSensor_Start_IT\000"
 6986      54494D45 
 6986      785F4861 
 6986      6C6C5365 
 6986      6E736F72 
 6987              	.LASF92:
 6988 033d 4D617374 		.ascii	"MasterSlaveMode\000"
 6988      6572536C 
 6988      6176654D 
 6988      6F646500 
 6989              	.LASF4:
 6990 034d 5F5F7569 		.ascii	"__uint16_t\000"
 6990      6E743136 
 6990      5F7400
 6991              	.LASF65:
 6992 0358 4C6F636B 		.ascii	"Lock\000"
 6992      00
 6993              	.LASF8:
 6994 035d 5F5F7569 		.ascii	"__uint32_t\000"
 6994      6E743332 
 6994      5F7400
 6995              	.LASF55:
 6996 0368 4D6F6465 		.ascii	"Mode\000"
 6996      00
 6997              	.LASF50:
 6998 036d 44697265 		.ascii	"Direction\000"
 6998      6374696F 
 6998      6E00
 6999              	.LASF108:
 7000 0377 48414C5F 		.ascii	"HAL_TIM_StateTypeDef\000"
 7000      54494D5F 
 7000      53746174 
 7000      65547970 
 7000      65446566 
 7001              	.LASF184:
 7002 038c 4F435F43 		.ascii	"OC_Config\000"
 7002      6F6E6669 
ARM GAS  /tmp/ccD9AYux.s 			page 167


 7002      6700
 7003              	.LASF37:
 7004 0396 42445452 		.ascii	"BDTR\000"
 7004      00
 7005              	.LASF141:
 7006 039b 73427265 		.ascii	"sBreakDeadTimeConfig\000"
 7006      616B4465 
 7006      61645469 
 7006      6D65436F 
 7006      6E666967 
 7007              	.LASF162:
 7008 03b0 746D7063 		.ascii	"tmpccer\000"
 7008      63657200 
 7009              	.LASF27:
 7010 03b8 444D415F 		.ascii	"DMA_TypeDef\000"
 7010      54797065 
 7010      44656600 
 7011              	.LASF12:
 7012 03c4 756E7369 		.ascii	"unsigned int\000"
 7012      676E6564 
 7012      20696E74 
 7012      00
 7013              	.LASF58:
 7014 03d1 48414C5F 		.ascii	"HAL_DMA_STATE_RESET\000"
 7014      444D415F 
 7014      53544154 
 7014      455F5245 
 7014      53455400 
 7015              	.LASF143:
 7016 03e5 48414C5F 		.ascii	"HAL_TIMEx_MasterConfigSynchronization\000"
 7016      54494D45 
 7016      785F4D61 
 7016      73746572 
 7016      436F6E66 
 7017              	.LASF129:
 7018 040b 75775469 		.ascii	"uwTickFreq\000"
 7018      636B4672 
 7018      657100
 7019              	.LASF23:
 7020 0416 43504152 		.ascii	"CPAR\000"
 7020      00
 7021              	.LASF119:
 7022 041b 49433150 		.ascii	"IC1Prescaler\000"
 7022      72657363 
 7022      616C6572 
 7022      00
 7023              	.LASF195:
 7024 0428 54494D5F 		.ascii	"TIM_CCxNChannelCmd\000"
 7024      4343784E 
 7024      4368616E 
 7024      6E656C43 
 7024      6D6400
 7025              	.LASF9:
 7026 043b 6C6F6E67 		.ascii	"long unsigned int\000"
 7026      20756E73 
 7026      69676E65 
 7026      6420696E 
ARM GAS  /tmp/ccD9AYux.s 			page 168


 7026      7400
 7027              	.LASF185:
 7028 044d 48414C5F 		.ascii	"HAL_DMA_Abort_IT\000"
 7028      444D415F 
 7028      41626F72 
 7028      745F4954 
 7028      00
 7029              	.LASF125:
 7030 045e 48414C5F 		.ascii	"HAL_TICK_FREQ_1KHZ\000"
 7030      5449434B 
 7030      5F465245 
 7030      515F314B 
 7030      485A00
 7031              	.LASF45:
 7032 0471 48414C5F 		.ascii	"HAL_TIMEOUT\000"
 7032      54494D45 
 7032      4F555400 
 7033              	.LASF42:
 7034 047d 48414C5F 		.ascii	"HAL_OK\000"
 7034      4F4B00
 7035              	.LASF104:
 7036 0484 48414C5F 		.ascii	"HAL_TIM_STATE_READY\000"
 7036      54494D5F 
 7036      53544154 
 7036      455F5245 
 7036      41445900 
 7037              	.LASF107:
 7038 0498 48414C5F 		.ascii	"HAL_TIM_STATE_ERROR\000"
 7038      54494D5F 
 7038      53544154 
 7038      455F4552 
 7038      524F5200 
 7039              	.LASF28:
 7040 04ac 534D4352 		.ascii	"SMCR\000"
 7040      00
 7041              	.LASF130:
 7042 04b1 54494D78 		.ascii	"TIMx\000"
 7042      00
 7043              	.LASF98:
 7044 04b6 42726561 		.ascii	"BreakState\000"
 7044      6B537461 
 7044      746500
 7045              	.LASF73:
 7046 04c1 446D6142 		.ascii	"DmaBaseAddress\000"
 7046      61736541 
 7046      64647265 
 7046      737300
 7047              	.LASF72:
 7048 04d0 4572726F 		.ascii	"ErrorCode\000"
 7048      72436F64 
 7048      6500
 7049              	.LASF136:
 7050 04da 48414C5F 		.ascii	"HAL_TIMEx_CommutCallback\000"
 7050      54494D45 
 7050      785F436F 
 7050      6D6D7574 
 7050      43616C6C 
ARM GAS  /tmp/ccD9AYux.s 			page 169


 7051              	.LASF101:
 7052 04f3 4175746F 		.ascii	"AutomaticOutput\000"
 7052      6D617469 
 7052      634F7574 
 7052      70757400 
 7053              	.LASF46:
 7054 0503 48414C5F 		.ascii	"HAL_StatusTypeDef\000"
 7054      53746174 
 7054      75735479 
 7054      70654465 
 7054      6600
 7055              	.LASF77:
 7056 0515 436F756E 		.ascii	"CounterMode\000"
 7056      7465724D 
 7056      6F646500 
 7057              	.LASF20:
 7058 0521 41484250 		.ascii	"AHBPrescTable\000"
 7058      72657363 
 7058      5461626C 
 7058      6500
 7059              	.LASF188:
 7060 052f 54494D5F 		.ascii	"TIM_Base_SetConfig\000"
 7060      42617365 
 7060      5F536574 
 7060      436F6E66 
 7060      696700
 7061              	.LASF48:
 7062 0542 48414C5F 		.ascii	"HAL_LOCKED\000"
 7062      4C4F434B 
 7062      454400
 7063              	.LASF106:
 7064 054d 48414C5F 		.ascii	"HAL_TIM_STATE_TIMEOUT\000"
 7064      54494D5F 
 7064      53544154 
 7064      455F5449 
 7064      4D454F55 
 7065              	.LASF59:
 7066 0563 48414C5F 		.ascii	"HAL_DMA_STATE_READY\000"
 7066      444D415F 
 7066      53544154 
 7066      455F5245 
 7066      41445900 
 7067              	.LASF86:
 7068 0577 4F434E50 		.ascii	"OCNPolarity\000"
 7068      6F6C6172 
 7068      69747900 
 7069              	.LASF40:
 7070 0583 52455345 		.ascii	"RESET\000"
 7070      5400
 7071              	.LASF54:
 7072 0589 4D656D44 		.ascii	"MemDataAlignment\000"
 7072      61746141 
 7072      6C69676E 
 7072      6D656E74 
 7072      00
 7073              	.LASF116:
 7074 059a 68646D61 		.ascii	"hdma\000"
ARM GAS  /tmp/ccD9AYux.s 			page 170


 7074      00
 7075              	.LASF132:
 7076 059f 6874696D 		.ascii	"htim\000"
 7076      00
 7077              	.LASF146:
 7078 05a4 746D7073 		.ascii	"tmpsmcr\000"
 7078      6D637200 
 7079              	.LASF105:
 7080 05ac 48414C5F 		.ascii	"HAL_TIM_STATE_BUSY\000"
 7080      54494D5F 
 7080      53544154 
 7080      455F4255 
 7080      535900
 7081              	.LASF103:
 7082 05bf 48414C5F 		.ascii	"HAL_TIM_STATE_RESET\000"
 7082      54494D5F 
 7082      53544154 
 7082      455F5245 
 7082      53455400 
 7083              	.LASF96:
 7084 05d3 4C6F636B 		.ascii	"LockLevel\000"
 7084      4C657665 
 7084      6C00
 7085              	.LASF17:
 7086 05dd 73697A65 		.ascii	"sizetype\000"
 7086      74797065 
 7086      00
 7087              	.LASF152:
 7088 05e6 48414C5F 		.ascii	"HAL_TIMEx_OnePulseN_Stop_IT\000"
 7088      54494D45 
 7088      785F4F6E 
 7088      6550756C 
 7088      73654E5F 
 7089              	.LASF41:
 7090 0602 6C6F6E67 		.ascii	"long double\000"
 7090      20646F75 
 7090      626C6500 
 7091              	.LASF151:
 7092 060e 48414C5F 		.ascii	"HAL_TIMEx_ConfigCommutEvent\000"
 7092      54494D45 
 7092      785F436F 
 7092      6E666967 
 7092      436F6D6D 
 7093              	.LASF164:
 7094 062a 48414C5F 		.ascii	"HAL_TIMEx_BreakCallback\000"
 7094      54494D45 
 7094      785F4272 
 7094      65616B43 
 7094      616C6C62 
 7095              	.LASF137:
 7096 0642 48414C5F 		.ascii	"HAL_TIMEx_HallSensor_GetState\000"
 7096      54494D45 
 7096      785F4861 
 7096      6C6C5365 
 7096      6E736F72 
 7097              	.LASF75:
 7098 0660 444D415F 		.ascii	"DMA_HandleTypeDef\000"
ARM GAS  /tmp/ccD9AYux.s 			page 171


 7098      48616E64 
 7098      6C655479 
 7098      70654465 
 7098      6600
 7099              	.LASF47:
 7100 0672 48414C5F 		.ascii	"HAL_UNLOCKED\000"
 7100      554E4C4F 
 7100      434B4544 
 7100      00
 7101              	.LASF70:
 7102 067f 58666572 		.ascii	"XferErrorCallback\000"
 7102      4572726F 
 7102      7243616C 
 7102      6C626163 
 7102      6B00
 7103              	.LASF80:
 7104 0691 52657065 		.ascii	"RepetitionCounter\000"
 7104      74697469 
 7104      6F6E436F 
 7104      756E7465 
 7104      7200
 7105              	.LASF126:
 7106 06a3 48414C5F 		.ascii	"HAL_TICK_FREQ_DEFAULT\000"
 7106      5449434B 
 7106      5F465245 
 7106      515F4445 
 7106      4641554C 
 7107              	.LASF165:
 7108 06b9 48414C5F 		.ascii	"HAL_TIMEx_PWMN_Stop\000"
 7108      54494D45 
 7108      785F5057 
 7108      4D4E5F53 
 7108      746F7000 
 7109              	.LASF131:
 7110 06cd 4368616E 		.ascii	"ChannelNState\000"
 7110      6E656C4E 
 7110      53746174 
 7110      6500
 7111              	.LASF171:
 7112 06db 48414C5F 		.ascii	"HAL_TIMEx_OCN_Stop\000"
 7112      54494D45 
 7112      785F4F43 
 7112      4E5F5374 
 7112      6F7000
 7113              	.LASF25:
 7114 06ee 444D415F 		.ascii	"DMA_Channel_TypeDef\000"
 7114      4368616E 
 7114      6E656C5F 
 7114      54797065 
 7114      44656600 
 7115              	.LASF79:
 7116 0702 436C6F63 		.ascii	"ClockDivision\000"
 7116      6B446976 
 7116      6973696F 
 7116      6E00
 7117              	.LASF19:
 7118 0710 53797374 		.ascii	"SystemCoreClock\000"
ARM GAS  /tmp/ccD9AYux.s 			page 172


 7118      656D436F 
 7118      7265436C 
 7118      6F636B00 
 7119              	.LASF63:
 7120 0720 496E7374 		.ascii	"Instance\000"
 7120      616E6365 
 7120      00
 7121              	.LASF95:
 7122 0729 4F666653 		.ascii	"OffStateIDLEMode\000"
 7122      74617465 
 7122      49444C45 
 7122      4D6F6465 
 7122      00
 7123              	.LASF172:
 7124 073a 48414C5F 		.ascii	"HAL_TIMEx_OCN_Start\000"
 7124      54494D45 
 7124      785F4F43 
 7124      4E5F5374 
 7124      61727400 
 7125              	.LASF115:
 7126 074e 4368616E 		.ascii	"Channel\000"
 7126      6E656C00 
 7127              	.LASF193:
 7128 0756 2F686F6D 		.ascii	"/home/berndoj/git/stm32tctst/lib/stm32f1hal\000"
 7128      652F6265 
 7128      726E646F 
 7128      6A2F6769 
 7128      742F7374 
 7129              	.LASF15:
 7130 0782 696E7433 		.ascii	"int32_t\000"
 7130      325F7400 
 7131              	.LASF1:
 7132 078a 756E7369 		.ascii	"unsigned char\000"
 7132      676E6564 
 7132      20636861 
 7132      7200
 7133              	.LASF157:
 7134 0798 48414C5F 		.ascii	"HAL_TIMEx_PWMN_Stop_DMA\000"
 7134      54494D45 
 7134      785F5057 
 7134      4D4E5F53 
 7134      746F705F 
 7135              	.LASF88:
 7136 07b0 4F434964 		.ascii	"OCIdleState\000"
 7136      6C655374 
 7136      61746500 
 7137              	.LASF147:
 7138 07bc 48414C5F 		.ascii	"HAL_TIMEx_ConfigCommutEvent_DMA\000"
 7138      54494D45 
 7138      785F436F 
 7138      6E666967 
 7138      436F6D6D 
 7139              	.LASF62:
 7140 07dc 48414C5F 		.ascii	"HAL_DMA_StateTypeDef\000"
 7140      444D415F 
 7140      53746174 
 7140      65547970 
ARM GAS  /tmp/ccD9AYux.s 			page 173


 7140      65446566 
 7141              	.LASF94:
 7142 07f1 4F666653 		.ascii	"OffStateRunMode\000"
 7142      74617465 
 7142      52756E4D 
 7142      6F646500 
 7143              	.LASF60:
 7144 0801 48414C5F 		.ascii	"HAL_DMA_STATE_BUSY\000"
 7144      444D415F 
 7144      53544154 
 7144      455F4255 
 7144      535900
 7145              	.LASF177:
 7146 0814 48414C5F 		.ascii	"HAL_TIMEx_HallSensor_Stop\000"
 7146      54494D45 
 7146      785F4861 
 7146      6C6C5365 
 7146      6E736F72 
 7147              	.LASF122:
 7148 082e 54494D5F 		.ascii	"TIM_HallSensor_InitTypeDef\000"
 7148      48616C6C 
 7148      53656E73 
 7148      6F725F49 
 7148      6E697454 
 7149              	.LASF52:
 7150 0849 4D656D49 		.ascii	"MemInc\000"
 7150      6E6300
 7151              	.LASF100:
 7152 0850 42726561 		.ascii	"BreakFilter\000"
 7152      6B46696C 
 7152      74657200 
 7153              	.LASF191:
 7154 085c 474E5520 		.ascii	"GNU C11 6.3.1 20170620 -mcpu=cortex-m3 -mthumb -g -"
 7154      43313120 
 7154      362E332E 
 7154      31203230 
 7154      31373036 
 7155 088f 67647761 		.ascii	"gdwarf-2 -Os -fomit-frame-pointer\000"
 7155      72662D32 
 7155      202D4F73 
 7155      202D666F 
 7155      6D69742D 
 7156              	.LASF109:
 7157 08b1 48414C5F 		.ascii	"HAL_TIM_ACTIVE_CHANNEL_1\000"
 7157      54494D5F 
 7157      41435449 
 7157      56455F43 
 7157      48414E4E 
 7158              	.LASF110:
 7159 08ca 48414C5F 		.ascii	"HAL_TIM_ACTIVE_CHANNEL_2\000"
 7159      54494D5F 
 7159      41435449 
 7159      56455F43 
 7159      48414E4E 
 7160              	.LASF111:
 7161 08e3 48414C5F 		.ascii	"HAL_TIM_ACTIVE_CHANNEL_3\000"
 7161      54494D5F 
ARM GAS  /tmp/ccD9AYux.s 			page 174


 7161      41435449 
 7161      56455F43 
 7161      48414E4E 
 7162              	.LASF90:
 7163 08fc 54494D5F 		.ascii	"TIM_OC_InitTypeDef\000"
 7163      4F435F49 
 7163      6E697454 
 7163      79706544 
 7163      656600
 7164              	.LASF154:
 7165 090f 48414C5F 		.ascii	"HAL_TIMEx_OnePulseN_Start_IT\000"
 7165      54494D45 
 7165      785F4F6E 
 7165      6550756C 
 7165      73654E5F 
 7166              	.LASF16:
 7167 092c 75696E74 		.ascii	"uint32_t\000"
 7167      33325F74 
 7167      00
 7168              	.LASF149:
 7169 0935 436F6D6D 		.ascii	"CommutationSource\000"
 7169      75746174 
 7169      696F6E53 
 7169      6F757263 
 7169      6500
 7170              	.LASF43:
 7171 0947 48414C5F 		.ascii	"HAL_ERROR\000"
 7171      4552524F 
 7171      5200
 7172              	.LASF168:
 7173 0951 48414C5F 		.ascii	"HAL_TIMEx_OCN_Start_DMA\000"
 7173      54494D45 
 7173      785F4F43 
 7173      4E5F5374 
 7173      6172745F 
 7174              	.LASF26:
 7175 0969 49464352 		.ascii	"IFCR\000"
 7175      00
 7176              	.LASF128:
 7177 096e 75775469 		.ascii	"uwTickPrio\000"
 7177      636B5072 
 7177      696F00
 7178              	.LASF189:
 7179 0979 54494D5F 		.ascii	"TIM_TI1_SetConfig\000"
 7179      5449315F 
 7179      53657443 
 7179      6F6E6669 
 7179      6700
 7180              	.LASF66:
 7181 098b 53746174 		.ascii	"State\000"
 7181      6500
 7182              	.LASF179:
 7183 0991 48414C5F 		.ascii	"HAL_TIMEx_HallSensor_MspDeInit\000"
 7183      54494D45 
 7183      785F4861 
 7183      6C6C5365 
 7183      6E736F72 
ARM GAS  /tmp/ccD9AYux.s 			page 175


 7184              	.LASF38:
 7185 09b0 444D4152 		.ascii	"DMAR\000"
 7185      00
 7186              	.LASF93:
 7187 09b5 54494D5F 		.ascii	"TIM_MasterConfigTypeDef\000"
 7187      4D617374 
 7187      6572436F 
 7187      6E666967 
 7187      54797065 
 7188              	.LASF190:
 7189 09cd 54494D5F 		.ascii	"TIM_OC2_SetConfig\000"
 7189      4F43325F 
 7189      53657443 
 7189      6F6E6669 
 7189      6700
 7190              	.LASF32:
 7191 09df 43434552 		.ascii	"CCER\000"
 7191      00
 7192              	.LASF170:
 7193 09e4 48414C5F 		.ascii	"HAL_TIMEx_OCN_Start_IT\000"
 7193      54494D45 
 7193      785F4F43 
 7193      4E5F5374 
 7193      6172745F 
 7194              	.LASF124:
 7195 09fb 48414C5F 		.ascii	"HAL_TICK_FREQ_100HZ\000"
 7195      5449434B 
 7195      5F465245 
 7195      515F3130 
 7195      30485A00 
 7196              	.LASF6:
 7197 0a0f 5F5F696E 		.ascii	"__int32_t\000"
 7197      7433325F 
 7197      7400
 7198              	.LASF155:
 7199 0a19 48414C5F 		.ascii	"HAL_TIMEx_OnePulseN_Stop\000"
 7199      54494D45 
 7199      785F4F6E 
 7199      6550756C 
 7199      73654E5F 
 7200              	.LASF194:
 7201 0a32 5F5F444D 		.ascii	"__DMA_HandleTypeDef\000"
 7201      415F4861 
 7201      6E646C65 
 7201      54797065 
 7201      44656600 
 7202              	.LASF89:
 7203 0a46 4F434E49 		.ascii	"OCNIdleState\000"
 7203      646C6553 
 7203      74617465 
 7203      00
 7204              	.LASF76:
 7205 0a53 50726573 		.ascii	"Prescaler\000"
 7205      63616C65 
 7205      7200
 7206              	.LASF5:
 7207 0a5d 73686F72 		.ascii	"short unsigned int\000"
ARM GAS  /tmp/ccD9AYux.s 			page 176


 7207      7420756E 
 7207      7369676E 
 7207      65642069 
 7207      6E7400
 7208              	.LASF113:
 7209 0a70 48414C5F 		.ascii	"HAL_TIM_ACTIVE_CHANNEL_CLEARED\000"
 7209      54494D5F 
 7209      41435449 
 7209      56455F43 
 7209      48414E4E 
 7210              	.LASF175:
 7211 0a8f 48414C5F 		.ascii	"HAL_TIMEx_HallSensor_Stop_IT\000"
 7211      54494D45 
 7211      785F4861 
 7211      6C6C5365 
 7211      6E736F72 
 7212              	.LASF160:
 7213 0aac 4C656E67 		.ascii	"Length\000"
 7213      746800
 7214              	.LASF97:
 7215 0ab3 44656164 		.ascii	"DeadTime\000"
 7215      54696D65 
 7215      00
 7216              	.LASF82:
 7217 0abc 54494D5F 		.ascii	"TIM_Base_InitTypeDef\000"
 7217      42617365 
 7217      5F496E69 
 7217      74547970 
 7217      65446566 
 7218              	.LASF53:
 7219 0ad1 50657269 		.ascii	"PeriphDataAlignment\000"
 7219      70684461 
 7219      7461416C 
 7219      69676E6D 
 7219      656E7400 
 7220              	.LASF192:
 7221 0ae5 7372632F 		.ascii	"src/stm32f1xx_hal_tim_ex.c\000"
 7221      73746D33 
 7221      32663178 
 7221      785F6861 
 7221      6C5F7469 
 7222              	.LASF118:
 7223 0b00 49433150 		.ascii	"IC1Polarity\000"
 7223      6F6C6172 
 7223      69747900 
 7224              	.LASF33:
 7225 0b0c 43435231 		.ascii	"CCR1\000"
 7225      00
 7226              	.LASF34:
 7227 0b11 43435232 		.ascii	"CCR2\000"
 7227      00
 7228              	.LASF35:
 7229 0b16 43435233 		.ascii	"CCR3\000"
 7229      00
 7230              	.LASF36:
 7231 0b1b 43435234 		.ascii	"CCR4\000"
 7231      00
ARM GAS  /tmp/ccD9AYux.s 			page 177


 7232              	.LASF183:
 7233 0b20 73436F6E 		.ascii	"sConfig\000"
 7233      66696700 
 7234              	.LASF22:
 7235 0b28 434E4454 		.ascii	"CNDTR\000"
 7235      5200
 7236              	.LASF24:
 7237 0b2e 434D4152 		.ascii	"CMAR\000"
 7237      00
 7238              	.LASF102:
 7239 0b33 54494D5F 		.ascii	"TIM_BreakDeadTimeConfigTypeDef\000"
 7239      42726561 
 7239      6B446561 
 7239      6454696D 
 7239      65436F6E 
 7240              	.LASF61:
 7241 0b52 48414C5F 		.ascii	"HAL_DMA_STATE_TIMEOUT\000"
 7241      444D415F 
 7241      53544154 
 7241      455F5449 
 7241      4D454F55 
 7242              	.LASF56:
 7243 0b68 5072696F 		.ascii	"Priority\000"
 7243      72697479 
 7243      00
 7244              	.LASF13:
 7245 0b71 75696E74 		.ascii	"uint8_t\000"
 7245      385F7400 
 7246              	.LASF166:
 7247 0b79 48414C5F 		.ascii	"HAL_TIMEx_PWMN_Start\000"
 7247      54494D45 
 7247      785F5057 
 7247      4D4E5F53 
 7247      74617274 
 7248              	.LASF173:
 7249 0b8e 48414C5F 		.ascii	"HAL_TIMEx_HallSensor_Stop_DMA\000"
 7249      54494D45 
 7249      785F4861 
 7249      6C6C5365 
 7249      6E736F72 
 7250              	.LASF123:
 7251 0bac 48414C5F 		.ascii	"HAL_TICK_FREQ_10HZ\000"
 7251      5449434B 
 7251      5F465245 
 7251      515F3130 
 7251      485A00
 7252              	.LASF138:
 7253 0bbf 48414C5F 		.ascii	"HAL_TIMEx_RemapConfig\000"
 7253      54494D45 
 7253      785F5265 
 7253      6D617043 
 7253      6F6E6669 
 7254              	.LASF114:
 7255 0bd5 48414C5F 		.ascii	"HAL_TIM_ActiveChannel\000"
 7255      54494D5F 
 7255      41637469 
 7255      76654368 
ARM GAS  /tmp/ccD9AYux.s 			page 178


 7255      616E6E65 
 7256              	.LASF91:
 7257 0beb 4D617374 		.ascii	"MasterOutputTrigger\000"
 7257      65724F75 
 7257      74707574 
 7257      54726967 
 7257      67657200 
 7258              	.LASF112:
 7259 0bff 48414C5F 		.ascii	"HAL_TIM_ACTIVE_CHANNEL_4\000"
 7259      54494D5F 
 7259      41435449 
 7259      56455F43 
 7259      48414E4E 
 7260              	.LASF44:
 7261 0c18 48414C5F 		.ascii	"HAL_BUSY\000"
 7261      42555359 
 7261      00
 7262              	.LASF182:
 7263 0c21 48414C5F 		.ascii	"HAL_TIMEx_HallSensor_Init\000"
 7263      54494D45 
 7263      785F4861 
 7263      6C6C5365 
 7263      6E736F72 
 7264              	.LASF84:
 7265 0c3b 50756C73 		.ascii	"Pulse\000"
 7265      6500
 7266              	.LASF71:
 7267 0c41 58666572 		.ascii	"XferAbortCallback\000"
 7267      41626F72 
 7267      7443616C 
 7267      6C626163 
 7267      6B00
 7268              	.LASF68:
 7269 0c53 58666572 		.ascii	"XferCpltCallback\000"
 7269      43706C74 
 7269      43616C6C 
 7269      6261636B 
 7269      00
 7270              	.LASF156:
 7271 0c64 48414C5F 		.ascii	"HAL_TIMEx_OnePulseN_Start\000"
 7271      54494D45 
 7271      785F4F6E 
 7271      6550756C 
 7271      73654E5F 
 7272              	.LASF174:
 7273 0c7e 48414C5F 		.ascii	"HAL_TIMEx_HallSensor_Start_DMA\000"
 7273      54494D45 
 7273      785F4861 
 7273      6C6C5365 
 7273      6E736F72 
 7274              	.LASF121:
 7275 0c9d 436F6D6D 		.ascii	"Commutation_Delay\000"
 7275      75746174 
 7275      696F6E5F 
 7275      44656C61 
 7275      7900
 7276              		.ident	"GCC: (15:6.3.1+svn253039-1build1) 6.3.1 20170620"
ARM GAS  /tmp/ccD9AYux.s 			page 179


ARM GAS  /tmp/ccD9AYux.s 			page 180


DEFINED SYMBOLS
                            *ABS*:0000000000000000 stm32f1xx_hal_tim_ex.c
     /tmp/ccD9AYux.s:69     .text:0000000000000000 $t
     /tmp/ccD9AYux.s:75     .text:0000000000000000 TIM_CCxNChannelCmd
     /tmp/ccD9AYux.s:117    .text:000000000000001c HAL_TIMEx_HallSensor_MspInit
     /tmp/ccD9AYux.s:134    .text:000000000000001e HAL_TIMEx_HallSensor_Init
     /tmp/ccD9AYux.s:283    .text:00000000000000cc HAL_TIMEx_HallSensor_MspDeInit
     /tmp/ccD9AYux.s:300    .text:00000000000000ce HAL_TIMEx_HallSensor_DeInit
     /tmp/ccD9AYux.s:358    .text:0000000000000108 HAL_TIMEx_HallSensor_Start
     /tmp/ccD9AYux.s:408    .text:000000000000012e HAL_TIMEx_HallSensor_Stop
     /tmp/ccD9AYux.s:459    .text:000000000000015e HAL_TIMEx_HallSensor_Start_IT
     /tmp/ccD9AYux.s:517    .text:000000000000018c HAL_TIMEx_HallSensor_Stop_IT
     /tmp/ccD9AYux.s:572    .text:00000000000001c4 HAL_TIMEx_HallSensor_Start_DMA
     /tmp/ccD9AYux.s:677    .text:0000000000000234 $d
     /tmp/ccD9AYux.s:683    .text:0000000000000240 $t
     /tmp/ccD9AYux.s:690    .text:0000000000000240 HAL_TIMEx_HallSensor_Stop_DMA
     /tmp/ccD9AYux.s:752    .text:0000000000000280 HAL_TIMEx_PWMN_Start
     /tmp/ccD9AYux.s:805    .text:00000000000002ac HAL_TIMEx_OCN_Start
     /tmp/ccD9AYux.s:822    .text:00000000000002b0 HAL_TIMEx_PWMN_Start_IT
     /tmp/ccD9AYux.s:907    .text:0000000000000306 HAL_TIMEx_OCN_Start_IT
     /tmp/ccD9AYux.s:924    .text:000000000000030a HAL_TIMEx_PWMN_Stop_IT
     /tmp/ccD9AYux.s:1028   .text:000000000000038e HAL_TIMEx_OCN_Stop_IT
     /tmp/ccD9AYux.s:1045   .text:0000000000000392 HAL_TIMEx_PWMN_Start_DMA
     /tmp/ccD9AYux.s:1206   .text:000000000000045c $d
     /tmp/ccD9AYux.s:1212   .text:0000000000000468 $t
     /tmp/ccD9AYux.s:1219   .text:0000000000000468 HAL_TIMEx_OCN_Start_DMA
     /tmp/ccD9AYux.s:1236   .text:000000000000046c HAL_TIMEx_PWMN_Stop_DMA
     /tmp/ccD9AYux.s:1352   .text:00000000000004f6 HAL_TIMEx_OCN_Stop_DMA
     /tmp/ccD9AYux.s:1369   .text:00000000000004fa HAL_TIMEx_OnePulseN_Start
     /tmp/ccD9AYux.s:1410   .text:0000000000000514 HAL_TIMEx_OnePulseN_Stop
     /tmp/ccD9AYux.s:1472   .text:000000000000055e HAL_TIMEx_PWMN_Stop
     /tmp/ccD9AYux.s:1489   .text:0000000000000562 HAL_TIMEx_OCN_Stop
     /tmp/ccD9AYux.s:1506   .text:0000000000000566 HAL_TIMEx_OnePulseN_Start_IT
     /tmp/ccD9AYux.s:1557   .text:0000000000000590 HAL_TIMEx_OnePulseN_Stop_IT
     /tmp/ccD9AYux.s:1629   .text:00000000000005ea HAL_TIMEx_ConfigCommutEvent
     /tmp/ccD9AYux.s:1709   .text:0000000000000644 HAL_TIMEx_ConfigCommutEvent_IT
     /tmp/ccD9AYux.s:1789   .text:000000000000069e HAL_TIMEx_ConfigCommutEvent_DMA
     /tmp/ccD9AYux.s:1872   .text:0000000000000708 $d
     /tmp/ccD9AYux.s:2076   .text:00000000000007a2 TIMEx_DMACommutationCplt
     /tmp/ccD9AYux.s:2127   .text:00000000000007b4 TIMEx_DMACommutationHalfCplt
     /tmp/ccD9AYux.s:1878   .text:0000000000000714 $t
     /tmp/ccD9AYux.s:1885   .text:0000000000000714 HAL_TIMEx_MasterConfigSynchronization
     /tmp/ccD9AYux.s:1960   .text:0000000000000750 HAL_TIMEx_ConfigBreakDeadTime
     /tmp/ccD9AYux.s:2037   .text:000000000000079c HAL_TIMEx_RemapConfig
     /tmp/ccD9AYux.s:2059   .text:00000000000007a0 HAL_TIMEx_CommutCallback
     /tmp/ccD9AYux.s:2110   .text:00000000000007b2 HAL_TIMEx_CommutHalfCpltCallback
     /tmp/ccD9AYux.s:2161   .text:00000000000007c4 HAL_TIMEx_BreakCallback
     /tmp/ccD9AYux.s:2180   .text:00000000000007c6 HAL_TIMEx_HallSensor_GetState
                     .debug_frame:0000000000000010 $d

UNDEFINED SYMBOLS
TIM_Base_SetConfig
TIM_TI1_SetConfig
TIM_OC2_SetConfig
TIM_CCxChannelCmd
HAL_DMA_Start_IT
TIM_DMACaptureCplt
ARM GAS  /tmp/ccD9AYux.s 			page 181


TIM_DMACaptureHalfCplt
TIM_DMAError
HAL_DMA_Abort_IT
TIM_DMADelayPulseCplt
TIM_DMADelayPulseHalfCplt
