ARM GAS  /tmp/ccgFoonV.s 			page 1


   1              		.cpu cortex-m3
   2              		.eabi_attribute 20, 1	@ Tag_ABI_FP_denormal
   3              		.eabi_attribute 21, 1	@ Tag_ABI_FP_exceptions
   4              		.eabi_attribute 23, 3	@ Tag_ABI_FP_number_model
   5              		.eabi_attribute 24, 1	@ Tag_ABI_align8_needed
   6              		.eabi_attribute 25, 1	@ Tag_ABI_align8_preserved
   7              		.eabi_attribute 26, 1	@ Tag_ABI_enum_size
   8              		.eabi_attribute 30, 4	@ Tag_ABI_optimization_goals
   9              		.eabi_attribute 34, 1	@ Tag_CPU_unaligned_access
  10              		.eabi_attribute 18, 4	@ Tag_ABI_PCS_wchar_t
  11              		.file	"stm32f1xx_ll_utils.c"
  12              	@ GNU C11 (15:6.3.1+svn253039-1build1) version 6.3.1 20170620 (arm-none-eabi)
  13              	@	compiled by GNU C version 7.2.0, GMP version 6.1.2, MPFR version 4.0.1-rc1, MPC version 1.1.0, is
  14              	@ warning: MPFR header version 4.0.1-rc1 differs from library version 4.0.1.
  15              	@ GGC heuristics: --param ggc-min-expand=100 --param ggc-min-heapsize=131072
  16              	@ options passed:  -I ./inc -I ./inc/Legacy -I ../cmsisstm32f1xx/inc
  17              	@ -I ../cmsiscore/inc -imultilib thumb/v7-m -D__USES_INITFINI__
  18              	@ -D STM32F103x6 -D RUN_FROM_FLASH=1 src/stm32f1xx_ll_utils.c
  19              	@ -mcpu=cortex-m3 -mthumb -auxbase-strip bin/stm32f1xx_ll_utils.o -g
  20              	@ -gdwarf-2 -Os -Wall -fomit-frame-pointer -fverbose-asm
  21              	@ options enabled:  -faggressive-loop-optimizations -falign-jumps
  22              	@ -falign-labels -falign-loops -fauto-inc-dec -fbranch-count-reg
  23              	@ -fcaller-saves -fchkp-check-incomplete-type -fchkp-check-read
  24              	@ -fchkp-check-write -fchkp-instrument-calls -fchkp-narrow-bounds
  25              	@ -fchkp-optimize -fchkp-store-bounds -fchkp-use-static-bounds
  26              	@ -fchkp-use-static-const-bounds -fchkp-use-wrappers
  27              	@ -fcombine-stack-adjustments -fcommon -fcompare-elim -fcprop-registers
  28              	@ -fcrossjumping -fcse-follow-jumps -fdefer-pop
  29              	@ -fdelete-null-pointer-checks -fdevirtualize -fdevirtualize-speculatively
  30              	@ -fdwarf2-cfi-asm -fearly-inlining -feliminate-unused-debug-types
  31              	@ -fexpensive-optimizations -fforward-propagate -ffunction-cse -fgcse
  32              	@ -fgcse-lm -fgnu-runtime -fgnu-unique -fguess-branch-probability
  33              	@ -fhoist-adjacent-loads -fident -fif-conversion -fif-conversion2
  34              	@ -findirect-inlining -finline -finline-atomics -finline-functions
  35              	@ -finline-functions-called-once -finline-small-functions -fipa-cp
  36              	@ -fipa-cp-alignment -fipa-icf -fipa-icf-functions -fipa-icf-variables
  37              	@ -fipa-profile -fipa-pure-const -fipa-ra -fipa-reference -fipa-sra
  38              	@ -fira-hoist-pressure -fira-share-save-slots -fira-share-spill-slots
  39              	@ -fisolate-erroneous-paths-dereference -fivopts -fkeep-static-consts
  40              	@ -fleading-underscore -flifetime-dse -flra-remat -flto-odr-type-merging
  41              	@ -fmath-errno -fmerge-constants -fmerge-debug-strings
  42              	@ -fmove-loop-invariants -fomit-frame-pointer -foptimize-sibling-calls
  43              	@ -fpartial-inlining -fpeephole -fpeephole2 -fplt -fprefetch-loop-arrays
  44              	@ -freg-struct-return -freorder-blocks -freorder-functions
  45              	@ -frerun-cse-after-loop -fsched-critical-path-heuristic
  46              	@ -fsched-dep-count-heuristic -fsched-group-heuristic -fsched-interblock
  47              	@ -fsched-last-insn-heuristic -fsched-pressure -fsched-rank-heuristic
  48              	@ -fsched-spec -fsched-spec-insn-heuristic -fsched-stalled-insns-dep
  49              	@ -fschedule-insns2 -fsection-anchors -fsemantic-interposition
  50              	@ -fshow-column -fsigned-zeros -fsplit-ivs-in-unroller -fsplit-wide-types
  51              	@ -fssa-backprop -fssa-phiopt -fstdarg-opt -fstrict-aliasing
  52              	@ -fstrict-overflow -fstrict-volatile-bitfields -fsync-libcalls
  53              	@ -fthread-jumps -ftoplevel-reorder -ftrapping-math -ftree-bit-ccp
  54              	@ -ftree-builtin-call-dce -ftree-ccp -ftree-ch -ftree-coalesce-vars
  55              	@ -ftree-copy-prop -ftree-cselim -ftree-dce -ftree-dominator-opts
  56              	@ -ftree-dse -ftree-forwprop -ftree-fre -ftree-loop-if-convert
  57              	@ -ftree-loop-im -ftree-loop-ivcanon -ftree-loop-optimize
ARM GAS  /tmp/ccgFoonV.s 			page 2


  58              	@ -ftree-parallelize-loops= -ftree-phiprop -ftree-pre -ftree-pta
  59              	@ -ftree-reassoc -ftree-scev-cprop -ftree-sink -ftree-slsr -ftree-sra
  60              	@ -ftree-switch-conversion -ftree-tail-merge -ftree-ter -ftree-vrp
  61              	@ -funit-at-a-time -fvar-tracking -fvar-tracking-assignments -fverbose-asm
  62              	@ -fzero-initialized-in-bss -masm-syntax-unified -mfix-cortex-m3-ldrd
  63              	@ -mlittle-endian -mpic-data-is-text-relative -msched-prolog -mthumb
  64              	@ -munaligned-access -mvectorize-with-neon-quad
  65              	
  66              		.text
  67              	.Ltext0:
  68              		.cfi_sections	.debug_frame
  69              		.align	1
  70              		.syntax unified
  71              		.thumb
  72              		.thumb_func
  73              		.fpu softvfp
  74              		.type	UTILS_SetFlashLatency, %function
  75              	UTILS_SetFlashLatency:
  76              	.LFB179:
  77              		.file 1 "src/stm32f1xx_ll_utils.c"
   1:src/stm32f1xx_ll_utils.c **** /**
   2:src/stm32f1xx_ll_utils.c ****   ******************************************************************************
   3:src/stm32f1xx_ll_utils.c ****   * @file    stm32f1xx_ll_utils.c
   4:src/stm32f1xx_ll_utils.c ****   * @author  MCD Application Team
   5:src/stm32f1xx_ll_utils.c ****   * @brief   UTILS LL module driver.
   6:src/stm32f1xx_ll_utils.c ****   ******************************************************************************
   7:src/stm32f1xx_ll_utils.c ****   * @attention
   8:src/stm32f1xx_ll_utils.c ****   *
   9:src/stm32f1xx_ll_utils.c ****   * <h2><center>&copy; Copyright (c) 2016 STMicroelectronics.
  10:src/stm32f1xx_ll_utils.c ****   * All rights reserved.</center></h2>
  11:src/stm32f1xx_ll_utils.c ****   *
  12:src/stm32f1xx_ll_utils.c ****   * This software component is licensed by ST under BSD 3-Clause license,
  13:src/stm32f1xx_ll_utils.c ****   * the "License"; You may not use this file except in compliance with the
  14:src/stm32f1xx_ll_utils.c ****   * License. You may obtain a copy of the License at:
  15:src/stm32f1xx_ll_utils.c ****   *                        opensource.org/licenses/BSD-3-Clause
  16:src/stm32f1xx_ll_utils.c ****   *
  17:src/stm32f1xx_ll_utils.c ****   ******************************************************************************
  18:src/stm32f1xx_ll_utils.c ****   */
  19:src/stm32f1xx_ll_utils.c **** 
  20:src/stm32f1xx_ll_utils.c **** /* Includes ------------------------------------------------------------------*/
  21:src/stm32f1xx_ll_utils.c **** #include "stm32f1xx_ll_rcc.h"
  22:src/stm32f1xx_ll_utils.c **** #include "stm32f1xx_ll_utils.h"
  23:src/stm32f1xx_ll_utils.c **** #include "stm32f1xx_ll_system.h"
  24:src/stm32f1xx_ll_utils.c **** #ifdef  USE_FULL_ASSERT
  25:src/stm32f1xx_ll_utils.c **** #include "stm32_assert.h"
  26:src/stm32f1xx_ll_utils.c **** #else
  27:src/stm32f1xx_ll_utils.c **** #define assert_param(expr) ((void)0U)
  28:src/stm32f1xx_ll_utils.c **** #endif
  29:src/stm32f1xx_ll_utils.c **** 
  30:src/stm32f1xx_ll_utils.c **** /** @addtogroup STM32F1xx_LL_Driver
  31:src/stm32f1xx_ll_utils.c ****   * @{
  32:src/stm32f1xx_ll_utils.c ****   */
  33:src/stm32f1xx_ll_utils.c **** 
  34:src/stm32f1xx_ll_utils.c **** /** @addtogroup UTILS_LL
  35:src/stm32f1xx_ll_utils.c ****   * @{
  36:src/stm32f1xx_ll_utils.c ****   */
  37:src/stm32f1xx_ll_utils.c **** 
ARM GAS  /tmp/ccgFoonV.s 			page 3


  38:src/stm32f1xx_ll_utils.c **** /* Private types -------------------------------------------------------------*/
  39:src/stm32f1xx_ll_utils.c **** /* Private variables ---------------------------------------------------------*/
  40:src/stm32f1xx_ll_utils.c **** /* Private constants ---------------------------------------------------------*/
  41:src/stm32f1xx_ll_utils.c **** /** @addtogroup UTILS_LL_Private_Constants
  42:src/stm32f1xx_ll_utils.c ****   * @{
  43:src/stm32f1xx_ll_utils.c ****   */
  44:src/stm32f1xx_ll_utils.c **** 
  45:src/stm32f1xx_ll_utils.c **** /* Defines used for PLL range */
  46:src/stm32f1xx_ll_utils.c **** #define UTILS_PLL_OUTPUT_MAX        RCC_MAX_FREQUENCY    /*!< Frequency max for PLL output, in Hz  
  47:src/stm32f1xx_ll_utils.c **** 
  48:src/stm32f1xx_ll_utils.c **** /* Defines used for HSE range */
  49:src/stm32f1xx_ll_utils.c **** #define UTILS_HSE_FREQUENCY_MIN     RCC_HSE_MIN       /*!< Frequency min for HSE frequency, in Hz  
  50:src/stm32f1xx_ll_utils.c **** #define UTILS_HSE_FREQUENCY_MAX     RCC_HSE_MAX       /*!< Frequency max for HSE frequency, in Hz  
  51:src/stm32f1xx_ll_utils.c **** 
  52:src/stm32f1xx_ll_utils.c **** /* Defines used for FLASH latency according to HCLK Frequency */
  53:src/stm32f1xx_ll_utils.c **** #if defined(FLASH_ACR_LATENCY)
  54:src/stm32f1xx_ll_utils.c **** #define UTILS_LATENCY1_FREQ         24000000U        /*!< SYSCLK frequency to set FLASH latency 1 *
  55:src/stm32f1xx_ll_utils.c **** #define UTILS_LATENCY2_FREQ         48000000U        /*!< SYSCLK frequency to set FLASH latency 2 *
  56:src/stm32f1xx_ll_utils.c **** #else
  57:src/stm32f1xx_ll_utils.c **** /*!< No Latency Configuration in this device */
  58:src/stm32f1xx_ll_utils.c **** #endif
  59:src/stm32f1xx_ll_utils.c **** /**
  60:src/stm32f1xx_ll_utils.c ****   * @}
  61:src/stm32f1xx_ll_utils.c ****   */
  62:src/stm32f1xx_ll_utils.c **** /* Private macros ------------------------------------------------------------*/
  63:src/stm32f1xx_ll_utils.c **** /** @addtogroup UTILS_LL_Private_Macros
  64:src/stm32f1xx_ll_utils.c ****   * @{
  65:src/stm32f1xx_ll_utils.c ****   */
  66:src/stm32f1xx_ll_utils.c **** #define IS_LL_UTILS_SYSCLK_DIV(__VALUE__) (((__VALUE__) == LL_RCC_SYSCLK_DIV_1)   \
  67:src/stm32f1xx_ll_utils.c ****                                         || ((__VALUE__) == LL_RCC_SYSCLK_DIV_2)   \
  68:src/stm32f1xx_ll_utils.c ****                                         || ((__VALUE__) == LL_RCC_SYSCLK_DIV_4)   \
  69:src/stm32f1xx_ll_utils.c ****                                         || ((__VALUE__) == LL_RCC_SYSCLK_DIV_8)   \
  70:src/stm32f1xx_ll_utils.c ****                                         || ((__VALUE__) == LL_RCC_SYSCLK_DIV_16)  \
  71:src/stm32f1xx_ll_utils.c ****                                         || ((__VALUE__) == LL_RCC_SYSCLK_DIV_64)  \
  72:src/stm32f1xx_ll_utils.c ****                                         || ((__VALUE__) == LL_RCC_SYSCLK_DIV_128) \
  73:src/stm32f1xx_ll_utils.c ****                                         || ((__VALUE__) == LL_RCC_SYSCLK_DIV_256) \
  74:src/stm32f1xx_ll_utils.c ****                                         || ((__VALUE__) == LL_RCC_SYSCLK_DIV_512))
  75:src/stm32f1xx_ll_utils.c **** 
  76:src/stm32f1xx_ll_utils.c **** #define IS_LL_UTILS_APB1_DIV(__VALUE__) (((__VALUE__) == LL_RCC_APB1_DIV_1) \
  77:src/stm32f1xx_ll_utils.c ****                                       || ((__VALUE__) == LL_RCC_APB1_DIV_2) \
  78:src/stm32f1xx_ll_utils.c ****                                       || ((__VALUE__) == LL_RCC_APB1_DIV_4) \
  79:src/stm32f1xx_ll_utils.c ****                                       || ((__VALUE__) == LL_RCC_APB1_DIV_8) \
  80:src/stm32f1xx_ll_utils.c ****                                       || ((__VALUE__) == LL_RCC_APB1_DIV_16))
  81:src/stm32f1xx_ll_utils.c **** 
  82:src/stm32f1xx_ll_utils.c **** #define IS_LL_UTILS_APB2_DIV(__VALUE__) (((__VALUE__) == LL_RCC_APB2_DIV_1) \
  83:src/stm32f1xx_ll_utils.c ****                                       || ((__VALUE__) == LL_RCC_APB2_DIV_2) \
  84:src/stm32f1xx_ll_utils.c ****                                       || ((__VALUE__) == LL_RCC_APB2_DIV_4) \
  85:src/stm32f1xx_ll_utils.c ****                                       || ((__VALUE__) == LL_RCC_APB2_DIV_8) \
  86:src/stm32f1xx_ll_utils.c ****                                       || ((__VALUE__) == LL_RCC_APB2_DIV_16))
  87:src/stm32f1xx_ll_utils.c **** 
  88:src/stm32f1xx_ll_utils.c **** #if defined(RCC_CFGR_PLLMULL6_5)
  89:src/stm32f1xx_ll_utils.c **** #define IS_LL_UTILS_PLLMUL_VALUE(__VALUE__) (((__VALUE__) == LL_RCC_PLL_MUL_4) \
  90:src/stm32f1xx_ll_utils.c ****                                           || ((__VALUE__) == LL_RCC_PLL_MUL_5) \
  91:src/stm32f1xx_ll_utils.c ****                                           || ((__VALUE__) == LL_RCC_PLL_MUL_6) \
  92:src/stm32f1xx_ll_utils.c ****                                           || ((__VALUE__) == LL_RCC_PLL_MUL_7) \
  93:src/stm32f1xx_ll_utils.c ****                                           || ((__VALUE__) == LL_RCC_PLL_MUL_8) \
  94:src/stm32f1xx_ll_utils.c ****                                           || ((__VALUE__) == LL_RCC_PLL_MUL_9) \
ARM GAS  /tmp/ccgFoonV.s 			page 4


  95:src/stm32f1xx_ll_utils.c ****                                           || ((__VALUE__) == LL_RCC_PLL_MUL_6_5))
  96:src/stm32f1xx_ll_utils.c **** #else
  97:src/stm32f1xx_ll_utils.c **** #define IS_LL_UTILS_PLLMUL_VALUE(__VALUE__) (((__VALUE__) == LL_RCC_PLL_MUL_2) \
  98:src/stm32f1xx_ll_utils.c ****                                           || ((__VALUE__) == LL_RCC_PLL_MUL_3) \
  99:src/stm32f1xx_ll_utils.c ****                                           || ((__VALUE__) == LL_RCC_PLL_MUL_4) \
 100:src/stm32f1xx_ll_utils.c ****                                           || ((__VALUE__) == LL_RCC_PLL_MUL_5) \
 101:src/stm32f1xx_ll_utils.c ****                                           || ((__VALUE__) == LL_RCC_PLL_MUL_6) \
 102:src/stm32f1xx_ll_utils.c ****                                           || ((__VALUE__) == LL_RCC_PLL_MUL_7) \
 103:src/stm32f1xx_ll_utils.c ****                                           || ((__VALUE__) == LL_RCC_PLL_MUL_8) \
 104:src/stm32f1xx_ll_utils.c ****                                           || ((__VALUE__) == LL_RCC_PLL_MUL_9) \
 105:src/stm32f1xx_ll_utils.c ****                                           || ((__VALUE__) == LL_RCC_PLL_MUL_10) \
 106:src/stm32f1xx_ll_utils.c ****                                           || ((__VALUE__) == LL_RCC_PLL_MUL_11) \
 107:src/stm32f1xx_ll_utils.c ****                                           || ((__VALUE__) == LL_RCC_PLL_MUL_12) \
 108:src/stm32f1xx_ll_utils.c ****                                           || ((__VALUE__) == LL_RCC_PLL_MUL_13) \
 109:src/stm32f1xx_ll_utils.c ****                                           || ((__VALUE__) == LL_RCC_PLL_MUL_14) \
 110:src/stm32f1xx_ll_utils.c ****                                           || ((__VALUE__) == LL_RCC_PLL_MUL_15) \
 111:src/stm32f1xx_ll_utils.c ****                                           || ((__VALUE__) == LL_RCC_PLL_MUL_16))
 112:src/stm32f1xx_ll_utils.c **** #endif /* RCC_CFGR_PLLMULL6_5 */
 113:src/stm32f1xx_ll_utils.c **** 
 114:src/stm32f1xx_ll_utils.c **** #if defined(RCC_CFGR2_PREDIV1)
 115:src/stm32f1xx_ll_utils.c **** #define IS_LL_UTILS_PREDIV_VALUE(__VALUE__) (((__VALUE__) == LL_RCC_PREDIV_DIV_1)  || ((__VALUE__) 
 116:src/stm32f1xx_ll_utils.c ****                                              ((__VALUE__) == LL_RCC_PREDIV_DIV_3)  || ((__VALUE__) 
 117:src/stm32f1xx_ll_utils.c ****                                              ((__VALUE__) == LL_RCC_PREDIV_DIV_5)  || ((__VALUE__) 
 118:src/stm32f1xx_ll_utils.c ****                                              ((__VALUE__) == LL_RCC_PREDIV_DIV_7)  || ((__VALUE__) 
 119:src/stm32f1xx_ll_utils.c ****                                              ((__VALUE__) == LL_RCC_PREDIV_DIV_9)  || ((__VALUE__) 
 120:src/stm32f1xx_ll_utils.c ****                                              ((__VALUE__) == LL_RCC_PREDIV_DIV_11) || ((__VALUE__) 
 121:src/stm32f1xx_ll_utils.c ****                                              ((__VALUE__) == LL_RCC_PREDIV_DIV_13) || ((__VALUE__) 
 122:src/stm32f1xx_ll_utils.c ****                                              ((__VALUE__) == LL_RCC_PREDIV_DIV_15) || ((__VALUE__) 
 123:src/stm32f1xx_ll_utils.c **** #else
 124:src/stm32f1xx_ll_utils.c **** #define IS_LL_UTILS_PREDIV_VALUE(__VALUE__) (((__VALUE__) == LL_RCC_PREDIV_DIV_1)  || ((__VALUE__) 
 125:src/stm32f1xx_ll_utils.c **** #endif /*RCC_PREDIV1_DIV_2_16_SUPPORT*/
 126:src/stm32f1xx_ll_utils.c **** 
 127:src/stm32f1xx_ll_utils.c **** #define IS_LL_UTILS_PLL_FREQUENCY(__VALUE__) ((__VALUE__) <= UTILS_PLL_OUTPUT_MAX)
 128:src/stm32f1xx_ll_utils.c **** 
 129:src/stm32f1xx_ll_utils.c **** 
 130:src/stm32f1xx_ll_utils.c **** #define IS_LL_UTILS_HSE_BYPASS(__STATE__) (((__STATE__) == LL_UTILS_HSEBYPASS_ON) \
 131:src/stm32f1xx_ll_utils.c ****                                         || ((__STATE__) == LL_UTILS_HSEBYPASS_OFF))
 132:src/stm32f1xx_ll_utils.c **** 
 133:src/stm32f1xx_ll_utils.c **** #define IS_LL_UTILS_HSE_FREQUENCY(__FREQUENCY__) (((__FREQUENCY__) >= UTILS_HSE_FREQUENCY_MIN) && (
 134:src/stm32f1xx_ll_utils.c **** /**
 135:src/stm32f1xx_ll_utils.c ****   * @}
 136:src/stm32f1xx_ll_utils.c ****   */
 137:src/stm32f1xx_ll_utils.c **** /* Private function prototypes -----------------------------------------------*/
 138:src/stm32f1xx_ll_utils.c **** /** @defgroup UTILS_LL_Private_Functions UTILS Private functions
 139:src/stm32f1xx_ll_utils.c ****   * @{
 140:src/stm32f1xx_ll_utils.c ****   */
 141:src/stm32f1xx_ll_utils.c **** static uint32_t    UTILS_GetPLLOutputFrequency(uint32_t PLL_InputFrequency,
 142:src/stm32f1xx_ll_utils.c ****                                                LL_UTILS_PLLInitTypeDef *UTILS_PLLInitStruct);
 143:src/stm32f1xx_ll_utils.c **** #if defined(FLASH_ACR_LATENCY)
 144:src/stm32f1xx_ll_utils.c **** static ErrorStatus UTILS_SetFlashLatency(uint32_t Frequency);
 145:src/stm32f1xx_ll_utils.c **** #endif /* FLASH_ACR_LATENCY */
 146:src/stm32f1xx_ll_utils.c **** static ErrorStatus UTILS_EnablePLLAndSwitchSystem(uint32_t SYSCLK_Frequency, LL_UTILS_ClkInitTypeDe
 147:src/stm32f1xx_ll_utils.c **** static ErrorStatus UTILS_PLL_IsBusy(void);
 148:src/stm32f1xx_ll_utils.c **** /**
 149:src/stm32f1xx_ll_utils.c ****   * @}
 150:src/stm32f1xx_ll_utils.c ****   */
 151:src/stm32f1xx_ll_utils.c **** 
ARM GAS  /tmp/ccgFoonV.s 			page 5


 152:src/stm32f1xx_ll_utils.c **** /* Exported functions --------------------------------------------------------*/
 153:src/stm32f1xx_ll_utils.c **** /** @addtogroup UTILS_LL_Exported_Functions
 154:src/stm32f1xx_ll_utils.c ****   * @{
 155:src/stm32f1xx_ll_utils.c ****   */
 156:src/stm32f1xx_ll_utils.c **** 
 157:src/stm32f1xx_ll_utils.c **** /** @addtogroup UTILS_LL_EF_DELAY
 158:src/stm32f1xx_ll_utils.c ****   * @{
 159:src/stm32f1xx_ll_utils.c ****   */
 160:src/stm32f1xx_ll_utils.c **** 
 161:src/stm32f1xx_ll_utils.c **** /**
 162:src/stm32f1xx_ll_utils.c ****   * @brief  This function configures the Cortex-M SysTick source to have 1ms time base.
 163:src/stm32f1xx_ll_utils.c ****   * @note   When a RTOS is used, it is recommended to avoid changing the Systick
 164:src/stm32f1xx_ll_utils.c ****   *         configuration by calling this function, for a delay use rather osDelay RTOS service.
 165:src/stm32f1xx_ll_utils.c ****   * @param  HCLKFrequency HCLK frequency in Hz
 166:src/stm32f1xx_ll_utils.c ****   * @note   HCLK frequency can be calculated thanks to RCC helper macro or function @ref LL_RCC_Get
 167:src/stm32f1xx_ll_utils.c ****   * @retval None
 168:src/stm32f1xx_ll_utils.c ****   */
 169:src/stm32f1xx_ll_utils.c **** void LL_Init1msTick(uint32_t HCLKFrequency)
 170:src/stm32f1xx_ll_utils.c **** {
 171:src/stm32f1xx_ll_utils.c ****   /* Use frequency provided in argument */
 172:src/stm32f1xx_ll_utils.c ****   LL_InitTick(HCLKFrequency, 1000U);
 173:src/stm32f1xx_ll_utils.c **** }
 174:src/stm32f1xx_ll_utils.c **** 
 175:src/stm32f1xx_ll_utils.c **** /**
 176:src/stm32f1xx_ll_utils.c ****   * @brief  This function provides accurate delay (in milliseconds) based
 177:src/stm32f1xx_ll_utils.c ****   *         on SysTick counter flag
 178:src/stm32f1xx_ll_utils.c ****   * @note   When a RTOS is used, it is recommended to avoid using blocking delay
 179:src/stm32f1xx_ll_utils.c ****   *         and use rather osDelay service.
 180:src/stm32f1xx_ll_utils.c ****   * @note   To respect 1ms timebase, user should call @ref LL_Init1msTick function which
 181:src/stm32f1xx_ll_utils.c ****   *         will configure Systick to 1ms
 182:src/stm32f1xx_ll_utils.c ****   * @param  Delay specifies the delay time length, in milliseconds.
 183:src/stm32f1xx_ll_utils.c ****   * @retval None
 184:src/stm32f1xx_ll_utils.c ****   */
 185:src/stm32f1xx_ll_utils.c **** void LL_mDelay(uint32_t Delay)
 186:src/stm32f1xx_ll_utils.c **** {
 187:src/stm32f1xx_ll_utils.c ****   __IO uint32_t  tmp = SysTick->CTRL;  /* Clear the COUNTFLAG first */
 188:src/stm32f1xx_ll_utils.c ****   /* Add this code to indicate that local variable is not used */
 189:src/stm32f1xx_ll_utils.c ****   ((void)tmp);
 190:src/stm32f1xx_ll_utils.c **** 
 191:src/stm32f1xx_ll_utils.c ****   /* Add a period to guaranty minimum wait */
 192:src/stm32f1xx_ll_utils.c ****   if (Delay < LL_MAX_DELAY)
 193:src/stm32f1xx_ll_utils.c ****   {
 194:src/stm32f1xx_ll_utils.c ****     Delay++;
 195:src/stm32f1xx_ll_utils.c ****   }
 196:src/stm32f1xx_ll_utils.c **** 
 197:src/stm32f1xx_ll_utils.c ****   while (Delay)
 198:src/stm32f1xx_ll_utils.c ****   {
 199:src/stm32f1xx_ll_utils.c ****     if ((SysTick->CTRL & SysTick_CTRL_COUNTFLAG_Msk) != 0U)
 200:src/stm32f1xx_ll_utils.c ****     {
 201:src/stm32f1xx_ll_utils.c ****       Delay--;
 202:src/stm32f1xx_ll_utils.c ****     }
 203:src/stm32f1xx_ll_utils.c ****   }
 204:src/stm32f1xx_ll_utils.c **** }
 205:src/stm32f1xx_ll_utils.c **** 
 206:src/stm32f1xx_ll_utils.c **** /**
 207:src/stm32f1xx_ll_utils.c ****   * @}
 208:src/stm32f1xx_ll_utils.c ****   */
ARM GAS  /tmp/ccgFoonV.s 			page 6


 209:src/stm32f1xx_ll_utils.c **** 
 210:src/stm32f1xx_ll_utils.c **** /** @addtogroup UTILS_EF_SYSTEM
 211:src/stm32f1xx_ll_utils.c ****   *  @brief    System Configuration functions
 212:src/stm32f1xx_ll_utils.c ****   *
 213:src/stm32f1xx_ll_utils.c ****   @verbatim
 214:src/stm32f1xx_ll_utils.c ****  ===============================================================================
 215:src/stm32f1xx_ll_utils.c ****            ##### System Configuration functions #####
 216:src/stm32f1xx_ll_utils.c ****  ===============================================================================
 217:src/stm32f1xx_ll_utils.c ****     [..]
 218:src/stm32f1xx_ll_utils.c ****          System, AHB and APB buses clocks configuration
 219:src/stm32f1xx_ll_utils.c **** 
 220:src/stm32f1xx_ll_utils.c ****          (+) The maximum frequency of the SYSCLK, HCLK, PCLK1 and PCLK2 is RCC_MAX_FREQUENCY Hz.
 221:src/stm32f1xx_ll_utils.c ****   @endverbatim
 222:src/stm32f1xx_ll_utils.c ****   @internal
 223:src/stm32f1xx_ll_utils.c ****              Depending on the SYSCLK frequency, the flash latency should be adapted accordingly:
 224:src/stm32f1xx_ll_utils.c ****              (++) +-----------------------------------------------+
 225:src/stm32f1xx_ll_utils.c ****              (++) | Latency       | SYSCLK clock frequency (MHz)  |
 226:src/stm32f1xx_ll_utils.c ****              (++) |---------------|-------------------------------|
 227:src/stm32f1xx_ll_utils.c ****              (++) |0WS(1CPU cycle)|       0 < SYSCLK <= 24        |
 228:src/stm32f1xx_ll_utils.c ****              (++) |---------------|-------------------------------|
 229:src/stm32f1xx_ll_utils.c ****              (++) |1WS(2CPU cycle)|      24 < SYSCLK <= 48        |
 230:src/stm32f1xx_ll_utils.c ****              (++) |---------------|-------------------------------|
 231:src/stm32f1xx_ll_utils.c ****              (++) |2WS(3CPU cycle)|      48 < SYSCLK <= 72        |
 232:src/stm32f1xx_ll_utils.c ****              (++) +-----------------------------------------------+
 233:src/stm32f1xx_ll_utils.c ****   @endinternal
 234:src/stm32f1xx_ll_utils.c ****   * @{
 235:src/stm32f1xx_ll_utils.c ****   */
 236:src/stm32f1xx_ll_utils.c **** 
 237:src/stm32f1xx_ll_utils.c **** /**
 238:src/stm32f1xx_ll_utils.c ****   * @brief  This function sets directly SystemCoreClock CMSIS variable.
 239:src/stm32f1xx_ll_utils.c ****   * @note   Variable can be calculated also through SystemCoreClockUpdate function.
 240:src/stm32f1xx_ll_utils.c ****   * @param  HCLKFrequency HCLK frequency in Hz (can be calculated thanks to RCC helper macro)
 241:src/stm32f1xx_ll_utils.c ****   * @retval None
 242:src/stm32f1xx_ll_utils.c ****   */
 243:src/stm32f1xx_ll_utils.c **** void LL_SetSystemCoreClock(uint32_t HCLKFrequency)
 244:src/stm32f1xx_ll_utils.c **** {
 245:src/stm32f1xx_ll_utils.c ****   /* HCLK clock frequency */
 246:src/stm32f1xx_ll_utils.c ****   SystemCoreClock = HCLKFrequency;
 247:src/stm32f1xx_ll_utils.c **** }
 248:src/stm32f1xx_ll_utils.c **** 
 249:src/stm32f1xx_ll_utils.c **** /**
 250:src/stm32f1xx_ll_utils.c ****   * @brief  This function configures system clock with HSI as clock source of the PLL
 251:src/stm32f1xx_ll_utils.c ****   * @note   The application need to ensure that PLL is disabled.
 252:src/stm32f1xx_ll_utils.c ****   * @note   Function is based on the following formula:
 253:src/stm32f1xx_ll_utils.c ****   *         - PLL output frequency = ((HSI frequency / PREDIV) * PLLMUL)
 254:src/stm32f1xx_ll_utils.c ****   *         - PREDIV: Set to 2 for few devices
 255:src/stm32f1xx_ll_utils.c ****   *         - PLLMUL: The application software must set correctly the PLL multiplication factor to
 256:src/stm32f1xx_ll_utils.c ****   *                   not exceed 72MHz
 257:src/stm32f1xx_ll_utils.c ****   * @note   FLASH latency can be modified through this function.
 258:src/stm32f1xx_ll_utils.c ****   * @param  UTILS_PLLInitStruct pointer to a @ref LL_UTILS_PLLInitTypeDef structure that contains
 259:src/stm32f1xx_ll_utils.c ****   *                             the configuration information for the PLL.
 260:src/stm32f1xx_ll_utils.c ****   * @param  UTILS_ClkInitStruct pointer to a @ref LL_UTILS_ClkInitTypeDef structure that contains
 261:src/stm32f1xx_ll_utils.c ****   *                             the configuration information for the BUS prescalers.
 262:src/stm32f1xx_ll_utils.c ****   * @retval An ErrorStatus enumeration value:
 263:src/stm32f1xx_ll_utils.c ****   *          - SUCCESS: Max frequency configuration done
 264:src/stm32f1xx_ll_utils.c ****   *          - ERROR: Max frequency configuration not done
 265:src/stm32f1xx_ll_utils.c ****   */
ARM GAS  /tmp/ccgFoonV.s 			page 7


 266:src/stm32f1xx_ll_utils.c **** ErrorStatus LL_PLL_ConfigSystemClock_HSI(LL_UTILS_PLLInitTypeDef *UTILS_PLLInitStruct,
 267:src/stm32f1xx_ll_utils.c ****                                          LL_UTILS_ClkInitTypeDef *UTILS_ClkInitStruct)
 268:src/stm32f1xx_ll_utils.c **** {
 269:src/stm32f1xx_ll_utils.c ****   ErrorStatus status = SUCCESS;
 270:src/stm32f1xx_ll_utils.c ****   uint32_t pllfreq = 0U;
 271:src/stm32f1xx_ll_utils.c **** 
 272:src/stm32f1xx_ll_utils.c ****   /* Check if one of the PLL is enabled */
 273:src/stm32f1xx_ll_utils.c ****   if (UTILS_PLL_IsBusy() == SUCCESS)
 274:src/stm32f1xx_ll_utils.c ****   {
 275:src/stm32f1xx_ll_utils.c **** #if defined(RCC_PLLSRC_PREDIV1_SUPPORT)
 276:src/stm32f1xx_ll_utils.c ****     /* Check PREDIV value */
 277:src/stm32f1xx_ll_utils.c ****     assert_param(IS_LL_UTILS_PREDIV_VALUE(UTILS_PLLInitStruct->PLLDiv));
 278:src/stm32f1xx_ll_utils.c **** #else
 279:src/stm32f1xx_ll_utils.c ****     /* Force PREDIV value to 2 */
 280:src/stm32f1xx_ll_utils.c ****     UTILS_PLLInitStruct->Prediv = LL_RCC_PREDIV_DIV_2;
 281:src/stm32f1xx_ll_utils.c **** #endif /*RCC_PLLSRC_PREDIV1_SUPPORT*/
 282:src/stm32f1xx_ll_utils.c ****     /* Calculate the new PLL output frequency */
 283:src/stm32f1xx_ll_utils.c ****     pllfreq = UTILS_GetPLLOutputFrequency(HSI_VALUE, UTILS_PLLInitStruct);
 284:src/stm32f1xx_ll_utils.c **** 
 285:src/stm32f1xx_ll_utils.c ****     /* Enable HSI if not enabled */
 286:src/stm32f1xx_ll_utils.c ****     if (LL_RCC_HSI_IsReady() != 1U)
 287:src/stm32f1xx_ll_utils.c ****     {
 288:src/stm32f1xx_ll_utils.c ****       LL_RCC_HSI_Enable();
 289:src/stm32f1xx_ll_utils.c ****       while (LL_RCC_HSI_IsReady() != 1U)
 290:src/stm32f1xx_ll_utils.c ****       {
 291:src/stm32f1xx_ll_utils.c ****         /* Wait for HSI ready */
 292:src/stm32f1xx_ll_utils.c ****       }
 293:src/stm32f1xx_ll_utils.c ****     }
 294:src/stm32f1xx_ll_utils.c **** 
 295:src/stm32f1xx_ll_utils.c ****     /* Configure PLL */
 296:src/stm32f1xx_ll_utils.c ****     LL_RCC_PLL_ConfigDomain_SYS(LL_RCC_PLLSOURCE_HSI_DIV_2, UTILS_PLLInitStruct->PLLMul);
 297:src/stm32f1xx_ll_utils.c **** 
 298:src/stm32f1xx_ll_utils.c ****     /* Enable PLL and switch system clock to PLL */
 299:src/stm32f1xx_ll_utils.c ****     status = UTILS_EnablePLLAndSwitchSystem(pllfreq, UTILS_ClkInitStruct);
 300:src/stm32f1xx_ll_utils.c ****   }
 301:src/stm32f1xx_ll_utils.c ****   else
 302:src/stm32f1xx_ll_utils.c ****   {
 303:src/stm32f1xx_ll_utils.c ****     /* Current PLL configuration cannot be modified */
 304:src/stm32f1xx_ll_utils.c ****     status = ERROR;
 305:src/stm32f1xx_ll_utils.c ****   }
 306:src/stm32f1xx_ll_utils.c **** 
 307:src/stm32f1xx_ll_utils.c ****   return status;
 308:src/stm32f1xx_ll_utils.c **** }
 309:src/stm32f1xx_ll_utils.c **** 
 310:src/stm32f1xx_ll_utils.c **** /**
 311:src/stm32f1xx_ll_utils.c ****   * @brief  This function configures system clock with HSE as clock source of the PLL
 312:src/stm32f1xx_ll_utils.c ****   * @note   The application need to ensure that PLL is disabled.
 313:src/stm32f1xx_ll_utils.c ****   * @note   Function is based on the following formula:
 314:src/stm32f1xx_ll_utils.c ****   *         - PLL output frequency = ((HSI frequency / PREDIV) * PLLMUL)
 315:src/stm32f1xx_ll_utils.c ****   *         - PREDIV: Set to 2 for few devices
 316:src/stm32f1xx_ll_utils.c ****   *         - PLLMUL: The application software must set correctly the PLL multiplication factor to
 317:src/stm32f1xx_ll_utils.c ****   *                   not exceed @ref UTILS_PLL_OUTPUT_MAX
 318:src/stm32f1xx_ll_utils.c ****   * @note   FLASH latency can be modified through this function.
 319:src/stm32f1xx_ll_utils.c ****   * @param  HSEFrequency Value between Min_Data = RCC_HSE_MIN and Max_Data = RCC_HSE_MAX
 320:src/stm32f1xx_ll_utils.c ****   * @param  HSEBypass This parameter can be one of the following values:
 321:src/stm32f1xx_ll_utils.c ****   *         @arg @ref LL_UTILS_HSEBYPASS_ON
 322:src/stm32f1xx_ll_utils.c ****   *         @arg @ref LL_UTILS_HSEBYPASS_OFF
ARM GAS  /tmp/ccgFoonV.s 			page 8


 323:src/stm32f1xx_ll_utils.c ****   * @param  UTILS_PLLInitStruct pointer to a @ref LL_UTILS_PLLInitTypeDef structure that contains
 324:src/stm32f1xx_ll_utils.c ****   *                             the configuration information for the PLL.
 325:src/stm32f1xx_ll_utils.c ****   * @param  UTILS_ClkInitStruct pointer to a @ref LL_UTILS_ClkInitTypeDef structure that contains
 326:src/stm32f1xx_ll_utils.c ****   *                             the configuration information for the BUS prescalers.
 327:src/stm32f1xx_ll_utils.c ****   * @retval An ErrorStatus enumeration value:
 328:src/stm32f1xx_ll_utils.c ****   *          - SUCCESS: Max frequency configuration done
 329:src/stm32f1xx_ll_utils.c ****   *          - ERROR: Max frequency configuration not done
 330:src/stm32f1xx_ll_utils.c ****   */
 331:src/stm32f1xx_ll_utils.c **** ErrorStatus LL_PLL_ConfigSystemClock_HSE(uint32_t HSEFrequency, uint32_t HSEBypass,
 332:src/stm32f1xx_ll_utils.c ****                                          LL_UTILS_PLLInitTypeDef *UTILS_PLLInitStruct, LL_UTILS_Clk
 333:src/stm32f1xx_ll_utils.c **** {
 334:src/stm32f1xx_ll_utils.c ****   ErrorStatus status = SUCCESS;
 335:src/stm32f1xx_ll_utils.c ****   uint32_t pllfreq = 0U;
 336:src/stm32f1xx_ll_utils.c **** 
 337:src/stm32f1xx_ll_utils.c ****   /* Check the parameters */
 338:src/stm32f1xx_ll_utils.c ****   assert_param(IS_LL_UTILS_HSE_FREQUENCY(HSEFrequency));
 339:src/stm32f1xx_ll_utils.c ****   assert_param(IS_LL_UTILS_HSE_BYPASS(HSEBypass));
 340:src/stm32f1xx_ll_utils.c **** 
 341:src/stm32f1xx_ll_utils.c ****   /* Check if one of the PLL is enabled */
 342:src/stm32f1xx_ll_utils.c ****   if (UTILS_PLL_IsBusy() == SUCCESS)
 343:src/stm32f1xx_ll_utils.c ****   {
 344:src/stm32f1xx_ll_utils.c ****     assert_param(IS_LL_UTILS_PREDIV_VALUE(UTILS_PLLInitStruct->Prediv));
 345:src/stm32f1xx_ll_utils.c **** 
 346:src/stm32f1xx_ll_utils.c ****     /* Calculate the new PLL output frequency */
 347:src/stm32f1xx_ll_utils.c ****     pllfreq = UTILS_GetPLLOutputFrequency(HSEFrequency, UTILS_PLLInitStruct);
 348:src/stm32f1xx_ll_utils.c **** 
 349:src/stm32f1xx_ll_utils.c ****     /* Enable HSE if not enabled */
 350:src/stm32f1xx_ll_utils.c ****     if (LL_RCC_HSE_IsReady() != 1U)
 351:src/stm32f1xx_ll_utils.c ****     {
 352:src/stm32f1xx_ll_utils.c ****       /* Check if need to enable HSE bypass feature or not */
 353:src/stm32f1xx_ll_utils.c ****       if (HSEBypass == LL_UTILS_HSEBYPASS_ON)
 354:src/stm32f1xx_ll_utils.c ****       {
 355:src/stm32f1xx_ll_utils.c ****         LL_RCC_HSE_EnableBypass();
 356:src/stm32f1xx_ll_utils.c ****       }
 357:src/stm32f1xx_ll_utils.c ****       else
 358:src/stm32f1xx_ll_utils.c ****       {
 359:src/stm32f1xx_ll_utils.c ****         LL_RCC_HSE_DisableBypass();
 360:src/stm32f1xx_ll_utils.c ****       }
 361:src/stm32f1xx_ll_utils.c **** 
 362:src/stm32f1xx_ll_utils.c ****       /* Enable HSE */
 363:src/stm32f1xx_ll_utils.c ****       LL_RCC_HSE_Enable();
 364:src/stm32f1xx_ll_utils.c ****       while (LL_RCC_HSE_IsReady() != 1U)
 365:src/stm32f1xx_ll_utils.c ****       {
 366:src/stm32f1xx_ll_utils.c ****         /* Wait for HSE ready */
 367:src/stm32f1xx_ll_utils.c ****       }
 368:src/stm32f1xx_ll_utils.c ****     }
 369:src/stm32f1xx_ll_utils.c **** 
 370:src/stm32f1xx_ll_utils.c ****     /* Configure PLL */
 371:src/stm32f1xx_ll_utils.c ****     LL_RCC_PLL_ConfigDomain_SYS((RCC_CFGR_PLLSRC | UTILS_PLLInitStruct->Prediv), UTILS_PLLInitStruc
 372:src/stm32f1xx_ll_utils.c **** 
 373:src/stm32f1xx_ll_utils.c ****     /* Enable PLL and switch system clock to PLL */
 374:src/stm32f1xx_ll_utils.c ****     status = UTILS_EnablePLLAndSwitchSystem(pllfreq, UTILS_ClkInitStruct);
 375:src/stm32f1xx_ll_utils.c ****   }
 376:src/stm32f1xx_ll_utils.c ****   else
 377:src/stm32f1xx_ll_utils.c ****   {
 378:src/stm32f1xx_ll_utils.c ****     /* Current PLL configuration cannot be modified */
 379:src/stm32f1xx_ll_utils.c ****     status = ERROR;
ARM GAS  /tmp/ccgFoonV.s 			page 9


 380:src/stm32f1xx_ll_utils.c ****   }
 381:src/stm32f1xx_ll_utils.c **** 
 382:src/stm32f1xx_ll_utils.c ****   return status;
 383:src/stm32f1xx_ll_utils.c **** }
 384:src/stm32f1xx_ll_utils.c **** 
 385:src/stm32f1xx_ll_utils.c **** /**
 386:src/stm32f1xx_ll_utils.c ****   * @}
 387:src/stm32f1xx_ll_utils.c ****   */
 388:src/stm32f1xx_ll_utils.c **** 
 389:src/stm32f1xx_ll_utils.c **** /**
 390:src/stm32f1xx_ll_utils.c ****   * @}
 391:src/stm32f1xx_ll_utils.c ****   */
 392:src/stm32f1xx_ll_utils.c **** 
 393:src/stm32f1xx_ll_utils.c **** /** @addtogroup UTILS_LL_Private_Functions
 394:src/stm32f1xx_ll_utils.c ****   * @{
 395:src/stm32f1xx_ll_utils.c ****   */
 396:src/stm32f1xx_ll_utils.c **** /**
 397:src/stm32f1xx_ll_utils.c ****   * @brief  Update number of Flash wait states in line with new frequency and current
 398:src/stm32f1xx_ll_utils.c ****             voltage range.
 399:src/stm32f1xx_ll_utils.c ****   * @param  Frequency  SYSCLK frequency
 400:src/stm32f1xx_ll_utils.c ****   * @retval An ErrorStatus enumeration value:
 401:src/stm32f1xx_ll_utils.c ****   *          - SUCCESS: Latency has been modified
 402:src/stm32f1xx_ll_utils.c ****   *          - ERROR: Latency cannot be modified
 403:src/stm32f1xx_ll_utils.c ****   */
 404:src/stm32f1xx_ll_utils.c **** #if defined(FLASH_ACR_LATENCY)
 405:src/stm32f1xx_ll_utils.c **** static ErrorStatus UTILS_SetFlashLatency(uint32_t Frequency)
 406:src/stm32f1xx_ll_utils.c **** {
  78              		.loc 1 406 0
  79              		.cfi_startproc
  80              		@ args = 0, pretend = 0, frame = 0
  81              		@ frame_needed = 0, uses_anonymous_args = 0
  82              		@ link register save eliminated.
  83              	.LVL0:
 407:src/stm32f1xx_ll_utils.c ****   ErrorStatus status = SUCCESS;
 408:src/stm32f1xx_ll_utils.c **** 
 409:src/stm32f1xx_ll_utils.c ****   uint32_t latency = LL_FLASH_LATENCY_0;  /* default value 0WS */
 410:src/stm32f1xx_ll_utils.c **** 
 411:src/stm32f1xx_ll_utils.c ****   /* Frequency cannot be equal to 0 */
 412:src/stm32f1xx_ll_utils.c ****   if (Frequency == 0U)
  84              		.loc 1 412 0
  85 0000 B0B1     		cbz	r0, .L4	@ Frequency,
  86              	.LVL1:
  87              	.LBB18:
  88              	.LBB19:
 413:src/stm32f1xx_ll_utils.c ****   {
 414:src/stm32f1xx_ll_utils.c ****     status = ERROR;
 415:src/stm32f1xx_ll_utils.c ****   }
 416:src/stm32f1xx_ll_utils.c ****   else
 417:src/stm32f1xx_ll_utils.c ****   {
 418:src/stm32f1xx_ll_utils.c ****     if (Frequency > UTILS_LATENCY2_FREQ)
  89              		.loc 1 418 0
  90 0002 0C4B     		ldr	r3, .L6	@ tmp120,
  91 0004 9842     		cmp	r0, r3	@ Frequency, tmp120
  92 0006 11D8     		bhi	.L5	@,
 419:src/stm32f1xx_ll_utils.c ****     {
 420:src/stm32f1xx_ll_utils.c ****       /* 48 < SYSCLK <= 72 => 2WS (3 CPU cycles) */
 421:src/stm32f1xx_ll_utils.c ****       latency = LL_FLASH_LATENCY_2;
ARM GAS  /tmp/ccgFoonV.s 			page 10


 422:src/stm32f1xx_ll_utils.c ****     }
 423:src/stm32f1xx_ll_utils.c ****     else
 424:src/stm32f1xx_ll_utils.c ****     {
 425:src/stm32f1xx_ll_utils.c ****       if (Frequency > UTILS_LATENCY1_FREQ)
  93              		.loc 1 425 0
  94 0008 0B4B     		ldr	r3, .L6+4	@ tmp123,
  95 000a 9842     		cmp	r0, r3	@ Frequency, tmp123
  96 000c 94BF     		ite	ls
  97 000e 0020     		movls	r0, #0	@ latency,
  98              	.LVL2:
  99 0010 0120     		movhi	r0, #1	@ latency,
 100              	.L3:
 101              	.LVL3:
 102              	.LBB20:
 103              	.LBB21:
 104              		.file 2 "./inc/stm32f1xx_ll_system.h"
   1:./inc/stm32f1xx_ll_system.h **** /**
   2:./inc/stm32f1xx_ll_system.h ****   ******************************************************************************
   3:./inc/stm32f1xx_ll_system.h ****   * @file    stm32f1xx_ll_system.h
   4:./inc/stm32f1xx_ll_system.h ****   * @author  MCD Application Team
   5:./inc/stm32f1xx_ll_system.h ****   * @brief   Header file of SYSTEM LL module.
   6:./inc/stm32f1xx_ll_system.h ****   @verbatim
   7:./inc/stm32f1xx_ll_system.h ****   ==============================================================================
   8:./inc/stm32f1xx_ll_system.h ****                      ##### How to use this driver #####
   9:./inc/stm32f1xx_ll_system.h ****   ==============================================================================
  10:./inc/stm32f1xx_ll_system.h ****     [..]
  11:./inc/stm32f1xx_ll_system.h ****     The LL SYSTEM driver contains a set of generic APIs that can be
  12:./inc/stm32f1xx_ll_system.h ****     used by user:
  13:./inc/stm32f1xx_ll_system.h ****       (+) Some of the FLASH features need to be handled in the SYSTEM file.
  14:./inc/stm32f1xx_ll_system.h ****       (+) Access to DBGCMU registers
  15:./inc/stm32f1xx_ll_system.h ****       (+) Access to SYSCFG registers
  16:./inc/stm32f1xx_ll_system.h **** 
  17:./inc/stm32f1xx_ll_system.h ****   @endverbatim
  18:./inc/stm32f1xx_ll_system.h ****   ******************************************************************************
  19:./inc/stm32f1xx_ll_system.h ****   * @attention
  20:./inc/stm32f1xx_ll_system.h ****   *
  21:./inc/stm32f1xx_ll_system.h ****   * <h2><center>&copy; Copyright (c) 2016 STMicroelectronics.
  22:./inc/stm32f1xx_ll_system.h ****   * All rights reserved.</center></h2>
  23:./inc/stm32f1xx_ll_system.h ****   *
  24:./inc/stm32f1xx_ll_system.h ****   * This software component is licensed by ST under BSD 3-Clause license,
  25:./inc/stm32f1xx_ll_system.h ****   * the "License"; You may not use this file except in compliance with the
  26:./inc/stm32f1xx_ll_system.h ****   * License. You may obtain a copy of the License at:
  27:./inc/stm32f1xx_ll_system.h ****   *                        opensource.org/licenses/BSD-3-Clause
  28:./inc/stm32f1xx_ll_system.h ****   *
  29:./inc/stm32f1xx_ll_system.h ****   ******************************************************************************
  30:./inc/stm32f1xx_ll_system.h ****   */
  31:./inc/stm32f1xx_ll_system.h **** 
  32:./inc/stm32f1xx_ll_system.h **** /* Define to prevent recursive inclusion -------------------------------------*/
  33:./inc/stm32f1xx_ll_system.h **** #ifndef __STM32F1xx_LL_SYSTEM_H
  34:./inc/stm32f1xx_ll_system.h **** #define __STM32F1xx_LL_SYSTEM_H
  35:./inc/stm32f1xx_ll_system.h **** 
  36:./inc/stm32f1xx_ll_system.h **** #ifdef __cplusplus
  37:./inc/stm32f1xx_ll_system.h **** extern "C" {
  38:./inc/stm32f1xx_ll_system.h **** #endif
  39:./inc/stm32f1xx_ll_system.h **** 
  40:./inc/stm32f1xx_ll_system.h **** /* Includes ------------------------------------------------------------------*/
  41:./inc/stm32f1xx_ll_system.h **** #include "stm32f1xx.h"
ARM GAS  /tmp/ccgFoonV.s 			page 11


  42:./inc/stm32f1xx_ll_system.h **** 
  43:./inc/stm32f1xx_ll_system.h **** /** @addtogroup STM32F1xx_LL_Driver
  44:./inc/stm32f1xx_ll_system.h ****   * @{
  45:./inc/stm32f1xx_ll_system.h ****   */
  46:./inc/stm32f1xx_ll_system.h **** 
  47:./inc/stm32f1xx_ll_system.h **** #if defined (FLASH) || defined (DBGMCU)
  48:./inc/stm32f1xx_ll_system.h **** 
  49:./inc/stm32f1xx_ll_system.h **** /** @defgroup SYSTEM_LL SYSTEM
  50:./inc/stm32f1xx_ll_system.h ****   * @{
  51:./inc/stm32f1xx_ll_system.h ****   */
  52:./inc/stm32f1xx_ll_system.h **** 
  53:./inc/stm32f1xx_ll_system.h **** /* Private types -------------------------------------------------------------*/
  54:./inc/stm32f1xx_ll_system.h **** /* Private variables ---------------------------------------------------------*/
  55:./inc/stm32f1xx_ll_system.h **** 
  56:./inc/stm32f1xx_ll_system.h **** /* Private constants ---------------------------------------------------------*/
  57:./inc/stm32f1xx_ll_system.h **** /** @defgroup SYSTEM_LL_Private_Constants SYSTEM Private Constants
  58:./inc/stm32f1xx_ll_system.h ****   * @{
  59:./inc/stm32f1xx_ll_system.h ****   */
  60:./inc/stm32f1xx_ll_system.h **** 
  61:./inc/stm32f1xx_ll_system.h **** /**
  62:./inc/stm32f1xx_ll_system.h ****   * @}
  63:./inc/stm32f1xx_ll_system.h ****   */
  64:./inc/stm32f1xx_ll_system.h **** 
  65:./inc/stm32f1xx_ll_system.h **** /* Private macros ------------------------------------------------------------*/
  66:./inc/stm32f1xx_ll_system.h **** 
  67:./inc/stm32f1xx_ll_system.h **** /* Exported types ------------------------------------------------------------*/
  68:./inc/stm32f1xx_ll_system.h **** /* Exported constants --------------------------------------------------------*/
  69:./inc/stm32f1xx_ll_system.h **** /** @defgroup SYSTEM_LL_Exported_Constants SYSTEM Exported Constants
  70:./inc/stm32f1xx_ll_system.h ****   * @{
  71:./inc/stm32f1xx_ll_system.h ****   */
  72:./inc/stm32f1xx_ll_system.h **** 
  73:./inc/stm32f1xx_ll_system.h **** 
  74:./inc/stm32f1xx_ll_system.h **** 
  75:./inc/stm32f1xx_ll_system.h **** /** @defgroup SYSTEM_LL_EC_TRACE DBGMCU TRACE Pin Assignment
  76:./inc/stm32f1xx_ll_system.h ****   * @{
  77:./inc/stm32f1xx_ll_system.h ****   */
  78:./inc/stm32f1xx_ll_system.h **** #define LL_DBGMCU_TRACE_NONE               0x00000000U                                     /*!< TRA
  79:./inc/stm32f1xx_ll_system.h **** #define LL_DBGMCU_TRACE_ASYNCH             DBGMCU_CR_TRACE_IOEN                            /*!< TRA
  80:./inc/stm32f1xx_ll_system.h **** #define LL_DBGMCU_TRACE_SYNCH_SIZE1        (DBGMCU_CR_TRACE_IOEN | DBGMCU_CR_TRACE_MODE_0) /*!< TRA
  81:./inc/stm32f1xx_ll_system.h **** #define LL_DBGMCU_TRACE_SYNCH_SIZE2        (DBGMCU_CR_TRACE_IOEN | DBGMCU_CR_TRACE_MODE_1) /*!< TRA
  82:./inc/stm32f1xx_ll_system.h **** #define LL_DBGMCU_TRACE_SYNCH_SIZE4        (DBGMCU_CR_TRACE_IOEN | DBGMCU_CR_TRACE_MODE)   /*!< TRA
  83:./inc/stm32f1xx_ll_system.h **** /**
  84:./inc/stm32f1xx_ll_system.h ****   * @}
  85:./inc/stm32f1xx_ll_system.h ****   */
  86:./inc/stm32f1xx_ll_system.h **** 
  87:./inc/stm32f1xx_ll_system.h **** /** @defgroup SYSTEM_LL_EC_APB1_GRP1_STOP_IP DBGMCU APB1 GRP1 STOP IP
  88:./inc/stm32f1xx_ll_system.h ****   * @{
  89:./inc/stm32f1xx_ll_system.h ****   */
  90:./inc/stm32f1xx_ll_system.h **** #define LL_DBGMCU_APB1_GRP1_TIM2_STOP      DBGMCU_CR_DBG_TIM2_STOP          /*!< TIM2 counter stopp
  91:./inc/stm32f1xx_ll_system.h **** #define LL_DBGMCU_APB1_GRP1_TIM3_STOP      DBGMCU_CR_DBG_TIM3_STOP          /*!< TIM3 counter stopp
  92:./inc/stm32f1xx_ll_system.h **** #define LL_DBGMCU_APB1_GRP1_TIM4_STOP      DBGMCU_CR_DBG_TIM4_STOP          /*!< TIM4 counter stopp
  93:./inc/stm32f1xx_ll_system.h **** #if defined(DBGMCU_CR_DBG_TIM5_STOP)
  94:./inc/stm32f1xx_ll_system.h **** #define LL_DBGMCU_APB1_GRP1_TIM5_STOP      DBGMCU_CR_DBG_TIM5_STOP          /*!< TIM5 counter stopp
  95:./inc/stm32f1xx_ll_system.h **** #endif /* DBGMCU_CR_DBG_TIM5_STOP */
  96:./inc/stm32f1xx_ll_system.h **** #if defined(DBGMCU_CR_DBG_TIM6_STOP)
  97:./inc/stm32f1xx_ll_system.h **** #define LL_DBGMCU_APB1_GRP1_TIM6_STOP      DBGMCU_CR_DBG_TIM6_STOP          /*!< TIM6 counter stopp
  98:./inc/stm32f1xx_ll_system.h **** #endif /* DBGMCU_CR_DBG_TIM6_STOP */
ARM GAS  /tmp/ccgFoonV.s 			page 12


  99:./inc/stm32f1xx_ll_system.h **** #if defined(DBGMCU_CR_DBG_TIM7_STOP)
 100:./inc/stm32f1xx_ll_system.h **** #define LL_DBGMCU_APB1_GRP1_TIM7_STOP      DBGMCU_CR_DBG_TIM7_STOP          /*!< TIM7 counter stopp
 101:./inc/stm32f1xx_ll_system.h **** #endif /* DBGMCU_CR_DBG_TIM7_STOP */
 102:./inc/stm32f1xx_ll_system.h **** #if defined(DBGMCU_CR_DBG_TIM12_STOP)
 103:./inc/stm32f1xx_ll_system.h **** #define LL_DBGMCU_APB1_GRP1_TIM12_STOP     DBGMCU_CR_DBG_TIM12_STOP         /*!< TIM12 counter stop
 104:./inc/stm32f1xx_ll_system.h **** #endif /* DBGMCU_CR_DBG_TIM12_STOP */
 105:./inc/stm32f1xx_ll_system.h **** #if defined(DBGMCU_CR_DBG_TIM13_STOP)
 106:./inc/stm32f1xx_ll_system.h **** #define LL_DBGMCU_APB1_GRP1_TIM13_STOP     DBGMCU_CR_DBG_TIM13_STOP         /*!< TIM13 counter stop
 107:./inc/stm32f1xx_ll_system.h **** #endif /* DBGMCU_CR_DBG_TIM13_STOP */
 108:./inc/stm32f1xx_ll_system.h **** #if defined(DBGMCU_CR_DBG_TIM14_STOP)
 109:./inc/stm32f1xx_ll_system.h **** #define LL_DBGMCU_APB1_GRP1_TIM14_STOP     DBGMCU_CR_DBG_TIM14_STOP         /*!< TIM14 counter stop
 110:./inc/stm32f1xx_ll_system.h **** #endif /* DBGMCU_CR_DBG_TIM14_STOP */
 111:./inc/stm32f1xx_ll_system.h **** #define LL_DBGMCU_APB1_GRP1_WWDG_STOP      DBGMCU_CR_DBG_WWDG_STOP          /*!< Debug Window Watch
 112:./inc/stm32f1xx_ll_system.h **** #define LL_DBGMCU_APB1_GRP1_IWDG_STOP      DBGMCU_CR_DBG_IWDG_STOP          /*!< Debug Independent 
 113:./inc/stm32f1xx_ll_system.h **** #define LL_DBGMCU_APB1_GRP1_I2C1_STOP      DBGMCU_CR_DBG_I2C1_SMBUS_TIMEOUT /*!< I2C1 SMBUS timeout
 114:./inc/stm32f1xx_ll_system.h **** #if defined(DBGMCU_CR_DBG_I2C2_SMBUS_TIMEOUT)
 115:./inc/stm32f1xx_ll_system.h **** #define LL_DBGMCU_APB1_GRP1_I2C2_STOP      DBGMCU_CR_DBG_I2C2_SMBUS_TIMEOUT /*!< I2C2 SMBUS timeout
 116:./inc/stm32f1xx_ll_system.h **** #endif /* DBGMCU_CR_DBG_I2C2_SMBUS_TIMEOUT */
 117:./inc/stm32f1xx_ll_system.h **** #if defined(DBGMCU_CR_DBG_CAN1_STOP)
 118:./inc/stm32f1xx_ll_system.h **** #define LL_DBGMCU_APB1_GRP1_CAN1_STOP      DBGMCU_CR_DBG_CAN1_STOP          /*!< CAN1 debug stopped
 119:./inc/stm32f1xx_ll_system.h **** #endif /* DBGMCU_CR_DBG_CAN1_STOP */
 120:./inc/stm32f1xx_ll_system.h **** #if defined(DBGMCU_CR_DBG_CAN2_STOP)
 121:./inc/stm32f1xx_ll_system.h **** #define LL_DBGMCU_APB1_GRP1_CAN2_STOP      DBGMCU_CR_DBG_CAN2_STOP          /*!< CAN2 debug stopped
 122:./inc/stm32f1xx_ll_system.h **** #endif /* DBGMCU_CR_DBG_CAN2_STOP */
 123:./inc/stm32f1xx_ll_system.h **** /**
 124:./inc/stm32f1xx_ll_system.h ****   * @}
 125:./inc/stm32f1xx_ll_system.h ****   */
 126:./inc/stm32f1xx_ll_system.h **** 
 127:./inc/stm32f1xx_ll_system.h **** /** @defgroup SYSTEM_LL_EC_APB2_GRP1_STOP_IP DBGMCU APB2 GRP1 STOP IP
 128:./inc/stm32f1xx_ll_system.h ****   * @{
 129:./inc/stm32f1xx_ll_system.h ****   */
 130:./inc/stm32f1xx_ll_system.h **** #define LL_DBGMCU_APB2_GRP1_TIM1_STOP      DBGMCU_CR_DBG_TIM1_STOP   /*!< TIM1 counter stopped when
 131:./inc/stm32f1xx_ll_system.h **** #if defined(DBGMCU_CR_DBG_TIM8_STOP)
 132:./inc/stm32f1xx_ll_system.h **** #define LL_DBGMCU_APB2_GRP1_TIM8_STOP      DBGMCU_CR_DBG_TIM8_STOP   /*!< TIM8 counter stopped when
 133:./inc/stm32f1xx_ll_system.h **** #endif /* DBGMCU_CR_DBG_CAN1_STOP */
 134:./inc/stm32f1xx_ll_system.h **** #if defined(DBGMCU_CR_DBG_TIM9_STOP)
 135:./inc/stm32f1xx_ll_system.h **** #define LL_DBGMCU_APB2_GRP1_TIM9_STOP      DBGMCU_CR_DBG_TIM9_STOP   /*!< TIM9 counter stopped when
 136:./inc/stm32f1xx_ll_system.h **** #endif /* DBGMCU_CR_DBG_TIM9_STOP */
 137:./inc/stm32f1xx_ll_system.h **** #if defined(DBGMCU_CR_DBG_TIM10_STOP)
 138:./inc/stm32f1xx_ll_system.h **** #define LL_DBGMCU_APB2_GRP1_TIM10_STOP     DBGMCU_CR_DBG_TIM10_STOP   /*!< TIM10 counter stopped wh
 139:./inc/stm32f1xx_ll_system.h **** #endif /* DBGMCU_CR_DBG_TIM10_STOP */
 140:./inc/stm32f1xx_ll_system.h **** #if defined(DBGMCU_CR_DBG_TIM11_STOP)
 141:./inc/stm32f1xx_ll_system.h **** #define LL_DBGMCU_APB2_GRP1_TIM11_STOP     DBGMCU_CR_DBG_TIM11_STOP   /*!< TIM11 counter stopped wh
 142:./inc/stm32f1xx_ll_system.h **** #endif /* DBGMCU_CR_DBG_TIM11_STOP */
 143:./inc/stm32f1xx_ll_system.h **** #if defined(DBGMCU_CR_DBG_TIM15_STOP)
 144:./inc/stm32f1xx_ll_system.h **** #define LL_DBGMCU_APB2_GRP1_TIM15_STOP     DBGMCU_CR_DBG_TIM15_STOP   /*!< TIM15 counter stopped wh
 145:./inc/stm32f1xx_ll_system.h **** #endif /* DBGMCU_CR_DBG_TIM15_STOP */
 146:./inc/stm32f1xx_ll_system.h **** #if defined(DBGMCU_CR_DBG_TIM16_STOP)
 147:./inc/stm32f1xx_ll_system.h **** #define LL_DBGMCU_APB2_GRP1_TIM16_STOP     DBGMCU_CR_DBG_TIM16_STOP   /*!< TIM16 counter stopped wh
 148:./inc/stm32f1xx_ll_system.h **** #endif /* DBGMCU_CR_DBG_TIM16_STOP */
 149:./inc/stm32f1xx_ll_system.h **** #if defined(DBGMCU_CR_DBG_TIM17_STOP)
 150:./inc/stm32f1xx_ll_system.h **** #define LL_DBGMCU_APB2_GRP1_TIM17_STOP     DBGMCU_CR_DBG_TIM17_STOP   /*!< TIM17 counter stopped wh
 151:./inc/stm32f1xx_ll_system.h **** #endif /* DBGMCU_CR_DBG_TIM17_STOP */
 152:./inc/stm32f1xx_ll_system.h **** /**
 153:./inc/stm32f1xx_ll_system.h ****   * @}
 154:./inc/stm32f1xx_ll_system.h ****   */
 155:./inc/stm32f1xx_ll_system.h **** 
ARM GAS  /tmp/ccgFoonV.s 			page 13


 156:./inc/stm32f1xx_ll_system.h **** /** @defgroup SYSTEM_LL_EC_LATENCY FLASH LATENCY
 157:./inc/stm32f1xx_ll_system.h ****   * @{
 158:./inc/stm32f1xx_ll_system.h ****   */
 159:./inc/stm32f1xx_ll_system.h **** #if defined(FLASH_ACR_LATENCY)
 160:./inc/stm32f1xx_ll_system.h **** #define LL_FLASH_LATENCY_0                 0x00000000U             /*!< FLASH Zero Latency cycle */
 161:./inc/stm32f1xx_ll_system.h **** #define LL_FLASH_LATENCY_1                 FLASH_ACR_LATENCY_0     /*!< FLASH One Latency cycle */
 162:./inc/stm32f1xx_ll_system.h **** #define LL_FLASH_LATENCY_2                 FLASH_ACR_LATENCY_1     /*!< FLASH Two wait states */
 163:./inc/stm32f1xx_ll_system.h **** #else
 164:./inc/stm32f1xx_ll_system.h **** #endif /* FLASH_ACR_LATENCY */
 165:./inc/stm32f1xx_ll_system.h **** /**
 166:./inc/stm32f1xx_ll_system.h ****   * @}
 167:./inc/stm32f1xx_ll_system.h ****   */
 168:./inc/stm32f1xx_ll_system.h **** 
 169:./inc/stm32f1xx_ll_system.h **** /**
 170:./inc/stm32f1xx_ll_system.h ****   * @}
 171:./inc/stm32f1xx_ll_system.h ****   */
 172:./inc/stm32f1xx_ll_system.h **** 
 173:./inc/stm32f1xx_ll_system.h **** /* Exported macro ------------------------------------------------------------*/
 174:./inc/stm32f1xx_ll_system.h **** 
 175:./inc/stm32f1xx_ll_system.h **** /* Exported functions --------------------------------------------------------*/
 176:./inc/stm32f1xx_ll_system.h **** /** @defgroup SYSTEM_LL_Exported_Functions SYSTEM Exported Functions
 177:./inc/stm32f1xx_ll_system.h ****   * @{
 178:./inc/stm32f1xx_ll_system.h ****   */
 179:./inc/stm32f1xx_ll_system.h **** 
 180:./inc/stm32f1xx_ll_system.h **** 
 181:./inc/stm32f1xx_ll_system.h **** 
 182:./inc/stm32f1xx_ll_system.h **** /** @defgroup SYSTEM_LL_EF_DBGMCU DBGMCU
 183:./inc/stm32f1xx_ll_system.h ****   * @{
 184:./inc/stm32f1xx_ll_system.h ****   */
 185:./inc/stm32f1xx_ll_system.h **** 
 186:./inc/stm32f1xx_ll_system.h **** /**
 187:./inc/stm32f1xx_ll_system.h ****   * @brief  Return the device identifier
 188:./inc/stm32f1xx_ll_system.h ****   * @note For Low Density devices, the device ID is 0x412
 189:./inc/stm32f1xx_ll_system.h ****   * @note For Medium Density devices, the device ID is 0x410
 190:./inc/stm32f1xx_ll_system.h ****   * @note For High Density devices, the device ID is 0x414
 191:./inc/stm32f1xx_ll_system.h ****   * @note For XL Density devices, the device ID is 0x430
 192:./inc/stm32f1xx_ll_system.h ****   * @note For Connectivity Line devices, the device ID is 0x418
 193:./inc/stm32f1xx_ll_system.h ****   * @rmtoll DBGMCU_IDCODE DEV_ID        LL_DBGMCU_GetDeviceID
 194:./inc/stm32f1xx_ll_system.h ****   * @retval Values between Min_Data=0x00 and Max_Data=0xFFF
 195:./inc/stm32f1xx_ll_system.h ****   */
 196:./inc/stm32f1xx_ll_system.h **** __STATIC_INLINE uint32_t LL_DBGMCU_GetDeviceID(void)
 197:./inc/stm32f1xx_ll_system.h **** {
 198:./inc/stm32f1xx_ll_system.h ****   return (uint32_t)(READ_BIT(DBGMCU->IDCODE, DBGMCU_IDCODE_DEV_ID));
 199:./inc/stm32f1xx_ll_system.h **** }
 200:./inc/stm32f1xx_ll_system.h **** 
 201:./inc/stm32f1xx_ll_system.h **** /**
 202:./inc/stm32f1xx_ll_system.h ****   * @brief  Return the device revision identifier
 203:./inc/stm32f1xx_ll_system.h ****   * @note This field indicates the revision of the device.
 204:./inc/stm32f1xx_ll_system.h ****           For example, it is read as revA -> 0x1000,for Low Density devices
 205:./inc/stm32f1xx_ll_system.h ****           For example, it is read as revA -> 0x0000, revB -> 0x2000, revZ -> 0x2001, rev1,2,3,X or 
 206:./inc/stm32f1xx_ll_system.h ****           For example, it is read as revA or 1 -> 0x1000, revZ -> 0x1001,rev1,2,3,X or Y -> 0x1003,
 207:./inc/stm32f1xx_ll_system.h ****           For example, it is read as revA or 1 -> 0x1003,for XL Density devices
 208:./inc/stm32f1xx_ll_system.h ****           For example, it is read as revA -> 0x1000, revZ -> 0x1001 for  Connectivity line devices
 209:./inc/stm32f1xx_ll_system.h ****   * @rmtoll DBGMCU_IDCODE REV_ID        LL_DBGMCU_GetRevisionID
 210:./inc/stm32f1xx_ll_system.h ****   * @retval Values between Min_Data=0x00 and Max_Data=0xFFFF
 211:./inc/stm32f1xx_ll_system.h ****   */
 212:./inc/stm32f1xx_ll_system.h **** __STATIC_INLINE uint32_t LL_DBGMCU_GetRevisionID(void)
ARM GAS  /tmp/ccgFoonV.s 			page 14


 213:./inc/stm32f1xx_ll_system.h **** {
 214:./inc/stm32f1xx_ll_system.h ****   return (uint32_t)(READ_BIT(DBGMCU->IDCODE, DBGMCU_IDCODE_REV_ID) >> DBGMCU_IDCODE_REV_ID_Pos);
 215:./inc/stm32f1xx_ll_system.h **** }
 216:./inc/stm32f1xx_ll_system.h **** 
 217:./inc/stm32f1xx_ll_system.h **** /**
 218:./inc/stm32f1xx_ll_system.h ****   * @brief  Enable the Debug Module during SLEEP mode
 219:./inc/stm32f1xx_ll_system.h ****   * @rmtoll DBGMCU_CR    DBG_SLEEP     LL_DBGMCU_EnableDBGSleepMode
 220:./inc/stm32f1xx_ll_system.h ****   * @retval None
 221:./inc/stm32f1xx_ll_system.h ****   */
 222:./inc/stm32f1xx_ll_system.h **** __STATIC_INLINE void LL_DBGMCU_EnableDBGSleepMode(void)
 223:./inc/stm32f1xx_ll_system.h **** {
 224:./inc/stm32f1xx_ll_system.h ****   SET_BIT(DBGMCU->CR, DBGMCU_CR_DBG_SLEEP);
 225:./inc/stm32f1xx_ll_system.h **** }
 226:./inc/stm32f1xx_ll_system.h **** 
 227:./inc/stm32f1xx_ll_system.h **** /**
 228:./inc/stm32f1xx_ll_system.h ****   * @brief  Disable the Debug Module during SLEEP mode
 229:./inc/stm32f1xx_ll_system.h ****   * @rmtoll DBGMCU_CR    DBG_SLEEP     LL_DBGMCU_DisableDBGSleepMode
 230:./inc/stm32f1xx_ll_system.h ****   * @retval None
 231:./inc/stm32f1xx_ll_system.h ****   */
 232:./inc/stm32f1xx_ll_system.h **** __STATIC_INLINE void LL_DBGMCU_DisableDBGSleepMode(void)
 233:./inc/stm32f1xx_ll_system.h **** {
 234:./inc/stm32f1xx_ll_system.h ****   CLEAR_BIT(DBGMCU->CR, DBGMCU_CR_DBG_SLEEP);
 235:./inc/stm32f1xx_ll_system.h **** }
 236:./inc/stm32f1xx_ll_system.h **** 
 237:./inc/stm32f1xx_ll_system.h **** /**
 238:./inc/stm32f1xx_ll_system.h ****   * @brief  Enable the Debug Module during STOP mode
 239:./inc/stm32f1xx_ll_system.h ****   * @rmtoll DBGMCU_CR    DBG_STOP      LL_DBGMCU_EnableDBGStopMode
 240:./inc/stm32f1xx_ll_system.h ****   * @retval None
 241:./inc/stm32f1xx_ll_system.h ****   */
 242:./inc/stm32f1xx_ll_system.h **** __STATIC_INLINE void LL_DBGMCU_EnableDBGStopMode(void)
 243:./inc/stm32f1xx_ll_system.h **** {
 244:./inc/stm32f1xx_ll_system.h ****   SET_BIT(DBGMCU->CR, DBGMCU_CR_DBG_STOP);
 245:./inc/stm32f1xx_ll_system.h **** }
 246:./inc/stm32f1xx_ll_system.h **** 
 247:./inc/stm32f1xx_ll_system.h **** /**
 248:./inc/stm32f1xx_ll_system.h ****   * @brief  Disable the Debug Module during STOP mode
 249:./inc/stm32f1xx_ll_system.h ****   * @rmtoll DBGMCU_CR    DBG_STOP      LL_DBGMCU_DisableDBGStopMode
 250:./inc/stm32f1xx_ll_system.h ****   * @retval None
 251:./inc/stm32f1xx_ll_system.h ****   */
 252:./inc/stm32f1xx_ll_system.h **** __STATIC_INLINE void LL_DBGMCU_DisableDBGStopMode(void)
 253:./inc/stm32f1xx_ll_system.h **** {
 254:./inc/stm32f1xx_ll_system.h ****   CLEAR_BIT(DBGMCU->CR, DBGMCU_CR_DBG_STOP);
 255:./inc/stm32f1xx_ll_system.h **** }
 256:./inc/stm32f1xx_ll_system.h **** 
 257:./inc/stm32f1xx_ll_system.h **** /**
 258:./inc/stm32f1xx_ll_system.h ****   * @brief  Enable the Debug Module during STANDBY mode
 259:./inc/stm32f1xx_ll_system.h ****   * @rmtoll DBGMCU_CR    DBG_STANDBY   LL_DBGMCU_EnableDBGStandbyMode
 260:./inc/stm32f1xx_ll_system.h ****   * @retval None
 261:./inc/stm32f1xx_ll_system.h ****   */
 262:./inc/stm32f1xx_ll_system.h **** __STATIC_INLINE void LL_DBGMCU_EnableDBGStandbyMode(void)
 263:./inc/stm32f1xx_ll_system.h **** {
 264:./inc/stm32f1xx_ll_system.h ****   SET_BIT(DBGMCU->CR, DBGMCU_CR_DBG_STANDBY);
 265:./inc/stm32f1xx_ll_system.h **** }
 266:./inc/stm32f1xx_ll_system.h **** 
 267:./inc/stm32f1xx_ll_system.h **** /**
 268:./inc/stm32f1xx_ll_system.h ****   * @brief  Disable the Debug Module during STANDBY mode
 269:./inc/stm32f1xx_ll_system.h ****   * @rmtoll DBGMCU_CR    DBG_STANDBY   LL_DBGMCU_DisableDBGStandbyMode
ARM GAS  /tmp/ccgFoonV.s 			page 15


 270:./inc/stm32f1xx_ll_system.h ****   * @retval None
 271:./inc/stm32f1xx_ll_system.h ****   */
 272:./inc/stm32f1xx_ll_system.h **** __STATIC_INLINE void LL_DBGMCU_DisableDBGStandbyMode(void)
 273:./inc/stm32f1xx_ll_system.h **** {
 274:./inc/stm32f1xx_ll_system.h ****   CLEAR_BIT(DBGMCU->CR, DBGMCU_CR_DBG_STANDBY);
 275:./inc/stm32f1xx_ll_system.h **** }
 276:./inc/stm32f1xx_ll_system.h **** 
 277:./inc/stm32f1xx_ll_system.h **** /**
 278:./inc/stm32f1xx_ll_system.h ****   * @brief  Set Trace pin assignment control
 279:./inc/stm32f1xx_ll_system.h ****   * @rmtoll DBGMCU_CR    TRACE_IOEN    LL_DBGMCU_SetTracePinAssignment\n
 280:./inc/stm32f1xx_ll_system.h ****   *         DBGMCU_CR    TRACE_MODE    LL_DBGMCU_SetTracePinAssignment
 281:./inc/stm32f1xx_ll_system.h ****   * @param  PinAssignment This parameter can be one of the following values:
 282:./inc/stm32f1xx_ll_system.h ****   *         @arg @ref LL_DBGMCU_TRACE_NONE
 283:./inc/stm32f1xx_ll_system.h ****   *         @arg @ref LL_DBGMCU_TRACE_ASYNCH
 284:./inc/stm32f1xx_ll_system.h ****   *         @arg @ref LL_DBGMCU_TRACE_SYNCH_SIZE1
 285:./inc/stm32f1xx_ll_system.h ****   *         @arg @ref LL_DBGMCU_TRACE_SYNCH_SIZE2
 286:./inc/stm32f1xx_ll_system.h ****   *         @arg @ref LL_DBGMCU_TRACE_SYNCH_SIZE4
 287:./inc/stm32f1xx_ll_system.h ****   * @retval None
 288:./inc/stm32f1xx_ll_system.h ****   */
 289:./inc/stm32f1xx_ll_system.h **** __STATIC_INLINE void LL_DBGMCU_SetTracePinAssignment(uint32_t PinAssignment)
 290:./inc/stm32f1xx_ll_system.h **** {
 291:./inc/stm32f1xx_ll_system.h ****   MODIFY_REG(DBGMCU->CR, DBGMCU_CR_TRACE_IOEN | DBGMCU_CR_TRACE_MODE, PinAssignment);
 292:./inc/stm32f1xx_ll_system.h **** }
 293:./inc/stm32f1xx_ll_system.h **** 
 294:./inc/stm32f1xx_ll_system.h **** /**
 295:./inc/stm32f1xx_ll_system.h ****   * @brief  Get Trace pin assignment control
 296:./inc/stm32f1xx_ll_system.h ****   * @rmtoll DBGMCU_CR    TRACE_IOEN    LL_DBGMCU_GetTracePinAssignment\n
 297:./inc/stm32f1xx_ll_system.h ****   *         DBGMCU_CR    TRACE_MODE    LL_DBGMCU_GetTracePinAssignment
 298:./inc/stm32f1xx_ll_system.h ****   * @retval Returned value can be one of the following values:
 299:./inc/stm32f1xx_ll_system.h ****   *         @arg @ref LL_DBGMCU_TRACE_NONE
 300:./inc/stm32f1xx_ll_system.h ****   *         @arg @ref LL_DBGMCU_TRACE_ASYNCH
 301:./inc/stm32f1xx_ll_system.h ****   *         @arg @ref LL_DBGMCU_TRACE_SYNCH_SIZE1
 302:./inc/stm32f1xx_ll_system.h ****   *         @arg @ref LL_DBGMCU_TRACE_SYNCH_SIZE2
 303:./inc/stm32f1xx_ll_system.h ****   *         @arg @ref LL_DBGMCU_TRACE_SYNCH_SIZE4
 304:./inc/stm32f1xx_ll_system.h ****   */
 305:./inc/stm32f1xx_ll_system.h **** __STATIC_INLINE uint32_t LL_DBGMCU_GetTracePinAssignment(void)
 306:./inc/stm32f1xx_ll_system.h **** {
 307:./inc/stm32f1xx_ll_system.h ****   return (uint32_t)(READ_BIT(DBGMCU->CR, DBGMCU_CR_TRACE_IOEN | DBGMCU_CR_TRACE_MODE));
 308:./inc/stm32f1xx_ll_system.h **** }
 309:./inc/stm32f1xx_ll_system.h **** 
 310:./inc/stm32f1xx_ll_system.h **** /**
 311:./inc/stm32f1xx_ll_system.h ****   * @brief  Freeze APB1 peripherals (group1 peripherals)
 312:./inc/stm32f1xx_ll_system.h ****   * @rmtoll DBGMCU_CR_APB1      DBG_TIM2_STOP           LL_DBGMCU_APB1_GRP1_FreezePeriph\n
 313:./inc/stm32f1xx_ll_system.h ****   *         DBGMCU_CR_APB1      DBG_TIM3_STOP           LL_DBGMCU_APB1_GRP1_FreezePeriph\n
 314:./inc/stm32f1xx_ll_system.h ****   *         DBGMCU_CR_APB1      DBG_TIM4_STOP           LL_DBGMCU_APB1_GRP1_FreezePeriph\n
 315:./inc/stm32f1xx_ll_system.h ****   *         DBGMCU_CR_APB1      DBG_TIM5_STOP           LL_DBGMCU_APB1_GRP1_FreezePeriph\n
 316:./inc/stm32f1xx_ll_system.h ****   *         DBGMCU_CR_APB1      DBG_TIM6_STOP           LL_DBGMCU_APB1_GRP1_FreezePeriph\n
 317:./inc/stm32f1xx_ll_system.h ****   *         DBGMCU_CR_APB1      DBG_TIM7_STOP           LL_DBGMCU_APB1_GRP1_FreezePeriph\n
 318:./inc/stm32f1xx_ll_system.h ****   *         DBGMCU_CR_APB1      DBG_TIM12_STOP          LL_DBGMCU_APB1_GRP1_FreezePeriph\n
 319:./inc/stm32f1xx_ll_system.h ****   *         DBGMCU_CR_APB1      DBG_TIM13_STOP          LL_DBGMCU_APB1_GRP1_FreezePeriph\n
 320:./inc/stm32f1xx_ll_system.h ****   *         DBGMCU_CR_APB1      DBG_TIM14_STOP          LL_DBGMCU_APB1_GRP1_FreezePeriph\n
 321:./inc/stm32f1xx_ll_system.h ****   *         DBGMCU_CR_APB1      DBG_RTC_STOP            LL_DBGMCU_APB1_GRP1_FreezePeriph\n
 322:./inc/stm32f1xx_ll_system.h ****   *         DBGMCU_CR_APB1      DBG_WWDG_STOP           LL_DBGMCU_APB1_GRP1_FreezePeriph\n
 323:./inc/stm32f1xx_ll_system.h ****   *         DBGMCU_CR_APB1      DBG_IWDG_STOP           LL_DBGMCU_APB1_GRP1_FreezePeriph\n
 324:./inc/stm32f1xx_ll_system.h ****   *         DBGMCU_CR_APB1      DBG_I2C1_SMBUS_TIMEOUT  LL_DBGMCU_APB1_GRP1_FreezePeriph\n
 325:./inc/stm32f1xx_ll_system.h ****   *         DBGMCU_CR_APB1      DBG_I2C2_SMBUS_TIMEOUT  LL_DBGMCU_APB1_GRP1_FreezePeriph\n
 326:./inc/stm32f1xx_ll_system.h ****   *         DBGMCU_CR_APB1      DBG_CAN1_STOP           LL_DBGMCU_APB1_GRP1_FreezePeriph\n
ARM GAS  /tmp/ccgFoonV.s 			page 16


 327:./inc/stm32f1xx_ll_system.h ****   *         DBGMCU_CR_APB1      DBG_CAN2_STOP           LL_DBGMCU_APB1_GRP1_FreezePeriph
 328:./inc/stm32f1xx_ll_system.h ****   * @param  Periphs This parameter can be a combination of the following values:
 329:./inc/stm32f1xx_ll_system.h ****   *         @arg @ref LL_DBGMCU_APB1_GRP1_TIM2_STOP
 330:./inc/stm32f1xx_ll_system.h ****   *         @arg @ref LL_DBGMCU_APB1_GRP1_TIM3_STOP
 331:./inc/stm32f1xx_ll_system.h ****   *         @arg @ref LL_DBGMCU_APB1_GRP1_TIM4_STOP
 332:./inc/stm32f1xx_ll_system.h ****   *         @arg @ref LL_DBGMCU_APB1_GRP1_TIM5_STOP
 333:./inc/stm32f1xx_ll_system.h ****   *         @arg @ref LL_DBGMCU_APB1_GRP1_TIM6_STOP
 334:./inc/stm32f1xx_ll_system.h ****   *         @arg @ref LL_DBGMCU_APB1_GRP1_TIM7_STOP
 335:./inc/stm32f1xx_ll_system.h ****   *         @arg @ref LL_DBGMCU_APB1_GRP1_TIM12_STOP
 336:./inc/stm32f1xx_ll_system.h ****   *         @arg @ref LL_DBGMCU_APB1_GRP1_TIM13_STOP
 337:./inc/stm32f1xx_ll_system.h ****   *         @arg @ref LL_DBGMCU_APB1_GRP1_TIM14_STOP
 338:./inc/stm32f1xx_ll_system.h ****   *         @arg @ref LL_DBGMCU_APB1_GRP1_WWDG_STOP
 339:./inc/stm32f1xx_ll_system.h ****   *         @arg @ref LL_DBGMCU_APB1_GRP1_IWDG_STOP
 340:./inc/stm32f1xx_ll_system.h ****   *         @arg @ref LL_DBGMCU_APB1_GRP1_I2C1_STOP
 341:./inc/stm32f1xx_ll_system.h ****   *         @arg @ref LL_DBGMCU_APB1_GRP1_I2C2_STOP (*)
 342:./inc/stm32f1xx_ll_system.h ****   *         @arg @ref LL_DBGMCU_APB1_GRP1_CAN1_STOP (*)
 343:./inc/stm32f1xx_ll_system.h ****   *         @arg @ref LL_DBGMCU_APB1_GRP1_CAN2_STOP (*)
 344:./inc/stm32f1xx_ll_system.h ****   *
 345:./inc/stm32f1xx_ll_system.h ****   *         (*) value not defined in all devices.
 346:./inc/stm32f1xx_ll_system.h ****   * @retval None
 347:./inc/stm32f1xx_ll_system.h ****   */
 348:./inc/stm32f1xx_ll_system.h **** __STATIC_INLINE void LL_DBGMCU_APB1_GRP1_FreezePeriph(uint32_t Periphs)
 349:./inc/stm32f1xx_ll_system.h **** {
 350:./inc/stm32f1xx_ll_system.h ****   SET_BIT(DBGMCU->CR, Periphs);
 351:./inc/stm32f1xx_ll_system.h **** }
 352:./inc/stm32f1xx_ll_system.h **** 
 353:./inc/stm32f1xx_ll_system.h **** /**
 354:./inc/stm32f1xx_ll_system.h ****   * @brief  Unfreeze APB1 peripherals (group1 peripherals)
 355:./inc/stm32f1xx_ll_system.h ****   * @rmtoll DBGMCU_CR_APB1      DBG_TIM2_STOP           LL_DBGMCU_APB1_GRP1_UnFreezePeriph\n
 356:./inc/stm32f1xx_ll_system.h ****   *         DBGMCU_CR_APB1      DBG_TIM3_STOP           LL_DBGMCU_APB1_GRP1_UnFreezePeriph\n
 357:./inc/stm32f1xx_ll_system.h ****   *         DBGMCU_CR_APB1      DBG_TIM4_STOP           LL_DBGMCU_APB1_GRP1_UnFreezePeriph\n
 358:./inc/stm32f1xx_ll_system.h ****   *         DBGMCU_CR_APB1      DBG_TIM5_STOP           LL_DBGMCU_APB1_GRP1_UnFreezePeriph\n
 359:./inc/stm32f1xx_ll_system.h ****   *         DBGMCU_CR_APB1      DBG_TIM6_STOP           LL_DBGMCU_APB1_GRP1_UnFreezePeriph\n
 360:./inc/stm32f1xx_ll_system.h ****   *         DBGMCU_CR_APB1      DBG_TIM7_STOP           LL_DBGMCU_APB1_GRP1_UnFreezePeriph\n
 361:./inc/stm32f1xx_ll_system.h ****   *         DBGMCU_CR_APB1      DBG_TIM12_STOP          LL_DBGMCU_APB1_GRP1_UnFreezePeriph\n
 362:./inc/stm32f1xx_ll_system.h ****   *         DBGMCU_CR_APB1      DBG_TIM13_STOP          LL_DBGMCU_APB1_GRP1_UnFreezePeriph\n
 363:./inc/stm32f1xx_ll_system.h ****   *         DBGMCU_CR_APB1      DBG_TIM14_STOP          LL_DBGMCU_APB1_GRP1_UnFreezePeriph\n
 364:./inc/stm32f1xx_ll_system.h ****   *         DBGMCU_CR_APB1      DBG_RTC_STOP            LL_DBGMCU_APB1_GRP1_UnFreezePeriph\n
 365:./inc/stm32f1xx_ll_system.h ****   *         DBGMCU_CR_APB1      DBG_WWDG_STOP           LL_DBGMCU_APB1_GRP1_UnFreezePeriph\n
 366:./inc/stm32f1xx_ll_system.h ****   *         DBGMCU_CR_APB1      DBG_IWDG_STOP           LL_DBGMCU_APB1_GRP1_UnFreezePeriph\n
 367:./inc/stm32f1xx_ll_system.h ****   *         DBGMCU_CR_APB1      DBG_I2C1_SMBUS_TIMEOUT  LL_DBGMCU_APB1_GRP1_UnFreezePeriph\n
 368:./inc/stm32f1xx_ll_system.h ****   *         DBGMCU_CR_APB1      DBG_I2C2_SMBUS_TIMEOUT  LL_DBGMCU_APB1_GRP1_UnFreezePeriph\n
 369:./inc/stm32f1xx_ll_system.h ****   *         DBGMCU_CR_APB1      DBG_CAN1_STOP           LL_DBGMCU_APB1_GRP1_UnFreezePeriph\n
 370:./inc/stm32f1xx_ll_system.h ****   *         DBGMCU_CR_APB1      DBG_CAN2_STOP           LL_DBGMCU_APB1_GRP1_UnFreezePeriph
 371:./inc/stm32f1xx_ll_system.h ****   * @param  Periphs This parameter can be a combination of the following values:
 372:./inc/stm32f1xx_ll_system.h ****   *         @arg @ref LL_DBGMCU_APB1_GRP1_TIM2_STOP
 373:./inc/stm32f1xx_ll_system.h ****   *         @arg @ref LL_DBGMCU_APB1_GRP1_TIM3_STOP
 374:./inc/stm32f1xx_ll_system.h ****   *         @arg @ref LL_DBGMCU_APB1_GRP1_TIM4_STOP
 375:./inc/stm32f1xx_ll_system.h ****   *         @arg @ref LL_DBGMCU_APB1_GRP1_TIM5_STOP
 376:./inc/stm32f1xx_ll_system.h ****   *         @arg @ref LL_DBGMCU_APB1_GRP1_TIM6_STOP
 377:./inc/stm32f1xx_ll_system.h ****   *         @arg @ref LL_DBGMCU_APB1_GRP1_TIM7_STOP
 378:./inc/stm32f1xx_ll_system.h ****   *         @arg @ref LL_DBGMCU_APB1_GRP1_TIM12_STOP
 379:./inc/stm32f1xx_ll_system.h ****   *         @arg @ref LL_DBGMCU_APB1_GRP1_TIM13_STOP
 380:./inc/stm32f1xx_ll_system.h ****   *         @arg @ref LL_DBGMCU_APB1_GRP1_TIM14_STOP
 381:./inc/stm32f1xx_ll_system.h ****   *         @arg @ref LL_DBGMCU_APB1_GRP1_RTC_STOP
 382:./inc/stm32f1xx_ll_system.h ****   *         @arg @ref LL_DBGMCU_APB1_GRP1_WWDG_STOP
 383:./inc/stm32f1xx_ll_system.h ****   *         @arg @ref LL_DBGMCU_APB1_GRP1_IWDG_STOP
ARM GAS  /tmp/ccgFoonV.s 			page 17


 384:./inc/stm32f1xx_ll_system.h ****   *         @arg @ref LL_DBGMCU_APB1_GRP1_I2C1_STOP
 385:./inc/stm32f1xx_ll_system.h ****   *         @arg @ref LL_DBGMCU_APB1_GRP1_I2C2_STOP (*)
 386:./inc/stm32f1xx_ll_system.h ****   *         @arg @ref LL_DBGMCU_APB1_GRP1_CAN1_STOP (*)
 387:./inc/stm32f1xx_ll_system.h ****   *         @arg @ref LL_DBGMCU_APB1_GRP1_CAN2_STOP (*)
 388:./inc/stm32f1xx_ll_system.h ****   *
 389:./inc/stm32f1xx_ll_system.h ****   *         (*) value not defined in all devices.
 390:./inc/stm32f1xx_ll_system.h ****   * @retval None
 391:./inc/stm32f1xx_ll_system.h ****   */
 392:./inc/stm32f1xx_ll_system.h **** __STATIC_INLINE void LL_DBGMCU_APB1_GRP1_UnFreezePeriph(uint32_t Periphs)
 393:./inc/stm32f1xx_ll_system.h **** {
 394:./inc/stm32f1xx_ll_system.h ****   CLEAR_BIT(DBGMCU->CR, Periphs);
 395:./inc/stm32f1xx_ll_system.h **** }
 396:./inc/stm32f1xx_ll_system.h **** 
 397:./inc/stm32f1xx_ll_system.h **** /**
 398:./inc/stm32f1xx_ll_system.h ****   * @brief  Freeze APB2 peripherals
 399:./inc/stm32f1xx_ll_system.h ****   * @rmtoll DBGMCU_CR_APB2      DBG_TIM1_STOP    LL_DBGMCU_APB2_GRP1_FreezePeriph\n
 400:./inc/stm32f1xx_ll_system.h ****   *         DBGMCU_CR_APB2      DBG_TIM8_STOP    LL_DBGMCU_APB2_GRP1_FreezePeriph\n
 401:./inc/stm32f1xx_ll_system.h ****   *         DBGMCU_CR_APB2      DBG_TIM9_STOP    LL_DBGMCU_APB2_GRP1_FreezePeriph\n
 402:./inc/stm32f1xx_ll_system.h ****   *         DBGMCU_CR_APB2      DBG_TIM10_STOP   LL_DBGMCU_APB2_GRP1_FreezePeriph\n
 403:./inc/stm32f1xx_ll_system.h ****   *         DBGMCU_CR_APB2      DBG_TIM11_STOP   LL_DBGMCU_APB2_GRP1_FreezePeriph\n
 404:./inc/stm32f1xx_ll_system.h ****   *         DBGMCU_CR_APB2      DBG_TIM15_STOP   LL_DBGMCU_APB2_GRP1_FreezePeriph\n
 405:./inc/stm32f1xx_ll_system.h ****   *         DBGMCU_CR_APB2      DBG_TIM16_STOP   LL_DBGMCU_APB2_GRP1_FreezePeriph\n
 406:./inc/stm32f1xx_ll_system.h ****   *         DBGMCU_CR_APB2      DBG_TIM17_STOP   LL_DBGMCU_APB2_GRP1_FreezePeriph
 407:./inc/stm32f1xx_ll_system.h ****   * @param  Periphs This parameter can be a combination of the following values:
 408:./inc/stm32f1xx_ll_system.h ****   *         @arg @ref LL_DBGMCU_APB2_GRP1_TIM1_STOP
 409:./inc/stm32f1xx_ll_system.h ****   *         @arg @ref LL_DBGMCU_APB2_GRP1_TIM8_STOP (*)
 410:./inc/stm32f1xx_ll_system.h ****   *         @arg @ref LL_DBGMCU_APB2_GRP1_TIM9_STOP (*)
 411:./inc/stm32f1xx_ll_system.h ****   *         @arg @ref LL_DBGMCU_APB2_GRP1_TIM10_STOP (*)
 412:./inc/stm32f1xx_ll_system.h ****   *         @arg @ref LL_DBGMCU_APB2_GRP1_TIM11_STOP (*)
 413:./inc/stm32f1xx_ll_system.h ****   *         @arg @ref LL_DBGMCU_APB2_GRP1_TIM15_STOP (*)
 414:./inc/stm32f1xx_ll_system.h ****   *         @arg @ref LL_DBGMCU_APB2_GRP1_TIM16_STOP (*)
 415:./inc/stm32f1xx_ll_system.h ****   *         @arg @ref LL_DBGMCU_APB2_GRP1_TIM17_STOP (*)
 416:./inc/stm32f1xx_ll_system.h ****   *
 417:./inc/stm32f1xx_ll_system.h ****   *         (*) value not defined in all devices.
 418:./inc/stm32f1xx_ll_system.h ****   * @retval None
 419:./inc/stm32f1xx_ll_system.h ****   */
 420:./inc/stm32f1xx_ll_system.h **** __STATIC_INLINE void LL_DBGMCU_APB2_GRP1_FreezePeriph(uint32_t Periphs)
 421:./inc/stm32f1xx_ll_system.h **** {
 422:./inc/stm32f1xx_ll_system.h ****   SET_BIT(DBGMCU->CR, Periphs);
 423:./inc/stm32f1xx_ll_system.h **** }
 424:./inc/stm32f1xx_ll_system.h **** 
 425:./inc/stm32f1xx_ll_system.h **** /**
 426:./inc/stm32f1xx_ll_system.h ****   * @brief  Unfreeze APB2 peripherals
 427:./inc/stm32f1xx_ll_system.h ****   * @rmtoll DBGMCU_CR_APB2      DBG_TIM1_STOP    LL_DBGMCU_APB2_GRP1_FreezePeriph\n
 428:./inc/stm32f1xx_ll_system.h ****   *         DBGMCU_CR_APB2      DBG_TIM8_STOP    LL_DBGMCU_APB2_GRP1_FreezePeriph\n
 429:./inc/stm32f1xx_ll_system.h ****   *         DBGMCU_CR_APB2      DBG_TIM9_STOP    LL_DBGMCU_APB2_GRP1_FreezePeriph\n
 430:./inc/stm32f1xx_ll_system.h ****   *         DBGMCU_CR_APB2      DBG_TIM10_STOP   LL_DBGMCU_APB2_GRP1_FreezePeriph\n
 431:./inc/stm32f1xx_ll_system.h ****   *         DBGMCU_CR_APB2      DBG_TIM11_STOP   LL_DBGMCU_APB2_GRP1_FreezePeriph\n
 432:./inc/stm32f1xx_ll_system.h ****   *         DBGMCU_CR_APB2      DBG_TIM15_STOP   LL_DBGMCU_APB2_GRP1_FreezePeriph\n
 433:./inc/stm32f1xx_ll_system.h ****   *         DBGMCU_CR_APB2      DBG_TIM16_STOP   LL_DBGMCU_APB2_GRP1_FreezePeriph\n
 434:./inc/stm32f1xx_ll_system.h ****   *         DBGMCU_CR_APB2      DBG_TIM17_STOP   LL_DBGMCU_APB2_GRP1_FreezePeriph
 435:./inc/stm32f1xx_ll_system.h ****   * @param  Periphs This parameter can be a combination of the following values:
 436:./inc/stm32f1xx_ll_system.h ****   *         @arg @ref LL_DBGMCU_APB2_GRP1_TIM1_STOP
 437:./inc/stm32f1xx_ll_system.h ****   *         @arg @ref LL_DBGMCU_APB2_GRP1_TIM8_STOP (*)
 438:./inc/stm32f1xx_ll_system.h ****   *         @arg @ref LL_DBGMCU_APB2_GRP1_TIM9_STOP (*)
 439:./inc/stm32f1xx_ll_system.h ****   *         @arg @ref LL_DBGMCU_APB2_GRP1_TIM10_STOP (*)
 440:./inc/stm32f1xx_ll_system.h ****   *         @arg @ref LL_DBGMCU_APB2_GRP1_TIM11_STOP (*)
ARM GAS  /tmp/ccgFoonV.s 			page 18


 441:./inc/stm32f1xx_ll_system.h ****   *         @arg @ref LL_DBGMCU_APB2_GRP1_TIM15_STOP (*)
 442:./inc/stm32f1xx_ll_system.h ****   *         @arg @ref LL_DBGMCU_APB2_GRP1_TIM16_STOP (*)
 443:./inc/stm32f1xx_ll_system.h ****   *         @arg @ref LL_DBGMCU_APB2_GRP1_TIM17_STOP (*)
 444:./inc/stm32f1xx_ll_system.h ****   *
 445:./inc/stm32f1xx_ll_system.h ****   *         (*) value not defined in all devices.
 446:./inc/stm32f1xx_ll_system.h ****   * @retval None
 447:./inc/stm32f1xx_ll_system.h ****   */
 448:./inc/stm32f1xx_ll_system.h **** __STATIC_INLINE void LL_DBGMCU_APB2_GRP1_UnFreezePeriph(uint32_t Periphs)
 449:./inc/stm32f1xx_ll_system.h **** {
 450:./inc/stm32f1xx_ll_system.h ****   CLEAR_BIT(DBGMCU->CR, Periphs);
 451:./inc/stm32f1xx_ll_system.h **** }
 452:./inc/stm32f1xx_ll_system.h **** /**
 453:./inc/stm32f1xx_ll_system.h ****   * @}
 454:./inc/stm32f1xx_ll_system.h ****   */
 455:./inc/stm32f1xx_ll_system.h **** 
 456:./inc/stm32f1xx_ll_system.h **** #if defined(FLASH_ACR_LATENCY)
 457:./inc/stm32f1xx_ll_system.h **** /** @defgroup SYSTEM_LL_EF_FLASH FLASH
 458:./inc/stm32f1xx_ll_system.h ****   * @{
 459:./inc/stm32f1xx_ll_system.h ****   */
 460:./inc/stm32f1xx_ll_system.h **** 
 461:./inc/stm32f1xx_ll_system.h **** /**
 462:./inc/stm32f1xx_ll_system.h ****   * @brief  Set FLASH Latency
 463:./inc/stm32f1xx_ll_system.h ****   * @rmtoll FLASH_ACR    LATENCY       LL_FLASH_SetLatency
 464:./inc/stm32f1xx_ll_system.h ****   * @param  Latency This parameter can be one of the following values:
 465:./inc/stm32f1xx_ll_system.h ****   *         @arg @ref LL_FLASH_LATENCY_0
 466:./inc/stm32f1xx_ll_system.h ****   *         @arg @ref LL_FLASH_LATENCY_1
 467:./inc/stm32f1xx_ll_system.h ****   *         @arg @ref LL_FLASH_LATENCY_2
 468:./inc/stm32f1xx_ll_system.h ****   * @retval None
 469:./inc/stm32f1xx_ll_system.h ****   */
 470:./inc/stm32f1xx_ll_system.h **** __STATIC_INLINE void LL_FLASH_SetLatency(uint32_t Latency)
 471:./inc/stm32f1xx_ll_system.h **** {
 472:./inc/stm32f1xx_ll_system.h ****   MODIFY_REG(FLASH->ACR, FLASH_ACR_LATENCY, Latency);
 105              		.loc 2 472 0
 106 0012 0A4A     		ldr	r2, .L6+8	@ tmp124,
 107 0014 1368     		ldr	r3, [r2]	@ _11, MEM[(struct FLASH_TypeDef *)1073881088B].ACR
 108 0016 23F00703 		bic	r3, r3, #7	@ tmp125, _11,
 109 001a 0343     		orrs	r3, r3, r0	@, _13, tmp125, latency
 110 001c 1360     		str	r3, [r2]	@ _13, MEM[(struct FLASH_TypeDef *)1073881088B].ACR
 111              	.LVL4:
 112              	.LBE21:
 113              	.LBE20:
 114              	.LBB22:
 115              	.LBB23:
 473:./inc/stm32f1xx_ll_system.h **** }
 474:./inc/stm32f1xx_ll_system.h **** 
 475:./inc/stm32f1xx_ll_system.h **** /**
 476:./inc/stm32f1xx_ll_system.h ****   * @brief  Get FLASH Latency
 477:./inc/stm32f1xx_ll_system.h ****   * @rmtoll FLASH_ACR    LATENCY       LL_FLASH_GetLatency
 478:./inc/stm32f1xx_ll_system.h ****   * @retval Returned value can be one of the following values:
 479:./inc/stm32f1xx_ll_system.h ****   *         @arg @ref LL_FLASH_LATENCY_0
 480:./inc/stm32f1xx_ll_system.h ****   *         @arg @ref LL_FLASH_LATENCY_1
 481:./inc/stm32f1xx_ll_system.h ****   *         @arg @ref LL_FLASH_LATENCY_2
 482:./inc/stm32f1xx_ll_system.h ****   */
 483:./inc/stm32f1xx_ll_system.h **** __STATIC_INLINE uint32_t LL_FLASH_GetLatency(void)
 484:./inc/stm32f1xx_ll_system.h **** {
 485:./inc/stm32f1xx_ll_system.h ****   return (uint32_t)(READ_BIT(FLASH->ACR, FLASH_ACR_LATENCY));
 116              		.loc 2 485 0
ARM GAS  /tmp/ccgFoonV.s 			page 19


 117 001e 1368     		ldr	r3, [r2]	@ _8, MEM[(struct FLASH_TypeDef *)1073881088B].ACR
 118 0020 03F00703 		and	r3, r3, #7	@ tmp128, _8,
 119              	.LBE23:
 120              	.LBE22:
 121              	.LBE19:
 122              	.LBE18:
 414:src/stm32f1xx_ll_utils.c ****   }
 123              		.loc 1 414 0
 124 0024 181A     		subs	r0, r3, r0	@ <retval>, tmp128, latency
 125              	.LVL5:
 126 0026 18BF     		it	ne
 127 0028 0120     		movne	r0, #1	@ <retval>,
 128 002a 7047     		bx	lr	@
 129              	.LVL6:
 130              	.L5:
 131              	.LBB25:
 132              	.LBB24:
 421:src/stm32f1xx_ll_utils.c ****     }
 133              		.loc 1 421 0
 134 002c 0220     		movs	r0, #2	@ latency,
 135              	.LVL7:
 136 002e F0E7     		b	.L3	@
 137              	.LVL8:
 138              	.L4:
 139              	.LBE24:
 140              	.LBE25:
 414:src/stm32f1xx_ll_utils.c ****   }
 141              		.loc 1 414 0
 142 0030 0120     		movs	r0, #1	@ <retval>,
 143              	.LVL9:
 426:src/stm32f1xx_ll_utils.c ****       {
 427:src/stm32f1xx_ll_utils.c ****         /* 24 < SYSCLK <= 48 => 1WS (2 CPU cycles) */
 428:src/stm32f1xx_ll_utils.c ****         latency = LL_FLASH_LATENCY_1;
 429:src/stm32f1xx_ll_utils.c ****       }
 430:src/stm32f1xx_ll_utils.c ****       /* else SYSCLK < 24MHz default LL_FLASH_LATENCY_0 0WS */
 431:src/stm32f1xx_ll_utils.c ****     }
 432:src/stm32f1xx_ll_utils.c **** 
 433:src/stm32f1xx_ll_utils.c ****     LL_FLASH_SetLatency(latency);
 434:src/stm32f1xx_ll_utils.c **** 
 435:src/stm32f1xx_ll_utils.c ****     /* Check that the new number of wait states is taken into account to access the Flash
 436:src/stm32f1xx_ll_utils.c ****        memory by reading the FLASH_ACR register */
 437:src/stm32f1xx_ll_utils.c ****     if (LL_FLASH_GetLatency() != latency)
 438:src/stm32f1xx_ll_utils.c ****     {
 439:src/stm32f1xx_ll_utils.c ****       status = ERROR;
 440:src/stm32f1xx_ll_utils.c ****     }
 441:src/stm32f1xx_ll_utils.c ****   }
 442:src/stm32f1xx_ll_utils.c ****   return status;
 443:src/stm32f1xx_ll_utils.c **** }
 144              		.loc 1 443 0
 145 0032 7047     		bx	lr	@
 146              	.L7:
 147              		.align	2
 148              	.L6:
 149 0034 006CDC02 		.word	48000000
 150 0038 00366E01 		.word	24000000
 151 003c 00200240 		.word	1073881088
 152              		.cfi_endproc
ARM GAS  /tmp/ccgFoonV.s 			page 20


 153              	.LFE179:
 154              		.size	UTILS_SetFlashLatency, .-UTILS_SetFlashLatency
 155              		.align	1
 156              		.syntax unified
 157              		.thumb
 158              		.thumb_func
 159              		.fpu softvfp
 160              		.type	UTILS_EnablePLLAndSwitchSystem, %function
 161              	UTILS_EnablePLLAndSwitchSystem:
 162              	.LFB182:
 444:src/stm32f1xx_ll_utils.c **** #endif /* FLASH_ACR_LATENCY */
 445:src/stm32f1xx_ll_utils.c **** 
 446:src/stm32f1xx_ll_utils.c **** /**
 447:src/stm32f1xx_ll_utils.c ****   * @brief  Function to check that PLL can be modified
 448:src/stm32f1xx_ll_utils.c ****   * @param  PLL_InputFrequency  PLL input frequency (in Hz)
 449:src/stm32f1xx_ll_utils.c ****   * @param  UTILS_PLLInitStruct pointer to a @ref LL_UTILS_PLLInitTypeDef structure that contains
 450:src/stm32f1xx_ll_utils.c ****   *                             the configuration information for the PLL.
 451:src/stm32f1xx_ll_utils.c ****   * @retval PLL output frequency (in Hz)
 452:src/stm32f1xx_ll_utils.c ****   */
 453:src/stm32f1xx_ll_utils.c **** static uint32_t UTILS_GetPLLOutputFrequency(uint32_t PLL_InputFrequency, LL_UTILS_PLLInitTypeDef *U
 454:src/stm32f1xx_ll_utils.c **** {
 455:src/stm32f1xx_ll_utils.c ****   uint32_t pllfreq = 0U;
 456:src/stm32f1xx_ll_utils.c **** 
 457:src/stm32f1xx_ll_utils.c ****   /* Check the parameters */
 458:src/stm32f1xx_ll_utils.c ****   assert_param(IS_LL_UTILS_PLLMUL_VALUE(UTILS_PLLInitStruct->PLLMul));
 459:src/stm32f1xx_ll_utils.c **** 
 460:src/stm32f1xx_ll_utils.c ****   /* Check different PLL parameters according to RM                          */
 461:src/stm32f1xx_ll_utils.c **** #if defined (RCC_CFGR2_PREDIV1)
 462:src/stm32f1xx_ll_utils.c ****   pllfreq = __LL_RCC_CALC_PLLCLK_FREQ(PLL_InputFrequency / (UTILS_PLLInitStruct->Prediv + 1U), UTIL
 463:src/stm32f1xx_ll_utils.c **** #else
 464:src/stm32f1xx_ll_utils.c ****   pllfreq = __LL_RCC_CALC_PLLCLK_FREQ(PLL_InputFrequency / ((UTILS_PLLInitStruct->Prediv >> RCC_CFG
 465:src/stm32f1xx_ll_utils.c **** #endif /*RCC_CFGR2_PREDIV1SRC*/
 466:src/stm32f1xx_ll_utils.c ****   assert_param(IS_LL_UTILS_PLL_FREQUENCY(pllfreq));
 467:src/stm32f1xx_ll_utils.c **** 
 468:src/stm32f1xx_ll_utils.c ****   return pllfreq;
 469:src/stm32f1xx_ll_utils.c **** }
 470:src/stm32f1xx_ll_utils.c **** 
 471:src/stm32f1xx_ll_utils.c **** /**
 472:src/stm32f1xx_ll_utils.c ****   * @brief  Function to check that PLL can be modified
 473:src/stm32f1xx_ll_utils.c ****   * @retval An ErrorStatus enumeration value:
 474:src/stm32f1xx_ll_utils.c ****   *          - SUCCESS: PLL modification can be done
 475:src/stm32f1xx_ll_utils.c ****   *          - ERROR: PLL is busy
 476:src/stm32f1xx_ll_utils.c ****   */
 477:src/stm32f1xx_ll_utils.c **** static ErrorStatus UTILS_PLL_IsBusy(void)
 478:src/stm32f1xx_ll_utils.c **** {
 479:src/stm32f1xx_ll_utils.c ****   ErrorStatus status = SUCCESS;
 480:src/stm32f1xx_ll_utils.c **** 
 481:src/stm32f1xx_ll_utils.c ****   /* Check if PLL is busy*/
 482:src/stm32f1xx_ll_utils.c ****   if (LL_RCC_PLL_IsReady() != 0U)
 483:src/stm32f1xx_ll_utils.c ****   {
 484:src/stm32f1xx_ll_utils.c ****     /* PLL configuration cannot be modified */
 485:src/stm32f1xx_ll_utils.c ****     status = ERROR;
 486:src/stm32f1xx_ll_utils.c ****   }
 487:src/stm32f1xx_ll_utils.c **** #if defined(RCC_PLL2_SUPPORT)
 488:src/stm32f1xx_ll_utils.c ****   /* Check if PLL2 is busy*/
 489:src/stm32f1xx_ll_utils.c ****   if (LL_RCC_PLL2_IsReady() != 0U)
 490:src/stm32f1xx_ll_utils.c ****   {
ARM GAS  /tmp/ccgFoonV.s 			page 21


 491:src/stm32f1xx_ll_utils.c ****     /* PLL2 configuration cannot be modified */
 492:src/stm32f1xx_ll_utils.c ****     status = ERROR;
 493:src/stm32f1xx_ll_utils.c ****   }
 494:src/stm32f1xx_ll_utils.c **** #endif /* RCC_PLL2_SUPPORT */
 495:src/stm32f1xx_ll_utils.c **** 
 496:src/stm32f1xx_ll_utils.c **** #if defined(RCC_PLLI2S_SUPPORT)
 497:src/stm32f1xx_ll_utils.c ****   /* Check if PLLI2S  is busy*/
 498:src/stm32f1xx_ll_utils.c ****   if (LL_RCC_PLLI2S_IsReady() != 0U)
 499:src/stm32f1xx_ll_utils.c ****   {
 500:src/stm32f1xx_ll_utils.c ****     /* PLLI2S configuration cannot be modified */
 501:src/stm32f1xx_ll_utils.c ****     status = ERROR;
 502:src/stm32f1xx_ll_utils.c ****   }
 503:src/stm32f1xx_ll_utils.c **** #endif /* RCC_PLLI2S_SUPPORT */
 504:src/stm32f1xx_ll_utils.c **** 
 505:src/stm32f1xx_ll_utils.c ****   return status;
 506:src/stm32f1xx_ll_utils.c **** }
 507:src/stm32f1xx_ll_utils.c **** 
 508:src/stm32f1xx_ll_utils.c **** /**
 509:src/stm32f1xx_ll_utils.c ****   * @brief  Function to enable PLL and switch system clock to PLL
 510:src/stm32f1xx_ll_utils.c ****   * @param  SYSCLK_Frequency SYSCLK frequency
 511:src/stm32f1xx_ll_utils.c ****   * @param  UTILS_ClkInitStruct pointer to a @ref LL_UTILS_ClkInitTypeDef structure that contains
 512:src/stm32f1xx_ll_utils.c ****   *                             the configuration information for the BUS prescalers.
 513:src/stm32f1xx_ll_utils.c ****   * @retval An ErrorStatus enumeration value:
 514:src/stm32f1xx_ll_utils.c ****   *          - SUCCESS: No problem to switch system to PLL
 515:src/stm32f1xx_ll_utils.c ****   *          - ERROR: Problem to switch system to PLL
 516:src/stm32f1xx_ll_utils.c ****   */
 517:src/stm32f1xx_ll_utils.c **** static ErrorStatus UTILS_EnablePLLAndSwitchSystem(uint32_t SYSCLK_Frequency, LL_UTILS_ClkInitTypeDe
 518:src/stm32f1xx_ll_utils.c **** {
 163              		.loc 1 518 0
 164              		.cfi_startproc
 165              		@ args = 0, pretend = 0, frame = 0
 166              		@ frame_needed = 0, uses_anonymous_args = 0
 167              	.LVL10:
 168 0040 2DE9F041 		push	{r4, r5, r6, r7, r8, lr}	@
 169              	.LCFI0:
 170              		.cfi_def_cfa_offset 24
 171              		.cfi_offset 4, -24
 172              		.cfi_offset 5, -20
 173              		.cfi_offset 6, -16
 174              		.cfi_offset 7, -12
 175              		.cfi_offset 8, -8
 176              		.cfi_offset 14, -4
 177              	.LBB44:
 178              	.LBB45:
 179              		.file 3 "./inc/stm32f1xx_ll_rcc.h"
   1:./inc/stm32f1xx_ll_rcc.h **** /**
   2:./inc/stm32f1xx_ll_rcc.h ****   ******************************************************************************
   3:./inc/stm32f1xx_ll_rcc.h ****   * @file    stm32f1xx_ll_rcc.h
   4:./inc/stm32f1xx_ll_rcc.h ****   * @author  MCD Application Team
   5:./inc/stm32f1xx_ll_rcc.h ****   * @brief   Header file of RCC LL module.
   6:./inc/stm32f1xx_ll_rcc.h ****   ******************************************************************************
   7:./inc/stm32f1xx_ll_rcc.h ****   * @attention
   8:./inc/stm32f1xx_ll_rcc.h ****   *
   9:./inc/stm32f1xx_ll_rcc.h ****   * <h2><center>&copy; Copyright (c) 2016 STMicroelectronics.
  10:./inc/stm32f1xx_ll_rcc.h ****   * All rights reserved.</center></h2>
  11:./inc/stm32f1xx_ll_rcc.h ****   *
  12:./inc/stm32f1xx_ll_rcc.h ****   * This software component is licensed by ST under BSD 3-Clause license,
ARM GAS  /tmp/ccgFoonV.s 			page 22


  13:./inc/stm32f1xx_ll_rcc.h ****   * the "License"; You may not use this file except in compliance with the
  14:./inc/stm32f1xx_ll_rcc.h ****   * License. You may obtain a copy of the License at:
  15:./inc/stm32f1xx_ll_rcc.h ****   *                        opensource.org/licenses/BSD-3-Clause
  16:./inc/stm32f1xx_ll_rcc.h ****   *
  17:./inc/stm32f1xx_ll_rcc.h ****   ******************************************************************************
  18:./inc/stm32f1xx_ll_rcc.h ****   */
  19:./inc/stm32f1xx_ll_rcc.h **** 
  20:./inc/stm32f1xx_ll_rcc.h **** /* Define to prevent recursive inclusion -------------------------------------*/
  21:./inc/stm32f1xx_ll_rcc.h **** #ifndef __STM32F1xx_LL_RCC_H
  22:./inc/stm32f1xx_ll_rcc.h **** #define __STM32F1xx_LL_RCC_H
  23:./inc/stm32f1xx_ll_rcc.h **** 
  24:./inc/stm32f1xx_ll_rcc.h **** #ifdef __cplusplus
  25:./inc/stm32f1xx_ll_rcc.h **** extern "C" {
  26:./inc/stm32f1xx_ll_rcc.h **** #endif
  27:./inc/stm32f1xx_ll_rcc.h **** 
  28:./inc/stm32f1xx_ll_rcc.h **** /* Includes ------------------------------------------------------------------*/
  29:./inc/stm32f1xx_ll_rcc.h **** #include "stm32f1xx.h"
  30:./inc/stm32f1xx_ll_rcc.h **** 
  31:./inc/stm32f1xx_ll_rcc.h **** /** @addtogroup STM32F1xx_LL_Driver
  32:./inc/stm32f1xx_ll_rcc.h ****   * @{
  33:./inc/stm32f1xx_ll_rcc.h ****   */
  34:./inc/stm32f1xx_ll_rcc.h **** 
  35:./inc/stm32f1xx_ll_rcc.h **** #if defined(RCC)
  36:./inc/stm32f1xx_ll_rcc.h **** 
  37:./inc/stm32f1xx_ll_rcc.h **** /** @defgroup RCC_LL RCC
  38:./inc/stm32f1xx_ll_rcc.h ****   * @{
  39:./inc/stm32f1xx_ll_rcc.h ****   */
  40:./inc/stm32f1xx_ll_rcc.h **** 
  41:./inc/stm32f1xx_ll_rcc.h **** /* Private types -------------------------------------------------------------*/
  42:./inc/stm32f1xx_ll_rcc.h **** /* Private variables ---------------------------------------------------------*/
  43:./inc/stm32f1xx_ll_rcc.h **** /* Private constants ---------------------------------------------------------*/
  44:./inc/stm32f1xx_ll_rcc.h **** /* Private macros ------------------------------------------------------------*/
  45:./inc/stm32f1xx_ll_rcc.h **** #if defined(USE_FULL_LL_DRIVER)
  46:./inc/stm32f1xx_ll_rcc.h **** /** @defgroup RCC_LL_Private_Macros RCC Private Macros
  47:./inc/stm32f1xx_ll_rcc.h ****   * @{
  48:./inc/stm32f1xx_ll_rcc.h ****   */
  49:./inc/stm32f1xx_ll_rcc.h **** /**
  50:./inc/stm32f1xx_ll_rcc.h ****   * @}
  51:./inc/stm32f1xx_ll_rcc.h ****   */
  52:./inc/stm32f1xx_ll_rcc.h **** #endif /*USE_FULL_LL_DRIVER*/
  53:./inc/stm32f1xx_ll_rcc.h **** /* Exported types ------------------------------------------------------------*/
  54:./inc/stm32f1xx_ll_rcc.h **** #if defined(USE_FULL_LL_DRIVER)
  55:./inc/stm32f1xx_ll_rcc.h **** /** @defgroup RCC_LL_Exported_Types RCC Exported Types
  56:./inc/stm32f1xx_ll_rcc.h ****   * @{
  57:./inc/stm32f1xx_ll_rcc.h ****   */
  58:./inc/stm32f1xx_ll_rcc.h **** 
  59:./inc/stm32f1xx_ll_rcc.h **** /** @defgroup LL_ES_CLOCK_FREQ Clocks Frequency Structure
  60:./inc/stm32f1xx_ll_rcc.h ****   * @{
  61:./inc/stm32f1xx_ll_rcc.h ****   */
  62:./inc/stm32f1xx_ll_rcc.h **** 
  63:./inc/stm32f1xx_ll_rcc.h **** /**
  64:./inc/stm32f1xx_ll_rcc.h ****   * @brief  RCC Clocks Frequency Structure
  65:./inc/stm32f1xx_ll_rcc.h ****   */
  66:./inc/stm32f1xx_ll_rcc.h **** typedef struct
  67:./inc/stm32f1xx_ll_rcc.h **** {
  68:./inc/stm32f1xx_ll_rcc.h ****   uint32_t SYSCLK_Frequency;        /*!< SYSCLK clock frequency */
  69:./inc/stm32f1xx_ll_rcc.h ****   uint32_t HCLK_Frequency;          /*!< HCLK clock frequency */
ARM GAS  /tmp/ccgFoonV.s 			page 23


  70:./inc/stm32f1xx_ll_rcc.h ****   uint32_t PCLK1_Frequency;         /*!< PCLK1 clock frequency */
  71:./inc/stm32f1xx_ll_rcc.h ****   uint32_t PCLK2_Frequency;         /*!< PCLK2 clock frequency */
  72:./inc/stm32f1xx_ll_rcc.h **** } LL_RCC_ClocksTypeDef;
  73:./inc/stm32f1xx_ll_rcc.h **** 
  74:./inc/stm32f1xx_ll_rcc.h **** /**
  75:./inc/stm32f1xx_ll_rcc.h ****   * @}
  76:./inc/stm32f1xx_ll_rcc.h ****   */
  77:./inc/stm32f1xx_ll_rcc.h **** 
  78:./inc/stm32f1xx_ll_rcc.h **** /**
  79:./inc/stm32f1xx_ll_rcc.h ****   * @}
  80:./inc/stm32f1xx_ll_rcc.h ****   */
  81:./inc/stm32f1xx_ll_rcc.h **** #endif /* USE_FULL_LL_DRIVER */
  82:./inc/stm32f1xx_ll_rcc.h **** 
  83:./inc/stm32f1xx_ll_rcc.h **** /* Exported constants --------------------------------------------------------*/
  84:./inc/stm32f1xx_ll_rcc.h **** /** @defgroup RCC_LL_Exported_Constants RCC Exported Constants
  85:./inc/stm32f1xx_ll_rcc.h ****   * @{
  86:./inc/stm32f1xx_ll_rcc.h ****   */
  87:./inc/stm32f1xx_ll_rcc.h **** 
  88:./inc/stm32f1xx_ll_rcc.h **** /** @defgroup RCC_LL_EC_OSC_VALUES Oscillator Values adaptation
  89:./inc/stm32f1xx_ll_rcc.h ****   * @brief    Defines used to adapt values of different oscillators
  90:./inc/stm32f1xx_ll_rcc.h ****   * @note     These values could be modified in the user environment according to
  91:./inc/stm32f1xx_ll_rcc.h ****   *           HW set-up.
  92:./inc/stm32f1xx_ll_rcc.h ****   * @{
  93:./inc/stm32f1xx_ll_rcc.h ****   */
  94:./inc/stm32f1xx_ll_rcc.h **** #if !defined  (HSE_VALUE)
  95:./inc/stm32f1xx_ll_rcc.h **** #define HSE_VALUE    8000000U  /*!< Value of the HSE oscillator in Hz */
  96:./inc/stm32f1xx_ll_rcc.h **** #endif /* HSE_VALUE */
  97:./inc/stm32f1xx_ll_rcc.h **** 
  98:./inc/stm32f1xx_ll_rcc.h **** #if !defined  (HSI_VALUE)
  99:./inc/stm32f1xx_ll_rcc.h **** #define HSI_VALUE    8000000U  /*!< Value of the HSI oscillator in Hz */
 100:./inc/stm32f1xx_ll_rcc.h **** #endif /* HSI_VALUE */
 101:./inc/stm32f1xx_ll_rcc.h **** 
 102:./inc/stm32f1xx_ll_rcc.h **** #if !defined  (LSE_VALUE)
 103:./inc/stm32f1xx_ll_rcc.h **** #define LSE_VALUE    32768U    /*!< Value of the LSE oscillator in Hz */
 104:./inc/stm32f1xx_ll_rcc.h **** #endif /* LSE_VALUE */
 105:./inc/stm32f1xx_ll_rcc.h **** 
 106:./inc/stm32f1xx_ll_rcc.h **** #if !defined  (LSI_VALUE)
 107:./inc/stm32f1xx_ll_rcc.h **** #define LSI_VALUE    40000U    /*!< Value of the LSI oscillator in Hz */
 108:./inc/stm32f1xx_ll_rcc.h **** #endif /* LSI_VALUE */
 109:./inc/stm32f1xx_ll_rcc.h **** /**
 110:./inc/stm32f1xx_ll_rcc.h ****   * @}
 111:./inc/stm32f1xx_ll_rcc.h ****   */
 112:./inc/stm32f1xx_ll_rcc.h **** 
 113:./inc/stm32f1xx_ll_rcc.h **** /** @defgroup RCC_LL_EC_CLEAR_FLAG Clear Flags Defines
 114:./inc/stm32f1xx_ll_rcc.h ****   * @brief    Flags defines which can be used with LL_RCC_WriteReg function
 115:./inc/stm32f1xx_ll_rcc.h ****   * @{
 116:./inc/stm32f1xx_ll_rcc.h ****   */
 117:./inc/stm32f1xx_ll_rcc.h **** #define LL_RCC_CIR_LSIRDYC                RCC_CIR_LSIRDYC     /*!< LSI Ready Interrupt Clear */
 118:./inc/stm32f1xx_ll_rcc.h **** #define LL_RCC_CIR_LSERDYC                RCC_CIR_LSERDYC     /*!< LSE Ready Interrupt Clear */
 119:./inc/stm32f1xx_ll_rcc.h **** #define LL_RCC_CIR_HSIRDYC                RCC_CIR_HSIRDYC     /*!< HSI Ready Interrupt Clear */
 120:./inc/stm32f1xx_ll_rcc.h **** #define LL_RCC_CIR_HSERDYC                RCC_CIR_HSERDYC     /*!< HSE Ready Interrupt Clear */
 121:./inc/stm32f1xx_ll_rcc.h **** #define LL_RCC_CIR_PLLRDYC                RCC_CIR_PLLRDYC     /*!< PLL Ready Interrupt Clear */
 122:./inc/stm32f1xx_ll_rcc.h **** #define LL_RCC_CIR_PLL3RDYC               RCC_CIR_PLL3RDYC    /*!< PLL3(PLLI2S) Ready Interrupt Cle
 123:./inc/stm32f1xx_ll_rcc.h **** #define LL_RCC_CIR_PLL2RDYC               RCC_CIR_PLL2RDYC    /*!< PLL2 Ready Interrupt Clear */
 124:./inc/stm32f1xx_ll_rcc.h **** #define LL_RCC_CIR_CSSC                   RCC_CIR_CSSC        /*!< Clock Security System Interrupt 
 125:./inc/stm32f1xx_ll_rcc.h **** /**
 126:./inc/stm32f1xx_ll_rcc.h ****   * @}
ARM GAS  /tmp/ccgFoonV.s 			page 24


 127:./inc/stm32f1xx_ll_rcc.h ****   */
 128:./inc/stm32f1xx_ll_rcc.h **** 
 129:./inc/stm32f1xx_ll_rcc.h **** /** @defgroup RCC_LL_EC_GET_FLAG Get Flags Defines
 130:./inc/stm32f1xx_ll_rcc.h ****   * @brief    Flags defines which can be used with LL_RCC_ReadReg function
 131:./inc/stm32f1xx_ll_rcc.h ****   * @{
 132:./inc/stm32f1xx_ll_rcc.h ****   */
 133:./inc/stm32f1xx_ll_rcc.h **** #define LL_RCC_CIR_LSIRDYF                RCC_CIR_LSIRDYF     /*!< LSI Ready Interrupt flag */
 134:./inc/stm32f1xx_ll_rcc.h **** #define LL_RCC_CIR_LSERDYF                RCC_CIR_LSERDYF     /*!< LSE Ready Interrupt flag */
 135:./inc/stm32f1xx_ll_rcc.h **** #define LL_RCC_CIR_HSIRDYF                RCC_CIR_HSIRDYF     /*!< HSI Ready Interrupt flag */
 136:./inc/stm32f1xx_ll_rcc.h **** #define LL_RCC_CIR_HSERDYF                RCC_CIR_HSERDYF     /*!< HSE Ready Interrupt flag */
 137:./inc/stm32f1xx_ll_rcc.h **** #define LL_RCC_CIR_PLLRDYF                RCC_CIR_PLLRDYF     /*!< PLL Ready Interrupt flag */
 138:./inc/stm32f1xx_ll_rcc.h **** #define LL_RCC_CIR_PLL3RDYF               RCC_CIR_PLL3RDYF    /*!< PLL3(PLLI2S) Ready Interrupt fla
 139:./inc/stm32f1xx_ll_rcc.h **** #define LL_RCC_CIR_PLL2RDYF               RCC_CIR_PLL2RDYF    /*!< PLL2 Ready Interrupt flag */
 140:./inc/stm32f1xx_ll_rcc.h **** #define LL_RCC_CIR_CSSF                   RCC_CIR_CSSF        /*!< Clock Security System Interrupt 
 141:./inc/stm32f1xx_ll_rcc.h **** #define LL_RCC_CSR_PINRSTF                RCC_CSR_PINRSTF     /*!< PIN reset flag */
 142:./inc/stm32f1xx_ll_rcc.h **** #define LL_RCC_CSR_PORRSTF                RCC_CSR_PORRSTF     /*!< POR/PDR reset flag */
 143:./inc/stm32f1xx_ll_rcc.h **** #define LL_RCC_CSR_SFTRSTF                RCC_CSR_SFTRSTF     /*!< Software Reset flag */
 144:./inc/stm32f1xx_ll_rcc.h **** #define LL_RCC_CSR_IWDGRSTF               RCC_CSR_IWDGRSTF    /*!< Independent Watchdog reset flag 
 145:./inc/stm32f1xx_ll_rcc.h **** #define LL_RCC_CSR_WWDGRSTF               RCC_CSR_WWDGRSTF    /*!< Window watchdog reset flag */
 146:./inc/stm32f1xx_ll_rcc.h **** #define LL_RCC_CSR_LPWRRSTF               RCC_CSR_LPWRRSTF    /*!< Low-Power reset flag */
 147:./inc/stm32f1xx_ll_rcc.h **** /**
 148:./inc/stm32f1xx_ll_rcc.h ****   * @}
 149:./inc/stm32f1xx_ll_rcc.h ****   */
 150:./inc/stm32f1xx_ll_rcc.h **** 
 151:./inc/stm32f1xx_ll_rcc.h **** /** @defgroup RCC_LL_EC_IT IT Defines
 152:./inc/stm32f1xx_ll_rcc.h ****   * @brief    IT defines which can be used with LL_RCC_ReadReg and  LL_RCC_WriteReg functions
 153:./inc/stm32f1xx_ll_rcc.h ****   * @{
 154:./inc/stm32f1xx_ll_rcc.h ****   */
 155:./inc/stm32f1xx_ll_rcc.h **** #define LL_RCC_CIR_LSIRDYIE               RCC_CIR_LSIRDYIE      /*!< LSI Ready Interrupt Enable */
 156:./inc/stm32f1xx_ll_rcc.h **** #define LL_RCC_CIR_LSERDYIE               RCC_CIR_LSERDYIE      /*!< LSE Ready Interrupt Enable */
 157:./inc/stm32f1xx_ll_rcc.h **** #define LL_RCC_CIR_HSIRDYIE               RCC_CIR_HSIRDYIE      /*!< HSI Ready Interrupt Enable */
 158:./inc/stm32f1xx_ll_rcc.h **** #define LL_RCC_CIR_HSERDYIE               RCC_CIR_HSERDYIE      /*!< HSE Ready Interrupt Enable */
 159:./inc/stm32f1xx_ll_rcc.h **** #define LL_RCC_CIR_PLLRDYIE               RCC_CIR_PLLRDYIE      /*!< PLL Ready Interrupt Enable */
 160:./inc/stm32f1xx_ll_rcc.h **** #define LL_RCC_CIR_PLL3RDYIE              RCC_CIR_PLL3RDYIE     /*!< PLL3(PLLI2S) Ready Interrupt E
 161:./inc/stm32f1xx_ll_rcc.h **** #define LL_RCC_CIR_PLL2RDYIE              RCC_CIR_PLL2RDYIE     /*!< PLL2 Ready Interrupt Enable */
 162:./inc/stm32f1xx_ll_rcc.h **** /**
 163:./inc/stm32f1xx_ll_rcc.h ****   * @}
 164:./inc/stm32f1xx_ll_rcc.h ****   */
 165:./inc/stm32f1xx_ll_rcc.h **** 
 166:./inc/stm32f1xx_ll_rcc.h **** #if defined(RCC_CFGR2_PREDIV2)
 167:./inc/stm32f1xx_ll_rcc.h **** /** @defgroup RCC_LL_EC_HSE_PREDIV2_DIV HSE PREDIV2 Division factor
 168:./inc/stm32f1xx_ll_rcc.h ****   * @{
 169:./inc/stm32f1xx_ll_rcc.h ****   */
 170:./inc/stm32f1xx_ll_rcc.h **** #define LL_RCC_HSE_PREDIV2_DIV_1           RCC_CFGR2_PREDIV2_DIV1   /*!< PREDIV2 input clock not di
 171:./inc/stm32f1xx_ll_rcc.h **** #define LL_RCC_HSE_PREDIV2_DIV_2           RCC_CFGR2_PREDIV2_DIV2   /*!< PREDIV2 input clock divide
 172:./inc/stm32f1xx_ll_rcc.h **** #define LL_RCC_HSE_PREDIV2_DIV_3           RCC_CFGR2_PREDIV2_DIV3   /*!< PREDIV2 input clock divide
 173:./inc/stm32f1xx_ll_rcc.h **** #define LL_RCC_HSE_PREDIV2_DIV_4           RCC_CFGR2_PREDIV2_DIV4   /*!< PREDIV2 input clock divide
 174:./inc/stm32f1xx_ll_rcc.h **** #define LL_RCC_HSE_PREDIV2_DIV_5           RCC_CFGR2_PREDIV2_DIV5   /*!< PREDIV2 input clock divide
 175:./inc/stm32f1xx_ll_rcc.h **** #define LL_RCC_HSE_PREDIV2_DIV_6           RCC_CFGR2_PREDIV2_DIV6   /*!< PREDIV2 input clock divide
 176:./inc/stm32f1xx_ll_rcc.h **** #define LL_RCC_HSE_PREDIV2_DIV_7           RCC_CFGR2_PREDIV2_DIV7   /*!< PREDIV2 input clock divide
 177:./inc/stm32f1xx_ll_rcc.h **** #define LL_RCC_HSE_PREDIV2_DIV_8           RCC_CFGR2_PREDIV2_DIV8   /*!< PREDIV2 input clock divide
 178:./inc/stm32f1xx_ll_rcc.h **** #define LL_RCC_HSE_PREDIV2_DIV_9           RCC_CFGR2_PREDIV2_DIV9   /*!< PREDIV2 input clock divide
 179:./inc/stm32f1xx_ll_rcc.h **** #define LL_RCC_HSE_PREDIV2_DIV_10          RCC_CFGR2_PREDIV2_DIV10  /*!< PREDIV2 input clock divide
 180:./inc/stm32f1xx_ll_rcc.h **** #define LL_RCC_HSE_PREDIV2_DIV_11          RCC_CFGR2_PREDIV2_DIV11  /*!< PREDIV2 input clock divide
 181:./inc/stm32f1xx_ll_rcc.h **** #define LL_RCC_HSE_PREDIV2_DIV_12          RCC_CFGR2_PREDIV2_DIV12  /*!< PREDIV2 input clock divide
 182:./inc/stm32f1xx_ll_rcc.h **** #define LL_RCC_HSE_PREDIV2_DIV_13          RCC_CFGR2_PREDIV2_DIV13  /*!< PREDIV2 input clock divide
 183:./inc/stm32f1xx_ll_rcc.h **** #define LL_RCC_HSE_PREDIV2_DIV_14          RCC_CFGR2_PREDIV2_DIV14  /*!< PREDIV2 input clock divide
ARM GAS  /tmp/ccgFoonV.s 			page 25


 184:./inc/stm32f1xx_ll_rcc.h **** #define LL_RCC_HSE_PREDIV2_DIV_15          RCC_CFGR2_PREDIV2_DIV15  /*!< PREDIV2 input clock divide
 185:./inc/stm32f1xx_ll_rcc.h **** #define LL_RCC_HSE_PREDIV2_DIV_16          RCC_CFGR2_PREDIV2_DIV16  /*!< PREDIV2 input clock divide
 186:./inc/stm32f1xx_ll_rcc.h **** /**
 187:./inc/stm32f1xx_ll_rcc.h ****   * @}
 188:./inc/stm32f1xx_ll_rcc.h ****   */
 189:./inc/stm32f1xx_ll_rcc.h **** 
 190:./inc/stm32f1xx_ll_rcc.h **** #endif /* RCC_CFGR2_PREDIV2 */
 191:./inc/stm32f1xx_ll_rcc.h **** 
 192:./inc/stm32f1xx_ll_rcc.h **** /** @defgroup RCC_LL_EC_SYS_CLKSOURCE  System clock switch
 193:./inc/stm32f1xx_ll_rcc.h ****   * @{
 194:./inc/stm32f1xx_ll_rcc.h ****   */
 195:./inc/stm32f1xx_ll_rcc.h **** #define LL_RCC_SYS_CLKSOURCE_HSI           RCC_CFGR_SW_HSI    /*!< HSI selection as system clock */
 196:./inc/stm32f1xx_ll_rcc.h **** #define LL_RCC_SYS_CLKSOURCE_HSE           RCC_CFGR_SW_HSE    /*!< HSE selection as system clock */
 197:./inc/stm32f1xx_ll_rcc.h **** #define LL_RCC_SYS_CLKSOURCE_PLL           RCC_CFGR_SW_PLL    /*!< PLL selection as system clock */
 198:./inc/stm32f1xx_ll_rcc.h **** /**
 199:./inc/stm32f1xx_ll_rcc.h ****   * @}
 200:./inc/stm32f1xx_ll_rcc.h ****   */
 201:./inc/stm32f1xx_ll_rcc.h **** 
 202:./inc/stm32f1xx_ll_rcc.h **** /** @defgroup RCC_LL_EC_SYS_CLKSOURCE_STATUS  System clock switch status
 203:./inc/stm32f1xx_ll_rcc.h ****   * @{
 204:./inc/stm32f1xx_ll_rcc.h ****   */
 205:./inc/stm32f1xx_ll_rcc.h **** #define LL_RCC_SYS_CLKSOURCE_STATUS_HSI    RCC_CFGR_SWS_HSI   /*!< HSI used as system clock */
 206:./inc/stm32f1xx_ll_rcc.h **** #define LL_RCC_SYS_CLKSOURCE_STATUS_HSE    RCC_CFGR_SWS_HSE   /*!< HSE used as system clock */
 207:./inc/stm32f1xx_ll_rcc.h **** #define LL_RCC_SYS_CLKSOURCE_STATUS_PLL    RCC_CFGR_SWS_PLL   /*!< PLL used as system clock */
 208:./inc/stm32f1xx_ll_rcc.h **** /**
 209:./inc/stm32f1xx_ll_rcc.h ****   * @}
 210:./inc/stm32f1xx_ll_rcc.h ****   */
 211:./inc/stm32f1xx_ll_rcc.h **** 
 212:./inc/stm32f1xx_ll_rcc.h **** /** @defgroup RCC_LL_EC_SYSCLK_DIV  AHB prescaler
 213:./inc/stm32f1xx_ll_rcc.h ****   * @{
 214:./inc/stm32f1xx_ll_rcc.h ****   */
 215:./inc/stm32f1xx_ll_rcc.h **** #define LL_RCC_SYSCLK_DIV_1                RCC_CFGR_HPRE_DIV1   /*!< SYSCLK not divided */
 216:./inc/stm32f1xx_ll_rcc.h **** #define LL_RCC_SYSCLK_DIV_2                RCC_CFGR_HPRE_DIV2   /*!< SYSCLK divided by 2 */
 217:./inc/stm32f1xx_ll_rcc.h **** #define LL_RCC_SYSCLK_DIV_4                RCC_CFGR_HPRE_DIV4   /*!< SYSCLK divided by 4 */
 218:./inc/stm32f1xx_ll_rcc.h **** #define LL_RCC_SYSCLK_DIV_8                RCC_CFGR_HPRE_DIV8   /*!< SYSCLK divided by 8 */
 219:./inc/stm32f1xx_ll_rcc.h **** #define LL_RCC_SYSCLK_DIV_16               RCC_CFGR_HPRE_DIV16  /*!< SYSCLK divided by 16 */
 220:./inc/stm32f1xx_ll_rcc.h **** #define LL_RCC_SYSCLK_DIV_64               RCC_CFGR_HPRE_DIV64  /*!< SYSCLK divided by 64 */
 221:./inc/stm32f1xx_ll_rcc.h **** #define LL_RCC_SYSCLK_DIV_128              RCC_CFGR_HPRE_DIV128 /*!< SYSCLK divided by 128 */
 222:./inc/stm32f1xx_ll_rcc.h **** #define LL_RCC_SYSCLK_DIV_256              RCC_CFGR_HPRE_DIV256 /*!< SYSCLK divided by 256 */
 223:./inc/stm32f1xx_ll_rcc.h **** #define LL_RCC_SYSCLK_DIV_512              RCC_CFGR_HPRE_DIV512 /*!< SYSCLK divided by 512 */
 224:./inc/stm32f1xx_ll_rcc.h **** /**
 225:./inc/stm32f1xx_ll_rcc.h ****   * @}
 226:./inc/stm32f1xx_ll_rcc.h ****   */
 227:./inc/stm32f1xx_ll_rcc.h **** 
 228:./inc/stm32f1xx_ll_rcc.h **** /** @defgroup RCC_LL_EC_APB1_DIV  APB low-speed prescaler (APB1)
 229:./inc/stm32f1xx_ll_rcc.h ****   * @{
 230:./inc/stm32f1xx_ll_rcc.h ****   */
 231:./inc/stm32f1xx_ll_rcc.h **** #define LL_RCC_APB1_DIV_1                  RCC_CFGR_PPRE1_DIV1  /*!< HCLK not divided */
 232:./inc/stm32f1xx_ll_rcc.h **** #define LL_RCC_APB1_DIV_2                  RCC_CFGR_PPRE1_DIV2  /*!< HCLK divided by 2 */
 233:./inc/stm32f1xx_ll_rcc.h **** #define LL_RCC_APB1_DIV_4                  RCC_CFGR_PPRE1_DIV4  /*!< HCLK divided by 4 */
 234:./inc/stm32f1xx_ll_rcc.h **** #define LL_RCC_APB1_DIV_8                  RCC_CFGR_PPRE1_DIV8  /*!< HCLK divided by 8 */
 235:./inc/stm32f1xx_ll_rcc.h **** #define LL_RCC_APB1_DIV_16                 RCC_CFGR_PPRE1_DIV16 /*!< HCLK divided by 16 */
 236:./inc/stm32f1xx_ll_rcc.h **** /**
 237:./inc/stm32f1xx_ll_rcc.h ****   * @}
 238:./inc/stm32f1xx_ll_rcc.h ****   */
 239:./inc/stm32f1xx_ll_rcc.h **** 
 240:./inc/stm32f1xx_ll_rcc.h **** /** @defgroup RCC_LL_EC_APB2_DIV  APB high-speed prescaler (APB2)
ARM GAS  /tmp/ccgFoonV.s 			page 26


 241:./inc/stm32f1xx_ll_rcc.h ****   * @{
 242:./inc/stm32f1xx_ll_rcc.h ****   */
 243:./inc/stm32f1xx_ll_rcc.h **** #define LL_RCC_APB2_DIV_1                  RCC_CFGR_PPRE2_DIV1  /*!< HCLK not divided */
 244:./inc/stm32f1xx_ll_rcc.h **** #define LL_RCC_APB2_DIV_2                  RCC_CFGR_PPRE2_DIV2  /*!< HCLK divided by 2 */
 245:./inc/stm32f1xx_ll_rcc.h **** #define LL_RCC_APB2_DIV_4                  RCC_CFGR_PPRE2_DIV4  /*!< HCLK divided by 4 */
 246:./inc/stm32f1xx_ll_rcc.h **** #define LL_RCC_APB2_DIV_8                  RCC_CFGR_PPRE2_DIV8  /*!< HCLK divided by 8 */
 247:./inc/stm32f1xx_ll_rcc.h **** #define LL_RCC_APB2_DIV_16                 RCC_CFGR_PPRE2_DIV16 /*!< HCLK divided by 16 */
 248:./inc/stm32f1xx_ll_rcc.h **** /**
 249:./inc/stm32f1xx_ll_rcc.h ****   * @}
 250:./inc/stm32f1xx_ll_rcc.h ****   */
 251:./inc/stm32f1xx_ll_rcc.h **** 
 252:./inc/stm32f1xx_ll_rcc.h **** /** @defgroup RCC_LL_EC_MCO1SOURCE  MCO1 SOURCE selection
 253:./inc/stm32f1xx_ll_rcc.h ****   * @{
 254:./inc/stm32f1xx_ll_rcc.h ****   */
 255:./inc/stm32f1xx_ll_rcc.h **** #define LL_RCC_MCO1SOURCE_NOCLOCK          RCC_CFGR_MCO_NOCLOCK      /*!< MCO output disabled, no c
 256:./inc/stm32f1xx_ll_rcc.h **** #define LL_RCC_MCO1SOURCE_SYSCLK           RCC_CFGR_MCO_SYSCLK       /*!< SYSCLK selection as MCO s
 257:./inc/stm32f1xx_ll_rcc.h **** #define LL_RCC_MCO1SOURCE_HSI              RCC_CFGR_MCO_HSI          /*!< HSI selection as MCO sour
 258:./inc/stm32f1xx_ll_rcc.h **** #define LL_RCC_MCO1SOURCE_HSE              RCC_CFGR_MCO_HSE          /*!< HSE selection as MCO sour
 259:./inc/stm32f1xx_ll_rcc.h **** #define LL_RCC_MCO1SOURCE_PLLCLK_DIV_2     RCC_CFGR_MCO_PLLCLK_DIV2  /*!< PLL clock divided by 2*/
 260:./inc/stm32f1xx_ll_rcc.h **** #if defined(RCC_CFGR_MCO_PLL2CLK)
 261:./inc/stm32f1xx_ll_rcc.h **** #define LL_RCC_MCO1SOURCE_PLL2CLK          RCC_CFGR_MCO_PLL2CLK      /*!< PLL2 clock selected as MC
 262:./inc/stm32f1xx_ll_rcc.h **** #endif /* RCC_CFGR_MCO_PLL2CLK */
 263:./inc/stm32f1xx_ll_rcc.h **** #if defined(RCC_CFGR_MCO_PLL3CLK_DIV2)
 264:./inc/stm32f1xx_ll_rcc.h **** #define LL_RCC_MCO1SOURCE_PLLI2SCLK_DIV2   RCC_CFGR_MCO_PLL3CLK_DIV2 /*!< PLLI2S clock divided by 2
 265:./inc/stm32f1xx_ll_rcc.h **** #endif /* RCC_CFGR_MCO_PLL3CLK_DIV2 */
 266:./inc/stm32f1xx_ll_rcc.h **** #if defined(RCC_CFGR_MCO_EXT_HSE)
 267:./inc/stm32f1xx_ll_rcc.h **** #define LL_RCC_MCO1SOURCE_EXT_HSE          RCC_CFGR_MCO_EXT_HSE      /*!< XT1 external 3-25 MHz osc
 268:./inc/stm32f1xx_ll_rcc.h **** #endif /* RCC_CFGR_MCO_EXT_HSE */
 269:./inc/stm32f1xx_ll_rcc.h **** #if defined(RCC_CFGR_MCO_PLL3CLK)
 270:./inc/stm32f1xx_ll_rcc.h **** #define LL_RCC_MCO1SOURCE_PLLI2SCLK        RCC_CFGR_MCO_PLL3CLK      /*!< PLLI2S clock selected as 
 271:./inc/stm32f1xx_ll_rcc.h **** #endif /* RCC_CFGR_MCO_PLL3CLK */
 272:./inc/stm32f1xx_ll_rcc.h **** /**
 273:./inc/stm32f1xx_ll_rcc.h ****   * @}
 274:./inc/stm32f1xx_ll_rcc.h ****   */
 275:./inc/stm32f1xx_ll_rcc.h **** 
 276:./inc/stm32f1xx_ll_rcc.h **** #if defined(USE_FULL_LL_DRIVER)
 277:./inc/stm32f1xx_ll_rcc.h **** /** @defgroup RCC_LL_EC_PERIPH_FREQUENCY Peripheral clock frequency
 278:./inc/stm32f1xx_ll_rcc.h ****   * @{
 279:./inc/stm32f1xx_ll_rcc.h ****   */
 280:./inc/stm32f1xx_ll_rcc.h **** #define LL_RCC_PERIPH_FREQUENCY_NO         0x00000000U      /*!< No clock enabled for the periphera
 281:./inc/stm32f1xx_ll_rcc.h **** #define LL_RCC_PERIPH_FREQUENCY_NA         0xFFFFFFFFU      /*!< Frequency cannot be provided as ex
 282:./inc/stm32f1xx_ll_rcc.h **** /**
 283:./inc/stm32f1xx_ll_rcc.h ****   * @}
 284:./inc/stm32f1xx_ll_rcc.h ****   */
 285:./inc/stm32f1xx_ll_rcc.h **** #endif /* USE_FULL_LL_DRIVER */
 286:./inc/stm32f1xx_ll_rcc.h **** 
 287:./inc/stm32f1xx_ll_rcc.h **** #if defined(RCC_CFGR2_I2S2SRC)
 288:./inc/stm32f1xx_ll_rcc.h **** /** @defgroup RCC_LL_EC_I2S2CLKSOURCE Peripheral I2S clock source selection
 289:./inc/stm32f1xx_ll_rcc.h ****   * @{
 290:./inc/stm32f1xx_ll_rcc.h ****   */
 291:./inc/stm32f1xx_ll_rcc.h **** #define LL_RCC_I2S2_CLKSOURCE_SYSCLK        RCC_CFGR2_I2S2SRC                                      
 292:./inc/stm32f1xx_ll_rcc.h **** #define LL_RCC_I2S2_CLKSOURCE_PLLI2S_VCO    (uint32_t)(RCC_CFGR2_I2S2SRC | (RCC_CFGR2_I2S2SRC >> 16
 293:./inc/stm32f1xx_ll_rcc.h **** #define LL_RCC_I2S3_CLKSOURCE_SYSCLK        RCC_CFGR2_I2S3SRC                                      
 294:./inc/stm32f1xx_ll_rcc.h **** #define LL_RCC_I2S3_CLKSOURCE_PLLI2S_VCO    (uint32_t)(RCC_CFGR2_I2S3SRC | (RCC_CFGR2_I2S3SRC >> 16
 295:./inc/stm32f1xx_ll_rcc.h **** /**
 296:./inc/stm32f1xx_ll_rcc.h ****   * @}
 297:./inc/stm32f1xx_ll_rcc.h ****   */
ARM GAS  /tmp/ccgFoonV.s 			page 27


 298:./inc/stm32f1xx_ll_rcc.h **** #endif /* RCC_CFGR2_I2S2SRC */
 299:./inc/stm32f1xx_ll_rcc.h **** 
 300:./inc/stm32f1xx_ll_rcc.h **** #if defined(USB_OTG_FS) || defined(USB)
 301:./inc/stm32f1xx_ll_rcc.h **** /** @defgroup RCC_LL_EC_USB_CLKSOURCE Peripheral USB clock source selection
 302:./inc/stm32f1xx_ll_rcc.h ****   * @{
 303:./inc/stm32f1xx_ll_rcc.h ****   */
 304:./inc/stm32f1xx_ll_rcc.h **** #if defined(RCC_CFGR_USBPRE)
 305:./inc/stm32f1xx_ll_rcc.h **** #define LL_RCC_USB_CLKSOURCE_PLL             RCC_CFGR_USBPRE        /*!< PLL clock is not divided *
 306:./inc/stm32f1xx_ll_rcc.h **** #define LL_RCC_USB_CLKSOURCE_PLL_DIV_1_5     0x00000000U            /*!< PLL clock is divided by 1.
 307:./inc/stm32f1xx_ll_rcc.h **** #endif /*RCC_CFGR_USBPRE*/
 308:./inc/stm32f1xx_ll_rcc.h **** #if defined(RCC_CFGR_OTGFSPRE)
 309:./inc/stm32f1xx_ll_rcc.h **** #define LL_RCC_USB_CLKSOURCE_PLL_DIV_2       RCC_CFGR_OTGFSPRE      /*!< PLL clock is divided by 2 
 310:./inc/stm32f1xx_ll_rcc.h **** #define LL_RCC_USB_CLKSOURCE_PLL_DIV_3       0x00000000U            /*!< PLL clock is divided by 3 
 311:./inc/stm32f1xx_ll_rcc.h **** #endif /*RCC_CFGR_OTGFSPRE*/
 312:./inc/stm32f1xx_ll_rcc.h **** /**
 313:./inc/stm32f1xx_ll_rcc.h ****   * @}
 314:./inc/stm32f1xx_ll_rcc.h ****   */
 315:./inc/stm32f1xx_ll_rcc.h **** #endif /* USB_OTG_FS || USB */
 316:./inc/stm32f1xx_ll_rcc.h **** 
 317:./inc/stm32f1xx_ll_rcc.h **** /** @defgroup RCC_LL_EC_ADC_CLKSOURCE_PCLK2 Peripheral ADC clock source selection
 318:./inc/stm32f1xx_ll_rcc.h ****   * @{
 319:./inc/stm32f1xx_ll_rcc.h ****   */
 320:./inc/stm32f1xx_ll_rcc.h **** #define LL_RCC_ADC_CLKSRC_PCLK2_DIV_2    RCC_CFGR_ADCPRE_DIV2 /*ADC prescaler PCLK2 divided by 2*/
 321:./inc/stm32f1xx_ll_rcc.h **** #define LL_RCC_ADC_CLKSRC_PCLK2_DIV_4    RCC_CFGR_ADCPRE_DIV4 /*ADC prescaler PCLK2 divided by 4*/
 322:./inc/stm32f1xx_ll_rcc.h **** #define LL_RCC_ADC_CLKSRC_PCLK2_DIV_6    RCC_CFGR_ADCPRE_DIV6 /*ADC prescaler PCLK2 divided by 6*/
 323:./inc/stm32f1xx_ll_rcc.h **** #define LL_RCC_ADC_CLKSRC_PCLK2_DIV_8    RCC_CFGR_ADCPRE_DIV8 /*ADC prescaler PCLK2 divided by 8*/
 324:./inc/stm32f1xx_ll_rcc.h **** /**
 325:./inc/stm32f1xx_ll_rcc.h ****   * @}
 326:./inc/stm32f1xx_ll_rcc.h ****   */
 327:./inc/stm32f1xx_ll_rcc.h **** 
 328:./inc/stm32f1xx_ll_rcc.h **** #if defined(RCC_CFGR2_I2S2SRC)
 329:./inc/stm32f1xx_ll_rcc.h **** /** @defgroup RCC_LL_EC_I2S2 Peripheral I2S get clock source
 330:./inc/stm32f1xx_ll_rcc.h ****   * @{
 331:./inc/stm32f1xx_ll_rcc.h ****   */
 332:./inc/stm32f1xx_ll_rcc.h **** #define LL_RCC_I2S2_CLKSOURCE              RCC_CFGR2_I2S2SRC       /*!< I2S2 Clock source selection
 333:./inc/stm32f1xx_ll_rcc.h **** #define LL_RCC_I2S3_CLKSOURCE              RCC_CFGR2_I2S3SRC       /*!< I2S3 Clock source selection
 334:./inc/stm32f1xx_ll_rcc.h **** /**
 335:./inc/stm32f1xx_ll_rcc.h ****   * @}
 336:./inc/stm32f1xx_ll_rcc.h ****   */
 337:./inc/stm32f1xx_ll_rcc.h **** 
 338:./inc/stm32f1xx_ll_rcc.h **** #endif /* RCC_CFGR2_I2S2SRC */
 339:./inc/stm32f1xx_ll_rcc.h **** 
 340:./inc/stm32f1xx_ll_rcc.h **** #if defined(USB_OTG_FS) || defined(USB)
 341:./inc/stm32f1xx_ll_rcc.h **** /** @defgroup RCC_LL_EC_USB Peripheral USB get clock source
 342:./inc/stm32f1xx_ll_rcc.h ****   * @{
 343:./inc/stm32f1xx_ll_rcc.h ****   */
 344:./inc/stm32f1xx_ll_rcc.h **** #define LL_RCC_USB_CLKSOURCE               0x00400000U     /*!< USB Clock source selection */
 345:./inc/stm32f1xx_ll_rcc.h **** /**
 346:./inc/stm32f1xx_ll_rcc.h ****   * @}
 347:./inc/stm32f1xx_ll_rcc.h ****   */
 348:./inc/stm32f1xx_ll_rcc.h **** 
 349:./inc/stm32f1xx_ll_rcc.h **** #endif /* USB_OTG_FS || USB */
 350:./inc/stm32f1xx_ll_rcc.h **** 
 351:./inc/stm32f1xx_ll_rcc.h **** /** @defgroup RCC_LL_EC_ADC Peripheral ADC get clock source
 352:./inc/stm32f1xx_ll_rcc.h ****   * @{
 353:./inc/stm32f1xx_ll_rcc.h ****   */
 354:./inc/stm32f1xx_ll_rcc.h **** #define LL_RCC_ADC_CLKSOURCE               RCC_CFGR_ADCPRE /*!< ADC Clock source selection */
ARM GAS  /tmp/ccgFoonV.s 			page 28


 355:./inc/stm32f1xx_ll_rcc.h **** /**
 356:./inc/stm32f1xx_ll_rcc.h ****   * @}
 357:./inc/stm32f1xx_ll_rcc.h ****   */
 358:./inc/stm32f1xx_ll_rcc.h **** 
 359:./inc/stm32f1xx_ll_rcc.h **** /** @defgroup RCC_LL_EC_RTC_CLKSOURCE  RTC clock source selection
 360:./inc/stm32f1xx_ll_rcc.h ****   * @{
 361:./inc/stm32f1xx_ll_rcc.h ****   */
 362:./inc/stm32f1xx_ll_rcc.h **** #define LL_RCC_RTC_CLKSOURCE_NONE          0x00000000U             /*!< No clock used as RTC clock 
 363:./inc/stm32f1xx_ll_rcc.h **** #define LL_RCC_RTC_CLKSOURCE_LSE           RCC_BDCR_RTCSEL_0       /*!< LSE oscillator clock used a
 364:./inc/stm32f1xx_ll_rcc.h **** #define LL_RCC_RTC_CLKSOURCE_LSI           RCC_BDCR_RTCSEL_1       /*!< LSI oscillator clock used a
 365:./inc/stm32f1xx_ll_rcc.h **** #define LL_RCC_RTC_CLKSOURCE_HSE_DIV128    RCC_BDCR_RTCSEL         /*!< HSE oscillator clock divide
 366:./inc/stm32f1xx_ll_rcc.h **** /**
 367:./inc/stm32f1xx_ll_rcc.h ****   * @}
 368:./inc/stm32f1xx_ll_rcc.h ****   */
 369:./inc/stm32f1xx_ll_rcc.h **** 
 370:./inc/stm32f1xx_ll_rcc.h **** /** @defgroup RCC_LL_EC_PLL_MUL PLL Multiplicator factor
 371:./inc/stm32f1xx_ll_rcc.h ****   * @{
 372:./inc/stm32f1xx_ll_rcc.h ****   */
 373:./inc/stm32f1xx_ll_rcc.h **** #if defined(RCC_CFGR_PLLMULL2)
 374:./inc/stm32f1xx_ll_rcc.h **** #define LL_RCC_PLL_MUL_2                   RCC_CFGR_PLLMULL2  /*!< PLL input clock*2 */
 375:./inc/stm32f1xx_ll_rcc.h **** #endif /*RCC_CFGR_PLLMULL2*/
 376:./inc/stm32f1xx_ll_rcc.h **** #if defined(RCC_CFGR_PLLMULL3)
 377:./inc/stm32f1xx_ll_rcc.h **** #define LL_RCC_PLL_MUL_3                   RCC_CFGR_PLLMULL3  /*!< PLL input clock*3 */
 378:./inc/stm32f1xx_ll_rcc.h **** #endif /*RCC_CFGR_PLLMULL3*/
 379:./inc/stm32f1xx_ll_rcc.h **** #define LL_RCC_PLL_MUL_4                   RCC_CFGR_PLLMULL4  /*!< PLL input clock*4 */
 380:./inc/stm32f1xx_ll_rcc.h **** #define LL_RCC_PLL_MUL_5                   RCC_CFGR_PLLMULL5  /*!< PLL input clock*5 */
 381:./inc/stm32f1xx_ll_rcc.h **** #define LL_RCC_PLL_MUL_6                   RCC_CFGR_PLLMULL6  /*!< PLL input clock*6 */
 382:./inc/stm32f1xx_ll_rcc.h **** #define LL_RCC_PLL_MUL_7                   RCC_CFGR_PLLMULL7  /*!< PLL input clock*7 */
 383:./inc/stm32f1xx_ll_rcc.h **** #define LL_RCC_PLL_MUL_8                   RCC_CFGR_PLLMULL8  /*!< PLL input clock*8 */
 384:./inc/stm32f1xx_ll_rcc.h **** #define LL_RCC_PLL_MUL_9                   RCC_CFGR_PLLMULL9  /*!< PLL input clock*9 */
 385:./inc/stm32f1xx_ll_rcc.h **** #if defined(RCC_CFGR_PLLMULL6_5)
 386:./inc/stm32f1xx_ll_rcc.h **** #define LL_RCC_PLL_MUL_6_5                 RCC_CFGR_PLLMULL6_5 /*!< PLL input clock*6 */
 387:./inc/stm32f1xx_ll_rcc.h **** #else
 388:./inc/stm32f1xx_ll_rcc.h **** #define LL_RCC_PLL_MUL_10                  RCC_CFGR_PLLMULL10  /*!< PLL input clock*10 */
 389:./inc/stm32f1xx_ll_rcc.h **** #define LL_RCC_PLL_MUL_11                  RCC_CFGR_PLLMULL11  /*!< PLL input clock*11 */
 390:./inc/stm32f1xx_ll_rcc.h **** #define LL_RCC_PLL_MUL_12                  RCC_CFGR_PLLMULL12  /*!< PLL input clock*12 */
 391:./inc/stm32f1xx_ll_rcc.h **** #define LL_RCC_PLL_MUL_13                  RCC_CFGR_PLLMULL13  /*!< PLL input clock*13 */
 392:./inc/stm32f1xx_ll_rcc.h **** #define LL_RCC_PLL_MUL_14                  RCC_CFGR_PLLMULL14  /*!< PLL input clock*14 */
 393:./inc/stm32f1xx_ll_rcc.h **** #define LL_RCC_PLL_MUL_15                  RCC_CFGR_PLLMULL15  /*!< PLL input clock*15 */
 394:./inc/stm32f1xx_ll_rcc.h **** #define LL_RCC_PLL_MUL_16                  RCC_CFGR_PLLMULL16  /*!< PLL input clock*16 */
 395:./inc/stm32f1xx_ll_rcc.h **** #endif /*RCC_CFGR_PLLMULL6_5*/
 396:./inc/stm32f1xx_ll_rcc.h **** /**
 397:./inc/stm32f1xx_ll_rcc.h ****   * @}
 398:./inc/stm32f1xx_ll_rcc.h ****   */
 399:./inc/stm32f1xx_ll_rcc.h **** 
 400:./inc/stm32f1xx_ll_rcc.h **** /** @defgroup RCC_LL_EC_PLLSOURCE PLL SOURCE
 401:./inc/stm32f1xx_ll_rcc.h ****   * @{
 402:./inc/stm32f1xx_ll_rcc.h ****   */
 403:./inc/stm32f1xx_ll_rcc.h **** #define LL_RCC_PLLSOURCE_HSI_DIV_2         0x00000000U                                    /*!< HSI 
 404:./inc/stm32f1xx_ll_rcc.h **** #define LL_RCC_PLLSOURCE_HSE               RCC_CFGR_PLLSRC                                /*!< HSE/
 405:./inc/stm32f1xx_ll_rcc.h **** #if defined(RCC_CFGR2_PREDIV1SRC)
 406:./inc/stm32f1xx_ll_rcc.h **** #define LL_RCC_PLLSOURCE_PLL2              (RCC_CFGR_PLLSRC | RCC_CFGR2_PREDIV1SRC << 4U) /*!< PLL2
 407:./inc/stm32f1xx_ll_rcc.h **** #endif /*RCC_CFGR2_PREDIV1SRC*/
 408:./inc/stm32f1xx_ll_rcc.h **** 
 409:./inc/stm32f1xx_ll_rcc.h **** #if defined(RCC_CFGR2_PREDIV1)
 410:./inc/stm32f1xx_ll_rcc.h **** #define LL_RCC_PLLSOURCE_HSE_DIV_1         (RCC_CFGR_PLLSRC | RCC_CFGR2_PREDIV1_DIV1)    /*!< HSE/1
 411:./inc/stm32f1xx_ll_rcc.h **** #define LL_RCC_PLLSOURCE_HSE_DIV_2         (RCC_CFGR_PLLSRC | RCC_CFGR2_PREDIV1_DIV2)    /*!< HSE/2
ARM GAS  /tmp/ccgFoonV.s 			page 29


 412:./inc/stm32f1xx_ll_rcc.h **** #define LL_RCC_PLLSOURCE_HSE_DIV_3         (RCC_CFGR_PLLSRC | RCC_CFGR2_PREDIV1_DIV3)    /*!< HSE/3
 413:./inc/stm32f1xx_ll_rcc.h **** #define LL_RCC_PLLSOURCE_HSE_DIV_4         (RCC_CFGR_PLLSRC | RCC_CFGR2_PREDIV1_DIV4)    /*!< HSE/4
 414:./inc/stm32f1xx_ll_rcc.h **** #define LL_RCC_PLLSOURCE_HSE_DIV_5         (RCC_CFGR_PLLSRC | RCC_CFGR2_PREDIV1_DIV5)    /*!< HSE/5
 415:./inc/stm32f1xx_ll_rcc.h **** #define LL_RCC_PLLSOURCE_HSE_DIV_6         (RCC_CFGR_PLLSRC | RCC_CFGR2_PREDIV1_DIV6)    /*!< HSE/6
 416:./inc/stm32f1xx_ll_rcc.h **** #define LL_RCC_PLLSOURCE_HSE_DIV_7         (RCC_CFGR_PLLSRC | RCC_CFGR2_PREDIV1_DIV7)    /*!< HSE/7
 417:./inc/stm32f1xx_ll_rcc.h **** #define LL_RCC_PLLSOURCE_HSE_DIV_8         (RCC_CFGR_PLLSRC | RCC_CFGR2_PREDIV1_DIV8)    /*!< HSE/8
 418:./inc/stm32f1xx_ll_rcc.h **** #define LL_RCC_PLLSOURCE_HSE_DIV_9         (RCC_CFGR_PLLSRC | RCC_CFGR2_PREDIV1_DIV9)    /*!< HSE/9
 419:./inc/stm32f1xx_ll_rcc.h **** #define LL_RCC_PLLSOURCE_HSE_DIV_10        (RCC_CFGR_PLLSRC | RCC_CFGR2_PREDIV1_DIV10)   /*!< HSE/1
 420:./inc/stm32f1xx_ll_rcc.h **** #define LL_RCC_PLLSOURCE_HSE_DIV_11        (RCC_CFGR_PLLSRC | RCC_CFGR2_PREDIV1_DIV11)   /*!< HSE/1
 421:./inc/stm32f1xx_ll_rcc.h **** #define LL_RCC_PLLSOURCE_HSE_DIV_12        (RCC_CFGR_PLLSRC | RCC_CFGR2_PREDIV1_DIV12)   /*!< HSE/1
 422:./inc/stm32f1xx_ll_rcc.h **** #define LL_RCC_PLLSOURCE_HSE_DIV_13        (RCC_CFGR_PLLSRC | RCC_CFGR2_PREDIV1_DIV13)   /*!< HSE/1
 423:./inc/stm32f1xx_ll_rcc.h **** #define LL_RCC_PLLSOURCE_HSE_DIV_14        (RCC_CFGR_PLLSRC | RCC_CFGR2_PREDIV1_DIV14)   /*!< HSE/1
 424:./inc/stm32f1xx_ll_rcc.h **** #define LL_RCC_PLLSOURCE_HSE_DIV_15        (RCC_CFGR_PLLSRC | RCC_CFGR2_PREDIV1_DIV15)   /*!< HSE/1
 425:./inc/stm32f1xx_ll_rcc.h **** #define LL_RCC_PLLSOURCE_HSE_DIV_16        (RCC_CFGR_PLLSRC | RCC_CFGR2_PREDIV1_DIV16)   /*!< HSE/1
 426:./inc/stm32f1xx_ll_rcc.h **** #if defined(RCC_CFGR2_PREDIV1SRC)
 427:./inc/stm32f1xx_ll_rcc.h **** #define LL_RCC_PLLSOURCE_PLL2_DIV_1        (RCC_CFGR_PLLSRC | RCC_CFGR2_PREDIV1_DIV1 | RCC_CFGR2_PR
 428:./inc/stm32f1xx_ll_rcc.h **** #define LL_RCC_PLLSOURCE_PLL2_DIV_2        (RCC_CFGR_PLLSRC | RCC_CFGR2_PREDIV1_DIV2 | RCC_CFGR2_PR
 429:./inc/stm32f1xx_ll_rcc.h **** #define LL_RCC_PLLSOURCE_PLL2_DIV_3        (RCC_CFGR_PLLSRC | RCC_CFGR2_PREDIV1_DIV3 | RCC_CFGR2_PR
 430:./inc/stm32f1xx_ll_rcc.h **** #define LL_RCC_PLLSOURCE_PLL2_DIV_4        (RCC_CFGR_PLLSRC | RCC_CFGR2_PREDIV1_DIV4 | RCC_CFGR2_PR
 431:./inc/stm32f1xx_ll_rcc.h **** #define LL_RCC_PLLSOURCE_PLL2_DIV_5        (RCC_CFGR_PLLSRC | RCC_CFGR2_PREDIV1_DIV5 | RCC_CFGR2_PR
 432:./inc/stm32f1xx_ll_rcc.h **** #define LL_RCC_PLLSOURCE_PLL2_DIV_6        (RCC_CFGR_PLLSRC | RCC_CFGR2_PREDIV1_DIV6 | RCC_CFGR2_PR
 433:./inc/stm32f1xx_ll_rcc.h **** #define LL_RCC_PLLSOURCE_PLL2_DIV_7        (RCC_CFGR_PLLSRC | RCC_CFGR2_PREDIV1_DIV7 | RCC_CFGR2_PR
 434:./inc/stm32f1xx_ll_rcc.h **** #define LL_RCC_PLLSOURCE_PLL2_DIV_8        (RCC_CFGR_PLLSRC | RCC_CFGR2_PREDIV1_DIV8 | RCC_CFGR2_PR
 435:./inc/stm32f1xx_ll_rcc.h **** #define LL_RCC_PLLSOURCE_PLL2_DIV_9        (RCC_CFGR_PLLSRC | RCC_CFGR2_PREDIV1_DIV9 | RCC_CFGR2_PR
 436:./inc/stm32f1xx_ll_rcc.h **** #define LL_RCC_PLLSOURCE_PLL2_DIV_10       (RCC_CFGR_PLLSRC | RCC_CFGR2_PREDIV1_DIV10 | RCC_CFGR2_P
 437:./inc/stm32f1xx_ll_rcc.h **** #define LL_RCC_PLLSOURCE_PLL2_DIV_11       (RCC_CFGR_PLLSRC | RCC_CFGR2_PREDIV1_DIV11 | RCC_CFGR2_P
 438:./inc/stm32f1xx_ll_rcc.h **** #define LL_RCC_PLLSOURCE_PLL2_DIV_12       (RCC_CFGR_PLLSRC | RCC_CFGR2_PREDIV1_DIV12 | RCC_CFGR2_P
 439:./inc/stm32f1xx_ll_rcc.h **** #define LL_RCC_PLLSOURCE_PLL2_DIV_13       (RCC_CFGR_PLLSRC | RCC_CFGR2_PREDIV1_DIV13 | RCC_CFGR2_P
 440:./inc/stm32f1xx_ll_rcc.h **** #define LL_RCC_PLLSOURCE_PLL2_DIV_14       (RCC_CFGR_PLLSRC | RCC_CFGR2_PREDIV1_DIV14 | RCC_CFGR2_P
 441:./inc/stm32f1xx_ll_rcc.h **** #define LL_RCC_PLLSOURCE_PLL2_DIV_15       (RCC_CFGR_PLLSRC | RCC_CFGR2_PREDIV1_DIV15 | RCC_CFGR2_P
 442:./inc/stm32f1xx_ll_rcc.h **** #define LL_RCC_PLLSOURCE_PLL2_DIV_16       (RCC_CFGR_PLLSRC | RCC_CFGR2_PREDIV1_DIV16 | RCC_CFGR2_P
 443:./inc/stm32f1xx_ll_rcc.h **** #endif /*RCC_CFGR2_PREDIV1SRC*/
 444:./inc/stm32f1xx_ll_rcc.h **** #else
 445:./inc/stm32f1xx_ll_rcc.h **** #define LL_RCC_PLLSOURCE_HSE_DIV_1         (RCC_CFGR_PLLSRC | 0x00000000U)               /*!< HSE/1
 446:./inc/stm32f1xx_ll_rcc.h **** #define LL_RCC_PLLSOURCE_HSE_DIV_2         (RCC_CFGR_PLLSRC | RCC_CFGR_PLLXTPRE)         /*!< HSE/2
 447:./inc/stm32f1xx_ll_rcc.h **** #endif /*RCC_CFGR2_PREDIV1*/
 448:./inc/stm32f1xx_ll_rcc.h **** /**
 449:./inc/stm32f1xx_ll_rcc.h ****   * @}
 450:./inc/stm32f1xx_ll_rcc.h ****   */
 451:./inc/stm32f1xx_ll_rcc.h **** 
 452:./inc/stm32f1xx_ll_rcc.h **** /** @defgroup RCC_LL_EC_PREDIV_DIV PREDIV Division factor
 453:./inc/stm32f1xx_ll_rcc.h ****   * @{
 454:./inc/stm32f1xx_ll_rcc.h ****   */
 455:./inc/stm32f1xx_ll_rcc.h **** #if defined(RCC_CFGR2_PREDIV1)
 456:./inc/stm32f1xx_ll_rcc.h **** #define LL_RCC_PREDIV_DIV_1                RCC_CFGR2_PREDIV1_DIV1   /*!< PREDIV1 input clock not di
 457:./inc/stm32f1xx_ll_rcc.h **** #define LL_RCC_PREDIV_DIV_2                RCC_CFGR2_PREDIV1_DIV2   /*!< PREDIV1 input clock divide
 458:./inc/stm32f1xx_ll_rcc.h **** #define LL_RCC_PREDIV_DIV_3                RCC_CFGR2_PREDIV1_DIV3   /*!< PREDIV1 input clock divide
 459:./inc/stm32f1xx_ll_rcc.h **** #define LL_RCC_PREDIV_DIV_4                RCC_CFGR2_PREDIV1_DIV4   /*!< PREDIV1 input clock divide
 460:./inc/stm32f1xx_ll_rcc.h **** #define LL_RCC_PREDIV_DIV_5                RCC_CFGR2_PREDIV1_DIV5   /*!< PREDIV1 input clock divide
 461:./inc/stm32f1xx_ll_rcc.h **** #define LL_RCC_PREDIV_DIV_6                RCC_CFGR2_PREDIV1_DIV6   /*!< PREDIV1 input clock divide
 462:./inc/stm32f1xx_ll_rcc.h **** #define LL_RCC_PREDIV_DIV_7                RCC_CFGR2_PREDIV1_DIV7   /*!< PREDIV1 input clock divide
 463:./inc/stm32f1xx_ll_rcc.h **** #define LL_RCC_PREDIV_DIV_8                RCC_CFGR2_PREDIV1_DIV8   /*!< PREDIV1 input clock divide
 464:./inc/stm32f1xx_ll_rcc.h **** #define LL_RCC_PREDIV_DIV_9                RCC_CFGR2_PREDIV1_DIV9   /*!< PREDIV1 input clock divide
 465:./inc/stm32f1xx_ll_rcc.h **** #define LL_RCC_PREDIV_DIV_10               RCC_CFGR2_PREDIV1_DIV10  /*!< PREDIV1 input clock divide
 466:./inc/stm32f1xx_ll_rcc.h **** #define LL_RCC_PREDIV_DIV_11               RCC_CFGR2_PREDIV1_DIV11  /*!< PREDIV1 input clock divide
 467:./inc/stm32f1xx_ll_rcc.h **** #define LL_RCC_PREDIV_DIV_12               RCC_CFGR2_PREDIV1_DIV12  /*!< PREDIV1 input clock divide
 468:./inc/stm32f1xx_ll_rcc.h **** #define LL_RCC_PREDIV_DIV_13               RCC_CFGR2_PREDIV1_DIV13  /*!< PREDIV1 input clock divide
ARM GAS  /tmp/ccgFoonV.s 			page 30


 469:./inc/stm32f1xx_ll_rcc.h **** #define LL_RCC_PREDIV_DIV_14               RCC_CFGR2_PREDIV1_DIV14  /*!< PREDIV1 input clock divide
 470:./inc/stm32f1xx_ll_rcc.h **** #define LL_RCC_PREDIV_DIV_15               RCC_CFGR2_PREDIV1_DIV15  /*!< PREDIV1 input clock divide
 471:./inc/stm32f1xx_ll_rcc.h **** #define LL_RCC_PREDIV_DIV_16               RCC_CFGR2_PREDIV1_DIV16  /*!< PREDIV1 input clock divide
 472:./inc/stm32f1xx_ll_rcc.h **** #else
 473:./inc/stm32f1xx_ll_rcc.h **** #define LL_RCC_PREDIV_DIV_1                0x00000000U              /*!< HSE divider clock clock no
 474:./inc/stm32f1xx_ll_rcc.h **** #define LL_RCC_PREDIV_DIV_2                RCC_CFGR_PLLXTPRE        /*!< HSE divider clock divided 
 475:./inc/stm32f1xx_ll_rcc.h **** #endif /*RCC_CFGR2_PREDIV1*/
 476:./inc/stm32f1xx_ll_rcc.h **** /**
 477:./inc/stm32f1xx_ll_rcc.h ****   * @}
 478:./inc/stm32f1xx_ll_rcc.h ****   */
 479:./inc/stm32f1xx_ll_rcc.h **** 
 480:./inc/stm32f1xx_ll_rcc.h **** #if defined(RCC_PLLI2S_SUPPORT)
 481:./inc/stm32f1xx_ll_rcc.h **** /** @defgroup RCC_LL_EC_PLLI2S_MUL PLLI2S MUL
 482:./inc/stm32f1xx_ll_rcc.h ****   * @{
 483:./inc/stm32f1xx_ll_rcc.h ****   */
 484:./inc/stm32f1xx_ll_rcc.h **** #define LL_RCC_PLLI2S_MUL_8                RCC_CFGR2_PLL3MUL8   /*!< PLLI2S input clock * 8 */
 485:./inc/stm32f1xx_ll_rcc.h **** #define LL_RCC_PLLI2S_MUL_9                RCC_CFGR2_PLL3MUL9   /*!< PLLI2S input clock * 9 */
 486:./inc/stm32f1xx_ll_rcc.h **** #define LL_RCC_PLLI2S_MUL_10               RCC_CFGR2_PLL3MUL10  /*!< PLLI2S input clock * 10 */
 487:./inc/stm32f1xx_ll_rcc.h **** #define LL_RCC_PLLI2S_MUL_11               RCC_CFGR2_PLL3MUL11  /*!< PLLI2S input clock * 11 */
 488:./inc/stm32f1xx_ll_rcc.h **** #define LL_RCC_PLLI2S_MUL_12               RCC_CFGR2_PLL3MUL12  /*!< PLLI2S input clock * 12 */
 489:./inc/stm32f1xx_ll_rcc.h **** #define LL_RCC_PLLI2S_MUL_13               RCC_CFGR2_PLL3MUL13  /*!< PLLI2S input clock * 13 */
 490:./inc/stm32f1xx_ll_rcc.h **** #define LL_RCC_PLLI2S_MUL_14               RCC_CFGR2_PLL3MUL14  /*!< PLLI2S input clock * 14 */
 491:./inc/stm32f1xx_ll_rcc.h **** #define LL_RCC_PLLI2S_MUL_16               RCC_CFGR2_PLL3MUL16  /*!< PLLI2S input clock * 16 */
 492:./inc/stm32f1xx_ll_rcc.h **** #define LL_RCC_PLLI2S_MUL_20               RCC_CFGR2_PLL3MUL20  /*!< PLLI2S input clock * 20 */
 493:./inc/stm32f1xx_ll_rcc.h **** /**
 494:./inc/stm32f1xx_ll_rcc.h ****   * @}
 495:./inc/stm32f1xx_ll_rcc.h ****   */
 496:./inc/stm32f1xx_ll_rcc.h **** 
 497:./inc/stm32f1xx_ll_rcc.h **** #endif /* RCC_PLLI2S_SUPPORT */
 498:./inc/stm32f1xx_ll_rcc.h **** 
 499:./inc/stm32f1xx_ll_rcc.h **** #if defined(RCC_PLL2_SUPPORT)
 500:./inc/stm32f1xx_ll_rcc.h **** /** @defgroup RCC_LL_EC_PLL2_MUL PLL2 MUL
 501:./inc/stm32f1xx_ll_rcc.h ****   * @{
 502:./inc/stm32f1xx_ll_rcc.h ****   */
 503:./inc/stm32f1xx_ll_rcc.h **** #define LL_RCC_PLL2_MUL_8                  RCC_CFGR2_PLL2MUL8   /*!< PLL2 input clock * 8 */
 504:./inc/stm32f1xx_ll_rcc.h **** #define LL_RCC_PLL2_MUL_9                  RCC_CFGR2_PLL2MUL9   /*!< PLL2 input clock * 9 */
 505:./inc/stm32f1xx_ll_rcc.h **** #define LL_RCC_PLL2_MUL_10                 RCC_CFGR2_PLL2MUL10  /*!< PLL2 input clock * 10 */
 506:./inc/stm32f1xx_ll_rcc.h **** #define LL_RCC_PLL2_MUL_11                 RCC_CFGR2_PLL2MUL11  /*!< PLL2 input clock * 11 */
 507:./inc/stm32f1xx_ll_rcc.h **** #define LL_RCC_PLL2_MUL_12                 RCC_CFGR2_PLL2MUL12  /*!< PLL2 input clock * 12 */
 508:./inc/stm32f1xx_ll_rcc.h **** #define LL_RCC_PLL2_MUL_13                 RCC_CFGR2_PLL2MUL13  /*!< PLL2 input clock * 13 */
 509:./inc/stm32f1xx_ll_rcc.h **** #define LL_RCC_PLL2_MUL_14                 RCC_CFGR2_PLL2MUL14  /*!< PLL2 input clock * 14 */
 510:./inc/stm32f1xx_ll_rcc.h **** #define LL_RCC_PLL2_MUL_16                 RCC_CFGR2_PLL2MUL16  /*!< PLL2 input clock * 16 */
 511:./inc/stm32f1xx_ll_rcc.h **** #define LL_RCC_PLL2_MUL_20                 RCC_CFGR2_PLL2MUL20  /*!< PLL2 input clock * 20 */
 512:./inc/stm32f1xx_ll_rcc.h **** /**
 513:./inc/stm32f1xx_ll_rcc.h ****   * @}
 514:./inc/stm32f1xx_ll_rcc.h ****   */
 515:./inc/stm32f1xx_ll_rcc.h **** 
 516:./inc/stm32f1xx_ll_rcc.h **** #endif /* RCC_PLL2_SUPPORT */
 517:./inc/stm32f1xx_ll_rcc.h **** 
 518:./inc/stm32f1xx_ll_rcc.h **** /**
 519:./inc/stm32f1xx_ll_rcc.h ****   * @}
 520:./inc/stm32f1xx_ll_rcc.h ****   */
 521:./inc/stm32f1xx_ll_rcc.h **** 
 522:./inc/stm32f1xx_ll_rcc.h **** /* Exported macro ------------------------------------------------------------*/
 523:./inc/stm32f1xx_ll_rcc.h **** /** @defgroup RCC_LL_Exported_Macros RCC Exported Macros
 524:./inc/stm32f1xx_ll_rcc.h ****   * @{
 525:./inc/stm32f1xx_ll_rcc.h ****   */
ARM GAS  /tmp/ccgFoonV.s 			page 31


 526:./inc/stm32f1xx_ll_rcc.h **** 
 527:./inc/stm32f1xx_ll_rcc.h **** /** @defgroup RCC_LL_EM_WRITE_READ Common Write and read registers Macros
 528:./inc/stm32f1xx_ll_rcc.h ****   * @{
 529:./inc/stm32f1xx_ll_rcc.h ****   */
 530:./inc/stm32f1xx_ll_rcc.h **** 
 531:./inc/stm32f1xx_ll_rcc.h **** /**
 532:./inc/stm32f1xx_ll_rcc.h ****   * @brief  Write a value in RCC register
 533:./inc/stm32f1xx_ll_rcc.h ****   * @param  __REG__ Register to be written
 534:./inc/stm32f1xx_ll_rcc.h ****   * @param  __VALUE__ Value to be written in the register
 535:./inc/stm32f1xx_ll_rcc.h ****   * @retval None
 536:./inc/stm32f1xx_ll_rcc.h ****   */
 537:./inc/stm32f1xx_ll_rcc.h **** #define LL_RCC_WriteReg(__REG__, __VALUE__) WRITE_REG(RCC->__REG__, (__VALUE__))
 538:./inc/stm32f1xx_ll_rcc.h **** 
 539:./inc/stm32f1xx_ll_rcc.h **** /**
 540:./inc/stm32f1xx_ll_rcc.h ****   * @brief  Read a value in RCC register
 541:./inc/stm32f1xx_ll_rcc.h ****   * @param  __REG__ Register to be read
 542:./inc/stm32f1xx_ll_rcc.h ****   * @retval Register value
 543:./inc/stm32f1xx_ll_rcc.h ****   */
 544:./inc/stm32f1xx_ll_rcc.h **** #define LL_RCC_ReadReg(__REG__) READ_REG(RCC->__REG__)
 545:./inc/stm32f1xx_ll_rcc.h **** /**
 546:./inc/stm32f1xx_ll_rcc.h ****   * @}
 547:./inc/stm32f1xx_ll_rcc.h ****   */
 548:./inc/stm32f1xx_ll_rcc.h **** 
 549:./inc/stm32f1xx_ll_rcc.h **** /** @defgroup RCC_LL_EM_CALC_FREQ Calculate frequencies
 550:./inc/stm32f1xx_ll_rcc.h ****   * @{
 551:./inc/stm32f1xx_ll_rcc.h ****   */
 552:./inc/stm32f1xx_ll_rcc.h **** 
 553:./inc/stm32f1xx_ll_rcc.h **** #if defined(RCC_CFGR_PLLMULL6_5)
 554:./inc/stm32f1xx_ll_rcc.h **** /**
 555:./inc/stm32f1xx_ll_rcc.h ****   * @brief  Helper macro to calculate the PLLCLK frequency
 556:./inc/stm32f1xx_ll_rcc.h ****   * @note ex: @ref __LL_RCC_CALC_PLLCLK_FREQ (HSE_VALUE / (@ref LL_RCC_PLL_GetPrediv () + 1), @ref 
 557:./inc/stm32f1xx_ll_rcc.h ****   * @param  __INPUTFREQ__ PLL Input frequency (based on HSE div Prediv1 / HSI div 2 / PLL2 div Pred
 558:./inc/stm32f1xx_ll_rcc.h ****   * @param  __PLLMUL__: This parameter can be one of the following values:
 559:./inc/stm32f1xx_ll_rcc.h ****   *         @arg @ref LL_RCC_PLL_MUL_4
 560:./inc/stm32f1xx_ll_rcc.h ****   *         @arg @ref LL_RCC_PLL_MUL_5
 561:./inc/stm32f1xx_ll_rcc.h ****   *         @arg @ref LL_RCC_PLL_MUL_6
 562:./inc/stm32f1xx_ll_rcc.h ****   *         @arg @ref LL_RCC_PLL_MUL_7
 563:./inc/stm32f1xx_ll_rcc.h ****   *         @arg @ref LL_RCC_PLL_MUL_8
 564:./inc/stm32f1xx_ll_rcc.h ****   *         @arg @ref LL_RCC_PLL_MUL_9
 565:./inc/stm32f1xx_ll_rcc.h ****   *         @arg @ref LL_RCC_PLL_MUL_6_5
 566:./inc/stm32f1xx_ll_rcc.h ****   * @retval PLL clock frequency (in Hz)
 567:./inc/stm32f1xx_ll_rcc.h ****   */
 568:./inc/stm32f1xx_ll_rcc.h **** #define __LL_RCC_CALC_PLLCLK_FREQ(__INPUTFREQ__, __PLLMUL__) \
 569:./inc/stm32f1xx_ll_rcc.h ****           (((__PLLMUL__) != RCC_CFGR_PLLMULL6_5) ? \
 570:./inc/stm32f1xx_ll_rcc.h ****               ((__INPUTFREQ__) * ((((__PLLMUL__) & RCC_CFGR_PLLMULL) >> RCC_CFGR_PLLMULL_Pos) + 2U)
 571:./inc/stm32f1xx_ll_rcc.h ****               (((__INPUTFREQ__) * 13U) / 2U))
 572:./inc/stm32f1xx_ll_rcc.h **** 
 573:./inc/stm32f1xx_ll_rcc.h **** #else
 574:./inc/stm32f1xx_ll_rcc.h **** /**
 575:./inc/stm32f1xx_ll_rcc.h ****   * @brief  Helper macro to calculate the PLLCLK frequency
 576:./inc/stm32f1xx_ll_rcc.h ****   * @note ex: @ref __LL_RCC_CALC_PLLCLK_FREQ (HSE_VALUE / (@ref LL_RCC_PLL_GetPrediv () + 1), @ref 
 577:./inc/stm32f1xx_ll_rcc.h ****   * @param  __INPUTFREQ__ PLL Input frequency (based on HSE div Prediv1 or div 2 / HSI div 2)
 578:./inc/stm32f1xx_ll_rcc.h ****   * @param  __PLLMUL__: This parameter can be one of the following values:
 579:./inc/stm32f1xx_ll_rcc.h ****   *         @arg @ref LL_RCC_PLL_MUL_2
 580:./inc/stm32f1xx_ll_rcc.h ****   *         @arg @ref LL_RCC_PLL_MUL_3
 581:./inc/stm32f1xx_ll_rcc.h ****   *         @arg @ref LL_RCC_PLL_MUL_4
 582:./inc/stm32f1xx_ll_rcc.h ****   *         @arg @ref LL_RCC_PLL_MUL_5
ARM GAS  /tmp/ccgFoonV.s 			page 32


 583:./inc/stm32f1xx_ll_rcc.h ****   *         @arg @ref LL_RCC_PLL_MUL_6
 584:./inc/stm32f1xx_ll_rcc.h ****   *         @arg @ref LL_RCC_PLL_MUL_7
 585:./inc/stm32f1xx_ll_rcc.h ****   *         @arg @ref LL_RCC_PLL_MUL_8
 586:./inc/stm32f1xx_ll_rcc.h ****   *         @arg @ref LL_RCC_PLL_MUL_9
 587:./inc/stm32f1xx_ll_rcc.h ****   *         @arg @ref LL_RCC_PLL_MUL_10
 588:./inc/stm32f1xx_ll_rcc.h ****   *         @arg @ref LL_RCC_PLL_MUL_11
 589:./inc/stm32f1xx_ll_rcc.h ****   *         @arg @ref LL_RCC_PLL_MUL_12
 590:./inc/stm32f1xx_ll_rcc.h ****   *         @arg @ref LL_RCC_PLL_MUL_13
 591:./inc/stm32f1xx_ll_rcc.h ****   *         @arg @ref LL_RCC_PLL_MUL_14
 592:./inc/stm32f1xx_ll_rcc.h ****   *         @arg @ref LL_RCC_PLL_MUL_15
 593:./inc/stm32f1xx_ll_rcc.h ****   *         @arg @ref LL_RCC_PLL_MUL_16
 594:./inc/stm32f1xx_ll_rcc.h ****   * @retval PLL clock frequency (in Hz)
 595:./inc/stm32f1xx_ll_rcc.h ****   */
 596:./inc/stm32f1xx_ll_rcc.h **** #define __LL_RCC_CALC_PLLCLK_FREQ(__INPUTFREQ__, __PLLMUL__) ((__INPUTFREQ__) * (((__PLLMUL__) >> R
 597:./inc/stm32f1xx_ll_rcc.h **** #endif /* RCC_CFGR_PLLMULL6_5 */
 598:./inc/stm32f1xx_ll_rcc.h **** 
 599:./inc/stm32f1xx_ll_rcc.h **** #if defined(RCC_PLLI2S_SUPPORT)
 600:./inc/stm32f1xx_ll_rcc.h **** /**
 601:./inc/stm32f1xx_ll_rcc.h ****   * @brief  Helper macro to calculate the PLLI2S frequency
 602:./inc/stm32f1xx_ll_rcc.h ****   * @note ex: @ref __LL_RCC_CALC_PLLI2SCLK_FREQ (HSE_VALUE, @ref LL_RCC_PLLI2S_GetMultiplicator (),
 603:./inc/stm32f1xx_ll_rcc.h ****   * @param  __INPUTFREQ__ PLLI2S Input frequency (based on HSE value)
 604:./inc/stm32f1xx_ll_rcc.h ****   * @param  __PLLI2SMUL__: This parameter can be one of the following values:
 605:./inc/stm32f1xx_ll_rcc.h ****   *         @arg @ref LL_RCC_PLLI2S_MUL_8
 606:./inc/stm32f1xx_ll_rcc.h ****   *         @arg @ref LL_RCC_PLLI2S_MUL_9
 607:./inc/stm32f1xx_ll_rcc.h ****   *         @arg @ref LL_RCC_PLLI2S_MUL_10
 608:./inc/stm32f1xx_ll_rcc.h ****   *         @arg @ref LL_RCC_PLLI2S_MUL_11
 609:./inc/stm32f1xx_ll_rcc.h ****   *         @arg @ref LL_RCC_PLLI2S_MUL_12
 610:./inc/stm32f1xx_ll_rcc.h ****   *         @arg @ref LL_RCC_PLLI2S_MUL_13
 611:./inc/stm32f1xx_ll_rcc.h ****   *         @arg @ref LL_RCC_PLLI2S_MUL_14
 612:./inc/stm32f1xx_ll_rcc.h ****   *         @arg @ref LL_RCC_PLLI2S_MUL_16
 613:./inc/stm32f1xx_ll_rcc.h ****   *         @arg @ref LL_RCC_PLLI2S_MUL_20
 614:./inc/stm32f1xx_ll_rcc.h ****   * @param  __PLLI2SDIV__: This parameter can be one of the following values:
 615:./inc/stm32f1xx_ll_rcc.h ****   *         @arg @ref LL_RCC_HSE_PREDIV2_DIV_1
 616:./inc/stm32f1xx_ll_rcc.h ****   *         @arg @ref LL_RCC_HSE_PREDIV2_DIV_2
 617:./inc/stm32f1xx_ll_rcc.h ****   *         @arg @ref LL_RCC_HSE_PREDIV2_DIV_3
 618:./inc/stm32f1xx_ll_rcc.h ****   *         @arg @ref LL_RCC_HSE_PREDIV2_DIV_4
 619:./inc/stm32f1xx_ll_rcc.h ****   *         @arg @ref LL_RCC_HSE_PREDIV2_DIV_5
 620:./inc/stm32f1xx_ll_rcc.h ****   *         @arg @ref LL_RCC_HSE_PREDIV2_DIV_6
 621:./inc/stm32f1xx_ll_rcc.h ****   *         @arg @ref LL_RCC_HSE_PREDIV2_DIV_7
 622:./inc/stm32f1xx_ll_rcc.h ****   *         @arg @ref LL_RCC_HSE_PREDIV2_DIV_8
 623:./inc/stm32f1xx_ll_rcc.h ****   *         @arg @ref LL_RCC_HSE_PREDIV2_DIV_9
 624:./inc/stm32f1xx_ll_rcc.h ****   *         @arg @ref LL_RCC_HSE_PREDIV2_DIV_10
 625:./inc/stm32f1xx_ll_rcc.h ****   *         @arg @ref LL_RCC_HSE_PREDIV2_DIV_11
 626:./inc/stm32f1xx_ll_rcc.h ****   *         @arg @ref LL_RCC_HSE_PREDIV2_DIV_12
 627:./inc/stm32f1xx_ll_rcc.h ****   *         @arg @ref LL_RCC_HSE_PREDIV2_DIV_13
 628:./inc/stm32f1xx_ll_rcc.h ****   *         @arg @ref LL_RCC_HSE_PREDIV2_DIV_14
 629:./inc/stm32f1xx_ll_rcc.h ****   *         @arg @ref LL_RCC_HSE_PREDIV2_DIV_15
 630:./inc/stm32f1xx_ll_rcc.h ****   *         @arg @ref LL_RCC_HSE_PREDIV2_DIV_16
 631:./inc/stm32f1xx_ll_rcc.h ****   * @retval PLLI2S clock frequency (in Hz)
 632:./inc/stm32f1xx_ll_rcc.h ****   */
 633:./inc/stm32f1xx_ll_rcc.h **** #define __LL_RCC_CALC_PLLI2SCLK_FREQ(__INPUTFREQ__, __PLLI2SMUL__, __PLLI2SDIV__) (((__INPUTFREQ__)
 634:./inc/stm32f1xx_ll_rcc.h **** #endif /* RCC_PLLI2S_SUPPORT */
 635:./inc/stm32f1xx_ll_rcc.h **** 
 636:./inc/stm32f1xx_ll_rcc.h **** #if defined(RCC_PLL2_SUPPORT)
 637:./inc/stm32f1xx_ll_rcc.h **** /**
 638:./inc/stm32f1xx_ll_rcc.h ****   * @brief  Helper macro to calculate the PLL2 frequency
 639:./inc/stm32f1xx_ll_rcc.h ****   * @note ex: @ref __LL_RCC_CALC_PLL2CLK_FREQ (HSE_VALUE, @ref LL_RCC_PLL2_GetMultiplicator (), @re
ARM GAS  /tmp/ccgFoonV.s 			page 33


 640:./inc/stm32f1xx_ll_rcc.h ****   * @param  __INPUTFREQ__ PLL2 Input frequency (based on HSE value)
 641:./inc/stm32f1xx_ll_rcc.h ****   * @param  __PLL2MUL__: This parameter can be one of the following values:
 642:./inc/stm32f1xx_ll_rcc.h ****   *         @arg @ref LL_RCC_PLL2_MUL_8
 643:./inc/stm32f1xx_ll_rcc.h ****   *         @arg @ref LL_RCC_PLL2_MUL_9
 644:./inc/stm32f1xx_ll_rcc.h ****   *         @arg @ref LL_RCC_PLL2_MUL_10
 645:./inc/stm32f1xx_ll_rcc.h ****   *         @arg @ref LL_RCC_PLL2_MUL_11
 646:./inc/stm32f1xx_ll_rcc.h ****   *         @arg @ref LL_RCC_PLL2_MUL_12
 647:./inc/stm32f1xx_ll_rcc.h ****   *         @arg @ref LL_RCC_PLL2_MUL_13
 648:./inc/stm32f1xx_ll_rcc.h ****   *         @arg @ref LL_RCC_PLL2_MUL_14
 649:./inc/stm32f1xx_ll_rcc.h ****   *         @arg @ref LL_RCC_PLL2_MUL_16
 650:./inc/stm32f1xx_ll_rcc.h ****   *         @arg @ref LL_RCC_PLL2_MUL_20
 651:./inc/stm32f1xx_ll_rcc.h ****   * @param  __PLL2DIV__: This parameter can be one of the following values:
 652:./inc/stm32f1xx_ll_rcc.h ****   *         @arg @ref LL_RCC_HSE_PREDIV2_DIV_1
 653:./inc/stm32f1xx_ll_rcc.h ****   *         @arg @ref LL_RCC_HSE_PREDIV2_DIV_2
 654:./inc/stm32f1xx_ll_rcc.h ****   *         @arg @ref LL_RCC_HSE_PREDIV2_DIV_3
 655:./inc/stm32f1xx_ll_rcc.h ****   *         @arg @ref LL_RCC_HSE_PREDIV2_DIV_4
 656:./inc/stm32f1xx_ll_rcc.h ****   *         @arg @ref LL_RCC_HSE_PREDIV2_DIV_5
 657:./inc/stm32f1xx_ll_rcc.h ****   *         @arg @ref LL_RCC_HSE_PREDIV2_DIV_6
 658:./inc/stm32f1xx_ll_rcc.h ****   *         @arg @ref LL_RCC_HSE_PREDIV2_DIV_7
 659:./inc/stm32f1xx_ll_rcc.h ****   *         @arg @ref LL_RCC_HSE_PREDIV2_DIV_8
 660:./inc/stm32f1xx_ll_rcc.h ****   *         @arg @ref LL_RCC_HSE_PREDIV2_DIV_9
 661:./inc/stm32f1xx_ll_rcc.h ****   *         @arg @ref LL_RCC_HSE_PREDIV2_DIV_10
 662:./inc/stm32f1xx_ll_rcc.h ****   *         @arg @ref LL_RCC_HSE_PREDIV2_DIV_11
 663:./inc/stm32f1xx_ll_rcc.h ****   *         @arg @ref LL_RCC_HSE_PREDIV2_DIV_12
 664:./inc/stm32f1xx_ll_rcc.h ****   *         @arg @ref LL_RCC_HSE_PREDIV2_DIV_13
 665:./inc/stm32f1xx_ll_rcc.h ****   *         @arg @ref LL_RCC_HSE_PREDIV2_DIV_14
 666:./inc/stm32f1xx_ll_rcc.h ****   *         @arg @ref LL_RCC_HSE_PREDIV2_DIV_15
 667:./inc/stm32f1xx_ll_rcc.h ****   *         @arg @ref LL_RCC_HSE_PREDIV2_DIV_16
 668:./inc/stm32f1xx_ll_rcc.h ****   * @retval PLL2 clock frequency (in Hz)
 669:./inc/stm32f1xx_ll_rcc.h ****   */
 670:./inc/stm32f1xx_ll_rcc.h **** #define __LL_RCC_CALC_PLL2CLK_FREQ(__INPUTFREQ__, __PLL2MUL__, __PLL2DIV__) (((__INPUTFREQ__) * (((
 671:./inc/stm32f1xx_ll_rcc.h **** #endif /* RCC_PLL2_SUPPORT */
 672:./inc/stm32f1xx_ll_rcc.h **** 
 673:./inc/stm32f1xx_ll_rcc.h **** /**
 674:./inc/stm32f1xx_ll_rcc.h ****   * @brief  Helper macro to calculate the HCLK frequency
 675:./inc/stm32f1xx_ll_rcc.h ****   * @note: __AHBPRESCALER__ be retrieved by @ref LL_RCC_GetAHBPrescaler
 676:./inc/stm32f1xx_ll_rcc.h ****   *        ex: __LL_RCC_CALC_HCLK_FREQ(LL_RCC_GetAHBPrescaler())
 677:./inc/stm32f1xx_ll_rcc.h ****   * @param  __SYSCLKFREQ__ SYSCLK frequency (based on HSE/HSI/PLLCLK)
 678:./inc/stm32f1xx_ll_rcc.h ****   * @param  __AHBPRESCALER__: This parameter can be one of the following values:
 679:./inc/stm32f1xx_ll_rcc.h ****   *         @arg @ref LL_RCC_SYSCLK_DIV_1
 680:./inc/stm32f1xx_ll_rcc.h ****   *         @arg @ref LL_RCC_SYSCLK_DIV_2
 681:./inc/stm32f1xx_ll_rcc.h ****   *         @arg @ref LL_RCC_SYSCLK_DIV_4
 682:./inc/stm32f1xx_ll_rcc.h ****   *         @arg @ref LL_RCC_SYSCLK_DIV_8
 683:./inc/stm32f1xx_ll_rcc.h ****   *         @arg @ref LL_RCC_SYSCLK_DIV_16
 684:./inc/stm32f1xx_ll_rcc.h ****   *         @arg @ref LL_RCC_SYSCLK_DIV_64
 685:./inc/stm32f1xx_ll_rcc.h ****   *         @arg @ref LL_RCC_SYSCLK_DIV_128
 686:./inc/stm32f1xx_ll_rcc.h ****   *         @arg @ref LL_RCC_SYSCLK_DIV_256
 687:./inc/stm32f1xx_ll_rcc.h ****   *         @arg @ref LL_RCC_SYSCLK_DIV_512
 688:./inc/stm32f1xx_ll_rcc.h ****   * @retval HCLK clock frequency (in Hz)
 689:./inc/stm32f1xx_ll_rcc.h ****   */
 690:./inc/stm32f1xx_ll_rcc.h **** #define __LL_RCC_CALC_HCLK_FREQ(__SYSCLKFREQ__, __AHBPRESCALER__) ((__SYSCLKFREQ__) >> AHBPrescTabl
 691:./inc/stm32f1xx_ll_rcc.h **** 
 692:./inc/stm32f1xx_ll_rcc.h **** /**
 693:./inc/stm32f1xx_ll_rcc.h ****   * @brief  Helper macro to calculate the PCLK1 frequency (ABP1)
 694:./inc/stm32f1xx_ll_rcc.h ****   * @note: __APB1PRESCALER__ be retrieved by @ref LL_RCC_GetAPB1Prescaler
 695:./inc/stm32f1xx_ll_rcc.h ****   *        ex: __LL_RCC_CALC_PCLK1_FREQ(LL_RCC_GetAPB1Prescaler())
 696:./inc/stm32f1xx_ll_rcc.h ****   * @param  __HCLKFREQ__ HCLK frequency
ARM GAS  /tmp/ccgFoonV.s 			page 34


 697:./inc/stm32f1xx_ll_rcc.h ****   * @param  __APB1PRESCALER__: This parameter can be one of the following values:
 698:./inc/stm32f1xx_ll_rcc.h ****   *         @arg @ref LL_RCC_APB1_DIV_1
 699:./inc/stm32f1xx_ll_rcc.h ****   *         @arg @ref LL_RCC_APB1_DIV_2
 700:./inc/stm32f1xx_ll_rcc.h ****   *         @arg @ref LL_RCC_APB1_DIV_4
 701:./inc/stm32f1xx_ll_rcc.h ****   *         @arg @ref LL_RCC_APB1_DIV_8
 702:./inc/stm32f1xx_ll_rcc.h ****   *         @arg @ref LL_RCC_APB1_DIV_16
 703:./inc/stm32f1xx_ll_rcc.h ****   * @retval PCLK1 clock frequency (in Hz)
 704:./inc/stm32f1xx_ll_rcc.h ****   */
 705:./inc/stm32f1xx_ll_rcc.h **** #define __LL_RCC_CALC_PCLK1_FREQ(__HCLKFREQ__, __APB1PRESCALER__) ((__HCLKFREQ__) >> APBPrescTable[
 706:./inc/stm32f1xx_ll_rcc.h **** 
 707:./inc/stm32f1xx_ll_rcc.h **** /**
 708:./inc/stm32f1xx_ll_rcc.h ****   * @brief  Helper macro to calculate the PCLK2 frequency (ABP2)
 709:./inc/stm32f1xx_ll_rcc.h ****   * @note: __APB2PRESCALER__ be retrieved by @ref LL_RCC_GetAPB2Prescaler
 710:./inc/stm32f1xx_ll_rcc.h ****   *        ex: __LL_RCC_CALC_PCLK2_FREQ(LL_RCC_GetAPB2Prescaler())
 711:./inc/stm32f1xx_ll_rcc.h ****   * @param  __HCLKFREQ__ HCLK frequency
 712:./inc/stm32f1xx_ll_rcc.h ****   * @param  __APB2PRESCALER__: This parameter can be one of the following values:
 713:./inc/stm32f1xx_ll_rcc.h ****   *         @arg @ref LL_RCC_APB2_DIV_1
 714:./inc/stm32f1xx_ll_rcc.h ****   *         @arg @ref LL_RCC_APB2_DIV_2
 715:./inc/stm32f1xx_ll_rcc.h ****   *         @arg @ref LL_RCC_APB2_DIV_4
 716:./inc/stm32f1xx_ll_rcc.h ****   *         @arg @ref LL_RCC_APB2_DIV_8
 717:./inc/stm32f1xx_ll_rcc.h ****   *         @arg @ref LL_RCC_APB2_DIV_16
 718:./inc/stm32f1xx_ll_rcc.h ****   * @retval PCLK2 clock frequency (in Hz)
 719:./inc/stm32f1xx_ll_rcc.h ****   */
 720:./inc/stm32f1xx_ll_rcc.h **** #define __LL_RCC_CALC_PCLK2_FREQ(__HCLKFREQ__, __APB2PRESCALER__) ((__HCLKFREQ__) >> APBPrescTable[
 721:./inc/stm32f1xx_ll_rcc.h **** 
 722:./inc/stm32f1xx_ll_rcc.h **** /**
 723:./inc/stm32f1xx_ll_rcc.h ****   * @}
 724:./inc/stm32f1xx_ll_rcc.h ****   */
 725:./inc/stm32f1xx_ll_rcc.h **** 
 726:./inc/stm32f1xx_ll_rcc.h **** /**
 727:./inc/stm32f1xx_ll_rcc.h ****   * @}
 728:./inc/stm32f1xx_ll_rcc.h ****   */
 729:./inc/stm32f1xx_ll_rcc.h **** 
 730:./inc/stm32f1xx_ll_rcc.h **** /* Exported functions --------------------------------------------------------*/
 731:./inc/stm32f1xx_ll_rcc.h **** /** @defgroup RCC_LL_Exported_Functions RCC Exported Functions
 732:./inc/stm32f1xx_ll_rcc.h ****   * @{
 733:./inc/stm32f1xx_ll_rcc.h ****   */
 734:./inc/stm32f1xx_ll_rcc.h **** 
 735:./inc/stm32f1xx_ll_rcc.h **** /** @defgroup RCC_LL_EF_HSE HSE
 736:./inc/stm32f1xx_ll_rcc.h ****   * @{
 737:./inc/stm32f1xx_ll_rcc.h ****   */
 738:./inc/stm32f1xx_ll_rcc.h **** 
 739:./inc/stm32f1xx_ll_rcc.h **** /**
 740:./inc/stm32f1xx_ll_rcc.h ****   * @brief  Enable the Clock Security System.
 741:./inc/stm32f1xx_ll_rcc.h ****   * @rmtoll CR           CSSON         LL_RCC_HSE_EnableCSS
 742:./inc/stm32f1xx_ll_rcc.h ****   * @retval None
 743:./inc/stm32f1xx_ll_rcc.h ****   */
 744:./inc/stm32f1xx_ll_rcc.h **** __STATIC_INLINE void LL_RCC_HSE_EnableCSS(void)
 745:./inc/stm32f1xx_ll_rcc.h **** {
 746:./inc/stm32f1xx_ll_rcc.h ****   SET_BIT(RCC->CR, RCC_CR_CSSON);
 747:./inc/stm32f1xx_ll_rcc.h **** }
 748:./inc/stm32f1xx_ll_rcc.h **** 
 749:./inc/stm32f1xx_ll_rcc.h **** /**
 750:./inc/stm32f1xx_ll_rcc.h ****   * @brief  Enable HSE external oscillator (HSE Bypass)
 751:./inc/stm32f1xx_ll_rcc.h ****   * @rmtoll CR           HSEBYP        LL_RCC_HSE_EnableBypass
 752:./inc/stm32f1xx_ll_rcc.h ****   * @retval None
 753:./inc/stm32f1xx_ll_rcc.h ****   */
ARM GAS  /tmp/ccgFoonV.s 			page 35


 754:./inc/stm32f1xx_ll_rcc.h **** __STATIC_INLINE void LL_RCC_HSE_EnableBypass(void)
 755:./inc/stm32f1xx_ll_rcc.h **** {
 756:./inc/stm32f1xx_ll_rcc.h ****   SET_BIT(RCC->CR, RCC_CR_HSEBYP);
 757:./inc/stm32f1xx_ll_rcc.h **** }
 758:./inc/stm32f1xx_ll_rcc.h **** 
 759:./inc/stm32f1xx_ll_rcc.h **** /**
 760:./inc/stm32f1xx_ll_rcc.h ****   * @brief  Disable HSE external oscillator (HSE Bypass)
 761:./inc/stm32f1xx_ll_rcc.h ****   * @rmtoll CR           HSEBYP        LL_RCC_HSE_DisableBypass
 762:./inc/stm32f1xx_ll_rcc.h ****   * @retval None
 763:./inc/stm32f1xx_ll_rcc.h ****   */
 764:./inc/stm32f1xx_ll_rcc.h **** __STATIC_INLINE void LL_RCC_HSE_DisableBypass(void)
 765:./inc/stm32f1xx_ll_rcc.h **** {
 766:./inc/stm32f1xx_ll_rcc.h ****   CLEAR_BIT(RCC->CR, RCC_CR_HSEBYP);
 767:./inc/stm32f1xx_ll_rcc.h **** }
 768:./inc/stm32f1xx_ll_rcc.h **** 
 769:./inc/stm32f1xx_ll_rcc.h **** /**
 770:./inc/stm32f1xx_ll_rcc.h ****   * @brief  Enable HSE crystal oscillator (HSE ON)
 771:./inc/stm32f1xx_ll_rcc.h ****   * @rmtoll CR           HSEON         LL_RCC_HSE_Enable
 772:./inc/stm32f1xx_ll_rcc.h ****   * @retval None
 773:./inc/stm32f1xx_ll_rcc.h ****   */
 774:./inc/stm32f1xx_ll_rcc.h **** __STATIC_INLINE void LL_RCC_HSE_Enable(void)
 775:./inc/stm32f1xx_ll_rcc.h **** {
 776:./inc/stm32f1xx_ll_rcc.h ****   SET_BIT(RCC->CR, RCC_CR_HSEON);
 777:./inc/stm32f1xx_ll_rcc.h **** }
 778:./inc/stm32f1xx_ll_rcc.h **** 
 779:./inc/stm32f1xx_ll_rcc.h **** /**
 780:./inc/stm32f1xx_ll_rcc.h ****   * @brief  Disable HSE crystal oscillator (HSE ON)
 781:./inc/stm32f1xx_ll_rcc.h ****   * @rmtoll CR           HSEON         LL_RCC_HSE_Disable
 782:./inc/stm32f1xx_ll_rcc.h ****   * @retval None
 783:./inc/stm32f1xx_ll_rcc.h ****   */
 784:./inc/stm32f1xx_ll_rcc.h **** __STATIC_INLINE void LL_RCC_HSE_Disable(void)
 785:./inc/stm32f1xx_ll_rcc.h **** {
 786:./inc/stm32f1xx_ll_rcc.h ****   CLEAR_BIT(RCC->CR, RCC_CR_HSEON);
 787:./inc/stm32f1xx_ll_rcc.h **** }
 788:./inc/stm32f1xx_ll_rcc.h **** 
 789:./inc/stm32f1xx_ll_rcc.h **** /**
 790:./inc/stm32f1xx_ll_rcc.h ****   * @brief  Check if HSE oscillator Ready
 791:./inc/stm32f1xx_ll_rcc.h ****   * @rmtoll CR           HSERDY        LL_RCC_HSE_IsReady
 792:./inc/stm32f1xx_ll_rcc.h ****   * @retval State of bit (1 or 0).
 793:./inc/stm32f1xx_ll_rcc.h ****   */
 794:./inc/stm32f1xx_ll_rcc.h **** __STATIC_INLINE uint32_t LL_RCC_HSE_IsReady(void)
 795:./inc/stm32f1xx_ll_rcc.h **** {
 796:./inc/stm32f1xx_ll_rcc.h ****   return (READ_BIT(RCC->CR, RCC_CR_HSERDY) == (RCC_CR_HSERDY));
 797:./inc/stm32f1xx_ll_rcc.h **** }
 798:./inc/stm32f1xx_ll_rcc.h **** 
 799:./inc/stm32f1xx_ll_rcc.h **** #if defined(RCC_CFGR2_PREDIV2)
 800:./inc/stm32f1xx_ll_rcc.h **** /**
 801:./inc/stm32f1xx_ll_rcc.h ****   * @brief  Get PREDIV2 division factor
 802:./inc/stm32f1xx_ll_rcc.h ****   * @rmtoll CFGR2        PREDIV2       LL_RCC_HSE_GetPrediv2
 803:./inc/stm32f1xx_ll_rcc.h ****   * @retval Returned value can be one of the following values:
 804:./inc/stm32f1xx_ll_rcc.h ****   *         @arg @ref LL_RCC_HSE_PREDIV2_DIV_1
 805:./inc/stm32f1xx_ll_rcc.h ****   *         @arg @ref LL_RCC_HSE_PREDIV2_DIV_2
 806:./inc/stm32f1xx_ll_rcc.h ****   *         @arg @ref LL_RCC_HSE_PREDIV2_DIV_3
 807:./inc/stm32f1xx_ll_rcc.h ****   *         @arg @ref LL_RCC_HSE_PREDIV2_DIV_4
 808:./inc/stm32f1xx_ll_rcc.h ****   *         @arg @ref LL_RCC_HSE_PREDIV2_DIV_5
 809:./inc/stm32f1xx_ll_rcc.h ****   *         @arg @ref LL_RCC_HSE_PREDIV2_DIV_6
 810:./inc/stm32f1xx_ll_rcc.h ****   *         @arg @ref LL_RCC_HSE_PREDIV2_DIV_7
ARM GAS  /tmp/ccgFoonV.s 			page 36


 811:./inc/stm32f1xx_ll_rcc.h ****   *         @arg @ref LL_RCC_HSE_PREDIV2_DIV_8
 812:./inc/stm32f1xx_ll_rcc.h ****   *         @arg @ref LL_RCC_HSE_PREDIV2_DIV_9
 813:./inc/stm32f1xx_ll_rcc.h ****   *         @arg @ref LL_RCC_HSE_PREDIV2_DIV_10
 814:./inc/stm32f1xx_ll_rcc.h ****   *         @arg @ref LL_RCC_HSE_PREDIV2_DIV_11
 815:./inc/stm32f1xx_ll_rcc.h ****   *         @arg @ref LL_RCC_HSE_PREDIV2_DIV_12
 816:./inc/stm32f1xx_ll_rcc.h ****   *         @arg @ref LL_RCC_HSE_PREDIV2_DIV_13
 817:./inc/stm32f1xx_ll_rcc.h ****   *         @arg @ref LL_RCC_HSE_PREDIV2_DIV_14
 818:./inc/stm32f1xx_ll_rcc.h ****   *         @arg @ref LL_RCC_HSE_PREDIV2_DIV_15
 819:./inc/stm32f1xx_ll_rcc.h ****   *         @arg @ref LL_RCC_HSE_PREDIV2_DIV_16
 820:./inc/stm32f1xx_ll_rcc.h ****   */
 821:./inc/stm32f1xx_ll_rcc.h **** __STATIC_INLINE uint32_t LL_RCC_HSE_GetPrediv2(void)
 822:./inc/stm32f1xx_ll_rcc.h **** {
 823:./inc/stm32f1xx_ll_rcc.h ****   return (uint32_t)(READ_BIT(RCC->CFGR2, RCC_CFGR2_PREDIV2));
 824:./inc/stm32f1xx_ll_rcc.h **** }
 825:./inc/stm32f1xx_ll_rcc.h **** #endif /* RCC_CFGR2_PREDIV2 */
 826:./inc/stm32f1xx_ll_rcc.h **** 
 827:./inc/stm32f1xx_ll_rcc.h **** /**
 828:./inc/stm32f1xx_ll_rcc.h ****   * @}
 829:./inc/stm32f1xx_ll_rcc.h ****   */
 830:./inc/stm32f1xx_ll_rcc.h **** 
 831:./inc/stm32f1xx_ll_rcc.h **** /** @defgroup RCC_LL_EF_HSI HSI
 832:./inc/stm32f1xx_ll_rcc.h ****   * @{
 833:./inc/stm32f1xx_ll_rcc.h ****   */
 834:./inc/stm32f1xx_ll_rcc.h **** 
 835:./inc/stm32f1xx_ll_rcc.h **** /**
 836:./inc/stm32f1xx_ll_rcc.h ****   * @brief  Enable HSI oscillator
 837:./inc/stm32f1xx_ll_rcc.h ****   * @rmtoll CR           HSION         LL_RCC_HSI_Enable
 838:./inc/stm32f1xx_ll_rcc.h ****   * @retval None
 839:./inc/stm32f1xx_ll_rcc.h ****   */
 840:./inc/stm32f1xx_ll_rcc.h **** __STATIC_INLINE void LL_RCC_HSI_Enable(void)
 841:./inc/stm32f1xx_ll_rcc.h **** {
 842:./inc/stm32f1xx_ll_rcc.h ****   SET_BIT(RCC->CR, RCC_CR_HSION);
 843:./inc/stm32f1xx_ll_rcc.h **** }
 844:./inc/stm32f1xx_ll_rcc.h **** 
 845:./inc/stm32f1xx_ll_rcc.h **** /**
 846:./inc/stm32f1xx_ll_rcc.h ****   * @brief  Disable HSI oscillator
 847:./inc/stm32f1xx_ll_rcc.h ****   * @rmtoll CR           HSION         LL_RCC_HSI_Disable
 848:./inc/stm32f1xx_ll_rcc.h ****   * @retval None
 849:./inc/stm32f1xx_ll_rcc.h ****   */
 850:./inc/stm32f1xx_ll_rcc.h **** __STATIC_INLINE void LL_RCC_HSI_Disable(void)
 851:./inc/stm32f1xx_ll_rcc.h **** {
 852:./inc/stm32f1xx_ll_rcc.h ****   CLEAR_BIT(RCC->CR, RCC_CR_HSION);
 853:./inc/stm32f1xx_ll_rcc.h **** }
 854:./inc/stm32f1xx_ll_rcc.h **** 
 855:./inc/stm32f1xx_ll_rcc.h **** /**
 856:./inc/stm32f1xx_ll_rcc.h ****   * @brief  Check if HSI clock is ready
 857:./inc/stm32f1xx_ll_rcc.h ****   * @rmtoll CR           HSIRDY        LL_RCC_HSI_IsReady
 858:./inc/stm32f1xx_ll_rcc.h ****   * @retval State of bit (1 or 0).
 859:./inc/stm32f1xx_ll_rcc.h ****   */
 860:./inc/stm32f1xx_ll_rcc.h **** __STATIC_INLINE uint32_t LL_RCC_HSI_IsReady(void)
 861:./inc/stm32f1xx_ll_rcc.h **** {
 862:./inc/stm32f1xx_ll_rcc.h ****   return (READ_BIT(RCC->CR, RCC_CR_HSIRDY) == (RCC_CR_HSIRDY));
 863:./inc/stm32f1xx_ll_rcc.h **** }
 864:./inc/stm32f1xx_ll_rcc.h **** 
 865:./inc/stm32f1xx_ll_rcc.h **** /**
 866:./inc/stm32f1xx_ll_rcc.h ****   * @brief  Get HSI Calibration value
 867:./inc/stm32f1xx_ll_rcc.h ****   * @note When HSITRIM is written, HSICAL is updated with the sum of
ARM GAS  /tmp/ccgFoonV.s 			page 37


 868:./inc/stm32f1xx_ll_rcc.h ****   *       HSITRIM and the factory trim value
 869:./inc/stm32f1xx_ll_rcc.h ****   * @rmtoll CR        HSICAL        LL_RCC_HSI_GetCalibration
 870:./inc/stm32f1xx_ll_rcc.h ****   * @retval Between Min_Data = 0x00 and Max_Data = 0xFF
 871:./inc/stm32f1xx_ll_rcc.h ****   */
 872:./inc/stm32f1xx_ll_rcc.h **** __STATIC_INLINE uint32_t LL_RCC_HSI_GetCalibration(void)
 873:./inc/stm32f1xx_ll_rcc.h **** {
 874:./inc/stm32f1xx_ll_rcc.h ****   return (uint32_t)(READ_BIT(RCC->CR, RCC_CR_HSICAL) >> RCC_CR_HSICAL_Pos);
 875:./inc/stm32f1xx_ll_rcc.h **** }
 876:./inc/stm32f1xx_ll_rcc.h **** 
 877:./inc/stm32f1xx_ll_rcc.h **** /**
 878:./inc/stm32f1xx_ll_rcc.h ****   * @brief  Set HSI Calibration trimming
 879:./inc/stm32f1xx_ll_rcc.h ****   * @note user-programmable trimming value that is added to the HSICAL
 880:./inc/stm32f1xx_ll_rcc.h ****   * @note Default value is 16, which, when added to the HSICAL value,
 881:./inc/stm32f1xx_ll_rcc.h ****   *       should trim the HSI to 16 MHz +/- 1 %
 882:./inc/stm32f1xx_ll_rcc.h ****   * @rmtoll CR        HSITRIM       LL_RCC_HSI_SetCalibTrimming
 883:./inc/stm32f1xx_ll_rcc.h ****   * @param  Value between Min_Data = 0x00 and Max_Data = 0x1F
 884:./inc/stm32f1xx_ll_rcc.h ****   * @retval None
 885:./inc/stm32f1xx_ll_rcc.h ****   */
 886:./inc/stm32f1xx_ll_rcc.h **** __STATIC_INLINE void LL_RCC_HSI_SetCalibTrimming(uint32_t Value)
 887:./inc/stm32f1xx_ll_rcc.h **** {
 888:./inc/stm32f1xx_ll_rcc.h ****   MODIFY_REG(RCC->CR, RCC_CR_HSITRIM, Value << RCC_CR_HSITRIM_Pos);
 889:./inc/stm32f1xx_ll_rcc.h **** }
 890:./inc/stm32f1xx_ll_rcc.h **** 
 891:./inc/stm32f1xx_ll_rcc.h **** /**
 892:./inc/stm32f1xx_ll_rcc.h ****   * @brief  Get HSI Calibration trimming
 893:./inc/stm32f1xx_ll_rcc.h ****   * @rmtoll CR        HSITRIM       LL_RCC_HSI_GetCalibTrimming
 894:./inc/stm32f1xx_ll_rcc.h ****   * @retval Between Min_Data = 0x00 and Max_Data = 0x1F
 895:./inc/stm32f1xx_ll_rcc.h ****   */
 896:./inc/stm32f1xx_ll_rcc.h **** __STATIC_INLINE uint32_t LL_RCC_HSI_GetCalibTrimming(void)
 897:./inc/stm32f1xx_ll_rcc.h **** {
 898:./inc/stm32f1xx_ll_rcc.h ****   return (uint32_t)(READ_BIT(RCC->CR, RCC_CR_HSITRIM) >> RCC_CR_HSITRIM_Pos);
 899:./inc/stm32f1xx_ll_rcc.h **** }
 900:./inc/stm32f1xx_ll_rcc.h **** 
 901:./inc/stm32f1xx_ll_rcc.h **** /**
 902:./inc/stm32f1xx_ll_rcc.h ****   * @}
 903:./inc/stm32f1xx_ll_rcc.h ****   */
 904:./inc/stm32f1xx_ll_rcc.h **** 
 905:./inc/stm32f1xx_ll_rcc.h **** /** @defgroup RCC_LL_EF_LSE LSE
 906:./inc/stm32f1xx_ll_rcc.h ****   * @{
 907:./inc/stm32f1xx_ll_rcc.h ****   */
 908:./inc/stm32f1xx_ll_rcc.h **** 
 909:./inc/stm32f1xx_ll_rcc.h **** /**
 910:./inc/stm32f1xx_ll_rcc.h ****   * @brief  Enable  Low Speed External (LSE) crystal.
 911:./inc/stm32f1xx_ll_rcc.h ****   * @rmtoll BDCR         LSEON         LL_RCC_LSE_Enable
 912:./inc/stm32f1xx_ll_rcc.h ****   * @retval None
 913:./inc/stm32f1xx_ll_rcc.h ****   */
 914:./inc/stm32f1xx_ll_rcc.h **** __STATIC_INLINE void LL_RCC_LSE_Enable(void)
 915:./inc/stm32f1xx_ll_rcc.h **** {
 916:./inc/stm32f1xx_ll_rcc.h ****   SET_BIT(RCC->BDCR, RCC_BDCR_LSEON);
 917:./inc/stm32f1xx_ll_rcc.h **** }
 918:./inc/stm32f1xx_ll_rcc.h **** 
 919:./inc/stm32f1xx_ll_rcc.h **** /**
 920:./inc/stm32f1xx_ll_rcc.h ****   * @brief  Disable  Low Speed External (LSE) crystal.
 921:./inc/stm32f1xx_ll_rcc.h ****   * @rmtoll BDCR         LSEON         LL_RCC_LSE_Disable
 922:./inc/stm32f1xx_ll_rcc.h ****   * @retval None
 923:./inc/stm32f1xx_ll_rcc.h ****   */
 924:./inc/stm32f1xx_ll_rcc.h **** __STATIC_INLINE void LL_RCC_LSE_Disable(void)
ARM GAS  /tmp/ccgFoonV.s 			page 38


 925:./inc/stm32f1xx_ll_rcc.h **** {
 926:./inc/stm32f1xx_ll_rcc.h ****   CLEAR_BIT(RCC->BDCR, RCC_BDCR_LSEON);
 927:./inc/stm32f1xx_ll_rcc.h **** }
 928:./inc/stm32f1xx_ll_rcc.h **** 
 929:./inc/stm32f1xx_ll_rcc.h **** /**
 930:./inc/stm32f1xx_ll_rcc.h ****   * @brief  Enable external clock source (LSE bypass).
 931:./inc/stm32f1xx_ll_rcc.h ****   * @rmtoll BDCR         LSEBYP        LL_RCC_LSE_EnableBypass
 932:./inc/stm32f1xx_ll_rcc.h ****   * @retval None
 933:./inc/stm32f1xx_ll_rcc.h ****   */
 934:./inc/stm32f1xx_ll_rcc.h **** __STATIC_INLINE void LL_RCC_LSE_EnableBypass(void)
 935:./inc/stm32f1xx_ll_rcc.h **** {
 936:./inc/stm32f1xx_ll_rcc.h ****   SET_BIT(RCC->BDCR, RCC_BDCR_LSEBYP);
 937:./inc/stm32f1xx_ll_rcc.h **** }
 938:./inc/stm32f1xx_ll_rcc.h **** 
 939:./inc/stm32f1xx_ll_rcc.h **** /**
 940:./inc/stm32f1xx_ll_rcc.h ****   * @brief  Disable external clock source (LSE bypass).
 941:./inc/stm32f1xx_ll_rcc.h ****   * @rmtoll BDCR         LSEBYP        LL_RCC_LSE_DisableBypass
 942:./inc/stm32f1xx_ll_rcc.h ****   * @retval None
 943:./inc/stm32f1xx_ll_rcc.h ****   */
 944:./inc/stm32f1xx_ll_rcc.h **** __STATIC_INLINE void LL_RCC_LSE_DisableBypass(void)
 945:./inc/stm32f1xx_ll_rcc.h **** {
 946:./inc/stm32f1xx_ll_rcc.h ****   CLEAR_BIT(RCC->BDCR, RCC_BDCR_LSEBYP);
 947:./inc/stm32f1xx_ll_rcc.h **** }
 948:./inc/stm32f1xx_ll_rcc.h **** 
 949:./inc/stm32f1xx_ll_rcc.h **** /**
 950:./inc/stm32f1xx_ll_rcc.h ****   * @brief  Check if LSE oscillator Ready
 951:./inc/stm32f1xx_ll_rcc.h ****   * @rmtoll BDCR         LSERDY        LL_RCC_LSE_IsReady
 952:./inc/stm32f1xx_ll_rcc.h ****   * @retval State of bit (1 or 0).
 953:./inc/stm32f1xx_ll_rcc.h ****   */
 954:./inc/stm32f1xx_ll_rcc.h **** __STATIC_INLINE uint32_t LL_RCC_LSE_IsReady(void)
 955:./inc/stm32f1xx_ll_rcc.h **** {
 956:./inc/stm32f1xx_ll_rcc.h ****   return (READ_BIT(RCC->BDCR, RCC_BDCR_LSERDY) == (RCC_BDCR_LSERDY));
 957:./inc/stm32f1xx_ll_rcc.h **** }
 958:./inc/stm32f1xx_ll_rcc.h **** 
 959:./inc/stm32f1xx_ll_rcc.h **** /**
 960:./inc/stm32f1xx_ll_rcc.h ****   * @}
 961:./inc/stm32f1xx_ll_rcc.h ****   */
 962:./inc/stm32f1xx_ll_rcc.h **** 
 963:./inc/stm32f1xx_ll_rcc.h **** /** @defgroup RCC_LL_EF_LSI LSI
 964:./inc/stm32f1xx_ll_rcc.h ****   * @{
 965:./inc/stm32f1xx_ll_rcc.h ****   */
 966:./inc/stm32f1xx_ll_rcc.h **** 
 967:./inc/stm32f1xx_ll_rcc.h **** /**
 968:./inc/stm32f1xx_ll_rcc.h ****   * @brief  Enable LSI Oscillator
 969:./inc/stm32f1xx_ll_rcc.h ****   * @rmtoll CSR          LSION         LL_RCC_LSI_Enable
 970:./inc/stm32f1xx_ll_rcc.h ****   * @retval None
 971:./inc/stm32f1xx_ll_rcc.h ****   */
 972:./inc/stm32f1xx_ll_rcc.h **** __STATIC_INLINE void LL_RCC_LSI_Enable(void)
 973:./inc/stm32f1xx_ll_rcc.h **** {
 974:./inc/stm32f1xx_ll_rcc.h ****   SET_BIT(RCC->CSR, RCC_CSR_LSION);
 975:./inc/stm32f1xx_ll_rcc.h **** }
 976:./inc/stm32f1xx_ll_rcc.h **** 
 977:./inc/stm32f1xx_ll_rcc.h **** /**
 978:./inc/stm32f1xx_ll_rcc.h ****   * @brief  Disable LSI Oscillator
 979:./inc/stm32f1xx_ll_rcc.h ****   * @rmtoll CSR          LSION         LL_RCC_LSI_Disable
 980:./inc/stm32f1xx_ll_rcc.h ****   * @retval None
 981:./inc/stm32f1xx_ll_rcc.h ****   */
ARM GAS  /tmp/ccgFoonV.s 			page 39


 982:./inc/stm32f1xx_ll_rcc.h **** __STATIC_INLINE void LL_RCC_LSI_Disable(void)
 983:./inc/stm32f1xx_ll_rcc.h **** {
 984:./inc/stm32f1xx_ll_rcc.h ****   CLEAR_BIT(RCC->CSR, RCC_CSR_LSION);
 985:./inc/stm32f1xx_ll_rcc.h **** }
 986:./inc/stm32f1xx_ll_rcc.h **** 
 987:./inc/stm32f1xx_ll_rcc.h **** /**
 988:./inc/stm32f1xx_ll_rcc.h ****   * @brief  Check if LSI is Ready
 989:./inc/stm32f1xx_ll_rcc.h ****   * @rmtoll CSR          LSIRDY        LL_RCC_LSI_IsReady
 990:./inc/stm32f1xx_ll_rcc.h ****   * @retval State of bit (1 or 0).
 991:./inc/stm32f1xx_ll_rcc.h ****   */
 992:./inc/stm32f1xx_ll_rcc.h **** __STATIC_INLINE uint32_t LL_RCC_LSI_IsReady(void)
 993:./inc/stm32f1xx_ll_rcc.h **** {
 994:./inc/stm32f1xx_ll_rcc.h ****   return (READ_BIT(RCC->CSR, RCC_CSR_LSIRDY) == (RCC_CSR_LSIRDY));
 995:./inc/stm32f1xx_ll_rcc.h **** }
 996:./inc/stm32f1xx_ll_rcc.h **** 
 997:./inc/stm32f1xx_ll_rcc.h **** /**
 998:./inc/stm32f1xx_ll_rcc.h ****   * @}
 999:./inc/stm32f1xx_ll_rcc.h ****   */
1000:./inc/stm32f1xx_ll_rcc.h **** 
1001:./inc/stm32f1xx_ll_rcc.h **** /** @defgroup RCC_LL_EF_System System
1002:./inc/stm32f1xx_ll_rcc.h ****   * @{
1003:./inc/stm32f1xx_ll_rcc.h ****   */
1004:./inc/stm32f1xx_ll_rcc.h **** 
1005:./inc/stm32f1xx_ll_rcc.h **** /**
1006:./inc/stm32f1xx_ll_rcc.h ****   * @brief  Configure the system clock source
1007:./inc/stm32f1xx_ll_rcc.h ****   * @rmtoll CFGR         SW            LL_RCC_SetSysClkSource
1008:./inc/stm32f1xx_ll_rcc.h ****   * @param  Source This parameter can be one of the following values:
1009:./inc/stm32f1xx_ll_rcc.h ****   *         @arg @ref LL_RCC_SYS_CLKSOURCE_HSI
1010:./inc/stm32f1xx_ll_rcc.h ****   *         @arg @ref LL_RCC_SYS_CLKSOURCE_HSE
1011:./inc/stm32f1xx_ll_rcc.h ****   *         @arg @ref LL_RCC_SYS_CLKSOURCE_PLL
1012:./inc/stm32f1xx_ll_rcc.h ****   * @retval None
1013:./inc/stm32f1xx_ll_rcc.h ****   */
1014:./inc/stm32f1xx_ll_rcc.h **** __STATIC_INLINE void LL_RCC_SetSysClkSource(uint32_t Source)
1015:./inc/stm32f1xx_ll_rcc.h **** {
1016:./inc/stm32f1xx_ll_rcc.h ****   MODIFY_REG(RCC->CFGR, RCC_CFGR_SW, Source);
1017:./inc/stm32f1xx_ll_rcc.h **** }
1018:./inc/stm32f1xx_ll_rcc.h **** 
1019:./inc/stm32f1xx_ll_rcc.h **** /**
1020:./inc/stm32f1xx_ll_rcc.h ****   * @brief  Get the system clock source
1021:./inc/stm32f1xx_ll_rcc.h ****   * @rmtoll CFGR         SWS           LL_RCC_GetSysClkSource
1022:./inc/stm32f1xx_ll_rcc.h ****   * @retval Returned value can be one of the following values:
1023:./inc/stm32f1xx_ll_rcc.h ****   *         @arg @ref LL_RCC_SYS_CLKSOURCE_STATUS_HSI
1024:./inc/stm32f1xx_ll_rcc.h ****   *         @arg @ref LL_RCC_SYS_CLKSOURCE_STATUS_HSE
1025:./inc/stm32f1xx_ll_rcc.h ****   *         @arg @ref LL_RCC_SYS_CLKSOURCE_STATUS_PLL
1026:./inc/stm32f1xx_ll_rcc.h ****   */
1027:./inc/stm32f1xx_ll_rcc.h **** __STATIC_INLINE uint32_t LL_RCC_GetSysClkSource(void)
1028:./inc/stm32f1xx_ll_rcc.h **** {
1029:./inc/stm32f1xx_ll_rcc.h ****   return (uint32_t)(READ_BIT(RCC->CFGR, RCC_CFGR_SWS));
1030:./inc/stm32f1xx_ll_rcc.h **** }
1031:./inc/stm32f1xx_ll_rcc.h **** 
1032:./inc/stm32f1xx_ll_rcc.h **** /**
1033:./inc/stm32f1xx_ll_rcc.h ****   * @brief  Set AHB prescaler
1034:./inc/stm32f1xx_ll_rcc.h ****   * @rmtoll CFGR         HPRE          LL_RCC_SetAHBPrescaler
1035:./inc/stm32f1xx_ll_rcc.h ****   * @param  Prescaler This parameter can be one of the following values:
1036:./inc/stm32f1xx_ll_rcc.h ****   *         @arg @ref LL_RCC_SYSCLK_DIV_1
1037:./inc/stm32f1xx_ll_rcc.h ****   *         @arg @ref LL_RCC_SYSCLK_DIV_2
1038:./inc/stm32f1xx_ll_rcc.h ****   *         @arg @ref LL_RCC_SYSCLK_DIV_4
ARM GAS  /tmp/ccgFoonV.s 			page 40


1039:./inc/stm32f1xx_ll_rcc.h ****   *         @arg @ref LL_RCC_SYSCLK_DIV_8
1040:./inc/stm32f1xx_ll_rcc.h ****   *         @arg @ref LL_RCC_SYSCLK_DIV_16
1041:./inc/stm32f1xx_ll_rcc.h ****   *         @arg @ref LL_RCC_SYSCLK_DIV_64
1042:./inc/stm32f1xx_ll_rcc.h ****   *         @arg @ref LL_RCC_SYSCLK_DIV_128
1043:./inc/stm32f1xx_ll_rcc.h ****   *         @arg @ref LL_RCC_SYSCLK_DIV_256
1044:./inc/stm32f1xx_ll_rcc.h ****   *         @arg @ref LL_RCC_SYSCLK_DIV_512
1045:./inc/stm32f1xx_ll_rcc.h ****   * @retval None
1046:./inc/stm32f1xx_ll_rcc.h ****   */
1047:./inc/stm32f1xx_ll_rcc.h **** __STATIC_INLINE void LL_RCC_SetAHBPrescaler(uint32_t Prescaler)
1048:./inc/stm32f1xx_ll_rcc.h **** {
1049:./inc/stm32f1xx_ll_rcc.h ****   MODIFY_REG(RCC->CFGR, RCC_CFGR_HPRE, Prescaler);
1050:./inc/stm32f1xx_ll_rcc.h **** }
1051:./inc/stm32f1xx_ll_rcc.h **** 
1052:./inc/stm32f1xx_ll_rcc.h **** /**
1053:./inc/stm32f1xx_ll_rcc.h ****   * @brief  Set APB1 prescaler
1054:./inc/stm32f1xx_ll_rcc.h ****   * @rmtoll CFGR         PPRE1         LL_RCC_SetAPB1Prescaler
1055:./inc/stm32f1xx_ll_rcc.h ****   * @param  Prescaler This parameter can be one of the following values:
1056:./inc/stm32f1xx_ll_rcc.h ****   *         @arg @ref LL_RCC_APB1_DIV_1
1057:./inc/stm32f1xx_ll_rcc.h ****   *         @arg @ref LL_RCC_APB1_DIV_2
1058:./inc/stm32f1xx_ll_rcc.h ****   *         @arg @ref LL_RCC_APB1_DIV_4
1059:./inc/stm32f1xx_ll_rcc.h ****   *         @arg @ref LL_RCC_APB1_DIV_8
1060:./inc/stm32f1xx_ll_rcc.h ****   *         @arg @ref LL_RCC_APB1_DIV_16
1061:./inc/stm32f1xx_ll_rcc.h ****   * @retval None
1062:./inc/stm32f1xx_ll_rcc.h ****   */
1063:./inc/stm32f1xx_ll_rcc.h **** __STATIC_INLINE void LL_RCC_SetAPB1Prescaler(uint32_t Prescaler)
1064:./inc/stm32f1xx_ll_rcc.h **** {
1065:./inc/stm32f1xx_ll_rcc.h ****   MODIFY_REG(RCC->CFGR, RCC_CFGR_PPRE1, Prescaler);
1066:./inc/stm32f1xx_ll_rcc.h **** }
1067:./inc/stm32f1xx_ll_rcc.h **** 
1068:./inc/stm32f1xx_ll_rcc.h **** /**
1069:./inc/stm32f1xx_ll_rcc.h ****   * @brief  Set APB2 prescaler
1070:./inc/stm32f1xx_ll_rcc.h ****   * @rmtoll CFGR         PPRE2         LL_RCC_SetAPB2Prescaler
1071:./inc/stm32f1xx_ll_rcc.h ****   * @param  Prescaler This parameter can be one of the following values:
1072:./inc/stm32f1xx_ll_rcc.h ****   *         @arg @ref LL_RCC_APB2_DIV_1
1073:./inc/stm32f1xx_ll_rcc.h ****   *         @arg @ref LL_RCC_APB2_DIV_2
1074:./inc/stm32f1xx_ll_rcc.h ****   *         @arg @ref LL_RCC_APB2_DIV_4
1075:./inc/stm32f1xx_ll_rcc.h ****   *         @arg @ref LL_RCC_APB2_DIV_8
1076:./inc/stm32f1xx_ll_rcc.h ****   *         @arg @ref LL_RCC_APB2_DIV_16
1077:./inc/stm32f1xx_ll_rcc.h ****   * @retval None
1078:./inc/stm32f1xx_ll_rcc.h ****   */
1079:./inc/stm32f1xx_ll_rcc.h **** __STATIC_INLINE void LL_RCC_SetAPB2Prescaler(uint32_t Prescaler)
1080:./inc/stm32f1xx_ll_rcc.h **** {
1081:./inc/stm32f1xx_ll_rcc.h ****   MODIFY_REG(RCC->CFGR, RCC_CFGR_PPRE2, Prescaler);
1082:./inc/stm32f1xx_ll_rcc.h **** }
1083:./inc/stm32f1xx_ll_rcc.h **** 
1084:./inc/stm32f1xx_ll_rcc.h **** /**
1085:./inc/stm32f1xx_ll_rcc.h ****   * @brief  Get AHB prescaler
1086:./inc/stm32f1xx_ll_rcc.h ****   * @rmtoll CFGR         HPRE          LL_RCC_GetAHBPrescaler
1087:./inc/stm32f1xx_ll_rcc.h ****   * @retval Returned value can be one of the following values:
1088:./inc/stm32f1xx_ll_rcc.h ****   *         @arg @ref LL_RCC_SYSCLK_DIV_1
1089:./inc/stm32f1xx_ll_rcc.h ****   *         @arg @ref LL_RCC_SYSCLK_DIV_2
1090:./inc/stm32f1xx_ll_rcc.h ****   *         @arg @ref LL_RCC_SYSCLK_DIV_4
1091:./inc/stm32f1xx_ll_rcc.h ****   *         @arg @ref LL_RCC_SYSCLK_DIV_8
1092:./inc/stm32f1xx_ll_rcc.h ****   *         @arg @ref LL_RCC_SYSCLK_DIV_16
1093:./inc/stm32f1xx_ll_rcc.h ****   *         @arg @ref LL_RCC_SYSCLK_DIV_64
1094:./inc/stm32f1xx_ll_rcc.h ****   *         @arg @ref LL_RCC_SYSCLK_DIV_128
1095:./inc/stm32f1xx_ll_rcc.h ****   *         @arg @ref LL_RCC_SYSCLK_DIV_256
ARM GAS  /tmp/ccgFoonV.s 			page 41


1096:./inc/stm32f1xx_ll_rcc.h ****   *         @arg @ref LL_RCC_SYSCLK_DIV_512
1097:./inc/stm32f1xx_ll_rcc.h ****   */
1098:./inc/stm32f1xx_ll_rcc.h **** __STATIC_INLINE uint32_t LL_RCC_GetAHBPrescaler(void)
1099:./inc/stm32f1xx_ll_rcc.h **** {
1100:./inc/stm32f1xx_ll_rcc.h ****   return (uint32_t)(READ_BIT(RCC->CFGR, RCC_CFGR_HPRE));
 180              		.loc 3 1100 0
 181 0044 224C     		ldr	r4, .L24	@ tmp147,
 182              	.LBE45:
 183              	.LBE44:
 519:src/stm32f1xx_ll_utils.c ****   ErrorStatus status = SUCCESS;
 520:src/stm32f1xx_ll_utils.c **** #if defined(FLASH_ACR_LATENCY)
 521:src/stm32f1xx_ll_utils.c ****   uint32_t sysclk_frequency_current = 0U;
 522:src/stm32f1xx_ll_utils.c **** #endif /* FLASH_ACR_LATENCY */
 523:src/stm32f1xx_ll_utils.c **** 
 524:src/stm32f1xx_ll_utils.c ****   assert_param(IS_LL_UTILS_SYSCLK_DIV(UTILS_ClkInitStruct->AHBCLKDivider));
 525:src/stm32f1xx_ll_utils.c ****   assert_param(IS_LL_UTILS_APB1_DIV(UTILS_ClkInitStruct->APB1CLKDivider));
 526:src/stm32f1xx_ll_utils.c ****   assert_param(IS_LL_UTILS_APB2_DIV(UTILS_ClkInitStruct->APB2CLKDivider));
 527:src/stm32f1xx_ll_utils.c **** 
 528:src/stm32f1xx_ll_utils.c **** #if defined(FLASH_ACR_LATENCY)
 529:src/stm32f1xx_ll_utils.c ****   /* Calculate current SYSCLK frequency */
 530:src/stm32f1xx_ll_utils.c ****   sysclk_frequency_current = (SystemCoreClock << AHBPrescTable[LL_RCC_GetAHBPrescaler() >> RCC_CFGR
 184              		.loc 1 530 0
 185 0046 234E     		ldr	r6, .L24+4	@ tmp148,
 186              	.LBB47:
 187              	.LBB46:
 188              		.loc 3 1100 0
 189 0048 6368     		ldr	r3, [r4, #4]	@ _37, MEM[(struct RCC_TypeDef *)1073876992B].CFGR
 190              	.LBE46:
 191              	.LBE47:
 192              		.loc 1 530 0
 193 004a 234F     		ldr	r7, .L24+8	@ tmp149,
 194 004c C3F30313 		ubfx	r3, r3, #4, #4	@ tmp151, _37,,
 195 0050 17F80380 		ldrb	r8, [r7, r3]	@ zero_extendqisi2	@ tmp152, AHBPrescTable
 196 0054 3368     		ldr	r3, [r6]	@ SystemCoreClock, SystemCoreClock
 518:src/stm32f1xx_ll_utils.c ****   ErrorStatus status = SUCCESS;
 197              		.loc 1 518 0
 198 0056 0546     		mov	r5, r0	@ SYSCLK_Frequency, SYSCLK_Frequency
 199              		.loc 1 530 0
 200 0058 03FA08F8 		lsl	r8, r3, r8	@ sysclk_frequency_current, SystemCoreClock, tmp152
 201              	.LVL11:
 531:src/stm32f1xx_ll_utils.c **** #endif /* FLASH_ACR_LATENCY */
 532:src/stm32f1xx_ll_utils.c **** 
 533:src/stm32f1xx_ll_utils.c ****   /* Increasing the number of wait states because of higher CPU frequency */
 534:src/stm32f1xx_ll_utils.c **** #if defined (FLASH_ACR_LATENCY)
 535:src/stm32f1xx_ll_utils.c ****   if (sysclk_frequency_current < SYSCLK_Frequency)
 202              		.loc 1 535 0
 203 005c 8045     		cmp	r8, r0	@ sysclk_frequency_current, SYSCLK_Frequency
 204 005e 31D3     		bcc	.L9	@,
 205              	.LVL12:
 206              	.L11:
 207              	.LBB48:
 208              	.LBB49:
1101:./inc/stm32f1xx_ll_rcc.h **** }
1102:./inc/stm32f1xx_ll_rcc.h **** 
1103:./inc/stm32f1xx_ll_rcc.h **** /**
1104:./inc/stm32f1xx_ll_rcc.h ****   * @brief  Get APB1 prescaler
1105:./inc/stm32f1xx_ll_rcc.h ****   * @rmtoll CFGR         PPRE1         LL_RCC_GetAPB1Prescaler
ARM GAS  /tmp/ccgFoonV.s 			page 42


1106:./inc/stm32f1xx_ll_rcc.h ****   * @retval Returned value can be one of the following values:
1107:./inc/stm32f1xx_ll_rcc.h ****   *         @arg @ref LL_RCC_APB1_DIV_1
1108:./inc/stm32f1xx_ll_rcc.h ****   *         @arg @ref LL_RCC_APB1_DIV_2
1109:./inc/stm32f1xx_ll_rcc.h ****   *         @arg @ref LL_RCC_APB1_DIV_4
1110:./inc/stm32f1xx_ll_rcc.h ****   *         @arg @ref LL_RCC_APB1_DIV_8
1111:./inc/stm32f1xx_ll_rcc.h ****   *         @arg @ref LL_RCC_APB1_DIV_16
1112:./inc/stm32f1xx_ll_rcc.h ****   */
1113:./inc/stm32f1xx_ll_rcc.h **** __STATIC_INLINE uint32_t LL_RCC_GetAPB1Prescaler(void)
1114:./inc/stm32f1xx_ll_rcc.h **** {
1115:./inc/stm32f1xx_ll_rcc.h ****   return (uint32_t)(READ_BIT(RCC->CFGR, RCC_CFGR_PPRE1));
1116:./inc/stm32f1xx_ll_rcc.h **** }
1117:./inc/stm32f1xx_ll_rcc.h **** 
1118:./inc/stm32f1xx_ll_rcc.h **** /**
1119:./inc/stm32f1xx_ll_rcc.h ****   * @brief  Get APB2 prescaler
1120:./inc/stm32f1xx_ll_rcc.h ****   * @rmtoll CFGR         PPRE2         LL_RCC_GetAPB2Prescaler
1121:./inc/stm32f1xx_ll_rcc.h ****   * @retval Returned value can be one of the following values:
1122:./inc/stm32f1xx_ll_rcc.h ****   *         @arg @ref LL_RCC_APB2_DIV_1
1123:./inc/stm32f1xx_ll_rcc.h ****   *         @arg @ref LL_RCC_APB2_DIV_2
1124:./inc/stm32f1xx_ll_rcc.h ****   *         @arg @ref LL_RCC_APB2_DIV_4
1125:./inc/stm32f1xx_ll_rcc.h ****   *         @arg @ref LL_RCC_APB2_DIV_8
1126:./inc/stm32f1xx_ll_rcc.h ****   *         @arg @ref LL_RCC_APB2_DIV_16
1127:./inc/stm32f1xx_ll_rcc.h ****   */
1128:./inc/stm32f1xx_ll_rcc.h **** __STATIC_INLINE uint32_t LL_RCC_GetAPB2Prescaler(void)
1129:./inc/stm32f1xx_ll_rcc.h **** {
1130:./inc/stm32f1xx_ll_rcc.h ****   return (uint32_t)(READ_BIT(RCC->CFGR, RCC_CFGR_PPRE2));
1131:./inc/stm32f1xx_ll_rcc.h **** }
1132:./inc/stm32f1xx_ll_rcc.h **** 
1133:./inc/stm32f1xx_ll_rcc.h **** /**
1134:./inc/stm32f1xx_ll_rcc.h ****   * @}
1135:./inc/stm32f1xx_ll_rcc.h ****   */
1136:./inc/stm32f1xx_ll_rcc.h **** 
1137:./inc/stm32f1xx_ll_rcc.h **** /** @defgroup RCC_LL_EF_MCO MCO
1138:./inc/stm32f1xx_ll_rcc.h ****   * @{
1139:./inc/stm32f1xx_ll_rcc.h ****   */
1140:./inc/stm32f1xx_ll_rcc.h **** 
1141:./inc/stm32f1xx_ll_rcc.h **** /**
1142:./inc/stm32f1xx_ll_rcc.h ****   * @brief  Configure MCOx
1143:./inc/stm32f1xx_ll_rcc.h ****   * @rmtoll CFGR         MCO           LL_RCC_ConfigMCO
1144:./inc/stm32f1xx_ll_rcc.h ****   * @param  MCOxSource This parameter can be one of the following values:
1145:./inc/stm32f1xx_ll_rcc.h ****   *         @arg @ref LL_RCC_MCO1SOURCE_NOCLOCK
1146:./inc/stm32f1xx_ll_rcc.h ****   *         @arg @ref LL_RCC_MCO1SOURCE_SYSCLK
1147:./inc/stm32f1xx_ll_rcc.h ****   *         @arg @ref LL_RCC_MCO1SOURCE_HSI
1148:./inc/stm32f1xx_ll_rcc.h ****   *         @arg @ref LL_RCC_MCO1SOURCE_HSE
1149:./inc/stm32f1xx_ll_rcc.h ****   *         @arg @ref LL_RCC_MCO1SOURCE_PLLCLK_DIV_2
1150:./inc/stm32f1xx_ll_rcc.h ****   *         @arg @ref LL_RCC_MCO1SOURCE_PLL2CLK (*)
1151:./inc/stm32f1xx_ll_rcc.h ****   *         @arg @ref LL_RCC_MCO1SOURCE_PLLI2SCLK_DIV2 (*)
1152:./inc/stm32f1xx_ll_rcc.h ****   *         @arg @ref LL_RCC_MCO1SOURCE_EXT_HSE (*)
1153:./inc/stm32f1xx_ll_rcc.h ****   *         @arg @ref LL_RCC_MCO1SOURCE_PLLI2SCLK (*)
1154:./inc/stm32f1xx_ll_rcc.h ****   *
1155:./inc/stm32f1xx_ll_rcc.h ****   *         (*) value not defined in all devices
1156:./inc/stm32f1xx_ll_rcc.h ****   * @retval None
1157:./inc/stm32f1xx_ll_rcc.h ****   */
1158:./inc/stm32f1xx_ll_rcc.h **** __STATIC_INLINE void LL_RCC_ConfigMCO(uint32_t MCOxSource)
1159:./inc/stm32f1xx_ll_rcc.h **** {
1160:./inc/stm32f1xx_ll_rcc.h ****   MODIFY_REG(RCC->CFGR, RCC_CFGR_MCOSEL, MCOxSource);
1161:./inc/stm32f1xx_ll_rcc.h **** }
1162:./inc/stm32f1xx_ll_rcc.h **** 
ARM GAS  /tmp/ccgFoonV.s 			page 43


1163:./inc/stm32f1xx_ll_rcc.h **** /**
1164:./inc/stm32f1xx_ll_rcc.h ****   * @}
1165:./inc/stm32f1xx_ll_rcc.h ****   */
1166:./inc/stm32f1xx_ll_rcc.h **** 
1167:./inc/stm32f1xx_ll_rcc.h **** /** @defgroup RCC_LL_EF_Peripheral_Clock_Source Peripheral Clock Source
1168:./inc/stm32f1xx_ll_rcc.h ****   * @{
1169:./inc/stm32f1xx_ll_rcc.h ****   */
1170:./inc/stm32f1xx_ll_rcc.h **** 
1171:./inc/stm32f1xx_ll_rcc.h **** #if defined(RCC_CFGR2_I2S2SRC)
1172:./inc/stm32f1xx_ll_rcc.h **** /**
1173:./inc/stm32f1xx_ll_rcc.h ****   * @brief  Configure I2Sx clock source
1174:./inc/stm32f1xx_ll_rcc.h ****   * @rmtoll CFGR2        I2S2SRC       LL_RCC_SetI2SClockSource\n
1175:./inc/stm32f1xx_ll_rcc.h ****   *         CFGR2        I2S3SRC       LL_RCC_SetI2SClockSource
1176:./inc/stm32f1xx_ll_rcc.h ****   * @param  I2SxSource This parameter can be one of the following values:
1177:./inc/stm32f1xx_ll_rcc.h ****   *         @arg @ref LL_RCC_I2S2_CLKSOURCE_SYSCLK
1178:./inc/stm32f1xx_ll_rcc.h ****   *         @arg @ref LL_RCC_I2S2_CLKSOURCE_PLLI2S_VCO
1179:./inc/stm32f1xx_ll_rcc.h ****   *         @arg @ref LL_RCC_I2S3_CLKSOURCE_SYSCLK
1180:./inc/stm32f1xx_ll_rcc.h ****   *         @arg @ref LL_RCC_I2S3_CLKSOURCE_PLLI2S_VCO
1181:./inc/stm32f1xx_ll_rcc.h ****   * @retval None
1182:./inc/stm32f1xx_ll_rcc.h ****   */
1183:./inc/stm32f1xx_ll_rcc.h **** __STATIC_INLINE void LL_RCC_SetI2SClockSource(uint32_t I2SxSource)
1184:./inc/stm32f1xx_ll_rcc.h **** {
1185:./inc/stm32f1xx_ll_rcc.h ****   MODIFY_REG(RCC->CFGR2, (I2SxSource & 0xFFFF0000U), (I2SxSource << 16U));
1186:./inc/stm32f1xx_ll_rcc.h **** }
1187:./inc/stm32f1xx_ll_rcc.h **** #endif /* RCC_CFGR2_I2S2SRC */
1188:./inc/stm32f1xx_ll_rcc.h **** 
1189:./inc/stm32f1xx_ll_rcc.h **** #if defined(USB_OTG_FS) || defined(USB)
1190:./inc/stm32f1xx_ll_rcc.h **** /**
1191:./inc/stm32f1xx_ll_rcc.h ****   * @brief  Configure USB clock source
1192:./inc/stm32f1xx_ll_rcc.h ****   * @rmtoll CFGR         OTGFSPRE      LL_RCC_SetUSBClockSource\n
1193:./inc/stm32f1xx_ll_rcc.h ****   *         CFGR         USBPRE        LL_RCC_SetUSBClockSource
1194:./inc/stm32f1xx_ll_rcc.h ****   * @param  USBxSource This parameter can be one of the following values:
1195:./inc/stm32f1xx_ll_rcc.h ****   *         @arg @ref LL_RCC_USB_CLKSOURCE_PLL (*)
1196:./inc/stm32f1xx_ll_rcc.h ****   *         @arg @ref LL_RCC_USB_CLKSOURCE_PLL_DIV_1_5 (*)
1197:./inc/stm32f1xx_ll_rcc.h ****   *         @arg @ref LL_RCC_USB_CLKSOURCE_PLL_DIV_2 (*)
1198:./inc/stm32f1xx_ll_rcc.h ****   *         @arg @ref LL_RCC_USB_CLKSOURCE_PLL_DIV_3 (*)
1199:./inc/stm32f1xx_ll_rcc.h ****   *
1200:./inc/stm32f1xx_ll_rcc.h ****   *         (*) value not defined in all devices
1201:./inc/stm32f1xx_ll_rcc.h ****   * @retval None
1202:./inc/stm32f1xx_ll_rcc.h ****   */
1203:./inc/stm32f1xx_ll_rcc.h **** __STATIC_INLINE void LL_RCC_SetUSBClockSource(uint32_t USBxSource)
1204:./inc/stm32f1xx_ll_rcc.h **** {
1205:./inc/stm32f1xx_ll_rcc.h **** #if defined(RCC_CFGR_USBPRE)
1206:./inc/stm32f1xx_ll_rcc.h ****   MODIFY_REG(RCC->CFGR, RCC_CFGR_USBPRE, USBxSource);
1207:./inc/stm32f1xx_ll_rcc.h **** #else /*RCC_CFGR_OTGFSPRE*/
1208:./inc/stm32f1xx_ll_rcc.h ****   MODIFY_REG(RCC->CFGR, RCC_CFGR_OTGFSPRE, USBxSource);
1209:./inc/stm32f1xx_ll_rcc.h **** #endif /*RCC_CFGR_USBPRE*/
1210:./inc/stm32f1xx_ll_rcc.h **** }
1211:./inc/stm32f1xx_ll_rcc.h **** #endif /* USB_OTG_FS || USB */
1212:./inc/stm32f1xx_ll_rcc.h **** 
1213:./inc/stm32f1xx_ll_rcc.h **** /**
1214:./inc/stm32f1xx_ll_rcc.h ****   * @brief  Configure ADC clock source
1215:./inc/stm32f1xx_ll_rcc.h ****   * @rmtoll CFGR         ADCPRE        LL_RCC_SetADCClockSource
1216:./inc/stm32f1xx_ll_rcc.h ****   * @param  ADCxSource This parameter can be one of the following values:
1217:./inc/stm32f1xx_ll_rcc.h ****   *         @arg @ref LL_RCC_ADC_CLKSRC_PCLK2_DIV_2
1218:./inc/stm32f1xx_ll_rcc.h ****   *         @arg @ref LL_RCC_ADC_CLKSRC_PCLK2_DIV_4
1219:./inc/stm32f1xx_ll_rcc.h ****   *         @arg @ref LL_RCC_ADC_CLKSRC_PCLK2_DIV_6
ARM GAS  /tmp/ccgFoonV.s 			page 44


1220:./inc/stm32f1xx_ll_rcc.h ****   *         @arg @ref LL_RCC_ADC_CLKSRC_PCLK2_DIV_8
1221:./inc/stm32f1xx_ll_rcc.h ****   * @retval None
1222:./inc/stm32f1xx_ll_rcc.h ****   */
1223:./inc/stm32f1xx_ll_rcc.h **** __STATIC_INLINE void LL_RCC_SetADCClockSource(uint32_t ADCxSource)
1224:./inc/stm32f1xx_ll_rcc.h **** {
1225:./inc/stm32f1xx_ll_rcc.h ****   MODIFY_REG(RCC->CFGR, RCC_CFGR_ADCPRE, ADCxSource);
1226:./inc/stm32f1xx_ll_rcc.h **** }
1227:./inc/stm32f1xx_ll_rcc.h **** 
1228:./inc/stm32f1xx_ll_rcc.h **** #if defined(RCC_CFGR2_I2S2SRC)
1229:./inc/stm32f1xx_ll_rcc.h **** /**
1230:./inc/stm32f1xx_ll_rcc.h ****   * @brief  Get I2Sx clock source
1231:./inc/stm32f1xx_ll_rcc.h ****   * @rmtoll CFGR2        I2S2SRC       LL_RCC_GetI2SClockSource\n
1232:./inc/stm32f1xx_ll_rcc.h ****   *         CFGR2        I2S3SRC       LL_RCC_GetI2SClockSource
1233:./inc/stm32f1xx_ll_rcc.h ****   * @param  I2Sx This parameter can be one of the following values:
1234:./inc/stm32f1xx_ll_rcc.h ****   *         @arg @ref LL_RCC_I2S2_CLKSOURCE
1235:./inc/stm32f1xx_ll_rcc.h ****   *         @arg @ref LL_RCC_I2S3_CLKSOURCE
1236:./inc/stm32f1xx_ll_rcc.h ****   * @retval Returned value can be one of the following values:
1237:./inc/stm32f1xx_ll_rcc.h ****   *         @arg @ref LL_RCC_I2S2_CLKSOURCE_SYSCLK
1238:./inc/stm32f1xx_ll_rcc.h ****   *         @arg @ref LL_RCC_I2S2_CLKSOURCE_PLLI2S_VCO
1239:./inc/stm32f1xx_ll_rcc.h ****   *         @arg @ref LL_RCC_I2S3_CLKSOURCE_SYSCLK
1240:./inc/stm32f1xx_ll_rcc.h ****   *         @arg @ref LL_RCC_I2S3_CLKSOURCE_PLLI2S_VCO
1241:./inc/stm32f1xx_ll_rcc.h ****   */
1242:./inc/stm32f1xx_ll_rcc.h **** __STATIC_INLINE uint32_t LL_RCC_GetI2SClockSource(uint32_t I2Sx)
1243:./inc/stm32f1xx_ll_rcc.h **** {
1244:./inc/stm32f1xx_ll_rcc.h ****   return (uint32_t)(READ_BIT(RCC->CFGR2, I2Sx) >> 16U | I2Sx);
1245:./inc/stm32f1xx_ll_rcc.h **** }
1246:./inc/stm32f1xx_ll_rcc.h **** #endif /* RCC_CFGR2_I2S2SRC */
1247:./inc/stm32f1xx_ll_rcc.h **** 
1248:./inc/stm32f1xx_ll_rcc.h **** #if defined(USB_OTG_FS) || defined(USB)
1249:./inc/stm32f1xx_ll_rcc.h **** /**
1250:./inc/stm32f1xx_ll_rcc.h ****   * @brief  Get USBx clock source
1251:./inc/stm32f1xx_ll_rcc.h ****   * @rmtoll CFGR         OTGFSPRE      LL_RCC_GetUSBClockSource\n
1252:./inc/stm32f1xx_ll_rcc.h ****   *         CFGR         USBPRE        LL_RCC_GetUSBClockSource
1253:./inc/stm32f1xx_ll_rcc.h ****   * @param  USBx This parameter can be one of the following values:
1254:./inc/stm32f1xx_ll_rcc.h ****   *         @arg @ref LL_RCC_USB_CLKSOURCE
1255:./inc/stm32f1xx_ll_rcc.h ****   * @retval Returned value can be one of the following values:
1256:./inc/stm32f1xx_ll_rcc.h ****   *         @arg @ref LL_RCC_USB_CLKSOURCE_PLL (*)
1257:./inc/stm32f1xx_ll_rcc.h ****   *         @arg @ref LL_RCC_USB_CLKSOURCE_PLL_DIV_1_5 (*)
1258:./inc/stm32f1xx_ll_rcc.h ****   *         @arg @ref LL_RCC_USB_CLKSOURCE_PLL_DIV_2 (*)
1259:./inc/stm32f1xx_ll_rcc.h ****   *         @arg @ref LL_RCC_USB_CLKSOURCE_PLL_DIV_3 (*)
1260:./inc/stm32f1xx_ll_rcc.h ****   *
1261:./inc/stm32f1xx_ll_rcc.h ****   *         (*) value not defined in all devices
1262:./inc/stm32f1xx_ll_rcc.h ****   */
1263:./inc/stm32f1xx_ll_rcc.h **** __STATIC_INLINE uint32_t LL_RCC_GetUSBClockSource(uint32_t USBx)
1264:./inc/stm32f1xx_ll_rcc.h **** {
1265:./inc/stm32f1xx_ll_rcc.h ****   return (uint32_t)(READ_BIT(RCC->CFGR, USBx));
1266:./inc/stm32f1xx_ll_rcc.h **** }
1267:./inc/stm32f1xx_ll_rcc.h **** #endif /* USB_OTG_FS || USB */
1268:./inc/stm32f1xx_ll_rcc.h **** 
1269:./inc/stm32f1xx_ll_rcc.h **** /**
1270:./inc/stm32f1xx_ll_rcc.h ****   * @brief  Get ADCx clock source
1271:./inc/stm32f1xx_ll_rcc.h ****   * @rmtoll CFGR         ADCPRE        LL_RCC_GetADCClockSource
1272:./inc/stm32f1xx_ll_rcc.h ****   * @param  ADCx This parameter can be one of the following values:
1273:./inc/stm32f1xx_ll_rcc.h ****   *         @arg @ref LL_RCC_ADC_CLKSOURCE
1274:./inc/stm32f1xx_ll_rcc.h ****   * @retval Returned value can be one of the following values:
1275:./inc/stm32f1xx_ll_rcc.h ****   *         @arg @ref LL_RCC_ADC_CLKSRC_PCLK2_DIV_2
1276:./inc/stm32f1xx_ll_rcc.h ****   *         @arg @ref LL_RCC_ADC_CLKSRC_PCLK2_DIV_4
ARM GAS  /tmp/ccgFoonV.s 			page 45


1277:./inc/stm32f1xx_ll_rcc.h ****   *         @arg @ref LL_RCC_ADC_CLKSRC_PCLK2_DIV_6
1278:./inc/stm32f1xx_ll_rcc.h ****   *         @arg @ref LL_RCC_ADC_CLKSRC_PCLK2_DIV_8
1279:./inc/stm32f1xx_ll_rcc.h ****   */
1280:./inc/stm32f1xx_ll_rcc.h **** __STATIC_INLINE uint32_t LL_RCC_GetADCClockSource(uint32_t ADCx)
1281:./inc/stm32f1xx_ll_rcc.h **** {
1282:./inc/stm32f1xx_ll_rcc.h ****   return (uint32_t)(READ_BIT(RCC->CFGR, ADCx));
1283:./inc/stm32f1xx_ll_rcc.h **** }
1284:./inc/stm32f1xx_ll_rcc.h **** 
1285:./inc/stm32f1xx_ll_rcc.h **** /**
1286:./inc/stm32f1xx_ll_rcc.h ****   * @}
1287:./inc/stm32f1xx_ll_rcc.h ****   */
1288:./inc/stm32f1xx_ll_rcc.h **** 
1289:./inc/stm32f1xx_ll_rcc.h **** /** @defgroup RCC_LL_EF_RTC RTC
1290:./inc/stm32f1xx_ll_rcc.h ****   * @{
1291:./inc/stm32f1xx_ll_rcc.h ****   */
1292:./inc/stm32f1xx_ll_rcc.h **** 
1293:./inc/stm32f1xx_ll_rcc.h **** /**
1294:./inc/stm32f1xx_ll_rcc.h ****   * @brief  Set RTC Clock Source
1295:./inc/stm32f1xx_ll_rcc.h ****   * @note Once the RTC clock source has been selected, it cannot be changed any more unless
1296:./inc/stm32f1xx_ll_rcc.h ****   *       the Backup domain is reset. The BDRST bit can be used to reset them.
1297:./inc/stm32f1xx_ll_rcc.h ****   * @rmtoll BDCR         RTCSEL        LL_RCC_SetRTCClockSource
1298:./inc/stm32f1xx_ll_rcc.h ****   * @param  Source This parameter can be one of the following values:
1299:./inc/stm32f1xx_ll_rcc.h ****   *         @arg @ref LL_RCC_RTC_CLKSOURCE_NONE
1300:./inc/stm32f1xx_ll_rcc.h ****   *         @arg @ref LL_RCC_RTC_CLKSOURCE_LSE
1301:./inc/stm32f1xx_ll_rcc.h ****   *         @arg @ref LL_RCC_RTC_CLKSOURCE_LSI
1302:./inc/stm32f1xx_ll_rcc.h ****   *         @arg @ref LL_RCC_RTC_CLKSOURCE_HSE_DIV128
1303:./inc/stm32f1xx_ll_rcc.h ****   * @retval None
1304:./inc/stm32f1xx_ll_rcc.h ****   */
1305:./inc/stm32f1xx_ll_rcc.h **** __STATIC_INLINE void LL_RCC_SetRTCClockSource(uint32_t Source)
1306:./inc/stm32f1xx_ll_rcc.h **** {
1307:./inc/stm32f1xx_ll_rcc.h ****   MODIFY_REG(RCC->BDCR, RCC_BDCR_RTCSEL, Source);
1308:./inc/stm32f1xx_ll_rcc.h **** }
1309:./inc/stm32f1xx_ll_rcc.h **** 
1310:./inc/stm32f1xx_ll_rcc.h **** /**
1311:./inc/stm32f1xx_ll_rcc.h ****   * @brief  Get RTC Clock Source
1312:./inc/stm32f1xx_ll_rcc.h ****   * @rmtoll BDCR         RTCSEL        LL_RCC_GetRTCClockSource
1313:./inc/stm32f1xx_ll_rcc.h ****   * @retval Returned value can be one of the following values:
1314:./inc/stm32f1xx_ll_rcc.h ****   *         @arg @ref LL_RCC_RTC_CLKSOURCE_NONE
1315:./inc/stm32f1xx_ll_rcc.h ****   *         @arg @ref LL_RCC_RTC_CLKSOURCE_LSE
1316:./inc/stm32f1xx_ll_rcc.h ****   *         @arg @ref LL_RCC_RTC_CLKSOURCE_LSI
1317:./inc/stm32f1xx_ll_rcc.h ****   *         @arg @ref LL_RCC_RTC_CLKSOURCE_HSE_DIV128
1318:./inc/stm32f1xx_ll_rcc.h ****   */
1319:./inc/stm32f1xx_ll_rcc.h **** __STATIC_INLINE uint32_t LL_RCC_GetRTCClockSource(void)
1320:./inc/stm32f1xx_ll_rcc.h **** {
1321:./inc/stm32f1xx_ll_rcc.h ****   return (uint32_t)(READ_BIT(RCC->BDCR, RCC_BDCR_RTCSEL));
1322:./inc/stm32f1xx_ll_rcc.h **** }
1323:./inc/stm32f1xx_ll_rcc.h **** 
1324:./inc/stm32f1xx_ll_rcc.h **** /**
1325:./inc/stm32f1xx_ll_rcc.h ****   * @brief  Enable RTC
1326:./inc/stm32f1xx_ll_rcc.h ****   * @rmtoll BDCR         RTCEN         LL_RCC_EnableRTC
1327:./inc/stm32f1xx_ll_rcc.h ****   * @retval None
1328:./inc/stm32f1xx_ll_rcc.h ****   */
1329:./inc/stm32f1xx_ll_rcc.h **** __STATIC_INLINE void LL_RCC_EnableRTC(void)
1330:./inc/stm32f1xx_ll_rcc.h **** {
1331:./inc/stm32f1xx_ll_rcc.h ****   SET_BIT(RCC->BDCR, RCC_BDCR_RTCEN);
1332:./inc/stm32f1xx_ll_rcc.h **** }
1333:./inc/stm32f1xx_ll_rcc.h **** 
ARM GAS  /tmp/ccgFoonV.s 			page 46


1334:./inc/stm32f1xx_ll_rcc.h **** /**
1335:./inc/stm32f1xx_ll_rcc.h ****   * @brief  Disable RTC
1336:./inc/stm32f1xx_ll_rcc.h ****   * @rmtoll BDCR         RTCEN         LL_RCC_DisableRTC
1337:./inc/stm32f1xx_ll_rcc.h ****   * @retval None
1338:./inc/stm32f1xx_ll_rcc.h ****   */
1339:./inc/stm32f1xx_ll_rcc.h **** __STATIC_INLINE void LL_RCC_DisableRTC(void)
1340:./inc/stm32f1xx_ll_rcc.h **** {
1341:./inc/stm32f1xx_ll_rcc.h ****   CLEAR_BIT(RCC->BDCR, RCC_BDCR_RTCEN);
1342:./inc/stm32f1xx_ll_rcc.h **** }
1343:./inc/stm32f1xx_ll_rcc.h **** 
1344:./inc/stm32f1xx_ll_rcc.h **** /**
1345:./inc/stm32f1xx_ll_rcc.h ****   * @brief  Check if RTC has been enabled or not
1346:./inc/stm32f1xx_ll_rcc.h ****   * @rmtoll BDCR         RTCEN         LL_RCC_IsEnabledRTC
1347:./inc/stm32f1xx_ll_rcc.h ****   * @retval State of bit (1 or 0).
1348:./inc/stm32f1xx_ll_rcc.h ****   */
1349:./inc/stm32f1xx_ll_rcc.h **** __STATIC_INLINE uint32_t LL_RCC_IsEnabledRTC(void)
1350:./inc/stm32f1xx_ll_rcc.h **** {
1351:./inc/stm32f1xx_ll_rcc.h ****   return (READ_BIT(RCC->BDCR, RCC_BDCR_RTCEN) == (RCC_BDCR_RTCEN));
1352:./inc/stm32f1xx_ll_rcc.h **** }
1353:./inc/stm32f1xx_ll_rcc.h **** 
1354:./inc/stm32f1xx_ll_rcc.h **** /**
1355:./inc/stm32f1xx_ll_rcc.h ****   * @brief  Force the Backup domain reset
1356:./inc/stm32f1xx_ll_rcc.h ****   * @rmtoll BDCR         BDRST         LL_RCC_ForceBackupDomainReset
1357:./inc/stm32f1xx_ll_rcc.h ****   * @retval None
1358:./inc/stm32f1xx_ll_rcc.h ****   */
1359:./inc/stm32f1xx_ll_rcc.h **** __STATIC_INLINE void LL_RCC_ForceBackupDomainReset(void)
1360:./inc/stm32f1xx_ll_rcc.h **** {
1361:./inc/stm32f1xx_ll_rcc.h ****   SET_BIT(RCC->BDCR, RCC_BDCR_BDRST);
1362:./inc/stm32f1xx_ll_rcc.h **** }
1363:./inc/stm32f1xx_ll_rcc.h **** 
1364:./inc/stm32f1xx_ll_rcc.h **** /**
1365:./inc/stm32f1xx_ll_rcc.h ****   * @brief  Release the Backup domain reset
1366:./inc/stm32f1xx_ll_rcc.h ****   * @rmtoll BDCR         BDRST         LL_RCC_ReleaseBackupDomainReset
1367:./inc/stm32f1xx_ll_rcc.h ****   * @retval None
1368:./inc/stm32f1xx_ll_rcc.h ****   */
1369:./inc/stm32f1xx_ll_rcc.h **** __STATIC_INLINE void LL_RCC_ReleaseBackupDomainReset(void)
1370:./inc/stm32f1xx_ll_rcc.h **** {
1371:./inc/stm32f1xx_ll_rcc.h ****   CLEAR_BIT(RCC->BDCR, RCC_BDCR_BDRST);
1372:./inc/stm32f1xx_ll_rcc.h **** }
1373:./inc/stm32f1xx_ll_rcc.h **** 
1374:./inc/stm32f1xx_ll_rcc.h **** /**
1375:./inc/stm32f1xx_ll_rcc.h ****   * @}
1376:./inc/stm32f1xx_ll_rcc.h ****   */
1377:./inc/stm32f1xx_ll_rcc.h **** 
1378:./inc/stm32f1xx_ll_rcc.h **** /** @defgroup RCC_LL_EF_PLL PLL
1379:./inc/stm32f1xx_ll_rcc.h ****   * @{
1380:./inc/stm32f1xx_ll_rcc.h ****   */
1381:./inc/stm32f1xx_ll_rcc.h **** 
1382:./inc/stm32f1xx_ll_rcc.h **** /**
1383:./inc/stm32f1xx_ll_rcc.h ****   * @brief  Enable PLL
1384:./inc/stm32f1xx_ll_rcc.h ****   * @rmtoll CR           PLLON         LL_RCC_PLL_Enable
1385:./inc/stm32f1xx_ll_rcc.h ****   * @retval None
1386:./inc/stm32f1xx_ll_rcc.h ****   */
1387:./inc/stm32f1xx_ll_rcc.h **** __STATIC_INLINE void LL_RCC_PLL_Enable(void)
1388:./inc/stm32f1xx_ll_rcc.h **** {
1389:./inc/stm32f1xx_ll_rcc.h ****   SET_BIT(RCC->CR, RCC_CR_PLLON);
 209              		.loc 3 1389 0
ARM GAS  /tmp/ccgFoonV.s 			page 47


 210 0060 2368     		ldr	r3, [r4]	@ _42, MEM[(struct RCC_TypeDef *)1073876992B].CR
 211 0062 43F08073 		orr	r3, r3, #16777216	@ _43, _42,
 212 0066 2360     		str	r3, [r4]	@ _43, MEM[(struct RCC_TypeDef *)1073876992B].CR
 213              	.L10:
 214              	.LBE49:
 215              	.LBE48:
 216              	.LBB50:
 217              	.LBB51:
1390:./inc/stm32f1xx_ll_rcc.h **** }
1391:./inc/stm32f1xx_ll_rcc.h **** 
1392:./inc/stm32f1xx_ll_rcc.h **** /**
1393:./inc/stm32f1xx_ll_rcc.h ****   * @brief  Disable PLL
1394:./inc/stm32f1xx_ll_rcc.h ****   * @note Cannot be disabled if the PLL clock is used as the system clock
1395:./inc/stm32f1xx_ll_rcc.h ****   * @rmtoll CR           PLLON         LL_RCC_PLL_Disable
1396:./inc/stm32f1xx_ll_rcc.h ****   * @retval None
1397:./inc/stm32f1xx_ll_rcc.h ****   */
1398:./inc/stm32f1xx_ll_rcc.h **** __STATIC_INLINE void LL_RCC_PLL_Disable(void)
1399:./inc/stm32f1xx_ll_rcc.h **** {
1400:./inc/stm32f1xx_ll_rcc.h ****   CLEAR_BIT(RCC->CR, RCC_CR_PLLON);
1401:./inc/stm32f1xx_ll_rcc.h **** }
1402:./inc/stm32f1xx_ll_rcc.h **** 
1403:./inc/stm32f1xx_ll_rcc.h **** /**
1404:./inc/stm32f1xx_ll_rcc.h ****   * @brief  Check if PLL Ready
1405:./inc/stm32f1xx_ll_rcc.h ****   * @rmtoll CR           PLLRDY        LL_RCC_PLL_IsReady
1406:./inc/stm32f1xx_ll_rcc.h ****   * @retval State of bit (1 or 0).
1407:./inc/stm32f1xx_ll_rcc.h ****   */
1408:./inc/stm32f1xx_ll_rcc.h **** __STATIC_INLINE uint32_t LL_RCC_PLL_IsReady(void)
1409:./inc/stm32f1xx_ll_rcc.h **** {
1410:./inc/stm32f1xx_ll_rcc.h ****   return (READ_BIT(RCC->CR, RCC_CR_PLLRDY) == (RCC_CR_PLLRDY));
 218              		.loc 3 1410 0 discriminator 1
 219 0068 2368     		ldr	r3, [r4]	@ _44, MEM[(struct RCC_TypeDef *)1073876992B].CR
 220              	.LBE51:
 221              	.LBE50:
 536:src/stm32f1xx_ll_utils.c ****   {
 537:src/stm32f1xx_ll_utils.c ****     /* Set FLASH latency to highest latency */
 538:src/stm32f1xx_ll_utils.c ****     status = UTILS_SetFlashLatency(SYSCLK_Frequency);
 539:src/stm32f1xx_ll_utils.c ****   }
 540:src/stm32f1xx_ll_utils.c **** #endif /* FLASH_ACR_LATENCY */
 541:src/stm32f1xx_ll_utils.c **** 
 542:src/stm32f1xx_ll_utils.c ****   /* Update system clock configuration */
 543:src/stm32f1xx_ll_utils.c ****   if (status == SUCCESS)
 544:src/stm32f1xx_ll_utils.c ****   {
 545:src/stm32f1xx_ll_utils.c **** #if defined(RCC_PLL2_SUPPORT)
 546:src/stm32f1xx_ll_utils.c ****     if (LL_RCC_PLL_GetMainSource() != LL_RCC_PLLSOURCE_HSI_DIV_2)
 547:src/stm32f1xx_ll_utils.c ****     {
 548:src/stm32f1xx_ll_utils.c ****       /* Enable PLL2 */
 549:src/stm32f1xx_ll_utils.c ****       LL_RCC_PLL2_Enable();
 550:src/stm32f1xx_ll_utils.c ****       while (LL_RCC_PLL2_IsReady() != 1U)
 551:src/stm32f1xx_ll_utils.c ****       {
 552:src/stm32f1xx_ll_utils.c ****         /* Wait for PLL2 ready */
 553:src/stm32f1xx_ll_utils.c ****       }
 554:src/stm32f1xx_ll_utils.c ****     }
 555:src/stm32f1xx_ll_utils.c **** #endif /* RCC_PLL2_SUPPORT */
 556:src/stm32f1xx_ll_utils.c ****     /* Enable PLL */
 557:src/stm32f1xx_ll_utils.c ****     LL_RCC_PLL_Enable();
 558:src/stm32f1xx_ll_utils.c ****     while (LL_RCC_PLL_IsReady() != 1U)
 222              		.loc 1 558 0 discriminator 1
ARM GAS  /tmp/ccgFoonV.s 			page 48


 223 006a 9B01     		lsls	r3, r3, #6	@, _44,
 224 006c FCD5     		bpl	.L10	@,
 225              	.LVL13:
 226              	.LBB52:
 227              	.LBB53:
1049:./inc/stm32f1xx_ll_rcc.h **** }
 228              		.loc 3 1049 0
 229 006e 6368     		ldr	r3, [r4, #4]	@ _51, MEM[(struct RCC_TypeDef *)1073876992B].CFGR
 230 0070 0A68     		ldr	r2, [r1]	@ UTILS_ClkInitStruct_21(D)->AHBCLKDivider, UTILS_ClkInitStruct_21(D)->AHBCLKDivider
 231 0072 23F0F003 		bic	r3, r3, #240	@ tmp160, _51,
 232 0076 1343     		orrs	r3, r3, r2	@, _53, tmp160, UTILS_ClkInitStruct_21(D)->AHBCLKDivider
 233 0078 6360     		str	r3, [r4, #4]	@ _53, MEM[(struct RCC_TypeDef *)1073876992B].CFGR
 234              	.LVL14:
 235              	.LBE53:
 236              	.LBE52:
 237              	.LBB54:
 238              	.LBB55:
1016:./inc/stm32f1xx_ll_rcc.h **** }
 239              		.loc 3 1016 0
 240 007a 6368     		ldr	r3, [r4, #4]	@ _48, MEM[(struct RCC_TypeDef *)1073876992B].CFGR
 241 007c 23F00303 		bic	r3, r3, #3	@ tmp164, _48,
 242 0080 43F00203 		orr	r3, r3, #2	@ _50, tmp164,
 243 0084 6360     		str	r3, [r4, #4]	@ _50, MEM[(struct RCC_TypeDef *)1073876992B].CFGR
 244              	.L13:
 245              	.LBE55:
 246              	.LBE54:
 247              	.LBB56:
 248              	.LBB57:
1029:./inc/stm32f1xx_ll_rcc.h **** }
 249              		.loc 3 1029 0 discriminator 1
 250 0086 6368     		ldr	r3, [r4, #4]	@ _39, MEM[(struct RCC_TypeDef *)1073876992B].CFGR
 251 0088 03F00C03 		and	r3, r3, #12	@ tmp167, _39,
 252              	.LBE57:
 253              	.LBE56:
 559:src/stm32f1xx_ll_utils.c ****     {
 560:src/stm32f1xx_ll_utils.c ****       /* Wait for PLL ready */
 561:src/stm32f1xx_ll_utils.c ****     }
 562:src/stm32f1xx_ll_utils.c **** 
 563:src/stm32f1xx_ll_utils.c ****     /* Sysclk activation on the main PLL */
 564:src/stm32f1xx_ll_utils.c ****     LL_RCC_SetAHBPrescaler(UTILS_ClkInitStruct->AHBCLKDivider);
 565:src/stm32f1xx_ll_utils.c ****     LL_RCC_SetSysClkSource(LL_RCC_SYS_CLKSOURCE_PLL);
 566:src/stm32f1xx_ll_utils.c ****     while (LL_RCC_GetSysClkSource() != LL_RCC_SYS_CLKSOURCE_STATUS_PLL)
 254              		.loc 1 566 0 discriminator 1
 255 008c 082B     		cmp	r3, #8	@ tmp167,
 256 008e FAD1     		bne	.L13	@,
 257              	.LVL15:
 258              	.LBB58:
 259              	.LBB59:
1065:./inc/stm32f1xx_ll_rcc.h **** }
 260              		.loc 3 1065 0
 261 0090 6368     		ldr	r3, [r4, #4]	@ _57, MEM[(struct RCC_TypeDef *)1073876992B].CFGR
 262 0092 4A68     		ldr	r2, [r1, #4]	@ UTILS_ClkInitStruct_21(D)->APB1CLKDivider, UTILS_ClkInitStruct_21(D)->APB1CLKDi
 263 0094 23F4E063 		bic	r3, r3, #1792	@ tmp169, _57,
 264 0098 1343     		orrs	r3, r3, r2	@, _59, tmp169, UTILS_ClkInitStruct_21(D)->APB1CLKDivider
 265 009a 6360     		str	r3, [r4, #4]	@ _59, MEM[(struct RCC_TypeDef *)1073876992B].CFGR
 266              	.LVL16:
 267              	.LBE59:
ARM GAS  /tmp/ccgFoonV.s 			page 49


 268              	.LBE58:
 269              	.LBB60:
 270              	.LBB61:
1081:./inc/stm32f1xx_ll_rcc.h **** }
 271              		.loc 3 1081 0
 272 009c 6368     		ldr	r3, [r4, #4]	@ _54, MEM[(struct RCC_TypeDef *)1073876992B].CFGR
 273 009e 8A68     		ldr	r2, [r1, #8]	@ UTILS_ClkInitStruct_21(D)->APB2CLKDivider, UTILS_ClkInitStruct_21(D)->APB2CLKDi
 274 00a0 23F46053 		bic	r3, r3, #14336	@ tmp173, _54,
 275 00a4 1343     		orrs	r3, r3, r2	@, _56, tmp173, UTILS_ClkInitStruct_21(D)->APB2CLKDivider
 276              	.LBE61:
 277              	.LBE60:
 567:src/stm32f1xx_ll_utils.c ****     {
 568:src/stm32f1xx_ll_utils.c ****       /* Wait for system clock switch to PLL */
 569:src/stm32f1xx_ll_utils.c ****     }
 570:src/stm32f1xx_ll_utils.c **** 
 571:src/stm32f1xx_ll_utils.c ****     /* Set APB1 & APB2 prescaler*/
 572:src/stm32f1xx_ll_utils.c ****     LL_RCC_SetAPB1Prescaler(UTILS_ClkInitStruct->APB1CLKDivider);
 573:src/stm32f1xx_ll_utils.c ****     LL_RCC_SetAPB2Prescaler(UTILS_ClkInitStruct->APB2CLKDivider);
 574:src/stm32f1xx_ll_utils.c ****   }
 575:src/stm32f1xx_ll_utils.c **** 
 576:src/stm32f1xx_ll_utils.c ****   /* Decreasing the number of wait states because of lower CPU frequency */
 577:src/stm32f1xx_ll_utils.c **** #if defined (FLASH_ACR_LATENCY)
 578:src/stm32f1xx_ll_utils.c ****   if (sysclk_frequency_current > SYSCLK_Frequency)
 278              		.loc 1 578 0
 279 00a6 A845     		cmp	r8, r5	@ sysclk_frequency_current, SYSCLK_Frequency
 280              	.LBB63:
 281              	.LBB62:
1081:./inc/stm32f1xx_ll_rcc.h **** }
 282              		.loc 3 1081 0
 283 00a8 6360     		str	r3, [r4, #4]	@ _56, MEM[(struct RCC_TypeDef *)1073876992B].CFGR
 284              	.LVL17:
 285              	.LBE62:
 286              	.LBE63:
 287              		.loc 1 578 0
 288 00aa 03D9     		bls	.L14	@,
 579:src/stm32f1xx_ll_utils.c ****   {
 580:src/stm32f1xx_ll_utils.c ****     /* Set FLASH latency to lowest latency */
 581:src/stm32f1xx_ll_utils.c ****     status = UTILS_SetFlashLatency(SYSCLK_Frequency);
 289              		.loc 1 581 0
 290 00ac 2846     		mov	r0, r5	@, SYSCLK_Frequency
 291 00ae FFF7A7FF 		bl	UTILS_SetFlashLatency	@
 292              	.LVL18:
 582:src/stm32f1xx_ll_utils.c ****   }
 583:src/stm32f1xx_ll_utils.c **** #endif /* FLASH_ACR_LATENCY */
 584:src/stm32f1xx_ll_utils.c **** 
 585:src/stm32f1xx_ll_utils.c ****   /* Update SystemCoreClock variable */
 586:src/stm32f1xx_ll_utils.c ****   if (status == SUCCESS)
 293              		.loc 1 586 0
 294 00b2 58B9     		cbnz	r0, .L17	@ <retval>,
 295              	.LVL19:
 296              	.L14:
 587:src/stm32f1xx_ll_utils.c ****   {
 588:src/stm32f1xx_ll_utils.c ****     LL_SetSystemCoreClock(__LL_RCC_CALC_HCLK_FREQ(SYSCLK_Frequency, UTILS_ClkInitStruct->AHBCLKDivi
 297              		.loc 1 588 0
 298 00b4 0B68     		ldr	r3, [r1]	@ UTILS_ClkInitStruct_21(D)->AHBCLKDivider, UTILS_ClkInitStruct_21(D)->AHBCLKDivider
 299              	.LBB64:
 300              	.LBB65:
ARM GAS  /tmp/ccgFoonV.s 			page 50


 246:src/stm32f1xx_ll_utils.c **** }
 301              		.loc 1 246 0
 302 00b6 0020     		movs	r0, #0	@ <retval>,
 303              	.LBE65:
 304              	.LBE64:
 305              		.loc 1 588 0
 306 00b8 C3F30313 		ubfx	r3, r3, #4, #4	@ tmp181, UTILS_ClkInitStruct_21(D)->AHBCLKDivider,,
 307 00bc FB5C     		ldrb	r3, [r7, r3]	@ zero_extendqisi2	@ tmp182, AHBPrescTable
 308 00be DD40     		lsrs	r5, r5, r3	@ tmp183, SYSCLK_Frequency, tmp182
 309              	.LVL20:
 310              	.LBB67:
 311              	.LBB66:
 246:src/stm32f1xx_ll_utils.c **** }
 312              		.loc 1 246 0
 313 00c0 3560     		str	r5, [r6]	@ tmp183, SystemCoreClock
 314 00c2 03E0     		b	.L17	@
 315              	.LVL21:
 316              	.L9:
 317              	.LBE66:
 318              	.LBE67:
 538:src/stm32f1xx_ll_utils.c ****   }
 319              		.loc 1 538 0
 320 00c4 FFF79CFF 		bl	UTILS_SetFlashLatency	@
 321              	.LVL22:
 543:src/stm32f1xx_ll_utils.c ****   {
 322              		.loc 1 543 0
 323 00c8 0028     		cmp	r0, #0	@ <retval>
 324 00ca C9D0     		beq	.L11	@
 325              	.LVL23:
 326              	.L17:
 589:src/stm32f1xx_ll_utils.c ****   }
 590:src/stm32f1xx_ll_utils.c **** 
 591:src/stm32f1xx_ll_utils.c ****   return status;
 592:src/stm32f1xx_ll_utils.c **** }
 327              		.loc 1 592 0
 328 00cc BDE8F081 		pop	{r4, r5, r6, r7, r8, pc}	@
 329              	.LVL24:
 330              	.L25:
 331              		.align	2
 332              	.L24:
 333 00d0 00100240 		.word	1073876992
 334 00d4 00000000 		.word	SystemCoreClock
 335 00d8 00000000 		.word	AHBPrescTable
 336              		.cfi_endproc
 337              	.LFE182:
 338              		.size	UTILS_EnablePLLAndSwitchSystem, .-UTILS_EnablePLLAndSwitchSystem
 339              		.align	1
 340              		.global	LL_Init1msTick
 341              		.syntax unified
 342              		.thumb
 343              		.thumb_func
 344              		.fpu softvfp
 345              		.type	LL_Init1msTick, %function
 346              	LL_Init1msTick:
 347              	.LFB174:
 170:src/stm32f1xx_ll_utils.c ****   /* Use frequency provided in argument */
 348              		.loc 1 170 0
ARM GAS  /tmp/ccgFoonV.s 			page 51


 349              		.cfi_startproc
 350              		@ args = 0, pretend = 0, frame = 0
 351              		@ frame_needed = 0, uses_anonymous_args = 0
 352              		@ link register save eliminated.
 353              	.LVL25:
 354              	.LBB70:
 355              	.LBB71:
 356              		.file 4 "./inc/stm32f1xx_ll_utils.h"
   1:./inc/stm32f1xx_ll_utils.h **** /**
   2:./inc/stm32f1xx_ll_utils.h ****   ******************************************************************************
   3:./inc/stm32f1xx_ll_utils.h ****   * @file    stm32f1xx_ll_utils.h
   4:./inc/stm32f1xx_ll_utils.h ****   * @author  MCD Application Team
   5:./inc/stm32f1xx_ll_utils.h ****   * @brief   Header file of UTILS LL module.
   6:./inc/stm32f1xx_ll_utils.h ****   @verbatim
   7:./inc/stm32f1xx_ll_utils.h ****   ==============================================================================
   8:./inc/stm32f1xx_ll_utils.h ****                      ##### How to use this driver #####
   9:./inc/stm32f1xx_ll_utils.h ****   ==============================================================================
  10:./inc/stm32f1xx_ll_utils.h ****     [..]
  11:./inc/stm32f1xx_ll_utils.h ****     The LL UTILS driver contains a set of generic APIs that can be
  12:./inc/stm32f1xx_ll_utils.h ****     used by user:
  13:./inc/stm32f1xx_ll_utils.h ****       (+) Device electronic signature
  14:./inc/stm32f1xx_ll_utils.h ****       (+) Timing functions
  15:./inc/stm32f1xx_ll_utils.h ****       (+) PLL configuration functions
  16:./inc/stm32f1xx_ll_utils.h **** 
  17:./inc/stm32f1xx_ll_utils.h ****   @endverbatim
  18:./inc/stm32f1xx_ll_utils.h ****   ******************************************************************************
  19:./inc/stm32f1xx_ll_utils.h ****   * @attention
  20:./inc/stm32f1xx_ll_utils.h ****   *
  21:./inc/stm32f1xx_ll_utils.h ****   * <h2><center>&copy; Copyright (c) 2016 STMicroelectronics.
  22:./inc/stm32f1xx_ll_utils.h ****   * All rights reserved.</center></h2>
  23:./inc/stm32f1xx_ll_utils.h ****   *
  24:./inc/stm32f1xx_ll_utils.h ****   * This software component is licensed by ST under BSD 3-Clause license,
  25:./inc/stm32f1xx_ll_utils.h ****   * the "License"; You may not use this file except in compliance with the
  26:./inc/stm32f1xx_ll_utils.h ****   * License. You may obtain a copy of the License at:
  27:./inc/stm32f1xx_ll_utils.h ****   *                        opensource.org/licenses/BSD-3-Clause
  28:./inc/stm32f1xx_ll_utils.h ****   *
  29:./inc/stm32f1xx_ll_utils.h ****   ******************************************************************************
  30:./inc/stm32f1xx_ll_utils.h ****   */
  31:./inc/stm32f1xx_ll_utils.h **** 
  32:./inc/stm32f1xx_ll_utils.h **** /* Define to prevent recursive inclusion -------------------------------------*/
  33:./inc/stm32f1xx_ll_utils.h **** #ifndef __STM32F1xx_LL_UTILS_H
  34:./inc/stm32f1xx_ll_utils.h **** #define __STM32F1xx_LL_UTILS_H
  35:./inc/stm32f1xx_ll_utils.h **** 
  36:./inc/stm32f1xx_ll_utils.h **** #ifdef __cplusplus
  37:./inc/stm32f1xx_ll_utils.h **** extern "C" {
  38:./inc/stm32f1xx_ll_utils.h **** #endif
  39:./inc/stm32f1xx_ll_utils.h **** 
  40:./inc/stm32f1xx_ll_utils.h **** /* Includes ------------------------------------------------------------------*/
  41:./inc/stm32f1xx_ll_utils.h **** #include "stm32f1xx.h"
  42:./inc/stm32f1xx_ll_utils.h **** 
  43:./inc/stm32f1xx_ll_utils.h **** /** @addtogroup STM32F1xx_LL_Driver
  44:./inc/stm32f1xx_ll_utils.h ****   * @{
  45:./inc/stm32f1xx_ll_utils.h ****   */
  46:./inc/stm32f1xx_ll_utils.h **** 
  47:./inc/stm32f1xx_ll_utils.h **** /** @defgroup UTILS_LL UTILS
  48:./inc/stm32f1xx_ll_utils.h ****   * @{
  49:./inc/stm32f1xx_ll_utils.h ****   */
ARM GAS  /tmp/ccgFoonV.s 			page 52


  50:./inc/stm32f1xx_ll_utils.h **** 
  51:./inc/stm32f1xx_ll_utils.h **** /* Private types -------------------------------------------------------------*/
  52:./inc/stm32f1xx_ll_utils.h **** /* Private variables ---------------------------------------------------------*/
  53:./inc/stm32f1xx_ll_utils.h **** 
  54:./inc/stm32f1xx_ll_utils.h **** /* Private constants ---------------------------------------------------------*/
  55:./inc/stm32f1xx_ll_utils.h **** /** @defgroup UTILS_LL_Private_Constants UTILS Private Constants
  56:./inc/stm32f1xx_ll_utils.h ****   * @{
  57:./inc/stm32f1xx_ll_utils.h ****   */
  58:./inc/stm32f1xx_ll_utils.h **** 
  59:./inc/stm32f1xx_ll_utils.h **** /* Max delay can be used in LL_mDelay */
  60:./inc/stm32f1xx_ll_utils.h **** #define LL_MAX_DELAY                  0xFFFFFFFFU
  61:./inc/stm32f1xx_ll_utils.h **** 
  62:./inc/stm32f1xx_ll_utils.h **** /**
  63:./inc/stm32f1xx_ll_utils.h ****  * @brief Unique device ID register base address
  64:./inc/stm32f1xx_ll_utils.h ****  */
  65:./inc/stm32f1xx_ll_utils.h **** #define UID_BASE_ADDRESS              UID_BASE
  66:./inc/stm32f1xx_ll_utils.h **** 
  67:./inc/stm32f1xx_ll_utils.h **** /**
  68:./inc/stm32f1xx_ll_utils.h ****  * @brief Flash size data register base address
  69:./inc/stm32f1xx_ll_utils.h ****  */
  70:./inc/stm32f1xx_ll_utils.h **** #define FLASHSIZE_BASE_ADDRESS        FLASHSIZE_BASE
  71:./inc/stm32f1xx_ll_utils.h **** 
  72:./inc/stm32f1xx_ll_utils.h **** /**
  73:./inc/stm32f1xx_ll_utils.h ****   * @}
  74:./inc/stm32f1xx_ll_utils.h ****   */
  75:./inc/stm32f1xx_ll_utils.h **** 
  76:./inc/stm32f1xx_ll_utils.h **** /* Private macros ------------------------------------------------------------*/
  77:./inc/stm32f1xx_ll_utils.h **** /** @defgroup UTILS_LL_Private_Macros UTILS Private Macros
  78:./inc/stm32f1xx_ll_utils.h ****   * @{
  79:./inc/stm32f1xx_ll_utils.h ****   */
  80:./inc/stm32f1xx_ll_utils.h **** /**
  81:./inc/stm32f1xx_ll_utils.h ****   * @}
  82:./inc/stm32f1xx_ll_utils.h ****   */
  83:./inc/stm32f1xx_ll_utils.h **** /* Exported types ------------------------------------------------------------*/
  84:./inc/stm32f1xx_ll_utils.h **** /** @defgroup UTILS_LL_ES_INIT UTILS Exported structures
  85:./inc/stm32f1xx_ll_utils.h ****   * @{
  86:./inc/stm32f1xx_ll_utils.h ****   */
  87:./inc/stm32f1xx_ll_utils.h **** /**
  88:./inc/stm32f1xx_ll_utils.h ****   * @brief  UTILS PLL structure definition
  89:./inc/stm32f1xx_ll_utils.h ****   */
  90:./inc/stm32f1xx_ll_utils.h **** typedef struct
  91:./inc/stm32f1xx_ll_utils.h **** {
  92:./inc/stm32f1xx_ll_utils.h ****   uint32_t PLLMul;   /*!< Multiplication factor for PLL VCO input clock.
  93:./inc/stm32f1xx_ll_utils.h ****                           This parameter can be a value of @ref RCC_LL_EC_PLL_MUL
  94:./inc/stm32f1xx_ll_utils.h **** 
  95:./inc/stm32f1xx_ll_utils.h ****                           This feature can be modified afterwards using unitary function
  96:./inc/stm32f1xx_ll_utils.h ****                           @ref LL_RCC_PLL_ConfigDomain_SYS(). */
  97:./inc/stm32f1xx_ll_utils.h **** 
  98:./inc/stm32f1xx_ll_utils.h ****   uint32_t Prediv;   /*!< Division factor for HSE used as PLL clock source.
  99:./inc/stm32f1xx_ll_utils.h ****                           This parameter can be a value of @ref RCC_LL_EC_PREDIV_DIV
 100:./inc/stm32f1xx_ll_utils.h **** 
 101:./inc/stm32f1xx_ll_utils.h ****                           This feature can be modified afterwards using unitary function
 102:./inc/stm32f1xx_ll_utils.h ****                           @ref LL_RCC_PLL_ConfigDomain_SYS(). */
 103:./inc/stm32f1xx_ll_utils.h **** } LL_UTILS_PLLInitTypeDef;
 104:./inc/stm32f1xx_ll_utils.h **** 
 105:./inc/stm32f1xx_ll_utils.h **** /**
 106:./inc/stm32f1xx_ll_utils.h ****   * @brief  UTILS System, AHB and APB buses clock configuration structure definition
ARM GAS  /tmp/ccgFoonV.s 			page 53


 107:./inc/stm32f1xx_ll_utils.h ****   */
 108:./inc/stm32f1xx_ll_utils.h **** typedef struct
 109:./inc/stm32f1xx_ll_utils.h **** {
 110:./inc/stm32f1xx_ll_utils.h ****   uint32_t AHBCLKDivider;         /*!< The AHB clock (HCLK) divider. This clock is derived from the
 111:./inc/stm32f1xx_ll_utils.h ****                                        This parameter can be a value of @ref RCC_LL_EC_SYSCLK_DIV
 112:./inc/stm32f1xx_ll_utils.h **** 
 113:./inc/stm32f1xx_ll_utils.h ****                                        This feature can be modified afterwards using unitary functi
 114:./inc/stm32f1xx_ll_utils.h ****                                        @ref LL_RCC_SetAHBPrescaler(). */
 115:./inc/stm32f1xx_ll_utils.h **** 
 116:./inc/stm32f1xx_ll_utils.h ****   uint32_t APB1CLKDivider;        /*!< The APB1 clock (PCLK1) divider. This clock is derived from t
 117:./inc/stm32f1xx_ll_utils.h ****                                        This parameter can be a value of @ref RCC_LL_EC_APB1_DIV
 118:./inc/stm32f1xx_ll_utils.h **** 
 119:./inc/stm32f1xx_ll_utils.h ****                                        This feature can be modified afterwards using unitary functi
 120:./inc/stm32f1xx_ll_utils.h ****                                        @ref LL_RCC_SetAPB1Prescaler(). */
 121:./inc/stm32f1xx_ll_utils.h **** 
 122:./inc/stm32f1xx_ll_utils.h ****   uint32_t APB2CLKDivider;        /*!< The APB2 clock (PCLK2) divider. This clock is derived from t
 123:./inc/stm32f1xx_ll_utils.h ****                                        This parameter can be a value of @ref RCC_LL_EC_APB2_DIV
 124:./inc/stm32f1xx_ll_utils.h **** 
 125:./inc/stm32f1xx_ll_utils.h ****                                        This feature can be modified afterwards using unitary functi
 126:./inc/stm32f1xx_ll_utils.h ****                                        @ref LL_RCC_SetAPB2Prescaler(). */
 127:./inc/stm32f1xx_ll_utils.h **** 
 128:./inc/stm32f1xx_ll_utils.h **** } LL_UTILS_ClkInitTypeDef;
 129:./inc/stm32f1xx_ll_utils.h **** 
 130:./inc/stm32f1xx_ll_utils.h **** /**
 131:./inc/stm32f1xx_ll_utils.h ****   * @}
 132:./inc/stm32f1xx_ll_utils.h ****   */
 133:./inc/stm32f1xx_ll_utils.h **** 
 134:./inc/stm32f1xx_ll_utils.h **** /* Exported constants --------------------------------------------------------*/
 135:./inc/stm32f1xx_ll_utils.h **** /** @defgroup UTILS_LL_Exported_Constants UTILS Exported Constants
 136:./inc/stm32f1xx_ll_utils.h ****   * @{
 137:./inc/stm32f1xx_ll_utils.h ****   */
 138:./inc/stm32f1xx_ll_utils.h **** 
 139:./inc/stm32f1xx_ll_utils.h **** /** @defgroup UTILS_EC_HSE_BYPASS HSE Bypass activation
 140:./inc/stm32f1xx_ll_utils.h ****   * @{
 141:./inc/stm32f1xx_ll_utils.h ****   */
 142:./inc/stm32f1xx_ll_utils.h **** #define LL_UTILS_HSEBYPASS_OFF        0x00000000U       /*!< HSE Bypass is not enabled             
 143:./inc/stm32f1xx_ll_utils.h **** #define LL_UTILS_HSEBYPASS_ON         0x00000001U       /*!< HSE Bypass is enabled                 
 144:./inc/stm32f1xx_ll_utils.h **** /**
 145:./inc/stm32f1xx_ll_utils.h ****   * @}
 146:./inc/stm32f1xx_ll_utils.h ****   */
 147:./inc/stm32f1xx_ll_utils.h **** 
 148:./inc/stm32f1xx_ll_utils.h **** /**
 149:./inc/stm32f1xx_ll_utils.h ****   * @}
 150:./inc/stm32f1xx_ll_utils.h ****   */
 151:./inc/stm32f1xx_ll_utils.h **** 
 152:./inc/stm32f1xx_ll_utils.h **** /* Exported macro ------------------------------------------------------------*/
 153:./inc/stm32f1xx_ll_utils.h **** 
 154:./inc/stm32f1xx_ll_utils.h **** /* Exported functions --------------------------------------------------------*/
 155:./inc/stm32f1xx_ll_utils.h **** /** @defgroup UTILS_LL_Exported_Functions UTILS Exported Functions
 156:./inc/stm32f1xx_ll_utils.h ****   * @{
 157:./inc/stm32f1xx_ll_utils.h ****   */
 158:./inc/stm32f1xx_ll_utils.h **** 
 159:./inc/stm32f1xx_ll_utils.h **** /** @defgroup UTILS_EF_DEVICE_ELECTRONIC_SIGNATURE DEVICE ELECTRONIC SIGNATURE
 160:./inc/stm32f1xx_ll_utils.h ****   * @{
 161:./inc/stm32f1xx_ll_utils.h ****   */
 162:./inc/stm32f1xx_ll_utils.h **** 
 163:./inc/stm32f1xx_ll_utils.h **** /**
ARM GAS  /tmp/ccgFoonV.s 			page 54


 164:./inc/stm32f1xx_ll_utils.h ****   * @brief  Get Word0 of the unique device identifier (UID based on 96 bits)
 165:./inc/stm32f1xx_ll_utils.h ****   * @retval UID[31:0]
 166:./inc/stm32f1xx_ll_utils.h ****   */
 167:./inc/stm32f1xx_ll_utils.h **** __STATIC_INLINE uint32_t LL_GetUID_Word0(void)
 168:./inc/stm32f1xx_ll_utils.h **** {
 169:./inc/stm32f1xx_ll_utils.h ****   return (uint32_t)(READ_REG(*((uint32_t *)UID_BASE_ADDRESS)));
 170:./inc/stm32f1xx_ll_utils.h **** }
 171:./inc/stm32f1xx_ll_utils.h **** 
 172:./inc/stm32f1xx_ll_utils.h **** /**
 173:./inc/stm32f1xx_ll_utils.h ****   * @brief  Get Word1 of the unique device identifier (UID based on 96 bits)
 174:./inc/stm32f1xx_ll_utils.h ****   * @retval UID[63:32]
 175:./inc/stm32f1xx_ll_utils.h ****   */
 176:./inc/stm32f1xx_ll_utils.h **** __STATIC_INLINE uint32_t LL_GetUID_Word1(void)
 177:./inc/stm32f1xx_ll_utils.h **** {
 178:./inc/stm32f1xx_ll_utils.h ****   return (uint32_t)(READ_REG(*((uint32_t *)(UID_BASE_ADDRESS + 4U))));
 179:./inc/stm32f1xx_ll_utils.h **** }
 180:./inc/stm32f1xx_ll_utils.h **** 
 181:./inc/stm32f1xx_ll_utils.h **** /**
 182:./inc/stm32f1xx_ll_utils.h ****   * @brief  Get Word2 of the unique device identifier (UID based on 96 bits)
 183:./inc/stm32f1xx_ll_utils.h ****   * @retval UID[95:64]
 184:./inc/stm32f1xx_ll_utils.h ****   */
 185:./inc/stm32f1xx_ll_utils.h **** __STATIC_INLINE uint32_t LL_GetUID_Word2(void)
 186:./inc/stm32f1xx_ll_utils.h **** {
 187:./inc/stm32f1xx_ll_utils.h ****   return (uint32_t)(READ_REG(*((uint32_t *)(UID_BASE_ADDRESS + 8U))));
 188:./inc/stm32f1xx_ll_utils.h **** }
 189:./inc/stm32f1xx_ll_utils.h **** 
 190:./inc/stm32f1xx_ll_utils.h **** /**
 191:./inc/stm32f1xx_ll_utils.h ****   * @brief  Get Flash memory size
 192:./inc/stm32f1xx_ll_utils.h ****   * @note   This bitfield indicates the size of the device Flash memory expressed in
 193:./inc/stm32f1xx_ll_utils.h ****   *         Kbytes. As an example, 0x040 corresponds to 64 Kbytes.
 194:./inc/stm32f1xx_ll_utils.h ****   * @retval FLASH_SIZE[15:0]: Flash memory size
 195:./inc/stm32f1xx_ll_utils.h ****   */
 196:./inc/stm32f1xx_ll_utils.h **** __STATIC_INLINE uint32_t LL_GetFlashSize(void)
 197:./inc/stm32f1xx_ll_utils.h **** {
 198:./inc/stm32f1xx_ll_utils.h ****   return (uint16_t)(READ_REG(*((uint32_t *)FLASHSIZE_BASE_ADDRESS)));
 199:./inc/stm32f1xx_ll_utils.h **** }
 200:./inc/stm32f1xx_ll_utils.h **** 
 201:./inc/stm32f1xx_ll_utils.h **** 
 202:./inc/stm32f1xx_ll_utils.h **** /**
 203:./inc/stm32f1xx_ll_utils.h ****   * @}
 204:./inc/stm32f1xx_ll_utils.h ****   */
 205:./inc/stm32f1xx_ll_utils.h **** 
 206:./inc/stm32f1xx_ll_utils.h **** /** @defgroup UTILS_LL_EF_DELAY DELAY
 207:./inc/stm32f1xx_ll_utils.h ****   * @{
 208:./inc/stm32f1xx_ll_utils.h ****   */
 209:./inc/stm32f1xx_ll_utils.h **** 
 210:./inc/stm32f1xx_ll_utils.h **** /**
 211:./inc/stm32f1xx_ll_utils.h ****   * @brief  This function configures the Cortex-M SysTick source of the time base.
 212:./inc/stm32f1xx_ll_utils.h ****   * @param  HCLKFrequency HCLK frequency in Hz (can be calculated thanks to RCC helper macro)
 213:./inc/stm32f1xx_ll_utils.h ****   * @note   When a RTOS is used, it is recommended to avoid changing the SysTick
 214:./inc/stm32f1xx_ll_utils.h ****   *         configuration by calling this function, for a delay use rather osDelay RTOS service.
 215:./inc/stm32f1xx_ll_utils.h ****   * @param  Ticks Number of ticks
 216:./inc/stm32f1xx_ll_utils.h ****   * @retval None
 217:./inc/stm32f1xx_ll_utils.h ****   */
 218:./inc/stm32f1xx_ll_utils.h **** __STATIC_INLINE void LL_InitTick(uint32_t HCLKFrequency, uint32_t Ticks)
 219:./inc/stm32f1xx_ll_utils.h **** {
 220:./inc/stm32f1xx_ll_utils.h ****   /* Configure the SysTick to have interrupt in 1ms time base */
ARM GAS  /tmp/ccgFoonV.s 			page 55


 221:./inc/stm32f1xx_ll_utils.h ****   SysTick->LOAD  = (uint32_t)((HCLKFrequency / Ticks) - 1UL);  /* set reload register */
 357              		.loc 4 221 0
 358 00dc 4FF47A73 		mov	r3, #1000	@ tmp115,
 359 00e0 B0FBF3F0 		udiv	r0, r0, r3	@ tmp114, HCLKFrequency, tmp115
 360              	.LVL26:
 222:./inc/stm32f1xx_ll_utils.h ****   SysTick->VAL   = 0UL;                                       /* Load the SysTick Counter Value */
 361              		.loc 4 222 0
 362 00e4 0022     		movs	r2, #0	@ tmp118,
 221:./inc/stm32f1xx_ll_utils.h ****   SysTick->VAL   = 0UL;                                       /* Load the SysTick Counter Value */
 363              		.loc 4 221 0
 364 00e6 034B     		ldr	r3, .L27	@ tmp116,
 365 00e8 0138     		subs	r0, r0, #1	@ _5, tmp114,
 366 00ea 5860     		str	r0, [r3, #4]	@ _5, MEM[(struct SysTick_Type *)3758153744B].LOAD
 367              		.loc 4 222 0
 368 00ec 9A60     		str	r2, [r3, #8]	@ tmp118, MEM[(struct SysTick_Type *)3758153744B].VAL
 223:./inc/stm32f1xx_ll_utils.h ****   SysTick->CTRL  = SysTick_CTRL_CLKSOURCE_Msk |
 369              		.loc 4 223 0
 370 00ee 0522     		movs	r2, #5	@ tmp120,
 371 00f0 1A60     		str	r2, [r3]	@ tmp120, MEM[(struct SysTick_Type *)3758153744B].CTRL
 372              	.LVL27:
 373 00f2 7047     		bx	lr	@
 374              	.L28:
 375              		.align	2
 376              	.L27:
 377 00f4 10E000E0 		.word	-536813552
 378              	.LBE71:
 379              	.LBE70:
 380              		.cfi_endproc
 381              	.LFE174:
 382              		.size	LL_Init1msTick, .-LL_Init1msTick
 383              		.align	1
 384              		.global	LL_mDelay
 385              		.syntax unified
 386              		.thumb
 387              		.thumb_func
 388              		.fpu softvfp
 389              		.type	LL_mDelay, %function
 390              	LL_mDelay:
 391              	.LFB175:
 186:src/stm32f1xx_ll_utils.c ****   __IO uint32_t  tmp = SysTick->CTRL;  /* Clear the COUNTFLAG first */
 392              		.loc 1 186 0
 393              		.cfi_startproc
 394              		@ args = 0, pretend = 0, frame = 8
 395              		@ frame_needed = 0, uses_anonymous_args = 0
 396              		@ link register save eliminated.
 397              	.LVL28:
 187:src/stm32f1xx_ll_utils.c ****   /* Add this code to indicate that local variable is not used */
 398              		.loc 1 187 0
 399 00f8 084B     		ldr	r3, .L39	@ tmp115,
 186:src/stm32f1xx_ll_utils.c ****   __IO uint32_t  tmp = SysTick->CTRL;  /* Clear the COUNTFLAG first */
 400              		.loc 1 186 0
 401 00fa 82B0     		sub	sp, sp, #8	@,,
 402              	.LCFI1:
 403              		.cfi_def_cfa_offset 8
 187:src/stm32f1xx_ll_utils.c ****   /* Add this code to indicate that local variable is not used */
 404              		.loc 1 187 0
 405 00fc 1B68     		ldr	r3, [r3]	@ tmp.0_4, MEM[(struct SysTick_Type *)3758153744B].CTRL
ARM GAS  /tmp/ccgFoonV.s 			page 56


 192:src/stm32f1xx_ll_utils.c ****   {
 406              		.loc 1 192 0
 407 00fe 411C     		adds	r1, r0, #1	@, Delay,
 187:src/stm32f1xx_ll_utils.c ****   /* Add this code to indicate that local variable is not used */
 408              		.loc 1 187 0
 409 0100 0193     		str	r3, [sp, #4]	@ tmp.0_4, tmp
 189:src/stm32f1xx_ll_utils.c **** 
 410              		.loc 1 189 0
 411 0102 019B     		ldr	r3, [sp, #4]	@ vol.1_6, tmp
 199:src/stm32f1xx_ll_utils.c ****     {
 412              		.loc 1 199 0
 413 0104 054B     		ldr	r3, .L39	@ tmp118,
 194:src/stm32f1xx_ll_utils.c ****   }
 414              		.loc 1 194 0
 415 0106 18BF     		it	ne
 416 0108 0130     		addne	r0, r0, #1	@ Delay, Delay,
 417              	.LVL29:
 418              	.L32:
 197:src/stm32f1xx_ll_utils.c ****   {
 419              		.loc 1 197 0
 420 010a 08B9     		cbnz	r0, .L33	@ Delay,
 204:src/stm32f1xx_ll_utils.c **** 
 421              		.loc 1 204 0
 422 010c 02B0     		add	sp, sp, #8	@,,
 423              	.LCFI2:
 424              		.cfi_remember_state
 425              		.cfi_def_cfa_offset 0
 426              		@ sp needed	@
 427 010e 7047     		bx	lr	@
 428              	.L33:
 429              	.LCFI3:
 430              		.cfi_restore_state
 431              	.LVL30:
 199:src/stm32f1xx_ll_utils.c ****     {
 432              		.loc 1 199 0
 433 0110 1A68     		ldr	r2, [r3]	@ _10, MEM[(struct SysTick_Type *)3758153744B].CTRL
 434 0112 D203     		lsls	r2, r2, #15	@, _10,
 201:src/stm32f1xx_ll_utils.c ****     }
 435              		.loc 1 201 0
 436 0114 48BF     		it	mi
 437 0116 00F1FF30 		addmi	r0, r0, #-1	@ Delay, Delay,
 438              	.LVL31:
 439 011a F6E7     		b	.L32	@
 440              	.L40:
 441              		.align	2
 442              	.L39:
 443 011c 10E000E0 		.word	-536813552
 444              		.cfi_endproc
 445              	.LFE175:
 446              		.size	LL_mDelay, .-LL_mDelay
 447              		.align	1
 448              		.global	LL_SetSystemCoreClock
 449              		.syntax unified
 450              		.thumb
 451              		.thumb_func
 452              		.fpu softvfp
 453              		.type	LL_SetSystemCoreClock, %function
ARM GAS  /tmp/ccgFoonV.s 			page 57


 454              	LL_SetSystemCoreClock:
 455              	.LFB176:
 244:src/stm32f1xx_ll_utils.c ****   /* HCLK clock frequency */
 456              		.loc 1 244 0
 457              		.cfi_startproc
 458              		@ args = 0, pretend = 0, frame = 0
 459              		@ frame_needed = 0, uses_anonymous_args = 0
 460              		@ link register save eliminated.
 461              	.LVL32:
 246:src/stm32f1xx_ll_utils.c **** }
 462              		.loc 1 246 0
 463 0120 014B     		ldr	r3, .L42	@ tmp111,
 464 0122 1860     		str	r0, [r3]	@ HCLKFrequency, SystemCoreClock
 465 0124 7047     		bx	lr	@
 466              	.L43:
 467 0126 00BF     		.align	2
 468              	.L42:
 469 0128 00000000 		.word	SystemCoreClock
 470              		.cfi_endproc
 471              	.LFE176:
 472              		.size	LL_SetSystemCoreClock, .-LL_SetSystemCoreClock
 473              		.align	1
 474              		.global	LL_PLL_ConfigSystemClock_HSI
 475              		.syntax unified
 476              		.thumb
 477              		.thumb_func
 478              		.fpu softvfp
 479              		.type	LL_PLL_ConfigSystemClock_HSI, %function
 480              	LL_PLL_ConfigSystemClock_HSI:
 481              	.LFB177:
 268:src/stm32f1xx_ll_utils.c ****   ErrorStatus status = SUCCESS;
 482              		.loc 1 268 0
 483              		.cfi_startproc
 484              		@ args = 0, pretend = 0, frame = 0
 485              		@ frame_needed = 0, uses_anonymous_args = 0
 486              		@ link register save eliminated.
 487              	.LVL33:
 488              	.LBB86:
 489              	.LBB87:
 490              	.LBB88:
 491              	.LBB89:
 492              		.loc 3 1410 0
 493 012c 104B     		ldr	r3, .L54	@ tmp128,
 494              	.LBE89:
 495              	.LBE88:
 496              	.LBE87:
 497              	.LBE86:
 268:src/stm32f1xx_ll_utils.c ****   ErrorStatus status = SUCCESS;
 498              		.loc 1 268 0
 499 012e 30B4     		push	{r4, r5}	@
 500              	.LCFI4:
 501              		.cfi_def_cfa_offset 8
 502              		.cfi_offset 4, -8
 503              		.cfi_offset 5, -4
 504              	.LBB93:
 505              	.LBB92:
 506              	.LBB91:
ARM GAS  /tmp/ccgFoonV.s 			page 58


 507              	.LBB90:
 508              		.loc 3 1410 0
 509 0130 1A68     		ldr	r2, [r3]	@ _23, MEM[(struct RCC_TypeDef *)1073876992B].CR
 510              	.LBE90:
 511              	.LBE91:
 482:src/stm32f1xx_ll_utils.c ****   {
 512              		.loc 1 482 0
 513 0132 9501     		lsls	r5, r2, #6	@, _23,
 514 0134 19D4     		bmi	.L51	@,
 515              	.LVL34:
 516              	.LBE92:
 517              	.LBE93:
 280:src/stm32f1xx_ll_utils.c **** #endif /*RCC_PLLSRC_PREDIV1_SUPPORT*/
 518              		.loc 1 280 0
 519 0136 4FF40032 		mov	r2, #131072	@ tmp139,
 520              	.LBB94:
 521              	.LBB95:
 464:src/stm32f1xx_ll_utils.c **** #endif /*RCC_CFGR2_PREDIV1SRC*/
 522              		.loc 1 464 0
 523 013a 0568     		ldr	r5, [r0]	@ _35, UTILS_PLLInitStruct_8(D)->PLLMul
 524              	.LBE95:
 525              	.LBE94:
 280:src/stm32f1xx_ll_utils.c **** #endif /*RCC_PLLSRC_PREDIV1_SUPPORT*/
 526              		.loc 1 280 0
 527 013c 4260     		str	r2, [r0, #4]	@ tmp139, UTILS_PLLInitStruct_8(D)->Prediv
 528              	.LVL35:
 529              	.LBB98:
 530              	.LBB99:
 862:./inc/stm32f1xx_ll_rcc.h **** }
 531              		.loc 3 862 0
 532 013e 1A68     		ldr	r2, [r3]	@ _27, MEM[(struct RCC_TypeDef *)1073876992B].CR
 533              	.LBE99:
 534              	.LBE98:
 535              	.LBB100:
 536              	.LBB96:
 464:src/stm32f1xx_ll_utils.c **** #endif /*RCC_CFGR2_PREDIV1SRC*/
 537              		.loc 1 464 0
 538 0140 A80C     		lsrs	r0, r5, #18	@ tmp140, _35,
 539              	.LVL36:
 540 0142 841C     		adds	r4, r0, #2	@ tmp141, tmp140,
 541 0144 0B48     		ldr	r0, .L54+4	@ tmp142,
 542              	.LBE96:
 543              	.LBE100:
 286:src/stm32f1xx_ll_utils.c ****     {
 544              		.loc 1 286 0
 545 0146 9207     		lsls	r2, r2, #30	@, _27,
 546              	.LBB101:
 547              	.LBB97:
 464:src/stm32f1xx_ll_utils.c **** #endif /*RCC_CFGR2_PREDIV1SRC*/
 548              		.loc 1 464 0
 549 0148 00FB04F0 		mul	r0, r0, r4	@ pllfreq, tmp142, tmp141
 550              	.LVL37:
 551              	.LBE97:
 552              	.LBE101:
 286:src/stm32f1xx_ll_utils.c ****     {
 553              		.loc 1 286 0
 554 014c 06D4     		bmi	.L49	@,
ARM GAS  /tmp/ccgFoonV.s 			page 59


 555              	.LBB102:
 556              	.LBB103:
 842:./inc/stm32f1xx_ll_rcc.h **** }
 557              		.loc 3 842 0
 558 014e 1C68     		ldr	r4, [r3]	@ _39, MEM[(struct RCC_TypeDef *)1073876992B].CR
 559 0150 44F00104 		orr	r4, r4, #1	@ _40, _39,
 560 0154 1C60     		str	r4, [r3]	@ _40, MEM[(struct RCC_TypeDef *)1073876992B].CR
 561              	.L47:
 562              	.LBE103:
 563              	.LBE102:
 564              	.LBB104:
 565              	.LBB105:
 862:./inc/stm32f1xx_ll_rcc.h **** }
 566              		.loc 3 862 0 discriminator 1
 567 0156 1A68     		ldr	r2, [r3]	@ _41, MEM[(struct RCC_TypeDef *)1073876992B].CR
 568              	.LBE105:
 569              	.LBE104:
 289:src/stm32f1xx_ll_utils.c ****       {
 570              		.loc 1 289 0 discriminator 1
 571 0158 9407     		lsls	r4, r2, #30	@, _41,
 572 015a FCD5     		bpl	.L47	@,
 573              	.L49:
 574              	.LVL38:
 575              	.LBB106:
 576              	.LBB107:
1411:./inc/stm32f1xx_ll_rcc.h **** }
1412:./inc/stm32f1xx_ll_rcc.h **** 
1413:./inc/stm32f1xx_ll_rcc.h **** /**
1414:./inc/stm32f1xx_ll_rcc.h ****   * @brief  Configure PLL used for SYSCLK Domain
1415:./inc/stm32f1xx_ll_rcc.h ****   * @rmtoll CFGR         PLLSRC        LL_RCC_PLL_ConfigDomain_SYS\n
1416:./inc/stm32f1xx_ll_rcc.h ****   *         CFGR         PLLXTPRE      LL_RCC_PLL_ConfigDomain_SYS\n
1417:./inc/stm32f1xx_ll_rcc.h ****   *         CFGR         PLLMULL       LL_RCC_PLL_ConfigDomain_SYS\n
1418:./inc/stm32f1xx_ll_rcc.h ****   *         CFGR2        PREDIV1       LL_RCC_PLL_ConfigDomain_SYS\n
1419:./inc/stm32f1xx_ll_rcc.h ****   *         CFGR2        PREDIV1SRC    LL_RCC_PLL_ConfigDomain_SYS
1420:./inc/stm32f1xx_ll_rcc.h ****   * @param  Source This parameter can be one of the following values:
1421:./inc/stm32f1xx_ll_rcc.h ****   *         @arg @ref LL_RCC_PLLSOURCE_HSI_DIV_2
1422:./inc/stm32f1xx_ll_rcc.h ****   *         @arg @ref LL_RCC_PLLSOURCE_HSE_DIV_1
1423:./inc/stm32f1xx_ll_rcc.h ****   *         @arg @ref LL_RCC_PLLSOURCE_HSE_DIV_2 (*)
1424:./inc/stm32f1xx_ll_rcc.h ****   *         @arg @ref LL_RCC_PLLSOURCE_HSE_DIV_3 (*)
1425:./inc/stm32f1xx_ll_rcc.h ****   *         @arg @ref LL_RCC_PLLSOURCE_HSE_DIV_4 (*)
1426:./inc/stm32f1xx_ll_rcc.h ****   *         @arg @ref LL_RCC_PLLSOURCE_HSE_DIV_5 (*)
1427:./inc/stm32f1xx_ll_rcc.h ****   *         @arg @ref LL_RCC_PLLSOURCE_HSE_DIV_6 (*)
1428:./inc/stm32f1xx_ll_rcc.h ****   *         @arg @ref LL_RCC_PLLSOURCE_HSE_DIV_7 (*)
1429:./inc/stm32f1xx_ll_rcc.h ****   *         @arg @ref LL_RCC_PLLSOURCE_HSE_DIV_8 (*)
1430:./inc/stm32f1xx_ll_rcc.h ****   *         @arg @ref LL_RCC_PLLSOURCE_HSE_DIV_9 (*)
1431:./inc/stm32f1xx_ll_rcc.h ****   *         @arg @ref LL_RCC_PLLSOURCE_HSE_DIV_10 (*)
1432:./inc/stm32f1xx_ll_rcc.h ****   *         @arg @ref LL_RCC_PLLSOURCE_HSE_DIV_11 (*)
1433:./inc/stm32f1xx_ll_rcc.h ****   *         @arg @ref LL_RCC_PLLSOURCE_HSE_DIV_12 (*)
1434:./inc/stm32f1xx_ll_rcc.h ****   *         @arg @ref LL_RCC_PLLSOURCE_HSE_DIV_13 (*)
1435:./inc/stm32f1xx_ll_rcc.h ****   *         @arg @ref LL_RCC_PLLSOURCE_HSE_DIV_14 (*)
1436:./inc/stm32f1xx_ll_rcc.h ****   *         @arg @ref LL_RCC_PLLSOURCE_HSE_DIV_15 (*)
1437:./inc/stm32f1xx_ll_rcc.h ****   *         @arg @ref LL_RCC_PLLSOURCE_HSE_DIV_16 (*)
1438:./inc/stm32f1xx_ll_rcc.h ****   *         @arg @ref LL_RCC_PLLSOURCE_PLL2_DIV_1 (*)
1439:./inc/stm32f1xx_ll_rcc.h ****   *         @arg @ref LL_RCC_PLLSOURCE_PLL2_DIV_2 (*)
1440:./inc/stm32f1xx_ll_rcc.h ****   *         @arg @ref LL_RCC_PLLSOURCE_PLL2_DIV_3 (*)
1441:./inc/stm32f1xx_ll_rcc.h ****   *         @arg @ref LL_RCC_PLLSOURCE_PLL2_DIV_4 (*)
1442:./inc/stm32f1xx_ll_rcc.h ****   *         @arg @ref LL_RCC_PLLSOURCE_PLL2_DIV_5 (*)
ARM GAS  /tmp/ccgFoonV.s 			page 60


1443:./inc/stm32f1xx_ll_rcc.h ****   *         @arg @ref LL_RCC_PLLSOURCE_PLL2_DIV_6 (*)
1444:./inc/stm32f1xx_ll_rcc.h ****   *         @arg @ref LL_RCC_PLLSOURCE_PLL2_DIV_7 (*)
1445:./inc/stm32f1xx_ll_rcc.h ****   *         @arg @ref LL_RCC_PLLSOURCE_PLL2_DIV_8 (*)
1446:./inc/stm32f1xx_ll_rcc.h ****   *         @arg @ref LL_RCC_PLLSOURCE_PLL2_DIV_9 (*)
1447:./inc/stm32f1xx_ll_rcc.h ****   *         @arg @ref LL_RCC_PLLSOURCE_PLL2_DIV_10 (*)
1448:./inc/stm32f1xx_ll_rcc.h ****   *         @arg @ref LL_RCC_PLLSOURCE_PLL2_DIV_11 (*)
1449:./inc/stm32f1xx_ll_rcc.h ****   *         @arg @ref LL_RCC_PLLSOURCE_PLL2_DIV_12 (*)
1450:./inc/stm32f1xx_ll_rcc.h ****   *         @arg @ref LL_RCC_PLLSOURCE_PLL2_DIV_13 (*)
1451:./inc/stm32f1xx_ll_rcc.h ****   *         @arg @ref LL_RCC_PLLSOURCE_PLL2_DIV_14 (*)
1452:./inc/stm32f1xx_ll_rcc.h ****   *         @arg @ref LL_RCC_PLLSOURCE_PLL2_DIV_15 (*)
1453:./inc/stm32f1xx_ll_rcc.h ****   *         @arg @ref LL_RCC_PLLSOURCE_PLL2_DIV_16 (*)
1454:./inc/stm32f1xx_ll_rcc.h ****   *
1455:./inc/stm32f1xx_ll_rcc.h ****   *         (*) value not defined in all devices
1456:./inc/stm32f1xx_ll_rcc.h ****   * @param  PLLMul This parameter can be one of the following values:
1457:./inc/stm32f1xx_ll_rcc.h ****   *         @arg @ref LL_RCC_PLL_MUL_2 (*)
1458:./inc/stm32f1xx_ll_rcc.h ****   *         @arg @ref LL_RCC_PLL_MUL_3 (*)
1459:./inc/stm32f1xx_ll_rcc.h ****   *         @arg @ref LL_RCC_PLL_MUL_4
1460:./inc/stm32f1xx_ll_rcc.h ****   *         @arg @ref LL_RCC_PLL_MUL_5
1461:./inc/stm32f1xx_ll_rcc.h ****   *         @arg @ref LL_RCC_PLL_MUL_6
1462:./inc/stm32f1xx_ll_rcc.h ****   *         @arg @ref LL_RCC_PLL_MUL_7
1463:./inc/stm32f1xx_ll_rcc.h ****   *         @arg @ref LL_RCC_PLL_MUL_8
1464:./inc/stm32f1xx_ll_rcc.h ****   *         @arg @ref LL_RCC_PLL_MUL_9
1465:./inc/stm32f1xx_ll_rcc.h ****   *         @arg @ref LL_RCC_PLL_MUL_6_5 (*)
1466:./inc/stm32f1xx_ll_rcc.h ****   *         @arg @ref LL_RCC_PLL_MUL_10 (*)
1467:./inc/stm32f1xx_ll_rcc.h ****   *         @arg @ref LL_RCC_PLL_MUL_11 (*)
1468:./inc/stm32f1xx_ll_rcc.h ****   *         @arg @ref LL_RCC_PLL_MUL_12 (*)
1469:./inc/stm32f1xx_ll_rcc.h ****   *         @arg @ref LL_RCC_PLL_MUL_13 (*)
1470:./inc/stm32f1xx_ll_rcc.h ****   *         @arg @ref LL_RCC_PLL_MUL_14 (*)
1471:./inc/stm32f1xx_ll_rcc.h ****   *         @arg @ref LL_RCC_PLL_MUL_15 (*)
1472:./inc/stm32f1xx_ll_rcc.h ****   *         @arg @ref LL_RCC_PLL_MUL_16 (*)
1473:./inc/stm32f1xx_ll_rcc.h ****   *
1474:./inc/stm32f1xx_ll_rcc.h ****   *         (*) value not defined in all devices
1475:./inc/stm32f1xx_ll_rcc.h ****   * @retval None
1476:./inc/stm32f1xx_ll_rcc.h ****   */
1477:./inc/stm32f1xx_ll_rcc.h **** __STATIC_INLINE void LL_RCC_PLL_ConfigDomain_SYS(uint32_t Source, uint32_t PLLMul)
1478:./inc/stm32f1xx_ll_rcc.h **** {
1479:./inc/stm32f1xx_ll_rcc.h ****   MODIFY_REG(RCC->CFGR, RCC_CFGR_PLLSRC | RCC_CFGR_PLLXTPRE | RCC_CFGR_PLLMULL,
 577              		.loc 3 1479 0
 578 015c 5A68     		ldr	r2, [r3, #4]	@ _45, MEM[(struct RCC_TypeDef *)1073876992B].CFGR
 579 015e 22F47C12 		bic	r2, r2, #4128768	@ tmp135, _45,
 580 0162 2A43     		orrs	r2, r2, r5	@, _49, tmp135, _35
 581 0164 5A60     		str	r2, [r3, #4]	@ _49, MEM[(struct RCC_TypeDef *)1073876992B].CFGR
 582              	.LVL39:
 583              	.LBE107:
 584              	.LBE106:
 308:src/stm32f1xx_ll_utils.c **** 
 585              		.loc 1 308 0
 586 0166 30BC     		pop	{r4, r5}	@
 587              	.LCFI5:
 588              		.cfi_remember_state
 589              		.cfi_restore 5
 590              		.cfi_restore 4
 591              		.cfi_def_cfa_offset 0
 299:src/stm32f1xx_ll_utils.c ****   }
 592              		.loc 1 299 0
 593 0168 6AE7     		b	UTILS_EnablePLLAndSwitchSystem	@
 594              	.LVL40:
ARM GAS  /tmp/ccgFoonV.s 			page 61


 595              	.L51:
 596              	.LCFI6:
 597              		.cfi_restore_state
 308:src/stm32f1xx_ll_utils.c **** 
 598              		.loc 1 308 0
 599 016a 0120     		movs	r0, #1	@,
 600              	.LVL41:
 601 016c 30BC     		pop	{r4, r5}	@
 602              	.LCFI7:
 603              		.cfi_restore 5
 604              		.cfi_restore 4
 605              		.cfi_def_cfa_offset 0
 606 016e 7047     		bx	lr	@
 607              	.L55:
 608              		.align	2
 609              	.L54:
 610 0170 00100240 		.word	1073876992
 611 0174 00093D00 		.word	4000000
 612              		.cfi_endproc
 613              	.LFE177:
 614              		.size	LL_PLL_ConfigSystemClock_HSI, .-LL_PLL_ConfigSystemClock_HSI
 615              		.align	1
 616              		.global	LL_PLL_ConfigSystemClock_HSE
 617              		.syntax unified
 618              		.thumb
 619              		.thumb_func
 620              		.fpu softvfp
 621              		.type	LL_PLL_ConfigSystemClock_HSE, %function
 622              	LL_PLL_ConfigSystemClock_HSE:
 623              	.LFB178:
 333:src/stm32f1xx_ll_utils.c ****   ErrorStatus status = SUCCESS;
 624              		.loc 1 333 0
 625              		.cfi_startproc
 626              		@ args = 0, pretend = 0, frame = 0
 627              		@ frame_needed = 0, uses_anonymous_args = 0
 628              		@ link register save eliminated.
 629              	.LVL42:
 630 0178 F0B4     		push	{r4, r5, r6, r7}	@
 631              	.LCFI8:
 632              		.cfi_def_cfa_offset 16
 633              		.cfi_offset 4, -16
 634              		.cfi_offset 5, -12
 635              		.cfi_offset 6, -8
 636              		.cfi_offset 7, -4
 637              	.LBB126:
 638              	.LBB127:
 639              	.LBB128:
 640              	.LBB129:
1410:./inc/stm32f1xx_ll_rcc.h **** }
 641              		.loc 3 1410 0
 642 017a 184C     		ldr	r4, .L69	@ tmp141,
 643 017c 2568     		ldr	r5, [r4]	@ _29, MEM[(struct RCC_TypeDef *)1073876992B].CR
 644              	.LBE129:
 645              	.LBE128:
 482:src/stm32f1xx_ll_utils.c ****   {
 646              		.loc 1 482 0
 647 017e AD01     		lsls	r5, r5, #6	@, _29,
ARM GAS  /tmp/ccgFoonV.s 			page 62


 648 0180 28D4     		bmi	.L65	@,
 649              	.LVL43:
 650              	.LBE127:
 651              	.LBE126:
 652              	.LBB130:
 653              	.LBB131:
 464:src/stm32f1xx_ll_utils.c **** #endif /*RCC_CFGR2_PREDIV1SRC*/
 654              		.loc 1 464 0
 655 0182 5668     		ldr	r6, [r2, #4]	@ _37, UTILS_PLLInitStruct_10(D)->Prediv
 656 0184 1768     		ldr	r7, [r2]	@ _41, UTILS_PLLInitStruct_10(D)->PLLMul
 657 0186 750C     		lsrs	r5, r6, #17	@ tmp159, _37,
 658 0188 0135     		adds	r5, r5, #1	@ tmp160, tmp159,
 659 018a B0FBF5F0 		udiv	r0, r0, r5	@ tmp162, HSEFrequency, tmp160
 660              	.LVL44:
 661              	.LBE131:
 662              	.LBE130:
 663              	.LBB134:
 664              	.LBB135:
 796:./inc/stm32f1xx_ll_rcc.h **** }
 665              		.loc 3 796 0
 666 018e 2268     		ldr	r2, [r4]	@ _33, MEM[(struct RCC_TypeDef *)1073876992B].CR
 667              	.LVL45:
 668              	.LBE135:
 669              	.LBE134:
 670              	.LBB136:
 671              	.LBB132:
 464:src/stm32f1xx_ll_utils.c **** #endif /*RCC_CFGR2_PREDIV1SRC*/
 672              		.loc 1 464 0
 673 0190 BD0C     		lsrs	r5, r7, #18	@ tmp163, _41,
 674 0192 0235     		adds	r5, r5, #2	@ tmp164, tmp163,
 675              	.LBE132:
 676              	.LBE136:
 350:src/stm32f1xx_ll_utils.c ****     {
 677              		.loc 1 350 0
 678 0194 9203     		lsls	r2, r2, #14	@, _33,
 679              	.LBB137:
 680              	.LBB133:
 464:src/stm32f1xx_ll_utils.c **** #endif /*RCC_CFGR2_PREDIV1SRC*/
 681              		.loc 1 464 0
 682 0196 05FB00F0 		mul	r0, r5, r0	@ pllfreq, tmp164, tmp162
 683              	.LVL46:
 684              	.LBE133:
 685              	.LBE137:
 350:src/stm32f1xx_ll_utils.c ****     {
 686              		.loc 1 350 0
 687 019a 0ED4     		bmi	.L63	@,
 688              	.LBB138:
 689              	.LBB139:
 756:./inc/stm32f1xx_ll_rcc.h **** }
 690              		.loc 3 756 0
 691 019c 2268     		ldr	r2, [r4]	@ _45,
 692              	.LBE139:
 693              	.LBE138:
 353:src/stm32f1xx_ll_utils.c ****       {
 694              		.loc 1 353 0
 695 019e 0129     		cmp	r1, #1	@ HSEBypass,
 696              	.LBB141:
ARM GAS  /tmp/ccgFoonV.s 			page 63


 697              	.LBB140:
 756:./inc/stm32f1xx_ll_rcc.h **** }
 698              		.loc 3 756 0
 699 01a0 0CBF     		ite	eq
 700 01a2 42F48022 		orreq	r2, r2, #262144	@ _46, _45,
 701              	.LBE140:
 702              	.LBE141:
 703              	.LBB142:
 704              	.LBB143:
 766:./inc/stm32f1xx_ll_rcc.h **** }
 705              		.loc 3 766 0
 706 01a6 22F48022 		bicne	r2, r2, #262144	@ _48, _47,
 707 01aa 2260     		str	r2, [r4]	@ _48,
 708              	.LBE143:
 709              	.LBE142:
 710              	.LBB144:
 711              	.LBB145:
 776:./inc/stm32f1xx_ll_rcc.h **** }
 712              		.loc 3 776 0
 713 01ac 2268     		ldr	r2, [r4]	@ _49, MEM[(struct RCC_TypeDef *)1073876992B].CR
 714 01ae 42F48032 		orr	r2, r2, #65536	@ _50, _49,
 715 01b2 2260     		str	r2, [r4]	@ _50, MEM[(struct RCC_TypeDef *)1073876992B].CR
 716              	.LVL47:
 717              	.L61:
 718              	.LBE145:
 719              	.LBE144:
 720              	.LBB146:
 721              	.LBB147:
 796:./inc/stm32f1xx_ll_rcc.h **** }
 722              		.loc 3 796 0 discriminator 1
 723 01b4 2268     		ldr	r2, [r4]	@ _51, MEM[(struct RCC_TypeDef *)1073876992B].CR
 724              	.LBE147:
 725              	.LBE146:
 364:src/stm32f1xx_ll_utils.c ****       {
 726              		.loc 1 364 0 discriminator 1
 727 01b6 9103     		lsls	r1, r2, #14	@, _51,
 728 01b8 FCD5     		bpl	.L61	@,
 729              	.L63:
 730              	.LVL48:
 731              	.LBB148:
 732              	.LBB149:
 733              		.loc 3 1479 0
 734 01ba 6268     		ldr	r2, [r4, #4]	@ _55, MEM[(struct RCC_TypeDef *)1073876992B].CFGR
 735 01bc 06F44036 		and	r6, r6, #196608	@ tmp155, _37,
 736              	.LVL49:
 737 01c0 22F47C12 		bic	r2, r2, #4128768	@ tmp152, _55,
 738 01c4 42F48032 		orr	r2, r2, #65536	@ tmp153, tmp152,
 739 01c8 3A43     		orrs	r2, r2, r7	@, tmp154, tmp153, _41
 740 01ca 3243     		orrs	r2, r2, r6	@, _59, tmp154, tmp155
 741 01cc 6260     		str	r2, [r4, #4]	@ _59, MEM[(struct RCC_TypeDef *)1073876992B].CFGR
 742              	.LVL50:
 743              	.LBE149:
 744              	.LBE148:
 374:src/stm32f1xx_ll_utils.c ****   }
 745              		.loc 1 374 0
 746 01ce 1946     		mov	r1, r3	@, UTILS_ClkInitStruct
 383:src/stm32f1xx_ll_utils.c **** 
ARM GAS  /tmp/ccgFoonV.s 			page 64


 747              		.loc 1 383 0
 748 01d0 F0BC     		pop	{r4, r5, r6, r7}	@
 749              	.LCFI9:
 750              		.cfi_remember_state
 751              		.cfi_restore 7
 752              		.cfi_restore 6
 753              		.cfi_restore 5
 754              		.cfi_restore 4
 755              		.cfi_def_cfa_offset 0
 374:src/stm32f1xx_ll_utils.c ****   }
 756              		.loc 1 374 0
 757 01d2 35E7     		b	UTILS_EnablePLLAndSwitchSystem	@
 758              	.LVL51:
 759              	.L65:
 760              	.LCFI10:
 761              		.cfi_restore_state
 383:src/stm32f1xx_ll_utils.c **** 
 762              		.loc 1 383 0
 763 01d4 0120     		movs	r0, #1	@,
 764              	.LVL52:
 765 01d6 F0BC     		pop	{r4, r5, r6, r7}	@
 766              	.LCFI11:
 767              		.cfi_restore 7
 768              		.cfi_restore 6
 769              		.cfi_restore 5
 770              		.cfi_restore 4
 771              		.cfi_def_cfa_offset 0
 772 01d8 7047     		bx	lr	@
 773              	.L70:
 774 01da 00BF     		.align	2
 775              	.L69:
 776 01dc 00100240 		.word	1073876992
 777              		.cfi_endproc
 778              	.LFE178:
 779              		.size	LL_PLL_ConfigSystemClock_HSE, .-LL_PLL_ConfigSystemClock_HSE
 780              	.Letext0:
 781              		.file 5 "/usr/include/newlib/machine/_default_types.h"
 782              		.file 6 "/usr/include/newlib/sys/_stdint.h"
 783              		.file 7 "../cmsiscore/inc/core_cm3.h"
 784              		.file 8 "../cmsisstm32f1xx/inc/system_stm32f1xx.h"
 785              		.file 9 "../cmsisstm32f1xx/inc/stm32f103x6.h"
 786              		.file 10 "../cmsisstm32f1xx/inc/stm32f1xx.h"