ARM GAS  /tmp/cchr48Fl.s 			page 1


   1              		.syntax unified
   2              		.cpu cortex-m3
   3              		.fpu softvfp
   4              		.eabi_attribute 20, 1
   5              		.eabi_attribute 21, 1
   6              		.eabi_attribute 23, 3
   7              		.eabi_attribute 24, 1
   8              		.eabi_attribute 25, 1
   9              		.eabi_attribute 26, 1
  10              		.eabi_attribute 30, 1
  11              		.eabi_attribute 34, 1
  12              		.eabi_attribute 18, 4
  13              		.thumb
  14              		.file	"stm32f1xx_hal_tim_ex.c"
  15              		.section	.text.TIM_CCxNChannelCmd,"ax",%progbits
  16              		.align	2
  17              		.thumb
  18              		.thumb_func
  20              	TIM_CCxNChannelCmd:
  21              		@ args = 0, pretend = 0, frame = 0
  22              		@ frame_needed = 0, uses_anonymous_args = 0
  23              		@ link register save eliminated.
  24 0000 10B4     		push	{r4}
  25 0002 01F01F01 		and	r1, r1, #31
  26 0006 0423     		movs	r3, #4
  27 0008 8B40     		lsls	r3, r3, r1
  28 000a 046A     		ldr	r4, [r0, #32]
  29 000c 24EA0303 		bic	r3, r4, r3
  30 0010 0362     		str	r3, [r0, #32]
  31 0012 036A     		ldr	r3, [r0, #32]
  32 0014 8A40     		lsls	r2, r2, r1
  33 0016 1A43     		orrs	r2, r2, r3
  34 0018 0262     		str	r2, [r0, #32]
  35 001a 5DF8044B 		ldr	r4, [sp], #4
  36 001e 7047     		bx	lr
  38              		.section	.text.HAL_TIMEx_HallSensor_MspInit,"ax",%progbits
  39              		.align	2
  40              		.weak	HAL_TIMEx_HallSensor_MspInit
  41              		.thumb
  42              		.thumb_func
  44              	HAL_TIMEx_HallSensor_MspInit:
  45              		@ args = 0, pretend = 0, frame = 0
  46              		@ frame_needed = 0, uses_anonymous_args = 0
  47              		@ link register save eliminated.
  48 0000 7047     		bx	lr
  50 0002 00BF     		.section	.text.HAL_TIMEx_HallSensor_Init,"ax",%progbits
  51              		.align	2
  52              		.global	HAL_TIMEx_HallSensor_Init
  53              		.thumb
  54              		.thumb_func
  56              	HAL_TIMEx_HallSensor_Init:
  57              		@ args = 0, pretend = 0, frame = 32
  58              		@ frame_needed = 0, uses_anonymous_args = 0
  59 0000 0028     		cmp	r0, #0
  60 0002 5BD0     		beq	.L7
  61 0004 70B5     		push	{r4, r5, r6, lr}
  62 0006 88B0     		sub	sp, sp, #32
ARM GAS  /tmp/cchr48Fl.s 			page 2


  63 0008 0446     		mov	r4, r0
  64 000a 0E46     		mov	r6, r1
  65 000c 90F83D30 		ldrb	r3, [r0, #61]	@ zero_extendqisi2
  66 0010 13F0FF0F 		tst	r3, #255
  67 0014 04D1     		bne	.L6
  68 0016 0023     		movs	r3, #0
  69 0018 80F83C30 		strb	r3, [r0, #60]
  70 001c FFF7FEFF 		bl	HAL_TIMEx_HallSensor_MspInit
  71              	.L6:
  72 0020 0223     		movs	r3, #2
  73 0022 84F83D30 		strb	r3, [r4, #61]
  74 0026 2146     		mov	r1, r4
  75 0028 51F8040B 		ldr	r0, [r1], #4
  76 002c FFF7FEFF 		bl	TIM_Base_SetConfig
  77 0030 2068     		ldr	r0, [r4]
  78 0032 3168     		ldr	r1, [r6]
  79 0034 0322     		movs	r2, #3
  80 0036 B368     		ldr	r3, [r6, #8]
  81 0038 FFF7FEFF 		bl	TIM_TI1_SetConfig
  82 003c 2268     		ldr	r2, [r4]
  83 003e 9369     		ldr	r3, [r2, #24]
  84 0040 23F00C03 		bic	r3, r3, #12
  85 0044 9361     		str	r3, [r2, #24]
  86 0046 2268     		ldr	r2, [r4]
  87 0048 9169     		ldr	r1, [r2, #24]
  88 004a 7368     		ldr	r3, [r6, #4]
  89 004c 0B43     		orrs	r3, r3, r1
  90 004e 9361     		str	r3, [r2, #24]
  91 0050 2268     		ldr	r2, [r4]
  92 0052 5368     		ldr	r3, [r2, #4]
  93 0054 43F08003 		orr	r3, r3, #128
  94 0058 5360     		str	r3, [r2, #4]
  95 005a 2268     		ldr	r2, [r4]
  96 005c 9368     		ldr	r3, [r2, #8]
  97 005e 23F07003 		bic	r3, r3, #112
  98 0062 9360     		str	r3, [r2, #8]
  99 0064 2268     		ldr	r2, [r4]
 100 0066 9368     		ldr	r3, [r2, #8]
 101 0068 43F04003 		orr	r3, r3, #64
 102 006c 9360     		str	r3, [r2, #8]
 103 006e 2268     		ldr	r2, [r4]
 104 0070 9368     		ldr	r3, [r2, #8]
 105 0072 23F00703 		bic	r3, r3, #7
 106 0076 9360     		str	r3, [r2, #8]
 107 0078 2268     		ldr	r2, [r4]
 108 007a 9368     		ldr	r3, [r2, #8]
 109 007c 43F00403 		orr	r3, r3, #4
 110 0080 9360     		str	r3, [r2, #8]
 111 0082 0025     		movs	r5, #0
 112 0084 0595     		str	r5, [sp, #20]
 113 0086 0695     		str	r5, [sp, #24]
 114 0088 7023     		movs	r3, #112
 115 008a 0193     		str	r3, [sp, #4]
 116 008c 0795     		str	r5, [sp, #28]
 117 008e 0495     		str	r5, [sp, #16]
 118 0090 0395     		str	r5, [sp, #12]
 119 0092 F368     		ldr	r3, [r6, #12]
ARM GAS  /tmp/cchr48Fl.s 			page 3


 120 0094 0293     		str	r3, [sp, #8]
 121 0096 2068     		ldr	r0, [r4]
 122 0098 01A9     		add	r1, sp, #4
 123 009a FFF7FEFF 		bl	TIM_OC2_SetConfig
 124 009e 2268     		ldr	r2, [r4]
 125 00a0 5368     		ldr	r3, [r2, #4]
 126 00a2 23F07003 		bic	r3, r3, #112
 127 00a6 5360     		str	r3, [r2, #4]
 128 00a8 2268     		ldr	r2, [r4]
 129 00aa 5368     		ldr	r3, [r2, #4]
 130 00ac 43F05003 		orr	r3, r3, #80
 131 00b0 5360     		str	r3, [r2, #4]
 132 00b2 0123     		movs	r3, #1
 133 00b4 84F83D30 		strb	r3, [r4, #61]
 134 00b8 2846     		mov	r0, r5
 135 00ba 01E0     		b	.L5
 136              	.L7:
 137 00bc 0120     		movs	r0, #1
 138 00be 7047     		bx	lr
 139              	.L5:
 140 00c0 08B0     		add	sp, sp, #32
 141              		@ sp needed
 142 00c2 70BD     		pop	{r4, r5, r6, pc}
 144              		.section	.text.HAL_TIMEx_HallSensor_MspDeInit,"ax",%progbits
 145              		.align	2
 146              		.weak	HAL_TIMEx_HallSensor_MspDeInit
 147              		.thumb
 148              		.thumb_func
 150              	HAL_TIMEx_HallSensor_MspDeInit:
 151              		@ args = 0, pretend = 0, frame = 0
 152              		@ frame_needed = 0, uses_anonymous_args = 0
 153              		@ link register save eliminated.
 154 0000 7047     		bx	lr
 156 0002 00BF     		.section	.text.HAL_TIMEx_HallSensor_DeInit,"ax",%progbits
 157              		.align	2
 158              		.global	HAL_TIMEx_HallSensor_DeInit
 159              		.thumb
 160              		.thumb_func
 162              	HAL_TIMEx_HallSensor_DeInit:
 163              		@ args = 0, pretend = 0, frame = 0
 164              		@ frame_needed = 0, uses_anonymous_args = 0
 165 0000 10B5     		push	{r4, lr}
 166 0002 0446     		mov	r4, r0
 167 0004 0223     		movs	r3, #2
 168 0006 80F83D30 		strb	r3, [r0, #61]
 169 000a 0368     		ldr	r3, [r0]
 170 000c 196A     		ldr	r1, [r3, #32]
 171 000e 41F21112 		movw	r2, #4369
 172 0012 1142     		tst	r1, r2
 173 0014 08D1     		bne	.L12
 174 0016 196A     		ldr	r1, [r3, #32]
 175 0018 40F24442 		movw	r2, #1092
 176 001c 1142     		tst	r1, r2
 177 001e 03D1     		bne	.L12
 178 0020 1A68     		ldr	r2, [r3]
 179 0022 22F00102 		bic	r2, r2, #1
 180 0026 1A60     		str	r2, [r3]
ARM GAS  /tmp/cchr48Fl.s 			page 4


 181              	.L12:
 182 0028 2046     		mov	r0, r4
 183 002a FFF7FEFF 		bl	HAL_TIMEx_HallSensor_MspDeInit
 184 002e 0020     		movs	r0, #0
 185 0030 84F83D00 		strb	r0, [r4, #61]
 186 0034 84F83C00 		strb	r0, [r4, #60]
 187 0038 10BD     		pop	{r4, pc}
 189 003a 00BF     		.section	.text.HAL_TIMEx_HallSensor_Start,"ax",%progbits
 190              		.align	2
 191              		.global	HAL_TIMEx_HallSensor_Start
 192              		.thumb
 193              		.thumb_func
 195              	HAL_TIMEx_HallSensor_Start:
 196              		@ args = 0, pretend = 0, frame = 0
 197              		@ frame_needed = 0, uses_anonymous_args = 0
 198 0000 10B5     		push	{r4, lr}
 199 0002 0446     		mov	r4, r0
 200 0004 0068     		ldr	r0, [r0]
 201 0006 0021     		movs	r1, #0
 202 0008 0122     		movs	r2, #1
 203 000a FFF7FEFF 		bl	TIM_CCxChannelCmd
 204 000e 2268     		ldr	r2, [r4]
 205 0010 9368     		ldr	r3, [r2, #8]
 206 0012 03F00703 		and	r3, r3, #7
 207 0016 062B     		cmp	r3, #6
 208 0018 03D0     		beq	.L15
 209 001a 1368     		ldr	r3, [r2]
 210 001c 43F00103 		orr	r3, r3, #1
 211 0020 1360     		str	r3, [r2]
 212              	.L15:
 213 0022 0020     		movs	r0, #0
 214 0024 10BD     		pop	{r4, pc}
 216 0026 00BF     		.section	.text.HAL_TIMEx_HallSensor_Stop,"ax",%progbits
 217              		.align	2
 218              		.global	HAL_TIMEx_HallSensor_Stop
 219              		.thumb
 220              		.thumb_func
 222              	HAL_TIMEx_HallSensor_Stop:
 223              		@ args = 0, pretend = 0, frame = 0
 224              		@ frame_needed = 0, uses_anonymous_args = 0
 225 0000 10B5     		push	{r4, lr}
 226 0002 0446     		mov	r4, r0
 227 0004 0068     		ldr	r0, [r0]
 228 0006 0021     		movs	r1, #0
 229 0008 0A46     		mov	r2, r1
 230 000a FFF7FEFF 		bl	TIM_CCxChannelCmd
 231 000e 2368     		ldr	r3, [r4]
 232 0010 196A     		ldr	r1, [r3, #32]
 233 0012 41F21112 		movw	r2, #4369
 234 0016 1142     		tst	r1, r2
 235 0018 08D1     		bne	.L18
 236 001a 196A     		ldr	r1, [r3, #32]
 237 001c 40F24442 		movw	r2, #1092
 238 0020 1142     		tst	r1, r2
 239 0022 03D1     		bne	.L18
 240 0024 1A68     		ldr	r2, [r3]
 241 0026 22F00102 		bic	r2, r2, #1
ARM GAS  /tmp/cchr48Fl.s 			page 5


 242 002a 1A60     		str	r2, [r3]
 243              	.L18:
 244 002c 0020     		movs	r0, #0
 245 002e 10BD     		pop	{r4, pc}
 247              		.section	.text.HAL_TIMEx_HallSensor_Start_IT,"ax",%progbits
 248              		.align	2
 249              		.global	HAL_TIMEx_HallSensor_Start_IT
 250              		.thumb
 251              		.thumb_func
 253              	HAL_TIMEx_HallSensor_Start_IT:
 254              		@ args = 0, pretend = 0, frame = 0
 255              		@ frame_needed = 0, uses_anonymous_args = 0
 256 0000 10B5     		push	{r4, lr}
 257 0002 0446     		mov	r4, r0
 258 0004 0268     		ldr	r2, [r0]
 259 0006 D368     		ldr	r3, [r2, #12]
 260 0008 43F00203 		orr	r3, r3, #2
 261 000c D360     		str	r3, [r2, #12]
 262 000e 0068     		ldr	r0, [r0]
 263 0010 0021     		movs	r1, #0
 264 0012 0122     		movs	r2, #1
 265 0014 FFF7FEFF 		bl	TIM_CCxChannelCmd
 266 0018 2268     		ldr	r2, [r4]
 267 001a 9368     		ldr	r3, [r2, #8]
 268 001c 03F00703 		and	r3, r3, #7
 269 0020 062B     		cmp	r3, #6
 270 0022 03D0     		beq	.L21
 271 0024 1368     		ldr	r3, [r2]
 272 0026 43F00103 		orr	r3, r3, #1
 273 002a 1360     		str	r3, [r2]
 274              	.L21:
 275 002c 0020     		movs	r0, #0
 276 002e 10BD     		pop	{r4, pc}
 278              		.section	.text.HAL_TIMEx_HallSensor_Stop_IT,"ax",%progbits
 279              		.align	2
 280              		.global	HAL_TIMEx_HallSensor_Stop_IT
 281              		.thumb
 282              		.thumb_func
 284              	HAL_TIMEx_HallSensor_Stop_IT:
 285              		@ args = 0, pretend = 0, frame = 0
 286              		@ frame_needed = 0, uses_anonymous_args = 0
 287 0000 10B5     		push	{r4, lr}
 288 0002 0446     		mov	r4, r0
 289 0004 0068     		ldr	r0, [r0]
 290 0006 0021     		movs	r1, #0
 291 0008 0A46     		mov	r2, r1
 292 000a FFF7FEFF 		bl	TIM_CCxChannelCmd
 293 000e 2268     		ldr	r2, [r4]
 294 0010 D368     		ldr	r3, [r2, #12]
 295 0012 23F00203 		bic	r3, r3, #2
 296 0016 D360     		str	r3, [r2, #12]
 297 0018 2368     		ldr	r3, [r4]
 298 001a 196A     		ldr	r1, [r3, #32]
 299 001c 41F21112 		movw	r2, #4369
 300 0020 1142     		tst	r1, r2
 301 0022 08D1     		bne	.L24
 302 0024 196A     		ldr	r1, [r3, #32]
ARM GAS  /tmp/cchr48Fl.s 			page 6


 303 0026 40F24442 		movw	r2, #1092
 304 002a 1142     		tst	r1, r2
 305 002c 03D1     		bne	.L24
 306 002e 1A68     		ldr	r2, [r3]
 307 0030 22F00102 		bic	r2, r2, #1
 308 0034 1A60     		str	r2, [r3]
 309              	.L24:
 310 0036 0020     		movs	r0, #0
 311 0038 10BD     		pop	{r4, pc}
 313 003a 00BF     		.section	.text.HAL_TIMEx_HallSensor_Start_DMA,"ax",%progbits
 314              		.align	2
 315              		.global	HAL_TIMEx_HallSensor_Start_DMA
 316              		.thumb
 317              		.thumb_func
 319              	HAL_TIMEx_HallSensor_Start_DMA:
 320              		@ args = 0, pretend = 0, frame = 0
 321              		@ frame_needed = 0, uses_anonymous_args = 0
 322 0000 70B5     		push	{r4, r5, r6, lr}
 323 0002 90F83D50 		ldrb	r5, [r0, #61]	@ zero_extendqisi2
 324 0006 EDB2     		uxtb	r5, r5
 325 0008 022D     		cmp	r5, #2
 326 000a 34D0     		beq	.L30
 327 000c 90F83D40 		ldrb	r4, [r0, #61]	@ zero_extendqisi2
 328 0010 E4B2     		uxtb	r4, r4
 329 0012 012C     		cmp	r4, #1
 330 0014 05D1     		bne	.L28
 331 0016 09B9     		cbnz	r1, .L29
 332 0018 002A     		cmp	r2, #0
 333 001a 2ED1     		bne	.L31
 334              	.L29:
 335 001c 0223     		movs	r3, #2
 336 001e 80F83D30 		strb	r3, [r0, #61]
 337              	.L28:
 338 0022 1646     		mov	r6, r2
 339 0024 0D46     		mov	r5, r1
 340 0026 0446     		mov	r4, r0
 341 0028 0068     		ldr	r0, [r0]
 342 002a 0021     		movs	r1, #0
 343 002c 0122     		movs	r2, #1
 344 002e FFF7FEFF 		bl	TIM_CCxChannelCmd
 345 0032 636A     		ldr	r3, [r4, #36]
 346 0034 134A     		ldr	r2, .L34
 347 0036 9A62     		str	r2, [r3, #40]
 348 0038 636A     		ldr	r3, [r4, #36]
 349 003a 134A     		ldr	r2, .L34+4
 350 003c DA62     		str	r2, [r3, #44]
 351 003e 636A     		ldr	r3, [r4, #36]
 352 0040 124A     		ldr	r2, .L34+8
 353 0042 1A63     		str	r2, [r3, #48]
 354 0044 2168     		ldr	r1, [r4]
 355 0046 606A     		ldr	r0, [r4, #36]
 356 0048 3431     		adds	r1, r1, #52
 357 004a 2A46     		mov	r2, r5
 358 004c 3346     		mov	r3, r6
 359 004e FFF7FEFF 		bl	HAL_DMA_Start_IT
 360 0052 0346     		mov	r3, r0
 361 0054 98B9     		cbnz	r0, .L32
ARM GAS  /tmp/cchr48Fl.s 			page 7


 362 0056 2168     		ldr	r1, [r4]
 363 0058 CA68     		ldr	r2, [r1, #12]
 364 005a 42F40072 		orr	r2, r2, #512
 365 005e CA60     		str	r2, [r1, #12]
 366 0060 2168     		ldr	r1, [r4]
 367 0062 8A68     		ldr	r2, [r1, #8]
 368 0064 02F00702 		and	r2, r2, #7
 369 0068 062A     		cmp	r2, #6
 370 006a 09D0     		beq	.L27
 371 006c 0A68     		ldr	r2, [r1]
 372 006e 42F00102 		orr	r2, r2, #1
 373 0072 0A60     		str	r2, [r1]
 374 0074 04E0     		b	.L27
 375              	.L30:
 376 0076 0223     		movs	r3, #2
 377 0078 02E0     		b	.L27
 378              	.L31:
 379 007a 0123     		movs	r3, #1
 380 007c 00E0     		b	.L27
 381              	.L32:
 382 007e 0123     		movs	r3, #1
 383              	.L27:
 384 0080 1846     		mov	r0, r3
 385 0082 70BD     		pop	{r4, r5, r6, pc}
 386              	.L35:
 387              		.align	2
 388              	.L34:
 389 0084 00000000 		.word	TIM_DMACaptureCplt
 390 0088 00000000 		.word	TIM_DMACaptureHalfCplt
 391 008c 00000000 		.word	TIM_DMAError
 393              		.section	.text.HAL_TIMEx_HallSensor_Stop_DMA,"ax",%progbits
 394              		.align	2
 395              		.global	HAL_TIMEx_HallSensor_Stop_DMA
 396              		.thumb
 397              		.thumb_func
 399              	HAL_TIMEx_HallSensor_Stop_DMA:
 400              		@ args = 0, pretend = 0, frame = 0
 401              		@ frame_needed = 0, uses_anonymous_args = 0
 402 0000 10B5     		push	{r4, lr}
 403 0002 0446     		mov	r4, r0
 404 0004 0068     		ldr	r0, [r0]
 405 0006 0021     		movs	r1, #0
 406 0008 0A46     		mov	r2, r1
 407 000a FFF7FEFF 		bl	TIM_CCxChannelCmd
 408 000e 2268     		ldr	r2, [r4]
 409 0010 D368     		ldr	r3, [r2, #12]
 410 0012 23F40073 		bic	r3, r3, #512
 411 0016 D360     		str	r3, [r2, #12]
 412 0018 606A     		ldr	r0, [r4, #36]
 413 001a FFF7FEFF 		bl	HAL_DMA_Abort_IT
 414 001e 2368     		ldr	r3, [r4]
 415 0020 196A     		ldr	r1, [r3, #32]
 416 0022 41F21112 		movw	r2, #4369
 417 0026 1142     		tst	r1, r2
 418 0028 08D1     		bne	.L37
 419 002a 196A     		ldr	r1, [r3, #32]
 420 002c 40F24442 		movw	r2, #1092
ARM GAS  /tmp/cchr48Fl.s 			page 8


 421 0030 1142     		tst	r1, r2
 422 0032 03D1     		bne	.L37
 423 0034 1A68     		ldr	r2, [r3]
 424 0036 22F00102 		bic	r2, r2, #1
 425 003a 1A60     		str	r2, [r3]
 426              	.L37:
 427 003c 0020     		movs	r0, #0
 428 003e 10BD     		pop	{r4, pc}
 430              		.section	.text.HAL_TIMEx_OCN_Start,"ax",%progbits
 431              		.align	2
 432              		.global	HAL_TIMEx_OCN_Start
 433              		.thumb
 434              		.thumb_func
 436              	HAL_TIMEx_OCN_Start:
 437              		@ args = 0, pretend = 0, frame = 0
 438              		@ frame_needed = 0, uses_anonymous_args = 0
 439 0000 10B5     		push	{r4, lr}
 440 0002 0446     		mov	r4, r0
 441 0004 0068     		ldr	r0, [r0]
 442 0006 0422     		movs	r2, #4
 443 0008 FFF7FEFF 		bl	TIM_CCxNChannelCmd
 444 000c 2268     		ldr	r2, [r4]
 445 000e 536C     		ldr	r3, [r2, #68]
 446 0010 43F40043 		orr	r3, r3, #32768
 447 0014 5364     		str	r3, [r2, #68]
 448 0016 2268     		ldr	r2, [r4]
 449 0018 9368     		ldr	r3, [r2, #8]
 450 001a 03F00703 		and	r3, r3, #7
 451 001e 062B     		cmp	r3, #6
 452 0020 03D0     		beq	.L40
 453 0022 1368     		ldr	r3, [r2]
 454 0024 43F00103 		orr	r3, r3, #1
 455 0028 1360     		str	r3, [r2]
 456              	.L40:
 457 002a 0020     		movs	r0, #0
 458 002c 10BD     		pop	{r4, pc}
 460 002e 00BF     		.section	.text.HAL_TIMEx_OCN_Stop,"ax",%progbits
 461              		.align	2
 462              		.global	HAL_TIMEx_OCN_Stop
 463              		.thumb
 464              		.thumb_func
 466              	HAL_TIMEx_OCN_Stop:
 467              		@ args = 0, pretend = 0, frame = 0
 468              		@ frame_needed = 0, uses_anonymous_args = 0
 469 0000 10B5     		push	{r4, lr}
 470 0002 0446     		mov	r4, r0
 471 0004 0068     		ldr	r0, [r0]
 472 0006 0022     		movs	r2, #0
 473 0008 FFF7FEFF 		bl	TIM_CCxNChannelCmd
 474 000c 2368     		ldr	r3, [r4]
 475 000e 196A     		ldr	r1, [r3, #32]
 476 0010 41F21112 		movw	r2, #4369
 477 0014 1142     		tst	r1, r2
 478 0016 08D1     		bne	.L43
 479 0018 196A     		ldr	r1, [r3, #32]
 480 001a 40F24442 		movw	r2, #1092
 481 001e 1142     		tst	r1, r2
ARM GAS  /tmp/cchr48Fl.s 			page 9


 482 0020 03D1     		bne	.L43
 483 0022 5A6C     		ldr	r2, [r3, #68]
 484 0024 22F40042 		bic	r2, r2, #32768
 485 0028 5A64     		str	r2, [r3, #68]
 486              	.L43:
 487 002a 2368     		ldr	r3, [r4]
 488 002c 196A     		ldr	r1, [r3, #32]
 489 002e 41F21112 		movw	r2, #4369
 490 0032 1142     		tst	r1, r2
 491 0034 08D1     		bne	.L44
 492 0036 196A     		ldr	r1, [r3, #32]
 493 0038 40F24442 		movw	r2, #1092
 494 003c 1142     		tst	r1, r2
 495 003e 03D1     		bne	.L44
 496 0040 1A68     		ldr	r2, [r3]
 497 0042 22F00102 		bic	r2, r2, #1
 498 0046 1A60     		str	r2, [r3]
 499              	.L44:
 500 0048 0020     		movs	r0, #0
 501 004a 10BD     		pop	{r4, pc}
 503              		.section	.text.HAL_TIMEx_OCN_Start_IT,"ax",%progbits
 504              		.align	2
 505              		.global	HAL_TIMEx_OCN_Start_IT
 506              		.thumb
 507              		.thumb_func
 509              	HAL_TIMEx_OCN_Start_IT:
 510              		@ args = 0, pretend = 0, frame = 0
 511              		@ frame_needed = 0, uses_anonymous_args = 0
 512 0000 10B5     		push	{r4, lr}
 513 0002 0446     		mov	r4, r0
 514 0004 0429     		cmp	r1, #4
 515 0006 08D0     		beq	.L48
 516 0008 0829     		cmp	r1, #8
 517 000a 0CD0     		beq	.L49
 518 000c 81B9     		cbnz	r1, .L47
 519 000e 0268     		ldr	r2, [r0]
 520 0010 D368     		ldr	r3, [r2, #12]
 521 0012 43F00203 		orr	r3, r3, #2
 522 0016 D360     		str	r3, [r2, #12]
 523 0018 0AE0     		b	.L47
 524              	.L48:
 525 001a 0268     		ldr	r2, [r0]
 526 001c D368     		ldr	r3, [r2, #12]
 527 001e 43F00403 		orr	r3, r3, #4
 528 0022 D360     		str	r3, [r2, #12]
 529 0024 04E0     		b	.L47
 530              	.L49:
 531 0026 0268     		ldr	r2, [r0]
 532 0028 D368     		ldr	r3, [r2, #12]
 533 002a 43F00803 		orr	r3, r3, #8
 534 002e D360     		str	r3, [r2, #12]
 535              	.L47:
 536 0030 2268     		ldr	r2, [r4]
 537 0032 D368     		ldr	r3, [r2, #12]
 538 0034 43F08003 		orr	r3, r3, #128
 539 0038 D360     		str	r3, [r2, #12]
 540 003a 2068     		ldr	r0, [r4]
ARM GAS  /tmp/cchr48Fl.s 			page 10


 541 003c 0422     		movs	r2, #4
 542 003e FFF7FEFF 		bl	TIM_CCxNChannelCmd
 543 0042 2268     		ldr	r2, [r4]
 544 0044 536C     		ldr	r3, [r2, #68]
 545 0046 43F40043 		orr	r3, r3, #32768
 546 004a 5364     		str	r3, [r2, #68]
 547 004c 2268     		ldr	r2, [r4]
 548 004e 9368     		ldr	r3, [r2, #8]
 549 0050 03F00703 		and	r3, r3, #7
 550 0054 062B     		cmp	r3, #6
 551 0056 03D0     		beq	.L51
 552 0058 1368     		ldr	r3, [r2]
 553 005a 43F00103 		orr	r3, r3, #1
 554 005e 1360     		str	r3, [r2]
 555              	.L51:
 556 0060 0020     		movs	r0, #0
 557 0062 10BD     		pop	{r4, pc}
 559              		.section	.text.HAL_TIMEx_OCN_Stop_IT,"ax",%progbits
 560              		.align	2
 561              		.global	HAL_TIMEx_OCN_Stop_IT
 562              		.thumb
 563              		.thumb_func
 565              	HAL_TIMEx_OCN_Stop_IT:
 566              		@ args = 0, pretend = 0, frame = 0
 567              		@ frame_needed = 0, uses_anonymous_args = 0
 568 0000 10B5     		push	{r4, lr}
 569 0002 0446     		mov	r4, r0
 570 0004 0429     		cmp	r1, #4
 571 0006 08D0     		beq	.L55
 572 0008 0829     		cmp	r1, #8
 573 000a 0CD0     		beq	.L56
 574 000c 81B9     		cbnz	r1, .L54
 575 000e 0268     		ldr	r2, [r0]
 576 0010 D368     		ldr	r3, [r2, #12]
 577 0012 23F00203 		bic	r3, r3, #2
 578 0016 D360     		str	r3, [r2, #12]
 579 0018 0AE0     		b	.L54
 580              	.L55:
 581 001a 0268     		ldr	r2, [r0]
 582 001c D368     		ldr	r3, [r2, #12]
 583 001e 23F00403 		bic	r3, r3, #4
 584 0022 D360     		str	r3, [r2, #12]
 585 0024 04E0     		b	.L54
 586              	.L56:
 587 0026 0268     		ldr	r2, [r0]
 588 0028 D368     		ldr	r3, [r2, #12]
 589 002a 23F00803 		bic	r3, r3, #8
 590 002e D360     		str	r3, [r2, #12]
 591              	.L54:
 592 0030 2068     		ldr	r0, [r4]
 593 0032 0022     		movs	r2, #0
 594 0034 FFF7FEFF 		bl	TIM_CCxNChannelCmd
 595 0038 2368     		ldr	r3, [r4]
 596 003a 196A     		ldr	r1, [r3, #32]
 597 003c 40F24442 		movw	r2, #1092
 598 0040 1142     		tst	r1, r2
 599 0042 03D1     		bne	.L58
ARM GAS  /tmp/cchr48Fl.s 			page 11


 600 0044 DA68     		ldr	r2, [r3, #12]
 601 0046 22F08002 		bic	r2, r2, #128
 602 004a DA60     		str	r2, [r3, #12]
 603              	.L58:
 604 004c 2368     		ldr	r3, [r4]
 605 004e 196A     		ldr	r1, [r3, #32]
 606 0050 41F21112 		movw	r2, #4369
 607 0054 1142     		tst	r1, r2
 608 0056 08D1     		bne	.L59
 609 0058 196A     		ldr	r1, [r3, #32]
 610 005a 40F24442 		movw	r2, #1092
 611 005e 1142     		tst	r1, r2
 612 0060 03D1     		bne	.L59
 613 0062 5A6C     		ldr	r2, [r3, #68]
 614 0064 22F40042 		bic	r2, r2, #32768
 615 0068 5A64     		str	r2, [r3, #68]
 616              	.L59:
 617 006a 2368     		ldr	r3, [r4]
 618 006c 196A     		ldr	r1, [r3, #32]
 619 006e 41F21112 		movw	r2, #4369
 620 0072 1142     		tst	r1, r2
 621 0074 08D1     		bne	.L60
 622 0076 196A     		ldr	r1, [r3, #32]
 623 0078 40F24442 		movw	r2, #1092
 624 007c 1142     		tst	r1, r2
 625 007e 03D1     		bne	.L60
 626 0080 1A68     		ldr	r2, [r3]
 627 0082 22F00102 		bic	r2, r2, #1
 628 0086 1A60     		str	r2, [r3]
 629              	.L60:
 630 0088 0020     		movs	r0, #0
 631 008a 10BD     		pop	{r4, pc}
 633              		.section	.text.HAL_TIMEx_OCN_Start_DMA,"ax",%progbits
 634              		.align	2
 635              		.global	HAL_TIMEx_OCN_Start_DMA
 636              		.thumb
 637              		.thumb_func
 639              	HAL_TIMEx_OCN_Start_DMA:
 640              		@ args = 0, pretend = 0, frame = 0
 641              		@ frame_needed = 0, uses_anonymous_args = 0
 642 0000 70B5     		push	{r4, r5, r6, lr}
 643 0002 90F83D50 		ldrb	r5, [r0, #61]	@ zero_extendqisi2
 644 0006 EDB2     		uxtb	r5, r5
 645 0008 022D     		cmp	r5, #2
 646 000a 6ED0     		beq	.L70
 647 000c 90F83D40 		ldrb	r4, [r0, #61]	@ zero_extendqisi2
 648 0010 E4B2     		uxtb	r4, r4
 649 0012 012C     		cmp	r4, #1
 650 0014 05D1     		bne	.L64
 651 0016 0AB9     		cbnz	r2, .L65
 652 0018 002B     		cmp	r3, #0
 653 001a 68D1     		bne	.L71
 654              	.L65:
 655 001c 0224     		movs	r4, #2
 656 001e 80F83D40 		strb	r4, [r0, #61]
 657              	.L64:
 658 0022 0D46     		mov	r5, r1
ARM GAS  /tmp/cchr48Fl.s 			page 12


 659 0024 0446     		mov	r4, r0
 660 0026 0429     		cmp	r1, #4
 661 0028 1BD0     		beq	.L67
 662 002a 0829     		cmp	r1, #8
 663 002c 31D0     		beq	.L68
 664 002e 0029     		cmp	r1, #0
 665 0030 45D1     		bne	.L66
 666 0032 416A     		ldr	r1, [r0, #36]
 667 0034 3348     		ldr	r0, .L77
 668 0036 8862     		str	r0, [r1, #40]
 669 0038 616A     		ldr	r1, [r4, #36]
 670 003a 3348     		ldr	r0, .L77+4
 671 003c C862     		str	r0, [r1, #44]
 672 003e 616A     		ldr	r1, [r4, #36]
 673 0040 3248     		ldr	r0, .L77+8
 674 0042 0863     		str	r0, [r1, #48]
 675 0044 2668     		ldr	r6, [r4]
 676 0046 606A     		ldr	r0, [r4, #36]
 677 0048 1146     		mov	r1, r2
 678 004a 06F13402 		add	r2, r6, #52
 679 004e FFF7FEFF 		bl	HAL_DMA_Start_IT
 680 0052 0028     		cmp	r0, #0
 681 0054 4DD1     		bne	.L72
 682 0056 2268     		ldr	r2, [r4]
 683 0058 D368     		ldr	r3, [r2, #12]
 684 005a 43F40073 		orr	r3, r3, #512
 685 005e D360     		str	r3, [r2, #12]
 686 0060 2DE0     		b	.L66
 687              	.L67:
 688 0062 816A     		ldr	r1, [r0, #40]
 689 0064 2748     		ldr	r0, .L77
 690 0066 8862     		str	r0, [r1, #40]
 691 0068 A16A     		ldr	r1, [r4, #40]
 692 006a 2748     		ldr	r0, .L77+4
 693 006c C862     		str	r0, [r1, #44]
 694 006e A16A     		ldr	r1, [r4, #40]
 695 0070 2648     		ldr	r0, .L77+8
 696 0072 0863     		str	r0, [r1, #48]
 697 0074 2668     		ldr	r6, [r4]
 698 0076 A06A     		ldr	r0, [r4, #40]
 699 0078 1146     		mov	r1, r2
 700 007a 06F13802 		add	r2, r6, #56
 701 007e FFF7FEFF 		bl	HAL_DMA_Start_IT
 702 0082 0028     		cmp	r0, #0
 703 0084 37D1     		bne	.L73
 704 0086 2268     		ldr	r2, [r4]
 705 0088 D368     		ldr	r3, [r2, #12]
 706 008a 43F48063 		orr	r3, r3, #1024
 707 008e D360     		str	r3, [r2, #12]
 708 0090 15E0     		b	.L66
 709              	.L68:
 710 0092 C16A     		ldr	r1, [r0, #44]
 711 0094 1B48     		ldr	r0, .L77
 712 0096 8862     		str	r0, [r1, #40]
 713 0098 E16A     		ldr	r1, [r4, #44]
 714 009a 1B48     		ldr	r0, .L77+4
 715 009c C862     		str	r0, [r1, #44]
ARM GAS  /tmp/cchr48Fl.s 			page 13


 716 009e E16A     		ldr	r1, [r4, #44]
 717 00a0 1A48     		ldr	r0, .L77+8
 718 00a2 0863     		str	r0, [r1, #48]
 719 00a4 2668     		ldr	r6, [r4]
 720 00a6 E06A     		ldr	r0, [r4, #44]
 721 00a8 1146     		mov	r1, r2
 722 00aa 06F13C02 		add	r2, r6, #60
 723 00ae FFF7FEFF 		bl	HAL_DMA_Start_IT
 724 00b2 10BB     		cbnz	r0, .L74
 725 00b4 2268     		ldr	r2, [r4]
 726 00b6 D368     		ldr	r3, [r2, #12]
 727 00b8 43F40063 		orr	r3, r3, #2048
 728 00bc D360     		str	r3, [r2, #12]
 729              	.L66:
 730 00be 2068     		ldr	r0, [r4]
 731 00c0 2946     		mov	r1, r5
 732 00c2 0422     		movs	r2, #4
 733 00c4 FFF7FEFF 		bl	TIM_CCxNChannelCmd
 734 00c8 2268     		ldr	r2, [r4]
 735 00ca 536C     		ldr	r3, [r2, #68]
 736 00cc 43F40043 		orr	r3, r3, #32768
 737 00d0 5364     		str	r3, [r2, #68]
 738 00d2 2268     		ldr	r2, [r4]
 739 00d4 9368     		ldr	r3, [r2, #8]
 740 00d6 03F00703 		and	r3, r3, #7
 741 00da 062B     		cmp	r3, #6
 742 00dc 0FD0     		beq	.L75
 743 00de 1368     		ldr	r3, [r2]
 744 00e0 43F00103 		orr	r3, r3, #1
 745 00e4 1360     		str	r3, [r2]
 746 00e6 0020     		movs	r0, #0
 747 00e8 70BD     		pop	{r4, r5, r6, pc}
 748              	.L70:
 749 00ea 0220     		movs	r0, #2
 750 00ec 70BD     		pop	{r4, r5, r6, pc}
 751              	.L71:
 752 00ee 0120     		movs	r0, #1
 753 00f0 70BD     		pop	{r4, r5, r6, pc}
 754              	.L72:
 755 00f2 0120     		movs	r0, #1
 756 00f4 70BD     		pop	{r4, r5, r6, pc}
 757              	.L73:
 758 00f6 0120     		movs	r0, #1
 759 00f8 70BD     		pop	{r4, r5, r6, pc}
 760              	.L74:
 761 00fa 0120     		movs	r0, #1
 762 00fc 70BD     		pop	{r4, r5, r6, pc}
 763              	.L75:
 764 00fe 0020     		movs	r0, #0
 765 0100 70BD     		pop	{r4, r5, r6, pc}
 766              	.L78:
 767 0102 00BF     		.align	2
 768              	.L77:
 769 0104 00000000 		.word	TIM_DMADelayPulseCplt
 770 0108 00000000 		.word	TIM_DMADelayPulseHalfCplt
 771 010c 00000000 		.word	TIM_DMAError
 773              		.section	.text.HAL_TIMEx_OCN_Stop_DMA,"ax",%progbits
ARM GAS  /tmp/cchr48Fl.s 			page 14


 774              		.align	2
 775              		.global	HAL_TIMEx_OCN_Stop_DMA
 776              		.thumb
 777              		.thumb_func
 779              	HAL_TIMEx_OCN_Stop_DMA:
 780              		@ args = 0, pretend = 0, frame = 0
 781              		@ frame_needed = 0, uses_anonymous_args = 0
 782 0000 38B5     		push	{r3, r4, r5, lr}
 783 0002 0446     		mov	r4, r0
 784 0004 0D46     		mov	r5, r1
 785 0006 0429     		cmp	r1, #4
 786 0008 0BD0     		beq	.L81
 787 000a 0829     		cmp	r1, #8
 788 000c 12D0     		beq	.L82
 789 000e C9B9     		cbnz	r1, .L80
 790 0010 0268     		ldr	r2, [r0]
 791 0012 D368     		ldr	r3, [r2, #12]
 792 0014 23F40073 		bic	r3, r3, #512
 793 0018 D360     		str	r3, [r2, #12]
 794 001a 406A     		ldr	r0, [r0, #36]
 795 001c FFF7FEFF 		bl	HAL_DMA_Abort_IT
 796 0020 10E0     		b	.L80
 797              	.L81:
 798 0022 0268     		ldr	r2, [r0]
 799 0024 D368     		ldr	r3, [r2, #12]
 800 0026 23F48063 		bic	r3, r3, #1024
 801 002a D360     		str	r3, [r2, #12]
 802 002c 806A     		ldr	r0, [r0, #40]
 803 002e FFF7FEFF 		bl	HAL_DMA_Abort_IT
 804 0032 07E0     		b	.L80
 805              	.L82:
 806 0034 0268     		ldr	r2, [r0]
 807 0036 D368     		ldr	r3, [r2, #12]
 808 0038 23F40063 		bic	r3, r3, #2048
 809 003c D360     		str	r3, [r2, #12]
 810 003e C06A     		ldr	r0, [r0, #44]
 811 0040 FFF7FEFF 		bl	HAL_DMA_Abort_IT
 812              	.L80:
 813 0044 2068     		ldr	r0, [r4]
 814 0046 2946     		mov	r1, r5
 815 0048 0022     		movs	r2, #0
 816 004a FFF7FEFF 		bl	TIM_CCxNChannelCmd
 817 004e 2368     		ldr	r3, [r4]
 818 0050 196A     		ldr	r1, [r3, #32]
 819 0052 41F21112 		movw	r2, #4369
 820 0056 1142     		tst	r1, r2
 821 0058 08D1     		bne	.L84
 822 005a 196A     		ldr	r1, [r3, #32]
 823 005c 40F24442 		movw	r2, #1092
 824 0060 1142     		tst	r1, r2
 825 0062 03D1     		bne	.L84
 826 0064 5A6C     		ldr	r2, [r3, #68]
 827 0066 22F40042 		bic	r2, r2, #32768
 828 006a 5A64     		str	r2, [r3, #68]
 829              	.L84:
 830 006c 2368     		ldr	r3, [r4]
 831 006e 196A     		ldr	r1, [r3, #32]
ARM GAS  /tmp/cchr48Fl.s 			page 15


 832 0070 41F21112 		movw	r2, #4369
 833 0074 1142     		tst	r1, r2
 834 0076 08D1     		bne	.L85
 835 0078 196A     		ldr	r1, [r3, #32]
 836 007a 40F24442 		movw	r2, #1092
 837 007e 1142     		tst	r1, r2
 838 0080 03D1     		bne	.L85
 839 0082 1A68     		ldr	r2, [r3]
 840 0084 22F00102 		bic	r2, r2, #1
 841 0088 1A60     		str	r2, [r3]
 842              	.L85:
 843 008a 0123     		movs	r3, #1
 844 008c 84F83D30 		strb	r3, [r4, #61]
 845 0090 0020     		movs	r0, #0
 846 0092 38BD     		pop	{r3, r4, r5, pc}
 848              		.section	.text.HAL_TIMEx_PWMN_Start,"ax",%progbits
 849              		.align	2
 850              		.global	HAL_TIMEx_PWMN_Start
 851              		.thumb
 852              		.thumb_func
 854              	HAL_TIMEx_PWMN_Start:
 855              		@ args = 0, pretend = 0, frame = 0
 856              		@ frame_needed = 0, uses_anonymous_args = 0
 857 0000 10B5     		push	{r4, lr}
 858 0002 0446     		mov	r4, r0
 859 0004 0068     		ldr	r0, [r0]
 860 0006 0422     		movs	r2, #4
 861 0008 FFF7FEFF 		bl	TIM_CCxNChannelCmd
 862 000c 2268     		ldr	r2, [r4]
 863 000e 536C     		ldr	r3, [r2, #68]
 864 0010 43F40043 		orr	r3, r3, #32768
 865 0014 5364     		str	r3, [r2, #68]
 866 0016 2268     		ldr	r2, [r4]
 867 0018 9368     		ldr	r3, [r2, #8]
 868 001a 03F00703 		and	r3, r3, #7
 869 001e 062B     		cmp	r3, #6
 870 0020 03D0     		beq	.L88
 871 0022 1368     		ldr	r3, [r2]
 872 0024 43F00103 		orr	r3, r3, #1
 873 0028 1360     		str	r3, [r2]
 874              	.L88:
 875 002a 0020     		movs	r0, #0
 876 002c 10BD     		pop	{r4, pc}
 878 002e 00BF     		.section	.text.HAL_TIMEx_PWMN_Stop,"ax",%progbits
 879              		.align	2
 880              		.global	HAL_TIMEx_PWMN_Stop
 881              		.thumb
 882              		.thumb_func
 884              	HAL_TIMEx_PWMN_Stop:
 885              		@ args = 0, pretend = 0, frame = 0
 886              		@ frame_needed = 0, uses_anonymous_args = 0
 887 0000 10B5     		push	{r4, lr}
 888 0002 0446     		mov	r4, r0
 889 0004 0068     		ldr	r0, [r0]
 890 0006 0022     		movs	r2, #0
 891 0008 FFF7FEFF 		bl	TIM_CCxNChannelCmd
 892 000c 2368     		ldr	r3, [r4]
ARM GAS  /tmp/cchr48Fl.s 			page 16


 893 000e 196A     		ldr	r1, [r3, #32]
 894 0010 41F21112 		movw	r2, #4369
 895 0014 1142     		tst	r1, r2
 896 0016 08D1     		bne	.L91
 897 0018 196A     		ldr	r1, [r3, #32]
 898 001a 40F24442 		movw	r2, #1092
 899 001e 1142     		tst	r1, r2
 900 0020 03D1     		bne	.L91
 901 0022 5A6C     		ldr	r2, [r3, #68]
 902 0024 22F40042 		bic	r2, r2, #32768
 903 0028 5A64     		str	r2, [r3, #68]
 904              	.L91:
 905 002a 2368     		ldr	r3, [r4]
 906 002c 196A     		ldr	r1, [r3, #32]
 907 002e 41F21112 		movw	r2, #4369
 908 0032 1142     		tst	r1, r2
 909 0034 08D1     		bne	.L92
 910 0036 196A     		ldr	r1, [r3, #32]
 911 0038 40F24442 		movw	r2, #1092
 912 003c 1142     		tst	r1, r2
 913 003e 03D1     		bne	.L92
 914 0040 1A68     		ldr	r2, [r3]
 915 0042 22F00102 		bic	r2, r2, #1
 916 0046 1A60     		str	r2, [r3]
 917              	.L92:
 918 0048 0020     		movs	r0, #0
 919 004a 10BD     		pop	{r4, pc}
 921              		.section	.text.HAL_TIMEx_PWMN_Start_IT,"ax",%progbits
 922              		.align	2
 923              		.global	HAL_TIMEx_PWMN_Start_IT
 924              		.thumb
 925              		.thumb_func
 927              	HAL_TIMEx_PWMN_Start_IT:
 928              		@ args = 0, pretend = 0, frame = 0
 929              		@ frame_needed = 0, uses_anonymous_args = 0
 930 0000 10B5     		push	{r4, lr}
 931 0002 0446     		mov	r4, r0
 932 0004 0429     		cmp	r1, #4
 933 0006 08D0     		beq	.L96
 934 0008 0829     		cmp	r1, #8
 935 000a 0CD0     		beq	.L97
 936 000c 81B9     		cbnz	r1, .L95
 937 000e 0268     		ldr	r2, [r0]
 938 0010 D368     		ldr	r3, [r2, #12]
 939 0012 43F00203 		orr	r3, r3, #2
 940 0016 D360     		str	r3, [r2, #12]
 941 0018 0AE0     		b	.L95
 942              	.L96:
 943 001a 0268     		ldr	r2, [r0]
 944 001c D368     		ldr	r3, [r2, #12]
 945 001e 43F00403 		orr	r3, r3, #4
 946 0022 D360     		str	r3, [r2, #12]
 947 0024 04E0     		b	.L95
 948              	.L97:
 949 0026 0268     		ldr	r2, [r0]
 950 0028 D368     		ldr	r3, [r2, #12]
 951 002a 43F00803 		orr	r3, r3, #8
ARM GAS  /tmp/cchr48Fl.s 			page 17


 952 002e D360     		str	r3, [r2, #12]
 953              	.L95:
 954 0030 2268     		ldr	r2, [r4]
 955 0032 D368     		ldr	r3, [r2, #12]
 956 0034 43F08003 		orr	r3, r3, #128
 957 0038 D360     		str	r3, [r2, #12]
 958 003a 2068     		ldr	r0, [r4]
 959 003c 0422     		movs	r2, #4
 960 003e FFF7FEFF 		bl	TIM_CCxNChannelCmd
 961 0042 2268     		ldr	r2, [r4]
 962 0044 536C     		ldr	r3, [r2, #68]
 963 0046 43F40043 		orr	r3, r3, #32768
 964 004a 5364     		str	r3, [r2, #68]
 965 004c 2268     		ldr	r2, [r4]
 966 004e 9368     		ldr	r3, [r2, #8]
 967 0050 03F00703 		and	r3, r3, #7
 968 0054 062B     		cmp	r3, #6
 969 0056 03D0     		beq	.L99
 970 0058 1368     		ldr	r3, [r2]
 971 005a 43F00103 		orr	r3, r3, #1
 972 005e 1360     		str	r3, [r2]
 973              	.L99:
 974 0060 0020     		movs	r0, #0
 975 0062 10BD     		pop	{r4, pc}
 977              		.section	.text.HAL_TIMEx_PWMN_Stop_IT,"ax",%progbits
 978              		.align	2
 979              		.global	HAL_TIMEx_PWMN_Stop_IT
 980              		.thumb
 981              		.thumb_func
 983              	HAL_TIMEx_PWMN_Stop_IT:
 984              		@ args = 0, pretend = 0, frame = 0
 985              		@ frame_needed = 0, uses_anonymous_args = 0
 986 0000 10B5     		push	{r4, lr}
 987 0002 0446     		mov	r4, r0
 988 0004 0429     		cmp	r1, #4
 989 0006 08D0     		beq	.L103
 990 0008 0829     		cmp	r1, #8
 991 000a 0CD0     		beq	.L104
 992 000c 81B9     		cbnz	r1, .L102
 993 000e 0268     		ldr	r2, [r0]
 994 0010 D368     		ldr	r3, [r2, #12]
 995 0012 23F00203 		bic	r3, r3, #2
 996 0016 D360     		str	r3, [r2, #12]
 997 0018 0AE0     		b	.L102
 998              	.L103:
 999 001a 0268     		ldr	r2, [r0]
 1000 001c D368     		ldr	r3, [r2, #12]
 1001 001e 23F00403 		bic	r3, r3, #4
 1002 0022 D360     		str	r3, [r2, #12]
 1003 0024 04E0     		b	.L102
 1004              	.L104:
 1005 0026 0268     		ldr	r2, [r0]
 1006 0028 D368     		ldr	r3, [r2, #12]
 1007 002a 23F00803 		bic	r3, r3, #8
 1008 002e D360     		str	r3, [r2, #12]
 1009              	.L102:
 1010 0030 2068     		ldr	r0, [r4]
ARM GAS  /tmp/cchr48Fl.s 			page 18


 1011 0032 0022     		movs	r2, #0
 1012 0034 FFF7FEFF 		bl	TIM_CCxNChannelCmd
 1013 0038 2368     		ldr	r3, [r4]
 1014 003a 196A     		ldr	r1, [r3, #32]
 1015 003c 40F24442 		movw	r2, #1092
 1016 0040 1142     		tst	r1, r2
 1017 0042 03D1     		bne	.L106
 1018 0044 DA68     		ldr	r2, [r3, #12]
 1019 0046 22F08002 		bic	r2, r2, #128
 1020 004a DA60     		str	r2, [r3, #12]
 1021              	.L106:
 1022 004c 2368     		ldr	r3, [r4]
 1023 004e 196A     		ldr	r1, [r3, #32]
 1024 0050 41F21112 		movw	r2, #4369
 1025 0054 1142     		tst	r1, r2
 1026 0056 08D1     		bne	.L107
 1027 0058 196A     		ldr	r1, [r3, #32]
 1028 005a 40F24442 		movw	r2, #1092
 1029 005e 1142     		tst	r1, r2
 1030 0060 03D1     		bne	.L107
 1031 0062 5A6C     		ldr	r2, [r3, #68]
 1032 0064 22F40042 		bic	r2, r2, #32768
 1033 0068 5A64     		str	r2, [r3, #68]
 1034              	.L107:
 1035 006a 2368     		ldr	r3, [r4]
 1036 006c 196A     		ldr	r1, [r3, #32]
 1037 006e 41F21112 		movw	r2, #4369
 1038 0072 1142     		tst	r1, r2
 1039 0074 08D1     		bne	.L108
 1040 0076 196A     		ldr	r1, [r3, #32]
 1041 0078 40F24442 		movw	r2, #1092
 1042 007c 1142     		tst	r1, r2
 1043 007e 03D1     		bne	.L108
 1044 0080 1A68     		ldr	r2, [r3]
 1045 0082 22F00102 		bic	r2, r2, #1
 1046 0086 1A60     		str	r2, [r3]
 1047              	.L108:
 1048 0088 0020     		movs	r0, #0
 1049 008a 10BD     		pop	{r4, pc}
 1051              		.section	.text.HAL_TIMEx_PWMN_Start_DMA,"ax",%progbits
 1052              		.align	2
 1053              		.global	HAL_TIMEx_PWMN_Start_DMA
 1054              		.thumb
 1055              		.thumb_func
 1057              	HAL_TIMEx_PWMN_Start_DMA:
 1058              		@ args = 0, pretend = 0, frame = 0
 1059              		@ frame_needed = 0, uses_anonymous_args = 0
 1060 0000 70B5     		push	{r4, r5, r6, lr}
 1061 0002 90F83D50 		ldrb	r5, [r0, #61]	@ zero_extendqisi2
 1062 0006 EDB2     		uxtb	r5, r5
 1063 0008 022D     		cmp	r5, #2
 1064 000a 6ED0     		beq	.L118
 1065 000c 90F83D40 		ldrb	r4, [r0, #61]	@ zero_extendqisi2
 1066 0010 E4B2     		uxtb	r4, r4
 1067 0012 012C     		cmp	r4, #1
 1068 0014 05D1     		bne	.L112
 1069 0016 0AB9     		cbnz	r2, .L113
ARM GAS  /tmp/cchr48Fl.s 			page 19


 1070 0018 002B     		cmp	r3, #0
 1071 001a 68D1     		bne	.L119
 1072              	.L113:
 1073 001c 0224     		movs	r4, #2
 1074 001e 80F83D40 		strb	r4, [r0, #61]
 1075              	.L112:
 1076 0022 0D46     		mov	r5, r1
 1077 0024 0446     		mov	r4, r0
 1078 0026 0429     		cmp	r1, #4
 1079 0028 1BD0     		beq	.L115
 1080 002a 0829     		cmp	r1, #8
 1081 002c 31D0     		beq	.L116
 1082 002e 0029     		cmp	r1, #0
 1083 0030 45D1     		bne	.L114
 1084 0032 416A     		ldr	r1, [r0, #36]
 1085 0034 3348     		ldr	r0, .L125
 1086 0036 8862     		str	r0, [r1, #40]
 1087 0038 616A     		ldr	r1, [r4, #36]
 1088 003a 3348     		ldr	r0, .L125+4
 1089 003c C862     		str	r0, [r1, #44]
 1090 003e 616A     		ldr	r1, [r4, #36]
 1091 0040 3248     		ldr	r0, .L125+8
 1092 0042 0863     		str	r0, [r1, #48]
 1093 0044 2668     		ldr	r6, [r4]
 1094 0046 606A     		ldr	r0, [r4, #36]
 1095 0048 1146     		mov	r1, r2
 1096 004a 06F13402 		add	r2, r6, #52
 1097 004e FFF7FEFF 		bl	HAL_DMA_Start_IT
 1098 0052 0028     		cmp	r0, #0
 1099 0054 4DD1     		bne	.L120
 1100 0056 2268     		ldr	r2, [r4]
 1101 0058 D368     		ldr	r3, [r2, #12]
 1102 005a 43F40073 		orr	r3, r3, #512
 1103 005e D360     		str	r3, [r2, #12]
 1104 0060 2DE0     		b	.L114
 1105              	.L115:
 1106 0062 816A     		ldr	r1, [r0, #40]
 1107 0064 2748     		ldr	r0, .L125
 1108 0066 8862     		str	r0, [r1, #40]
 1109 0068 A16A     		ldr	r1, [r4, #40]
 1110 006a 2748     		ldr	r0, .L125+4
 1111 006c C862     		str	r0, [r1, #44]
 1112 006e A16A     		ldr	r1, [r4, #40]
 1113 0070 2648     		ldr	r0, .L125+8
 1114 0072 0863     		str	r0, [r1, #48]
 1115 0074 2668     		ldr	r6, [r4]
 1116 0076 A06A     		ldr	r0, [r4, #40]
 1117 0078 1146     		mov	r1, r2
 1118 007a 06F13802 		add	r2, r6, #56
 1119 007e FFF7FEFF 		bl	HAL_DMA_Start_IT
 1120 0082 0028     		cmp	r0, #0
 1121 0084 37D1     		bne	.L121
 1122 0086 2268     		ldr	r2, [r4]
 1123 0088 D368     		ldr	r3, [r2, #12]
 1124 008a 43F48063 		orr	r3, r3, #1024
 1125 008e D360     		str	r3, [r2, #12]
 1126 0090 15E0     		b	.L114
ARM GAS  /tmp/cchr48Fl.s 			page 20


 1127              	.L116:
 1128 0092 C16A     		ldr	r1, [r0, #44]
 1129 0094 1B48     		ldr	r0, .L125
 1130 0096 8862     		str	r0, [r1, #40]
 1131 0098 E16A     		ldr	r1, [r4, #44]
 1132 009a 1B48     		ldr	r0, .L125+4
 1133 009c C862     		str	r0, [r1, #44]
 1134 009e E16A     		ldr	r1, [r4, #44]
 1135 00a0 1A48     		ldr	r0, .L125+8
 1136 00a2 0863     		str	r0, [r1, #48]
 1137 00a4 2668     		ldr	r6, [r4]
 1138 00a6 E06A     		ldr	r0, [r4, #44]
 1139 00a8 1146     		mov	r1, r2
 1140 00aa 06F13C02 		add	r2, r6, #60
 1141 00ae FFF7FEFF 		bl	HAL_DMA_Start_IT
 1142 00b2 10BB     		cbnz	r0, .L122
 1143 00b4 2268     		ldr	r2, [r4]
 1144 00b6 D368     		ldr	r3, [r2, #12]
 1145 00b8 43F40063 		orr	r3, r3, #2048
 1146 00bc D360     		str	r3, [r2, #12]
 1147              	.L114:
 1148 00be 2068     		ldr	r0, [r4]
 1149 00c0 2946     		mov	r1, r5
 1150 00c2 0422     		movs	r2, #4
 1151 00c4 FFF7FEFF 		bl	TIM_CCxNChannelCmd
 1152 00c8 2268     		ldr	r2, [r4]
 1153 00ca 536C     		ldr	r3, [r2, #68]
 1154 00cc 43F40043 		orr	r3, r3, #32768
 1155 00d0 5364     		str	r3, [r2, #68]
 1156 00d2 2268     		ldr	r2, [r4]
 1157 00d4 9368     		ldr	r3, [r2, #8]
 1158 00d6 03F00703 		and	r3, r3, #7
 1159 00da 062B     		cmp	r3, #6
 1160 00dc 0FD0     		beq	.L123
 1161 00de 1368     		ldr	r3, [r2]
 1162 00e0 43F00103 		orr	r3, r3, #1
 1163 00e4 1360     		str	r3, [r2]
 1164 00e6 0020     		movs	r0, #0
 1165 00e8 70BD     		pop	{r4, r5, r6, pc}
 1166              	.L118:
 1167 00ea 0220     		movs	r0, #2
 1168 00ec 70BD     		pop	{r4, r5, r6, pc}
 1169              	.L119:
 1170 00ee 0120     		movs	r0, #1
 1171 00f0 70BD     		pop	{r4, r5, r6, pc}
 1172              	.L120:
 1173 00f2 0120     		movs	r0, #1
 1174 00f4 70BD     		pop	{r4, r5, r6, pc}
 1175              	.L121:
 1176 00f6 0120     		movs	r0, #1
 1177 00f8 70BD     		pop	{r4, r5, r6, pc}
 1178              	.L122:
 1179 00fa 0120     		movs	r0, #1
 1180 00fc 70BD     		pop	{r4, r5, r6, pc}
 1181              	.L123:
 1182 00fe 0020     		movs	r0, #0
 1183 0100 70BD     		pop	{r4, r5, r6, pc}
ARM GAS  /tmp/cchr48Fl.s 			page 21


 1184              	.L126:
 1185 0102 00BF     		.align	2
 1186              	.L125:
 1187 0104 00000000 		.word	TIM_DMADelayPulseCplt
 1188 0108 00000000 		.word	TIM_DMADelayPulseHalfCplt
 1189 010c 00000000 		.word	TIM_DMAError
 1191              		.section	.text.HAL_TIMEx_PWMN_Stop_DMA,"ax",%progbits
 1192              		.align	2
 1193              		.global	HAL_TIMEx_PWMN_Stop_DMA
 1194              		.thumb
 1195              		.thumb_func
 1197              	HAL_TIMEx_PWMN_Stop_DMA:
 1198              		@ args = 0, pretend = 0, frame = 0
 1199              		@ frame_needed = 0, uses_anonymous_args = 0
 1200 0000 38B5     		push	{r3, r4, r5, lr}
 1201 0002 0446     		mov	r4, r0
 1202 0004 0D46     		mov	r5, r1
 1203 0006 0429     		cmp	r1, #4
 1204 0008 0BD0     		beq	.L129
 1205 000a 0829     		cmp	r1, #8
 1206 000c 12D0     		beq	.L130
 1207 000e C9B9     		cbnz	r1, .L128
 1208 0010 0268     		ldr	r2, [r0]
 1209 0012 D368     		ldr	r3, [r2, #12]
 1210 0014 23F40073 		bic	r3, r3, #512
 1211 0018 D360     		str	r3, [r2, #12]
 1212 001a 406A     		ldr	r0, [r0, #36]
 1213 001c FFF7FEFF 		bl	HAL_DMA_Abort_IT
 1214 0020 10E0     		b	.L128
 1215              	.L129:
 1216 0022 0268     		ldr	r2, [r0]
 1217 0024 D368     		ldr	r3, [r2, #12]
 1218 0026 23F48063 		bic	r3, r3, #1024
 1219 002a D360     		str	r3, [r2, #12]
 1220 002c 806A     		ldr	r0, [r0, #40]
 1221 002e FFF7FEFF 		bl	HAL_DMA_Abort_IT
 1222 0032 07E0     		b	.L128
 1223              	.L130:
 1224 0034 0268     		ldr	r2, [r0]
 1225 0036 D368     		ldr	r3, [r2, #12]
 1226 0038 23F40063 		bic	r3, r3, #2048
 1227 003c D360     		str	r3, [r2, #12]
 1228 003e C06A     		ldr	r0, [r0, #44]
 1229 0040 FFF7FEFF 		bl	HAL_DMA_Abort_IT
 1230              	.L128:
 1231 0044 2068     		ldr	r0, [r4]
 1232 0046 2946     		mov	r1, r5
 1233 0048 0022     		movs	r2, #0
 1234 004a FFF7FEFF 		bl	TIM_CCxNChannelCmd
 1235 004e 2368     		ldr	r3, [r4]
 1236 0050 196A     		ldr	r1, [r3, #32]
 1237 0052 41F21112 		movw	r2, #4369
 1238 0056 1142     		tst	r1, r2
 1239 0058 08D1     		bne	.L132
 1240 005a 196A     		ldr	r1, [r3, #32]
 1241 005c 40F24442 		movw	r2, #1092
 1242 0060 1142     		tst	r1, r2
ARM GAS  /tmp/cchr48Fl.s 			page 22


 1243 0062 03D1     		bne	.L132
 1244 0064 5A6C     		ldr	r2, [r3, #68]
 1245 0066 22F40042 		bic	r2, r2, #32768
 1246 006a 5A64     		str	r2, [r3, #68]
 1247              	.L132:
 1248 006c 2368     		ldr	r3, [r4]
 1249 006e 196A     		ldr	r1, [r3, #32]
 1250 0070 41F21112 		movw	r2, #4369
 1251 0074 1142     		tst	r1, r2
 1252 0076 08D1     		bne	.L133
 1253 0078 196A     		ldr	r1, [r3, #32]
 1254 007a 40F24442 		movw	r2, #1092
 1255 007e 1142     		tst	r1, r2
 1256 0080 03D1     		bne	.L133
 1257 0082 1A68     		ldr	r2, [r3]
 1258 0084 22F00102 		bic	r2, r2, #1
 1259 0088 1A60     		str	r2, [r3]
 1260              	.L133:
 1261 008a 0123     		movs	r3, #1
 1262 008c 84F83D30 		strb	r3, [r4, #61]
 1263 0090 0020     		movs	r0, #0
 1264 0092 38BD     		pop	{r3, r4, r5, pc}
 1266              		.section	.text.HAL_TIMEx_OnePulseN_Start,"ax",%progbits
 1267              		.align	2
 1268              		.global	HAL_TIMEx_OnePulseN_Start
 1269              		.thumb
 1270              		.thumb_func
 1272              	HAL_TIMEx_OnePulseN_Start:
 1273              		@ args = 0, pretend = 0, frame = 0
 1274              		@ frame_needed = 0, uses_anonymous_args = 0
 1275 0000 10B5     		push	{r4, lr}
 1276 0002 0446     		mov	r4, r0
 1277 0004 0068     		ldr	r0, [r0]
 1278 0006 0422     		movs	r2, #4
 1279 0008 FFF7FEFF 		bl	TIM_CCxNChannelCmd
 1280 000c 2268     		ldr	r2, [r4]
 1281 000e 536C     		ldr	r3, [r2, #68]
 1282 0010 43F40043 		orr	r3, r3, #32768
 1283 0014 5364     		str	r3, [r2, #68]
 1284 0016 0020     		movs	r0, #0
 1285 0018 10BD     		pop	{r4, pc}
 1287 001a 00BF     		.section	.text.HAL_TIMEx_OnePulseN_Stop,"ax",%progbits
 1288              		.align	2
 1289              		.global	HAL_TIMEx_OnePulseN_Stop
 1290              		.thumb
 1291              		.thumb_func
 1293              	HAL_TIMEx_OnePulseN_Stop:
 1294              		@ args = 0, pretend = 0, frame = 0
 1295              		@ frame_needed = 0, uses_anonymous_args = 0
 1296 0000 10B5     		push	{r4, lr}
 1297 0002 0446     		mov	r4, r0
 1298 0004 0068     		ldr	r0, [r0]
 1299 0006 0022     		movs	r2, #0
 1300 0008 FFF7FEFF 		bl	TIM_CCxNChannelCmd
 1301 000c 2368     		ldr	r3, [r4]
 1302 000e 196A     		ldr	r1, [r3, #32]
 1303 0010 41F21112 		movw	r2, #4369
ARM GAS  /tmp/cchr48Fl.s 			page 23


 1304 0014 1142     		tst	r1, r2
 1305 0016 08D1     		bne	.L138
 1306 0018 196A     		ldr	r1, [r3, #32]
 1307 001a 40F24442 		movw	r2, #1092
 1308 001e 1142     		tst	r1, r2
 1309 0020 03D1     		bne	.L138
 1310 0022 5A6C     		ldr	r2, [r3, #68]
 1311 0024 22F40042 		bic	r2, r2, #32768
 1312 0028 5A64     		str	r2, [r3, #68]
 1313              	.L138:
 1314 002a 2368     		ldr	r3, [r4]
 1315 002c 196A     		ldr	r1, [r3, #32]
 1316 002e 41F21112 		movw	r2, #4369
 1317 0032 1142     		tst	r1, r2
 1318 0034 08D1     		bne	.L139
 1319 0036 196A     		ldr	r1, [r3, #32]
 1320 0038 40F24442 		movw	r2, #1092
 1321 003c 1142     		tst	r1, r2
 1322 003e 03D1     		bne	.L139
 1323 0040 1A68     		ldr	r2, [r3]
 1324 0042 22F00102 		bic	r2, r2, #1
 1325 0046 1A60     		str	r2, [r3]
 1326              	.L139:
 1327 0048 0020     		movs	r0, #0
 1328 004a 10BD     		pop	{r4, pc}
 1330              		.section	.text.HAL_TIMEx_OnePulseN_Start_IT,"ax",%progbits
 1331              		.align	2
 1332              		.global	HAL_TIMEx_OnePulseN_Start_IT
 1333              		.thumb
 1334              		.thumb_func
 1336              	HAL_TIMEx_OnePulseN_Start_IT:
 1337              		@ args = 0, pretend = 0, frame = 0
 1338              		@ frame_needed = 0, uses_anonymous_args = 0
 1339 0000 10B5     		push	{r4, lr}
 1340 0002 0446     		mov	r4, r0
 1341 0004 0268     		ldr	r2, [r0]
 1342 0006 D368     		ldr	r3, [r2, #12]
 1343 0008 43F00203 		orr	r3, r3, #2
 1344 000c D360     		str	r3, [r2, #12]
 1345 000e 0268     		ldr	r2, [r0]
 1346 0010 D368     		ldr	r3, [r2, #12]
 1347 0012 43F00403 		orr	r3, r3, #4
 1348 0016 D360     		str	r3, [r2, #12]
 1349 0018 0068     		ldr	r0, [r0]
 1350 001a 0422     		movs	r2, #4
 1351 001c FFF7FEFF 		bl	TIM_CCxNChannelCmd
 1352 0020 2268     		ldr	r2, [r4]
 1353 0022 536C     		ldr	r3, [r2, #68]
 1354 0024 43F40043 		orr	r3, r3, #32768
 1355 0028 5364     		str	r3, [r2, #68]
 1356 002a 0020     		movs	r0, #0
 1357 002c 10BD     		pop	{r4, pc}
 1359 002e 00BF     		.section	.text.HAL_TIMEx_OnePulseN_Stop_IT,"ax",%progbits
 1360              		.align	2
 1361              		.global	HAL_TIMEx_OnePulseN_Stop_IT
 1362              		.thumb
 1363              		.thumb_func
ARM GAS  /tmp/cchr48Fl.s 			page 24


 1365              	HAL_TIMEx_OnePulseN_Stop_IT:
 1366              		@ args = 0, pretend = 0, frame = 0
 1367              		@ frame_needed = 0, uses_anonymous_args = 0
 1368 0000 10B5     		push	{r4, lr}
 1369 0002 0446     		mov	r4, r0
 1370 0004 0268     		ldr	r2, [r0]
 1371 0006 D368     		ldr	r3, [r2, #12]
 1372 0008 23F00203 		bic	r3, r3, #2
 1373 000c D360     		str	r3, [r2, #12]
 1374 000e 0268     		ldr	r2, [r0]
 1375 0010 D368     		ldr	r3, [r2, #12]
 1376 0012 23F00403 		bic	r3, r3, #4
 1377 0016 D360     		str	r3, [r2, #12]
 1378 0018 0068     		ldr	r0, [r0]
 1379 001a 0022     		movs	r2, #0
 1380 001c FFF7FEFF 		bl	TIM_CCxNChannelCmd
 1381 0020 2368     		ldr	r3, [r4]
 1382 0022 196A     		ldr	r1, [r3, #32]
 1383 0024 41F21112 		movw	r2, #4369
 1384 0028 1142     		tst	r1, r2
 1385 002a 08D1     		bne	.L144
 1386 002c 196A     		ldr	r1, [r3, #32]
 1387 002e 40F24442 		movw	r2, #1092
 1388 0032 1142     		tst	r1, r2
 1389 0034 03D1     		bne	.L144
 1390 0036 5A6C     		ldr	r2, [r3, #68]
 1391 0038 22F40042 		bic	r2, r2, #32768
 1392 003c 5A64     		str	r2, [r3, #68]
 1393              	.L144:
 1394 003e 2368     		ldr	r3, [r4]
 1395 0040 196A     		ldr	r1, [r3, #32]
 1396 0042 41F21112 		movw	r2, #4369
 1397 0046 1142     		tst	r1, r2
 1398 0048 08D1     		bne	.L145
 1399 004a 196A     		ldr	r1, [r3, #32]
 1400 004c 40F24442 		movw	r2, #1092
 1401 0050 1142     		tst	r1, r2
 1402 0052 03D1     		bne	.L145
 1403 0054 1A68     		ldr	r2, [r3]
 1404 0056 22F00102 		bic	r2, r2, #1
 1405 005a 1A60     		str	r2, [r3]
 1406              	.L145:
 1407 005c 0020     		movs	r0, #0
 1408 005e 10BD     		pop	{r4, pc}
 1410              		.section	.text.HAL_TIMEx_ConfigCommutEvent,"ax",%progbits
 1411              		.align	2
 1412              		.global	HAL_TIMEx_ConfigCommutEvent
 1413              		.thumb
 1414              		.thumb_func
 1416              	HAL_TIMEx_ConfigCommutEvent:
 1417              		@ args = 0, pretend = 0, frame = 0
 1418              		@ frame_needed = 0, uses_anonymous_args = 0
 1419              		@ link register save eliminated.
 1420 0000 90F83C30 		ldrb	r3, [r0, #60]	@ zero_extendqisi2
 1421 0004 012B     		cmp	r3, #1
 1422 0006 30D0     		beq	.L151
 1423 0008 10B4     		push	{r4}
ARM GAS  /tmp/cchr48Fl.s 			page 25


 1424 000a 0123     		movs	r3, #1
 1425 000c 80F83C30 		strb	r3, [r0, #60]
 1426 0010 29B1     		cbz	r1, .L149
 1427 0012 1029     		cmp	r1, #16
 1428 0014 03D0     		beq	.L149
 1429 0016 2029     		cmp	r1, #32
 1430 0018 01D0     		beq	.L149
 1431 001a 3029     		cmp	r1, #48
 1432 001c 08D1     		bne	.L150
 1433              	.L149:
 1434 001e 0468     		ldr	r4, [r0]
 1435 0020 A368     		ldr	r3, [r4, #8]
 1436 0022 23F07003 		bic	r3, r3, #112
 1437 0026 A360     		str	r3, [r4, #8]
 1438 0028 0368     		ldr	r3, [r0]
 1439 002a 9C68     		ldr	r4, [r3, #8]
 1440 002c 2143     		orrs	r1, r1, r4
 1441 002e 9960     		str	r1, [r3, #8]
 1442              	.L150:
 1443 0030 0168     		ldr	r1, [r0]
 1444 0032 4B68     		ldr	r3, [r1, #4]
 1445 0034 43F00103 		orr	r3, r3, #1
 1446 0038 4B60     		str	r3, [r1, #4]
 1447 003a 0168     		ldr	r1, [r0]
 1448 003c 4B68     		ldr	r3, [r1, #4]
 1449 003e 23F00403 		bic	r3, r3, #4
 1450 0042 4B60     		str	r3, [r1, #4]
 1451 0044 0368     		ldr	r3, [r0]
 1452 0046 5968     		ldr	r1, [r3, #4]
 1453 0048 0A43     		orrs	r2, r2, r1
 1454 004a 5A60     		str	r2, [r3, #4]
 1455 004c 0268     		ldr	r2, [r0]
 1456 004e D368     		ldr	r3, [r2, #12]
 1457 0050 23F02003 		bic	r3, r3, #32
 1458 0054 D360     		str	r3, [r2, #12]
 1459 0056 0268     		ldr	r2, [r0]
 1460 0058 D368     		ldr	r3, [r2, #12]
 1461 005a 23F40053 		bic	r3, r3, #8192
 1462 005e D360     		str	r3, [r2, #12]
 1463 0060 0023     		movs	r3, #0
 1464 0062 80F83C30 		strb	r3, [r0, #60]
 1465 0066 1846     		mov	r0, r3
 1466 0068 01E0     		b	.L148
 1467              	.L151:
 1468 006a 0220     		movs	r0, #2
 1469 006c 7047     		bx	lr
 1470              	.L148:
 1471 006e 5DF8044B 		ldr	r4, [sp], #4
 1472 0072 7047     		bx	lr
 1474              		.section	.text.HAL_TIMEx_ConfigCommutEvent_IT,"ax",%progbits
 1475              		.align	2
 1476              		.global	HAL_TIMEx_ConfigCommutEvent_IT
 1477              		.thumb
 1478              		.thumb_func
 1480              	HAL_TIMEx_ConfigCommutEvent_IT:
 1481              		@ args = 0, pretend = 0, frame = 0
 1482              		@ frame_needed = 0, uses_anonymous_args = 0
ARM GAS  /tmp/cchr48Fl.s 			page 26


 1483              		@ link register save eliminated.
 1484 0000 90F83C30 		ldrb	r3, [r0, #60]	@ zero_extendqisi2
 1485 0004 012B     		cmp	r3, #1
 1486 0006 30D0     		beq	.L158
 1487 0008 10B4     		push	{r4}
 1488 000a 0123     		movs	r3, #1
 1489 000c 80F83C30 		strb	r3, [r0, #60]
 1490 0010 29B1     		cbz	r1, .L156
 1491 0012 1029     		cmp	r1, #16
 1492 0014 03D0     		beq	.L156
 1493 0016 2029     		cmp	r1, #32
 1494 0018 01D0     		beq	.L156
 1495 001a 3029     		cmp	r1, #48
 1496 001c 08D1     		bne	.L157
 1497              	.L156:
 1498 001e 0468     		ldr	r4, [r0]
 1499 0020 A368     		ldr	r3, [r4, #8]
 1500 0022 23F07003 		bic	r3, r3, #112
 1501 0026 A360     		str	r3, [r4, #8]
 1502 0028 0368     		ldr	r3, [r0]
 1503 002a 9C68     		ldr	r4, [r3, #8]
 1504 002c 2143     		orrs	r1, r1, r4
 1505 002e 9960     		str	r1, [r3, #8]
 1506              	.L157:
 1507 0030 0168     		ldr	r1, [r0]
 1508 0032 4B68     		ldr	r3, [r1, #4]
 1509 0034 43F00103 		orr	r3, r3, #1
 1510 0038 4B60     		str	r3, [r1, #4]
 1511 003a 0168     		ldr	r1, [r0]
 1512 003c 4B68     		ldr	r3, [r1, #4]
 1513 003e 23F00403 		bic	r3, r3, #4
 1514 0042 4B60     		str	r3, [r1, #4]
 1515 0044 0368     		ldr	r3, [r0]
 1516 0046 5968     		ldr	r1, [r3, #4]
 1517 0048 0A43     		orrs	r2, r2, r1
 1518 004a 5A60     		str	r2, [r3, #4]
 1519 004c 0268     		ldr	r2, [r0]
 1520 004e D368     		ldr	r3, [r2, #12]
 1521 0050 23F40053 		bic	r3, r3, #8192
 1522 0054 D360     		str	r3, [r2, #12]
 1523 0056 0268     		ldr	r2, [r0]
 1524 0058 D368     		ldr	r3, [r2, #12]
 1525 005a 43F02003 		orr	r3, r3, #32
 1526 005e D360     		str	r3, [r2, #12]
 1527 0060 0023     		movs	r3, #0
 1528 0062 80F83C30 		strb	r3, [r0, #60]
 1529 0066 1846     		mov	r0, r3
 1530 0068 01E0     		b	.L155
 1531              	.L158:
 1532 006a 0220     		movs	r0, #2
 1533 006c 7047     		bx	lr
 1534              	.L155:
 1535 006e 5DF8044B 		ldr	r4, [sp], #4
 1536 0072 7047     		bx	lr
 1538              		.section	.text.HAL_TIMEx_ConfigCommutEvent_DMA,"ax",%progbits
 1539              		.align	2
 1540              		.global	HAL_TIMEx_ConfigCommutEvent_DMA
ARM GAS  /tmp/cchr48Fl.s 			page 27


 1541              		.thumb
 1542              		.thumb_func
 1544              	HAL_TIMEx_ConfigCommutEvent_DMA:
 1545              		@ args = 0, pretend = 0, frame = 0
 1546              		@ frame_needed = 0, uses_anonymous_args = 0
 1547              		@ link register save eliminated.
 1548 0000 90F83C30 		ldrb	r3, [r0, #60]	@ zero_extendqisi2
 1549 0004 012B     		cmp	r3, #1
 1550 0006 39D0     		beq	.L165
 1551 0008 10B4     		push	{r4}
 1552 000a 0123     		movs	r3, #1
 1553 000c 80F83C30 		strb	r3, [r0, #60]
 1554 0010 29B1     		cbz	r1, .L163
 1555 0012 1029     		cmp	r1, #16
 1556 0014 03D0     		beq	.L163
 1557 0016 2029     		cmp	r1, #32
 1558 0018 01D0     		beq	.L163
 1559 001a 3029     		cmp	r1, #48
 1560 001c 08D1     		bne	.L164
 1561              	.L163:
 1562 001e 0468     		ldr	r4, [r0]
 1563 0020 A368     		ldr	r3, [r4, #8]
 1564 0022 23F07003 		bic	r3, r3, #112
 1565 0026 A360     		str	r3, [r4, #8]
 1566 0028 0368     		ldr	r3, [r0]
 1567 002a 9C68     		ldr	r4, [r3, #8]
 1568 002c 2143     		orrs	r1, r1, r4
 1569 002e 9960     		str	r1, [r3, #8]
 1570              	.L164:
 1571 0030 0168     		ldr	r1, [r0]
 1572 0032 4B68     		ldr	r3, [r1, #4]
 1573 0034 43F00103 		orr	r3, r3, #1
 1574 0038 4B60     		str	r3, [r1, #4]
 1575 003a 0168     		ldr	r1, [r0]
 1576 003c 4B68     		ldr	r3, [r1, #4]
 1577 003e 23F00403 		bic	r3, r3, #4
 1578 0042 4B60     		str	r3, [r1, #4]
 1579 0044 0368     		ldr	r3, [r0]
 1580 0046 5968     		ldr	r1, [r3, #4]
 1581 0048 0A43     		orrs	r2, r2, r1
 1582 004a 5A60     		str	r2, [r3, #4]
 1583 004c 436B     		ldr	r3, [r0, #52]
 1584 004e 0E4A     		ldr	r2, .L168
 1585 0050 9A62     		str	r2, [r3, #40]
 1586 0052 436B     		ldr	r3, [r0, #52]
 1587 0054 0D4A     		ldr	r2, .L168+4
 1588 0056 DA62     		str	r2, [r3, #44]
 1589 0058 436B     		ldr	r3, [r0, #52]
 1590 005a 0D4A     		ldr	r2, .L168+8
 1591 005c 1A63     		str	r2, [r3, #48]
 1592 005e 0268     		ldr	r2, [r0]
 1593 0060 D368     		ldr	r3, [r2, #12]
 1594 0062 23F02003 		bic	r3, r3, #32
 1595 0066 D360     		str	r3, [r2, #12]
 1596 0068 0268     		ldr	r2, [r0]
 1597 006a D368     		ldr	r3, [r2, #12]
 1598 006c 43F40053 		orr	r3, r3, #8192
ARM GAS  /tmp/cchr48Fl.s 			page 28


 1599 0070 D360     		str	r3, [r2, #12]
 1600 0072 0023     		movs	r3, #0
 1601 0074 80F83C30 		strb	r3, [r0, #60]
 1602 0078 1846     		mov	r0, r3
 1603 007a 01E0     		b	.L162
 1604              	.L165:
 1605 007c 0220     		movs	r0, #2
 1606 007e 7047     		bx	lr
 1607              	.L162:
 1608 0080 5DF8044B 		ldr	r4, [sp], #4
 1609 0084 7047     		bx	lr
 1610              	.L169:
 1611 0086 00BF     		.align	2
 1612              	.L168:
 1613 0088 00000000 		.word	TIMEx_DMACommutationCplt
 1614 008c 00000000 		.word	TIMEx_DMACommutationHalfCplt
 1615 0090 00000000 		.word	TIM_DMAError
 1617              		.section	.text.HAL_TIMEx_MasterConfigSynchronization,"ax",%progbits
 1618              		.align	2
 1619              		.global	HAL_TIMEx_MasterConfigSynchronization
 1620              		.thumb
 1621              		.thumb_func
 1623              	HAL_TIMEx_MasterConfigSynchronization:
 1624              		@ args = 0, pretend = 0, frame = 0
 1625              		@ frame_needed = 0, uses_anonymous_args = 0
 1626              		@ link register save eliminated.
 1627 0000 90F83C30 		ldrb	r3, [r0, #60]	@ zero_extendqisi2
 1628 0004 012B     		cmp	r3, #1
 1629 0006 1BD0     		beq	.L172
 1630 0008 70B4     		push	{r4, r5, r6}
 1631 000a 0125     		movs	r5, #1
 1632 000c 80F83C50 		strb	r5, [r0, #60]
 1633 0010 0223     		movs	r3, #2
 1634 0012 80F83D30 		strb	r3, [r0, #61]
 1635 0016 0468     		ldr	r4, [r0]
 1636 0018 6268     		ldr	r2, [r4, #4]
 1637 001a A368     		ldr	r3, [r4, #8]
 1638 001c 22F07002 		bic	r2, r2, #112
 1639 0020 0E68     		ldr	r6, [r1]
 1640 0022 3243     		orrs	r2, r2, r6
 1641 0024 23F08003 		bic	r3, r3, #128
 1642 0028 4968     		ldr	r1, [r1, #4]
 1643 002a 0B43     		orrs	r3, r3, r1
 1644 002c 6260     		str	r2, [r4, #4]
 1645 002e 0268     		ldr	r2, [r0]
 1646 0030 9360     		str	r3, [r2, #8]
 1647 0032 80F83D50 		strb	r5, [r0, #61]
 1648 0036 0023     		movs	r3, #0
 1649 0038 80F83C30 		strb	r3, [r0, #60]
 1650 003c 1846     		mov	r0, r3
 1651 003e 01E0     		b	.L171
 1652              	.L172:
 1653 0040 0220     		movs	r0, #2
 1654 0042 7047     		bx	lr
 1655              	.L171:
 1656 0044 70BC     		pop	{r4, r5, r6}
 1657 0046 7047     		bx	lr
ARM GAS  /tmp/cchr48Fl.s 			page 29


 1659              		.section	.text.HAL_TIMEx_ConfigBreakDeadTime,"ax",%progbits
 1660              		.align	2
 1661              		.global	HAL_TIMEx_ConfigBreakDeadTime
 1662              		.thumb
 1663              		.thumb_func
 1665              	HAL_TIMEx_ConfigBreakDeadTime:
 1666              		@ args = 0, pretend = 0, frame = 0
 1667              		@ frame_needed = 0, uses_anonymous_args = 0
 1668              		@ link register save eliminated.
 1669 0000 90F83C30 		ldrb	r3, [r0, #60]	@ zero_extendqisi2
 1670 0004 012B     		cmp	r3, #1
 1671 0006 22D0     		beq	.L177
 1672 0008 0123     		movs	r3, #1
 1673 000a 80F83C30 		strb	r3, [r0, #60]
 1674 000e CB68     		ldr	r3, [r1, #12]
 1675 0010 23F44072 		bic	r2, r3, #768
 1676 0014 8B68     		ldr	r3, [r1, #8]
 1677 0016 1343     		orrs	r3, r3, r2
 1678 0018 23F48062 		bic	r2, r3, #1024
 1679 001c 4B68     		ldr	r3, [r1, #4]
 1680 001e 1343     		orrs	r3, r3, r2
 1681 0020 23F40062 		bic	r2, r3, #2048
 1682 0024 0B68     		ldr	r3, [r1]
 1683 0026 1343     		orrs	r3, r3, r2
 1684 0028 23F48052 		bic	r2, r3, #4096
 1685 002c 0B69     		ldr	r3, [r1, #16]
 1686 002e 1343     		orrs	r3, r3, r2
 1687 0030 23F40052 		bic	r2, r3, #8192
 1688 0034 4B69     		ldr	r3, [r1, #20]
 1689 0036 1343     		orrs	r3, r3, r2
 1690 0038 23F48043 		bic	r3, r3, #16384
 1691 003c CA69     		ldr	r2, [r1, #28]
 1692 003e 1343     		orrs	r3, r3, r2
 1693 0040 0268     		ldr	r2, [r0]
 1694 0042 5364     		str	r3, [r2, #68]
 1695 0044 0023     		movs	r3, #0
 1696 0046 80F83C30 		strb	r3, [r0, #60]
 1697 004a 1846     		mov	r0, r3
 1698 004c 7047     		bx	lr
 1699              	.L177:
 1700 004e 0220     		movs	r0, #2
 1701 0050 7047     		bx	lr
 1703 0052 00BF     		.section	.text.HAL_TIMEx_RemapConfig,"ax",%progbits
 1704              		.align	2
 1705              		.global	HAL_TIMEx_RemapConfig
 1706              		.thumb
 1707              		.thumb_func
 1709              	HAL_TIMEx_RemapConfig:
 1710              		@ args = 0, pretend = 0, frame = 0
 1711              		@ frame_needed = 0, uses_anonymous_args = 0
 1712              		@ link register save eliminated.
 1713 0000 0020     		movs	r0, #0
 1714 0002 7047     		bx	lr
 1716              		.section	.text.HAL_TIMEx_CommutCallback,"ax",%progbits
 1717              		.align	2
 1718              		.weak	HAL_TIMEx_CommutCallback
 1719              		.thumb
ARM GAS  /tmp/cchr48Fl.s 			page 30


 1720              		.thumb_func
 1722              	HAL_TIMEx_CommutCallback:
 1723              		@ args = 0, pretend = 0, frame = 0
 1724              		@ frame_needed = 0, uses_anonymous_args = 0
 1725              		@ link register save eliminated.
 1726 0000 7047     		bx	lr
 1728 0002 00BF     		.section	.text.TIMEx_DMACommutationCplt,"ax",%progbits
 1729              		.align	2
 1730              		.global	TIMEx_DMACommutationCplt
 1731              		.thumb
 1732              		.thumb_func
 1734              	TIMEx_DMACommutationCplt:
 1735              		@ args = 0, pretend = 0, frame = 0
 1736              		@ frame_needed = 0, uses_anonymous_args = 0
 1737 0000 08B5     		push	{r3, lr}
 1738 0002 406A     		ldr	r0, [r0, #36]
 1739 0004 0123     		movs	r3, #1
 1740 0006 80F83D30 		strb	r3, [r0, #61]
 1741 000a FFF7FEFF 		bl	HAL_TIMEx_CommutCallback
 1742 000e 08BD     		pop	{r3, pc}
 1744              		.section	.text.HAL_TIMEx_CommutHalfCpltCallback,"ax",%progbits
 1745              		.align	2
 1746              		.weak	HAL_TIMEx_CommutHalfCpltCallback
 1747              		.thumb
 1748              		.thumb_func
 1750              	HAL_TIMEx_CommutHalfCpltCallback:
 1751              		@ args = 0, pretend = 0, frame = 0
 1752              		@ frame_needed = 0, uses_anonymous_args = 0
 1753              		@ link register save eliminated.
 1754 0000 7047     		bx	lr
 1756 0002 00BF     		.section	.text.TIMEx_DMACommutationHalfCplt,"ax",%progbits
 1757              		.align	2
 1758              		.global	TIMEx_DMACommutationHalfCplt
 1759              		.thumb
 1760              		.thumb_func
 1762              	TIMEx_DMACommutationHalfCplt:
 1763              		@ args = 0, pretend = 0, frame = 0
 1764              		@ frame_needed = 0, uses_anonymous_args = 0
 1765 0000 08B5     		push	{r3, lr}
 1766 0002 406A     		ldr	r0, [r0, #36]
 1767 0004 0123     		movs	r3, #1
 1768 0006 80F83D30 		strb	r3, [r0, #61]
 1769 000a FFF7FEFF 		bl	HAL_TIMEx_CommutHalfCpltCallback
 1770 000e 08BD     		pop	{r3, pc}
 1772              		.section	.text.HAL_TIMEx_BreakCallback,"ax",%progbits
 1773              		.align	2
 1774              		.weak	HAL_TIMEx_BreakCallback
 1775              		.thumb
 1776              		.thumb_func
 1778              	HAL_TIMEx_BreakCallback:
 1779              		@ args = 0, pretend = 0, frame = 0
 1780              		@ frame_needed = 0, uses_anonymous_args = 0
 1781              		@ link register save eliminated.
 1782 0000 7047     		bx	lr
 1784 0002 00BF     		.section	.text.HAL_TIMEx_HallSensor_GetState,"ax",%progbits
 1785              		.align	2
 1786              		.global	HAL_TIMEx_HallSensor_GetState
ARM GAS  /tmp/cchr48Fl.s 			page 31


 1787              		.thumb
 1788              		.thumb_func
 1790              	HAL_TIMEx_HallSensor_GetState:
 1791              		@ args = 0, pretend = 0, frame = 0
 1792              		@ frame_needed = 0, uses_anonymous_args = 0
 1793              		@ link register save eliminated.
 1794 0000 90F83D00 		ldrb	r0, [r0, #61]	@ zero_extendqisi2
 1795 0004 7047     		bx	lr
 1797 0006 00BF     		.ident	"GCC: (15:4.9.3+svn231177-1) 4.9.3 20150529 (prerelease)"
ARM GAS  /tmp/cchr48Fl.s 			page 32


DEFINED SYMBOLS
                            *ABS*:0000000000000000 stm32f1xx_hal_tim_ex.c
     /tmp/cchr48Fl.s:16     .text.TIM_CCxNChannelCmd:0000000000000000 $t
     /tmp/cchr48Fl.s:20     .text.TIM_CCxNChannelCmd:0000000000000000 TIM_CCxNChannelCmd
     /tmp/cchr48Fl.s:39     .text.HAL_TIMEx_HallSensor_MspInit:0000000000000000 $t
     /tmp/cchr48Fl.s:44     .text.HAL_TIMEx_HallSensor_MspInit:0000000000000000 HAL_TIMEx_HallSensor_MspInit
     /tmp/cchr48Fl.s:51     .text.HAL_TIMEx_HallSensor_Init:0000000000000000 $t
     /tmp/cchr48Fl.s:56     .text.HAL_TIMEx_HallSensor_Init:0000000000000000 HAL_TIMEx_HallSensor_Init
     /tmp/cchr48Fl.s:145    .text.HAL_TIMEx_HallSensor_MspDeInit:0000000000000000 $t
     /tmp/cchr48Fl.s:150    .text.HAL_TIMEx_HallSensor_MspDeInit:0000000000000000 HAL_TIMEx_HallSensor_MspDeInit
     /tmp/cchr48Fl.s:157    .text.HAL_TIMEx_HallSensor_DeInit:0000000000000000 $t
     /tmp/cchr48Fl.s:162    .text.HAL_TIMEx_HallSensor_DeInit:0000000000000000 HAL_TIMEx_HallSensor_DeInit
     /tmp/cchr48Fl.s:190    .text.HAL_TIMEx_HallSensor_Start:0000000000000000 $t
     /tmp/cchr48Fl.s:195    .text.HAL_TIMEx_HallSensor_Start:0000000000000000 HAL_TIMEx_HallSensor_Start
     /tmp/cchr48Fl.s:217    .text.HAL_TIMEx_HallSensor_Stop:0000000000000000 $t
     /tmp/cchr48Fl.s:222    .text.HAL_TIMEx_HallSensor_Stop:0000000000000000 HAL_TIMEx_HallSensor_Stop
     /tmp/cchr48Fl.s:248    .text.HAL_TIMEx_HallSensor_Start_IT:0000000000000000 $t
     /tmp/cchr48Fl.s:253    .text.HAL_TIMEx_HallSensor_Start_IT:0000000000000000 HAL_TIMEx_HallSensor_Start_IT
     /tmp/cchr48Fl.s:279    .text.HAL_TIMEx_HallSensor_Stop_IT:0000000000000000 $t
     /tmp/cchr48Fl.s:284    .text.HAL_TIMEx_HallSensor_Stop_IT:0000000000000000 HAL_TIMEx_HallSensor_Stop_IT
     /tmp/cchr48Fl.s:314    .text.HAL_TIMEx_HallSensor_Start_DMA:0000000000000000 $t
     /tmp/cchr48Fl.s:319    .text.HAL_TIMEx_HallSensor_Start_DMA:0000000000000000 HAL_TIMEx_HallSensor_Start_DMA
     /tmp/cchr48Fl.s:389    .text.HAL_TIMEx_HallSensor_Start_DMA:0000000000000084 $d
     /tmp/cchr48Fl.s:394    .text.HAL_TIMEx_HallSensor_Stop_DMA:0000000000000000 $t
     /tmp/cchr48Fl.s:399    .text.HAL_TIMEx_HallSensor_Stop_DMA:0000000000000000 HAL_TIMEx_HallSensor_Stop_DMA
     /tmp/cchr48Fl.s:431    .text.HAL_TIMEx_OCN_Start:0000000000000000 $t
     /tmp/cchr48Fl.s:436    .text.HAL_TIMEx_OCN_Start:0000000000000000 HAL_TIMEx_OCN_Start
     /tmp/cchr48Fl.s:461    .text.HAL_TIMEx_OCN_Stop:0000000000000000 $t
     /tmp/cchr48Fl.s:466    .text.HAL_TIMEx_OCN_Stop:0000000000000000 HAL_TIMEx_OCN_Stop
     /tmp/cchr48Fl.s:504    .text.HAL_TIMEx_OCN_Start_IT:0000000000000000 $t
     /tmp/cchr48Fl.s:509    .text.HAL_TIMEx_OCN_Start_IT:0000000000000000 HAL_TIMEx_OCN_Start_IT
     /tmp/cchr48Fl.s:560    .text.HAL_TIMEx_OCN_Stop_IT:0000000000000000 $t
     /tmp/cchr48Fl.s:565    .text.HAL_TIMEx_OCN_Stop_IT:0000000000000000 HAL_TIMEx_OCN_Stop_IT
     /tmp/cchr48Fl.s:634    .text.HAL_TIMEx_OCN_Start_DMA:0000000000000000 $t
     /tmp/cchr48Fl.s:639    .text.HAL_TIMEx_OCN_Start_DMA:0000000000000000 HAL_TIMEx_OCN_Start_DMA
     /tmp/cchr48Fl.s:769    .text.HAL_TIMEx_OCN_Start_DMA:0000000000000104 $d
     /tmp/cchr48Fl.s:774    .text.HAL_TIMEx_OCN_Stop_DMA:0000000000000000 $t
     /tmp/cchr48Fl.s:779    .text.HAL_TIMEx_OCN_Stop_DMA:0000000000000000 HAL_TIMEx_OCN_Stop_DMA
     /tmp/cchr48Fl.s:849    .text.HAL_TIMEx_PWMN_Start:0000000000000000 $t
     /tmp/cchr48Fl.s:854    .text.HAL_TIMEx_PWMN_Start:0000000000000000 HAL_TIMEx_PWMN_Start
     /tmp/cchr48Fl.s:879    .text.HAL_TIMEx_PWMN_Stop:0000000000000000 $t
     /tmp/cchr48Fl.s:884    .text.HAL_TIMEx_PWMN_Stop:0000000000000000 HAL_TIMEx_PWMN_Stop
     /tmp/cchr48Fl.s:922    .text.HAL_TIMEx_PWMN_Start_IT:0000000000000000 $t
     /tmp/cchr48Fl.s:927    .text.HAL_TIMEx_PWMN_Start_IT:0000000000000000 HAL_TIMEx_PWMN_Start_IT
     /tmp/cchr48Fl.s:978    .text.HAL_TIMEx_PWMN_Stop_IT:0000000000000000 $t
     /tmp/cchr48Fl.s:983    .text.HAL_TIMEx_PWMN_Stop_IT:0000000000000000 HAL_TIMEx_PWMN_Stop_IT
     /tmp/cchr48Fl.s:1052   .text.HAL_TIMEx_PWMN_Start_DMA:0000000000000000 $t
     /tmp/cchr48Fl.s:1057   .text.HAL_TIMEx_PWMN_Start_DMA:0000000000000000 HAL_TIMEx_PWMN_Start_DMA
     /tmp/cchr48Fl.s:1187   .text.HAL_TIMEx_PWMN_Start_DMA:0000000000000104 $d
     /tmp/cchr48Fl.s:1192   .text.HAL_TIMEx_PWMN_Stop_DMA:0000000000000000 $t
     /tmp/cchr48Fl.s:1197   .text.HAL_TIMEx_PWMN_Stop_DMA:0000000000000000 HAL_TIMEx_PWMN_Stop_DMA
     /tmp/cchr48Fl.s:1267   .text.HAL_TIMEx_OnePulseN_Start:0000000000000000 $t
     /tmp/cchr48Fl.s:1272   .text.HAL_TIMEx_OnePulseN_Start:0000000000000000 HAL_TIMEx_OnePulseN_Start
     /tmp/cchr48Fl.s:1288   .text.HAL_TIMEx_OnePulseN_Stop:0000000000000000 $t
     /tmp/cchr48Fl.s:1293   .text.HAL_TIMEx_OnePulseN_Stop:0000000000000000 HAL_TIMEx_OnePulseN_Stop
     /tmp/cchr48Fl.s:1331   .text.HAL_TIMEx_OnePulseN_Start_IT:0000000000000000 $t
     /tmp/cchr48Fl.s:1336   .text.HAL_TIMEx_OnePulseN_Start_IT:0000000000000000 HAL_TIMEx_OnePulseN_Start_IT
ARM GAS  /tmp/cchr48Fl.s 			page 33


     /tmp/cchr48Fl.s:1360   .text.HAL_TIMEx_OnePulseN_Stop_IT:0000000000000000 $t
     /tmp/cchr48Fl.s:1365   .text.HAL_TIMEx_OnePulseN_Stop_IT:0000000000000000 HAL_TIMEx_OnePulseN_Stop_IT
     /tmp/cchr48Fl.s:1411   .text.HAL_TIMEx_ConfigCommutEvent:0000000000000000 $t
     /tmp/cchr48Fl.s:1416   .text.HAL_TIMEx_ConfigCommutEvent:0000000000000000 HAL_TIMEx_ConfigCommutEvent
     /tmp/cchr48Fl.s:1475   .text.HAL_TIMEx_ConfigCommutEvent_IT:0000000000000000 $t
     /tmp/cchr48Fl.s:1480   .text.HAL_TIMEx_ConfigCommutEvent_IT:0000000000000000 HAL_TIMEx_ConfigCommutEvent_IT
     /tmp/cchr48Fl.s:1539   .text.HAL_TIMEx_ConfigCommutEvent_DMA:0000000000000000 $t
     /tmp/cchr48Fl.s:1544   .text.HAL_TIMEx_ConfigCommutEvent_DMA:0000000000000000 HAL_TIMEx_ConfigCommutEvent_DMA
     /tmp/cchr48Fl.s:1613   .text.HAL_TIMEx_ConfigCommutEvent_DMA:0000000000000088 $d
     /tmp/cchr48Fl.s:1734   .text.TIMEx_DMACommutationCplt:0000000000000000 TIMEx_DMACommutationCplt
     /tmp/cchr48Fl.s:1762   .text.TIMEx_DMACommutationHalfCplt:0000000000000000 TIMEx_DMACommutationHalfCplt
     /tmp/cchr48Fl.s:1618   .text.HAL_TIMEx_MasterConfigSynchronization:0000000000000000 $t
     /tmp/cchr48Fl.s:1623   .text.HAL_TIMEx_MasterConfigSynchronization:0000000000000000 HAL_TIMEx_MasterConfigSynchronization
     /tmp/cchr48Fl.s:1660   .text.HAL_TIMEx_ConfigBreakDeadTime:0000000000000000 $t
     /tmp/cchr48Fl.s:1665   .text.HAL_TIMEx_ConfigBreakDeadTime:0000000000000000 HAL_TIMEx_ConfigBreakDeadTime
     /tmp/cchr48Fl.s:1704   .text.HAL_TIMEx_RemapConfig:0000000000000000 $t
     /tmp/cchr48Fl.s:1709   .text.HAL_TIMEx_RemapConfig:0000000000000000 HAL_TIMEx_RemapConfig
     /tmp/cchr48Fl.s:1717   .text.HAL_TIMEx_CommutCallback:0000000000000000 $t
     /tmp/cchr48Fl.s:1722   .text.HAL_TIMEx_CommutCallback:0000000000000000 HAL_TIMEx_CommutCallback
     /tmp/cchr48Fl.s:1729   .text.TIMEx_DMACommutationCplt:0000000000000000 $t
     /tmp/cchr48Fl.s:1745   .text.HAL_TIMEx_CommutHalfCpltCallback:0000000000000000 $t
     /tmp/cchr48Fl.s:1750   .text.HAL_TIMEx_CommutHalfCpltCallback:0000000000000000 HAL_TIMEx_CommutHalfCpltCallback
     /tmp/cchr48Fl.s:1757   .text.TIMEx_DMACommutationHalfCplt:0000000000000000 $t
     /tmp/cchr48Fl.s:1773   .text.HAL_TIMEx_BreakCallback:0000000000000000 $t
     /tmp/cchr48Fl.s:1778   .text.HAL_TIMEx_BreakCallback:0000000000000000 HAL_TIMEx_BreakCallback
     /tmp/cchr48Fl.s:1785   .text.HAL_TIMEx_HallSensor_GetState:0000000000000000 $t
     /tmp/cchr48Fl.s:1790   .text.HAL_TIMEx_HallSensor_GetState:0000000000000000 HAL_TIMEx_HallSensor_GetState

UNDEFINED SYMBOLS
TIM_Base_SetConfig
TIM_TI1_SetConfig
TIM_OC2_SetConfig
TIM_CCxChannelCmd
HAL_DMA_Start_IT
TIM_DMACaptureCplt
TIM_DMACaptureHalfCplt
TIM_DMAError
HAL_DMA_Abort_IT
TIM_DMADelayPulseCplt
TIM_DMADelayPulseHalfCplt
