ARM GAS  /tmp/cc8jn8xi.s 			page 1


   1              		.syntax unified
   2              		.cpu cortex-m3
   3              		.fpu softvfp
   4              		.eabi_attribute 20, 1
   5              		.eabi_attribute 21, 1
   6              		.eabi_attribute 23, 3
   7              		.eabi_attribute 24, 1
   8              		.eabi_attribute 25, 1
   9              		.eabi_attribute 26, 1
  10              		.eabi_attribute 30, 1
  11              		.eabi_attribute 34, 1
  12              		.eabi_attribute 18, 4
  13              		.thumb
  14              		.file	"stm32f1xx_hal_smartcard.c"
  15              		.section	.text.SMARTCARD_DMATransmitCplt,"ax",%progbits
  16              		.align	2
  17              		.thumb
  18              		.thumb_func
  20              	SMARTCARD_DMATransmitCplt:
  21              		@ args = 0, pretend = 0, frame = 0
  22              		@ frame_needed = 0, uses_anonymous_args = 0
  23              		@ link register save eliminated.
  24 0000 436A     		ldr	r3, [r0, #36]
  25 0002 0022     		movs	r2, #0
  26 0004 DA86     		strh	r2, [r3, #54]	@ movhi
  27 0006 1968     		ldr	r1, [r3]
  28 0008 4A69     		ldr	r2, [r1, #20]
  29 000a 22F08002 		bic	r2, r2, #128
  30 000e 4A61     		str	r2, [r1, #20]
  31 0010 1A68     		ldr	r2, [r3]
  32 0012 D368     		ldr	r3, [r2, #12]
  33 0014 43F04003 		orr	r3, r3, #64
  34 0018 D360     		str	r3, [r2, #12]
  35 001a 7047     		bx	lr
  37              		.section	.text.SMARTCARD_EndTxTransfer,"ax",%progbits
  38              		.align	2
  39              		.thumb
  40              		.thumb_func
  42              	SMARTCARD_EndTxTransfer:
  43              		@ args = 0, pretend = 0, frame = 0
  44              		@ frame_needed = 0, uses_anonymous_args = 0
  45              		@ link register save eliminated.
  46 0000 2023     		movs	r3, #32
  47 0002 80F84930 		strb	r3, [r0, #73]
  48 0006 0268     		ldr	r2, [r0]
  49 0008 D368     		ldr	r3, [r2, #12]
  50 000a 23F0C003 		bic	r3, r3, #192
  51 000e D360     		str	r3, [r2, #12]
  52 0010 7047     		bx	lr
  54 0012 00BF     		.section	.text.SMARTCARD_EndRxTransfer,"ax",%progbits
  55              		.align	2
  56              		.thumb
  57              		.thumb_func
  59              	SMARTCARD_EndRxTransfer:
  60              		@ args = 0, pretend = 0, frame = 0
  61              		@ frame_needed = 0, uses_anonymous_args = 0
  62              		@ link register save eliminated.
ARM GAS  /tmp/cc8jn8xi.s 			page 2


  63 0000 2023     		movs	r3, #32
  64 0002 80F84A30 		strb	r3, [r0, #74]
  65 0006 0268     		ldr	r2, [r0]
  66 0008 D368     		ldr	r3, [r2, #12]
  67 000a 23F49073 		bic	r3, r3, #288
  68 000e D360     		str	r3, [r2, #12]
  69 0010 0268     		ldr	r2, [r0]
  70 0012 5369     		ldr	r3, [r2, #20]
  71 0014 23F00103 		bic	r3, r3, #1
  72 0018 5361     		str	r3, [r2, #20]
  73 001a 7047     		bx	lr
  75              		.section	.text.SMARTCARD_Transmit_IT,"ax",%progbits
  76              		.align	2
  77              		.thumb
  78              		.thumb_func
  80              	SMARTCARD_Transmit_IT:
  81              		@ args = 0, pretend = 0, frame = 0
  82              		@ frame_needed = 0, uses_anonymous_args = 0
  83              		@ link register save eliminated.
  84 0000 90F84930 		ldrb	r3, [r0, #73]	@ zero_extendqisi2
  85 0004 DBB2     		uxtb	r3, r3
  86 0006 212B     		cmp	r3, #33
  87 0008 19D1     		bne	.L6
  88 000a 036B     		ldr	r3, [r0, #48]
  89 000c 0268     		ldr	r2, [r0]
  90 000e 1B88     		ldrh	r3, [r3]
  91 0010 C3F30803 		ubfx	r3, r3, #0, #9
  92 0014 5360     		str	r3, [r2, #4]
  93 0016 036B     		ldr	r3, [r0, #48]
  94 0018 0133     		adds	r3, r3, #1
  95 001a 0363     		str	r3, [r0, #48]
  96 001c C38E     		ldrh	r3, [r0, #54]
  97 001e 013B     		subs	r3, r3, #1
  98 0020 9BB2     		uxth	r3, r3
  99 0022 C386     		strh	r3, [r0, #54]	@ movhi
 100 0024 6BB9     		cbnz	r3, .L7
 101 0026 0268     		ldr	r2, [r0]
 102 0028 D368     		ldr	r3, [r2, #12]
 103 002a 23F08003 		bic	r3, r3, #128
 104 002e D360     		str	r3, [r2, #12]
 105 0030 0268     		ldr	r2, [r0]
 106 0032 D368     		ldr	r3, [r2, #12]
 107 0034 43F04003 		orr	r3, r3, #64
 108 0038 D360     		str	r3, [r2, #12]
 109 003a 0020     		movs	r0, #0
 110 003c 7047     		bx	lr
 111              	.L6:
 112 003e 0220     		movs	r0, #2
 113 0040 7047     		bx	lr
 114              	.L7:
 115 0042 0020     		movs	r0, #0
 116 0044 7047     		bx	lr
 118 0046 00BF     		.section	.text.SMARTCARD_SetConfig,"ax",%progbits
 119              		.align	2
 120              		.thumb
 121              		.thumb_func
 123              	SMARTCARD_SetConfig:
ARM GAS  /tmp/cc8jn8xi.s 			page 3


 124              		@ args = 0, pretend = 0, frame = 0
 125              		@ frame_needed = 0, uses_anonymous_args = 0
 126 0000 10B5     		push	{r4, lr}
 127 0002 0446     		mov	r4, r0
 128 0004 0268     		ldr	r2, [r0]
 129 0006 D368     		ldr	r3, [r2, #12]
 130 0008 23F00C03 		bic	r3, r3, #12
 131 000c D360     		str	r3, [r2, #12]
 132 000e 0068     		ldr	r0, [r0]
 133 0010 0369     		ldr	r3, [r0, #16]
 134 0012 23F47062 		bic	r2, r3, #3840
 135 0016 A169     		ldr	r1, [r4, #24]
 136 0018 E369     		ldr	r3, [r4, #28]
 137 001a 1943     		orrs	r1, r1, r3
 138 001c 236A     		ldr	r3, [r4, #32]
 139 001e 1943     		orrs	r1, r1, r3
 140 0020 E368     		ldr	r3, [r4, #12]
 141 0022 0B43     		orrs	r3, r3, r1
 142 0024 1343     		orrs	r3, r3, r2
 143 0026 43F40063 		orr	r3, r3, #2048
 144 002a 0361     		str	r3, [r0, #16]
 145 002c 2268     		ldr	r2, [r4]
 146 002e 1369     		ldr	r3, [r2, #16]
 147 0030 23F44053 		bic	r3, r3, #12288
 148 0034 E168     		ldr	r1, [r4, #12]
 149 0036 0B43     		orrs	r3, r3, r1
 150 0038 1361     		str	r3, [r2, #16]
 151 003a 2068     		ldr	r0, [r4]
 152 003c C368     		ldr	r3, [r0, #12]
 153 003e 23F4B053 		bic	r3, r3, #5632
 154 0042 23F00C03 		bic	r3, r3, #12
 155 0046 A168     		ldr	r1, [r4, #8]
 156 0048 2269     		ldr	r2, [r4, #16]
 157 004a 1143     		orrs	r1, r1, r2
 158 004c 6269     		ldr	r2, [r4, #20]
 159 004e 0A43     		orrs	r2, r2, r1
 160 0050 1343     		orrs	r3, r3, r2
 161 0052 C360     		str	r3, [r0, #12]
 162 0054 2268     		ldr	r2, [r4]
 163 0056 5369     		ldr	r3, [r2, #20]
 164 0058 23F44073 		bic	r3, r3, #768
 165 005c 5361     		str	r3, [r2, #20]
 166 005e 2268     		ldr	r2, [r4]
 167 0060 214B     		ldr	r3, .L12
 168 0062 9A42     		cmp	r2, r3
 169 0064 1FD1     		bne	.L9
 170 0066 FFF7FEFF 		bl	HAL_RCC_GetPCLK2Freq
 171 006a 2168     		ldr	r1, [r4]
 172 006c 00EB8000 		add	r0, r0, r0, lsl #2
 173 0070 00EB8000 		add	r0, r0, r0, lsl #2
 174 0074 6368     		ldr	r3, [r4, #4]
 175 0076 9B00     		lsls	r3, r3, #2
 176 0078 B0FBF3F0 		udiv	r0, r0, r3
 177 007c 1B4B     		ldr	r3, .L12+4
 178 007e A3FB0024 		umull	r2, r4, r3, r0
 179 0082 6409     		lsrs	r4, r4, #5
 180 0084 6422     		movs	r2, #100
ARM GAS  /tmp/cc8jn8xi.s 			page 4


 181 0086 02FB1402 		mls	r2, r2, r4, r0
 182 008a 1201     		lsls	r2, r2, #4
 183 008c 3232     		adds	r2, r2, #50
 184 008e A3FB0223 		umull	r2, r3, r3, r2
 185 0092 5B09     		lsrs	r3, r3, #5
 186 0094 03F0F002 		and	r2, r3, #240
 187 0098 02EB0414 		add	r4, r2, r4, lsl #4
 188 009c 03F00F03 		and	r3, r3, #15
 189 00a0 2344     		add	r3, r3, r4
 190 00a2 8B60     		str	r3, [r1, #8]
 191 00a4 10BD     		pop	{r4, pc}
 192              	.L9:
 193 00a6 FFF7FEFF 		bl	HAL_RCC_GetPCLK1Freq
 194 00aa 2168     		ldr	r1, [r4]
 195 00ac 00EB8000 		add	r0, r0, r0, lsl #2
 196 00b0 00EB8000 		add	r0, r0, r0, lsl #2
 197 00b4 6368     		ldr	r3, [r4, #4]
 198 00b6 9B00     		lsls	r3, r3, #2
 199 00b8 B0FBF3F0 		udiv	r0, r0, r3
 200 00bc 0B4B     		ldr	r3, .L12+4
 201 00be A3FB0024 		umull	r2, r4, r3, r0
 202 00c2 6409     		lsrs	r4, r4, #5
 203 00c4 6422     		movs	r2, #100
 204 00c6 02FB1402 		mls	r2, r2, r4, r0
 205 00ca 1201     		lsls	r2, r2, #4
 206 00cc 3232     		adds	r2, r2, #50
 207 00ce A3FB0223 		umull	r2, r3, r3, r2
 208 00d2 5B09     		lsrs	r3, r3, #5
 209 00d4 03F0F002 		and	r2, r3, #240
 210 00d8 02EB0414 		add	r4, r2, r4, lsl #4
 211 00dc 03F00F03 		and	r3, r3, #15
 212 00e0 2344     		add	r3, r3, r4
 213 00e2 8B60     		str	r3, [r1, #8]
 214 00e4 10BD     		pop	{r4, pc}
 215              	.L13:
 216 00e6 00BF     		.align	2
 217              	.L12:
 218 00e8 00380140 		.word	1073821696
 219 00ec 1F85EB51 		.word	1374389535
 221              		.section	.text.SMARTCARD_WaitOnFlagUntilTimeout,"ax",%progbits
 222              		.align	2
 223              		.thumb
 224              		.thumb_func
 226              	SMARTCARD_WaitOnFlagUntilTimeout:
 227              		@ args = 4, pretend = 0, frame = 0
 228              		@ frame_needed = 0, uses_anonymous_args = 0
 229 0000 2DE9F041 		push	{r4, r5, r6, r7, r8, lr}
 230 0004 0646     		mov	r6, r0
 231 0006 0C46     		mov	r4, r1
 232 0008 1746     		mov	r7, r2
 233 000a 9846     		mov	r8, r3
 234 000c 069D     		ldr	r5, [sp, #24]
 235 000e 1EE0     		b	.L16
 236              	.L19:
 237 0010 B5F1FF3F 		cmp	r5, #-1
 238 0014 1BD0     		beq	.L16
 239 0016 2DB1     		cbz	r5, .L17
ARM GAS  /tmp/cc8jn8xi.s 			page 5


 240 0018 FFF7FEFF 		bl	HAL_GetTick
 241 001c C8EB0000 		rsb	r0, r8, r0
 242 0020 A842     		cmp	r0, r5
 243 0022 14D9     		bls	.L16
 244              	.L17:
 245 0024 3268     		ldr	r2, [r6]
 246 0026 D368     		ldr	r3, [r2, #12]
 247 0028 23F08003 		bic	r3, r3, #128
 248 002c D360     		str	r3, [r2, #12]
 249 002e 3268     		ldr	r2, [r6]
 250 0030 D368     		ldr	r3, [r2, #12]
 251 0032 23F02003 		bic	r3, r3, #32
 252 0036 D360     		str	r3, [r2, #12]
 253 0038 2023     		movs	r3, #32
 254 003a 86F84930 		strb	r3, [r6, #73]
 255 003e 86F84A30 		strb	r3, [r6, #74]
 256 0042 0023     		movs	r3, #0
 257 0044 86F84830 		strb	r3, [r6, #72]
 258 0048 0320     		movs	r0, #3
 259 004a BDE8F081 		pop	{r4, r5, r6, r7, r8, pc}
 260              	.L16:
 261 004e 3368     		ldr	r3, [r6]
 262 0050 1B68     		ldr	r3, [r3]
 263 0052 2340     		ands	r3, r3, r4
 264 0054 A342     		cmp	r3, r4
 265 0056 14BF     		ite	ne
 266 0058 0023     		movne	r3, #0
 267 005a 0123     		moveq	r3, #1
 268 005c BB42     		cmp	r3, r7
 269 005e D7D0     		beq	.L19
 270 0060 0020     		movs	r0, #0
 271 0062 BDE8F081 		pop	{r4, r5, r6, r7, r8, pc}
 273 0066 00BF     		.section	.text.HAL_SMARTCARD_MspInit,"ax",%progbits
 274              		.align	2
 275              		.weak	HAL_SMARTCARD_MspInit
 276              		.thumb
 277              		.thumb_func
 279              	HAL_SMARTCARD_MspInit:
 280              		@ args = 0, pretend = 0, frame = 0
 281              		@ frame_needed = 0, uses_anonymous_args = 0
 282              		@ link register save eliminated.
 283 0000 7047     		bx	lr
 285 0002 00BF     		.section	.text.HAL_SMARTCARD_Init,"ax",%progbits
 286              		.align	2
 287              		.global	HAL_SMARTCARD_Init
 288              		.thumb
 289              		.thumb_func
 291              	HAL_SMARTCARD_Init:
 292              		@ args = 0, pretend = 0, frame = 0
 293              		@ frame_needed = 0, uses_anonymous_args = 0
 294 0000 0028     		cmp	r0, #0
 295 0002 4DD0     		beq	.L25
 296 0004 10B5     		push	{r4, lr}
 297 0006 0446     		mov	r4, r0
 298 0008 90F84930 		ldrb	r3, [r0, #73]	@ zero_extendqisi2
 299 000c 13F0FF0F 		tst	r3, #255
 300 0010 04D1     		bne	.L24
ARM GAS  /tmp/cc8jn8xi.s 			page 6


 301 0012 0023     		movs	r3, #0
 302 0014 80F84830 		strb	r3, [r0, #72]
 303 0018 FFF7FEFF 		bl	HAL_SMARTCARD_MspInit
 304              	.L24:
 305 001c 2423     		movs	r3, #36
 306 001e 84F84930 		strb	r3, [r4, #73]
 307 0022 2168     		ldr	r1, [r4]
 308 0024 8B69     		ldr	r3, [r1, #24]
 309 0026 23F0FF02 		bic	r2, r3, #255
 310 002a 636A     		ldr	r3, [r4, #36]
 311 002c 1343     		orrs	r3, r3, r2
 312 002e 8B61     		str	r3, [r1, #24]
 313 0030 2268     		ldr	r2, [r4]
 314 0032 9369     		ldr	r3, [r2, #24]
 315 0034 23F47F43 		bic	r3, r3, #65280
 316 0038 A16A     		ldr	r1, [r4, #40]
 317 003a 43EA0123 		orr	r3, r3, r1, lsl #8
 318 003e 9361     		str	r3, [r2, #24]
 319 0040 2046     		mov	r0, r4
 320 0042 FFF7FEFF 		bl	SMARTCARD_SetConfig
 321 0046 2268     		ldr	r2, [r4]
 322 0048 1369     		ldr	r3, [r2, #16]
 323 004a 23F48043 		bic	r3, r3, #16384
 324 004e 1361     		str	r3, [r2, #16]
 325 0050 2268     		ldr	r2, [r4]
 326 0052 5369     		ldr	r3, [r2, #20]
 327 0054 23F00A03 		bic	r3, r3, #10
 328 0058 5361     		str	r3, [r2, #20]
 329 005a 2268     		ldr	r2, [r4]
 330 005c D368     		ldr	r3, [r2, #12]
 331 005e 43F48073 		orr	r3, r3, #256
 332 0062 D360     		str	r3, [r2, #12]
 333 0064 2268     		ldr	r2, [r4]
 334 0066 5369     		ldr	r3, [r2, #20]
 335 0068 43F00103 		orr	r3, r3, #1
 336 006c 5361     		str	r3, [r2, #20]
 337 006e 2268     		ldr	r2, [r4]
 338 0070 D368     		ldr	r3, [r2, #12]
 339 0072 43F40053 		orr	r3, r3, #8192
 340 0076 D360     		str	r3, [r2, #12]
 341 0078 2168     		ldr	r1, [r4]
 342 007a 4B69     		ldr	r3, [r1, #20]
 343 007c 23F01002 		bic	r2, r3, #16
 344 0080 E36A     		ldr	r3, [r4, #44]
 345 0082 1343     		orrs	r3, r3, r2
 346 0084 4B61     		str	r3, [r1, #20]
 347 0086 2268     		ldr	r2, [r4]
 348 0088 5369     		ldr	r3, [r2, #20]
 349 008a 43F02003 		orr	r3, r3, #32
 350 008e 5361     		str	r3, [r2, #20]
 351 0090 0020     		movs	r0, #0
 352 0092 E064     		str	r0, [r4, #76]
 353 0094 2023     		movs	r3, #32
 354 0096 84F84930 		strb	r3, [r4, #73]
 355 009a 84F84A30 		strb	r3, [r4, #74]
 356 009e 10BD     		pop	{r4, pc}
 357              	.L25:
ARM GAS  /tmp/cc8jn8xi.s 			page 7


 358 00a0 0120     		movs	r0, #1
 359 00a2 7047     		bx	lr
 361              		.section	.text.HAL_SMARTCARD_MspDeInit,"ax",%progbits
 362              		.align	2
 363              		.weak	HAL_SMARTCARD_MspDeInit
 364              		.thumb
 365              		.thumb_func
 367              	HAL_SMARTCARD_MspDeInit:
 368              		@ args = 0, pretend = 0, frame = 0
 369              		@ frame_needed = 0, uses_anonymous_args = 0
 370              		@ link register save eliminated.
 371 0000 7047     		bx	lr
 373 0002 00BF     		.section	.text.HAL_SMARTCARD_DeInit,"ax",%progbits
 374              		.align	2
 375              		.global	HAL_SMARTCARD_DeInit
 376              		.thumb
 377              		.thumb_func
 379              	HAL_SMARTCARD_DeInit:
 380              		@ args = 0, pretend = 0, frame = 0
 381              		@ frame_needed = 0, uses_anonymous_args = 0
 382 0000 A0B1     		cbz	r0, .L31
 383 0002 10B5     		push	{r4, lr}
 384 0004 0446     		mov	r4, r0
 385 0006 2423     		movs	r3, #36
 386 0008 80F84930 		strb	r3, [r0, #73]
 387 000c 0268     		ldr	r2, [r0]
 388 000e D368     		ldr	r3, [r2, #12]
 389 0010 23F40053 		bic	r3, r3, #8192
 390 0014 D360     		str	r3, [r2, #12]
 391 0016 FFF7FEFF 		bl	HAL_SMARTCARD_MspDeInit
 392 001a 0020     		movs	r0, #0
 393 001c E064     		str	r0, [r4, #76]
 394 001e 84F84900 		strb	r0, [r4, #73]
 395 0022 84F84A00 		strb	r0, [r4, #74]
 396 0026 84F84800 		strb	r0, [r4, #72]
 397 002a 10BD     		pop	{r4, pc}
 398              	.L31:
 399 002c 0120     		movs	r0, #1
 400 002e 7047     		bx	lr
 402              		.section	.text.HAL_SMARTCARD_Transmit,"ax",%progbits
 403              		.align	2
 404              		.global	HAL_SMARTCARD_Transmit
 405              		.thumb
 406              		.thumb_func
 408              	HAL_SMARTCARD_Transmit:
 409              		@ args = 0, pretend = 0, frame = 0
 410              		@ frame_needed = 0, uses_anonymous_args = 0
 411 0000 2DE9F041 		push	{r4, r5, r6, r7, r8, lr}
 412 0004 82B0     		sub	sp, sp, #8
 413 0006 0446     		mov	r4, r0
 414 0008 1E46     		mov	r6, r3
 415 000a 90F84930 		ldrb	r3, [r0, #73]	@ zero_extendqisi2
 416 000e DBB2     		uxtb	r3, r3
 417 0010 202B     		cmp	r3, #32
 418 0012 3FD1     		bne	.L38
 419 0014 0D46     		mov	r5, r1
 420 0016 9046     		mov	r8, r2
ARM GAS  /tmp/cc8jn8xi.s 			page 8


 421 0018 0029     		cmp	r1, #0
 422 001a 3DD0     		beq	.L39
 423 001c 002A     		cmp	r2, #0
 424 001e 3DD0     		beq	.L40
 425 0020 90F84830 		ldrb	r3, [r0, #72]	@ zero_extendqisi2
 426 0024 012B     		cmp	r3, #1
 427 0026 3BD0     		beq	.L41
 428 0028 0123     		movs	r3, #1
 429 002a 80F84830 		strb	r3, [r0, #72]
 430 002e 0023     		movs	r3, #0
 431 0030 C364     		str	r3, [r0, #76]
 432 0032 2123     		movs	r3, #33
 433 0034 80F84930 		strb	r3, [r0, #73]
 434 0038 FFF7FEFF 		bl	HAL_GetTick
 435 003c 0746     		mov	r7, r0
 436 003e A4F83480 		strh	r8, [r4, #52]	@ movhi
 437 0042 A4F83680 		strh	r8, [r4, #54]	@ movhi
 438 0046 11E0     		b	.L36
 439              	.L37:
 440 0048 E38E     		ldrh	r3, [r4, #54]
 441 004a 013B     		subs	r3, r3, #1
 442 004c 9BB2     		uxth	r3, r3
 443 004e E386     		strh	r3, [r4, #54]	@ movhi
 444 0050 0096     		str	r6, [sp]
 445 0052 2046     		mov	r0, r4
 446 0054 8021     		movs	r1, #128
 447 0056 0022     		movs	r2, #0
 448 0058 3B46     		mov	r3, r7
 449 005a FFF7FEFF 		bl	SMARTCARD_WaitOnFlagUntilTimeout
 450 005e 08BB     		cbnz	r0, .L42
 451 0060 2268     		ldr	r2, [r4]
 452 0062 35F8013B 		ldrh	r3, [r5], #1
 453 0066 C3F30803 		ubfx	r3, r3, #0, #9
 454 006a 5360     		str	r3, [r2, #4]
 455              	.L36:
 456 006c E38E     		ldrh	r3, [r4, #54]
 457 006e 9BB2     		uxth	r3, r3
 458 0070 002B     		cmp	r3, #0
 459 0072 E9D1     		bne	.L37
 460 0074 0096     		str	r6, [sp]
 461 0076 2046     		mov	r0, r4
 462 0078 4021     		movs	r1, #64
 463 007a 0022     		movs	r2, #0
 464 007c 3B46     		mov	r3, r7
 465 007e FFF7FEFF 		bl	SMARTCARD_WaitOnFlagUntilTimeout
 466 0082 0346     		mov	r3, r0
 467 0084 80B9     		cbnz	r0, .L43
 468 0086 2022     		movs	r2, #32
 469 0088 84F84920 		strb	r2, [r4, #73]
 470 008c 0022     		movs	r2, #0
 471 008e 84F84820 		strb	r2, [r4, #72]
 472 0092 0AE0     		b	.L35
 473              	.L38:
 474 0094 0223     		movs	r3, #2
 475 0096 08E0     		b	.L35
 476              	.L39:
 477 0098 0123     		movs	r3, #1
ARM GAS  /tmp/cc8jn8xi.s 			page 9


 478 009a 06E0     		b	.L35
 479              	.L40:
 480 009c 0123     		movs	r3, #1
 481 009e 04E0     		b	.L35
 482              	.L41:
 483 00a0 0223     		movs	r3, #2
 484 00a2 02E0     		b	.L35
 485              	.L42:
 486 00a4 0323     		movs	r3, #3
 487 00a6 00E0     		b	.L35
 488              	.L43:
 489 00a8 0323     		movs	r3, #3
 490              	.L35:
 491 00aa 1846     		mov	r0, r3
 492 00ac 02B0     		add	sp, sp, #8
 493              		@ sp needed
 494 00ae BDE8F081 		pop	{r4, r5, r6, r7, r8, pc}
 496 00b2 00BF     		.section	.text.HAL_SMARTCARD_Receive,"ax",%progbits
 497              		.align	2
 498              		.global	HAL_SMARTCARD_Receive
 499              		.thumb
 500              		.thumb_func
 502              	HAL_SMARTCARD_Receive:
 503              		@ args = 0, pretend = 0, frame = 0
 504              		@ frame_needed = 0, uses_anonymous_args = 0
 505 0000 2DE9F041 		push	{r4, r5, r6, r7, r8, lr}
 506 0004 82B0     		sub	sp, sp, #8
 507 0006 0446     		mov	r4, r0
 508 0008 1E46     		mov	r6, r3
 509 000a 90F84A30 		ldrb	r3, [r0, #74]	@ zero_extendqisi2
 510 000e DBB2     		uxtb	r3, r3
 511 0010 202B     		cmp	r3, #32
 512 0012 33D1     		bne	.L49
 513 0014 0D46     		mov	r5, r1
 514 0016 9046     		mov	r8, r2
 515 0018 91B3     		cbz	r1, .L50
 516 001a 9AB3     		cbz	r2, .L51
 517 001c 90F84830 		ldrb	r3, [r0, #72]	@ zero_extendqisi2
 518 0020 012B     		cmp	r3, #1
 519 0022 31D0     		beq	.L52
 520 0024 0123     		movs	r3, #1
 521 0026 80F84830 		strb	r3, [r0, #72]
 522 002a 0023     		movs	r3, #0
 523 002c C364     		str	r3, [r0, #76]
 524 002e 2223     		movs	r3, #34
 525 0030 80F84A30 		strb	r3, [r0, #74]
 526 0034 FFF7FEFF 		bl	HAL_GetTick
 527 0038 0746     		mov	r7, r0
 528 003a A4F83C80 		strh	r8, [r4, #60]	@ movhi
 529 003e A4F83E80 		strh	r8, [r4, #62]	@ movhi
 530 0042 10E0     		b	.L47
 531              	.L48:
 532 0044 E38F     		ldrh	r3, [r4, #62]
 533 0046 013B     		subs	r3, r3, #1
 534 0048 9BB2     		uxth	r3, r3
 535 004a E387     		strh	r3, [r4, #62]	@ movhi
 536 004c 0096     		str	r6, [sp]
ARM GAS  /tmp/cc8jn8xi.s 			page 10


 537 004e 2046     		mov	r0, r4
 538 0050 2021     		movs	r1, #32
 539 0052 0022     		movs	r2, #0
 540 0054 3B46     		mov	r3, r7
 541 0056 FFF7FEFF 		bl	SMARTCARD_WaitOnFlagUntilTimeout
 542 005a B8B9     		cbnz	r0, .L53
 543 005c 2368     		ldr	r3, [r4]
 544 005e 5B68     		ldr	r3, [r3, #4]
 545 0060 DBB2     		uxtb	r3, r3
 546 0062 25F8013B 		strh	r3, [r5], #1	@ movhi
 547              	.L47:
 548 0066 E38F     		ldrh	r3, [r4, #62]
 549 0068 9BB2     		uxth	r3, r3
 550 006a 002B     		cmp	r3, #0
 551 006c EAD1     		bne	.L48
 552 006e 2023     		movs	r3, #32
 553 0070 84F84A30 		strb	r3, [r4, #74]
 554 0074 0020     		movs	r0, #0
 555 0076 84F84800 		strb	r0, [r4, #72]
 556 007a 08E0     		b	.L46
 557              	.L49:
 558 007c 0220     		movs	r0, #2
 559 007e 06E0     		b	.L46
 560              	.L50:
 561 0080 0120     		movs	r0, #1
 562 0082 04E0     		b	.L46
 563              	.L51:
 564 0084 0120     		movs	r0, #1
 565 0086 02E0     		b	.L46
 566              	.L52:
 567 0088 0220     		movs	r0, #2
 568 008a 00E0     		b	.L46
 569              	.L53:
 570 008c 0320     		movs	r0, #3
 571              	.L46:
 572 008e 02B0     		add	sp, sp, #8
 573              		@ sp needed
 574 0090 BDE8F081 		pop	{r4, r5, r6, r7, r8, pc}
 576              		.section	.text.HAL_SMARTCARD_Transmit_IT,"ax",%progbits
 577              		.align	2
 578              		.global	HAL_SMARTCARD_Transmit_IT
 579              		.thumb
 580              		.thumb_func
 582              	HAL_SMARTCARD_Transmit_IT:
 583              		@ args = 0, pretend = 0, frame = 0
 584              		@ frame_needed = 0, uses_anonymous_args = 0
 585              		@ link register save eliminated.
 586 0000 90F84930 		ldrb	r3, [r0, #73]	@ zero_extendqisi2
 587 0004 DBB2     		uxtb	r3, r3
 588 0006 202B     		cmp	r3, #32
 589 0008 20D1     		bne	.L57
 590 000a 09B3     		cbz	r1, .L58
 591 000c 12B3     		cbz	r2, .L59
 592 000e 90F84830 		ldrb	r3, [r0, #72]	@ zero_extendqisi2
 593 0012 012B     		cmp	r3, #1
 594 0014 20D0     		beq	.L60
 595 0016 0163     		str	r1, [r0, #48]
ARM GAS  /tmp/cc8jn8xi.s 			page 11


 596 0018 8286     		strh	r2, [r0, #52]	@ movhi
 597 001a C286     		strh	r2, [r0, #54]	@ movhi
 598 001c 0023     		movs	r3, #0
 599 001e C364     		str	r3, [r0, #76]
 600 0020 2122     		movs	r2, #33
 601 0022 80F84920 		strb	r2, [r0, #73]
 602 0026 80F84830 		strb	r3, [r0, #72]
 603 002a 0168     		ldr	r1, [r0]
 604 002c CA68     		ldr	r2, [r1, #12]
 605 002e 42F48072 		orr	r2, r2, #256
 606 0032 CA60     		str	r2, [r1, #12]
 607 0034 0168     		ldr	r1, [r0]
 608 0036 4A69     		ldr	r2, [r1, #20]
 609 0038 22F00102 		bic	r2, r2, #1
 610 003c 4A61     		str	r2, [r1, #20]
 611 003e 0168     		ldr	r1, [r0]
 612 0040 CA68     		ldr	r2, [r1, #12]
 613 0042 42F08002 		orr	r2, r2, #128
 614 0046 CA60     		str	r2, [r1, #12]
 615 0048 1846     		mov	r0, r3
 616 004a 7047     		bx	lr
 617              	.L57:
 618 004c 0220     		movs	r0, #2
 619 004e 7047     		bx	lr
 620              	.L58:
 621 0050 0120     		movs	r0, #1
 622 0052 7047     		bx	lr
 623              	.L59:
 624 0054 0120     		movs	r0, #1
 625 0056 7047     		bx	lr
 626              	.L60:
 627 0058 0220     		movs	r0, #2
 628 005a 7047     		bx	lr
 630              		.section	.text.HAL_SMARTCARD_Receive_IT,"ax",%progbits
 631              		.align	2
 632              		.global	HAL_SMARTCARD_Receive_IT
 633              		.thumb
 634              		.thumb_func
 636              	HAL_SMARTCARD_Receive_IT:
 637              		@ args = 0, pretend = 0, frame = 0
 638              		@ frame_needed = 0, uses_anonymous_args = 0
 639              		@ link register save eliminated.
 640 0000 90F84A30 		ldrb	r3, [r0, #74]	@ zero_extendqisi2
 641 0004 DBB2     		uxtb	r3, r3
 642 0006 202B     		cmp	r3, #32
 643 0008 1BD1     		bne	.L63
 644 000a E1B1     		cbz	r1, .L64
 645 000c EAB1     		cbz	r2, .L65
 646 000e 90F84830 		ldrb	r3, [r0, #72]	@ zero_extendqisi2
 647 0012 012B     		cmp	r3, #1
 648 0014 1BD0     		beq	.L66
 649 0016 8163     		str	r1, [r0, #56]
 650 0018 8287     		strh	r2, [r0, #60]	@ movhi
 651 001a C287     		strh	r2, [r0, #62]	@ movhi
 652 001c 0023     		movs	r3, #0
 653 001e C364     		str	r3, [r0, #76]
 654 0020 2222     		movs	r2, #34
ARM GAS  /tmp/cc8jn8xi.s 			page 12


 655 0022 80F84A20 		strb	r2, [r0, #74]
 656 0026 80F84830 		strb	r3, [r0, #72]
 657 002a 0168     		ldr	r1, [r0]
 658 002c CA68     		ldr	r2, [r1, #12]
 659 002e 42F49072 		orr	r2, r2, #288
 660 0032 CA60     		str	r2, [r1, #12]
 661 0034 0168     		ldr	r1, [r0]
 662 0036 4A69     		ldr	r2, [r1, #20]
 663 0038 42F00102 		orr	r2, r2, #1
 664 003c 4A61     		str	r2, [r1, #20]
 665 003e 1846     		mov	r0, r3
 666 0040 7047     		bx	lr
 667              	.L63:
 668 0042 0220     		movs	r0, #2
 669 0044 7047     		bx	lr
 670              	.L64:
 671 0046 0120     		movs	r0, #1
 672 0048 7047     		bx	lr
 673              	.L65:
 674 004a 0120     		movs	r0, #1
 675 004c 7047     		bx	lr
 676              	.L66:
 677 004e 0220     		movs	r0, #2
 678 0050 7047     		bx	lr
 680 0052 00BF     		.section	.text.HAL_SMARTCARD_Transmit_DMA,"ax",%progbits
 681              		.align	2
 682              		.global	HAL_SMARTCARD_Transmit_DMA
 683              		.thumb
 684              		.thumb_func
 686              	HAL_SMARTCARD_Transmit_DMA:
 687              		@ args = 0, pretend = 0, frame = 0
 688              		@ frame_needed = 0, uses_anonymous_args = 0
 689 0000 38B5     		push	{r3, r4, r5, lr}
 690 0002 0446     		mov	r4, r0
 691 0004 1346     		mov	r3, r2
 692 0006 90F84920 		ldrb	r2, [r0, #73]	@ zero_extendqisi2
 693 000a D2B2     		uxtb	r2, r2
 694 000c 202A     		cmp	r2, #32
 695 000e 2CD1     		bne	.L69
 696 0010 0029     		cmp	r1, #0
 697 0012 2CD0     		beq	.L70
 698 0014 002B     		cmp	r3, #0
 699 0016 2CD0     		beq	.L71
 700 0018 90F84820 		ldrb	r2, [r0, #72]	@ zero_extendqisi2
 701 001c 012A     		cmp	r2, #1
 702 001e 2AD0     		beq	.L72
 703 0020 0122     		movs	r2, #1
 704 0022 80F84820 		strb	r2, [r0, #72]
 705 0026 0163     		str	r1, [r0, #48]
 706 0028 8386     		strh	r3, [r0, #52]	@ movhi
 707 002a C386     		strh	r3, [r0, #54]	@ movhi
 708 002c 0025     		movs	r5, #0
 709 002e C564     		str	r5, [r0, #76]
 710 0030 2122     		movs	r2, #33
 711 0032 80F84920 		strb	r2, [r0, #73]
 712 0036 026C     		ldr	r2, [r0, #64]
 713 0038 1048     		ldr	r0, .L74
ARM GAS  /tmp/cc8jn8xi.s 			page 13


 714 003a 9062     		str	r0, [r2, #40]
 715 003c 226C     		ldr	r2, [r4, #64]
 716 003e 1048     		ldr	r0, .L74+4
 717 0040 1063     		str	r0, [r2, #48]
 718 0042 226C     		ldr	r2, [r4, #64]
 719 0044 5563     		str	r5, [r2, #52]
 720 0046 2268     		ldr	r2, [r4]
 721 0048 206C     		ldr	r0, [r4, #64]
 722 004a 0432     		adds	r2, r2, #4
 723 004c FFF7FEFF 		bl	HAL_DMA_Start_IT
 724 0050 2368     		ldr	r3, [r4]
 725 0052 6FF04002 		mvn	r2, #64
 726 0056 1A60     		str	r2, [r3]
 727 0058 84F84850 		strb	r5, [r4, #72]
 728 005c 2268     		ldr	r2, [r4]
 729 005e 5369     		ldr	r3, [r2, #20]
 730 0060 43F08003 		orr	r3, r3, #128
 731 0064 5361     		str	r3, [r2, #20]
 732 0066 2846     		mov	r0, r5
 733 0068 38BD     		pop	{r3, r4, r5, pc}
 734              	.L69:
 735 006a 0220     		movs	r0, #2
 736 006c 38BD     		pop	{r3, r4, r5, pc}
 737              	.L70:
 738 006e 0120     		movs	r0, #1
 739 0070 38BD     		pop	{r3, r4, r5, pc}
 740              	.L71:
 741 0072 0120     		movs	r0, #1
 742 0074 38BD     		pop	{r3, r4, r5, pc}
 743              	.L72:
 744 0076 0220     		movs	r0, #2
 745 0078 38BD     		pop	{r3, r4, r5, pc}
 746              	.L75:
 747 007a 00BF     		.align	2
 748              	.L74:
 749 007c 00000000 		.word	SMARTCARD_DMATransmitCplt
 750 0080 00000000 		.word	SMARTCARD_DMAError
 752              		.section	.text.HAL_SMARTCARD_Receive_DMA,"ax",%progbits
 753              		.align	2
 754              		.global	HAL_SMARTCARD_Receive_DMA
 755              		.thumb
 756              		.thumb_func
 758              	HAL_SMARTCARD_Receive_DMA:
 759              		@ args = 0, pretend = 0, frame = 8
 760              		@ frame_needed = 0, uses_anonymous_args = 0
 761 0000 70B5     		push	{r4, r5, r6, lr}
 762 0002 82B0     		sub	sp, sp, #8
 763 0004 0446     		mov	r4, r0
 764 0006 1346     		mov	r3, r2
 765 0008 90F84A20 		ldrb	r2, [r0, #74]	@ zero_extendqisi2
 766 000c D2B2     		uxtb	r2, r2
 767 000e 202A     		cmp	r2, #32
 768 0010 39D1     		bne	.L78
 769 0012 0E46     		mov	r6, r1
 770 0014 0029     		cmp	r1, #0
 771 0016 38D0     		beq	.L79
 772 0018 002B     		cmp	r3, #0
ARM GAS  /tmp/cc8jn8xi.s 			page 14


 773 001a 38D0     		beq	.L80
 774 001c 90F84820 		ldrb	r2, [r0, #72]	@ zero_extendqisi2
 775 0020 012A     		cmp	r2, #1
 776 0022 36D0     		beq	.L81
 777 0024 0122     		movs	r2, #1
 778 0026 80F84820 		strb	r2, [r0, #72]
 779 002a A163     		str	r1, [r4, #56]
 780 002c 8387     		strh	r3, [r0, #60]	@ movhi
 781 002e 0025     		movs	r5, #0
 782 0030 C564     		str	r5, [r0, #76]
 783 0032 2222     		movs	r2, #34
 784 0034 80F84A20 		strb	r2, [r0, #74]
 785 0038 426C     		ldr	r2, [r0, #68]
 786 003a 1749     		ldr	r1, .L83
 787 003c 9162     		str	r1, [r2, #40]
 788 003e 426C     		ldr	r2, [r0, #68]
 789 0040 1649     		ldr	r1, .L83+4
 790 0042 1163     		str	r1, [r2, #48]
 791 0044 026C     		ldr	r2, [r0, #64]
 792 0046 5563     		str	r5, [r2, #52]
 793 0048 0168     		ldr	r1, [r0]
 794 004a 406C     		ldr	r0, [r0, #68]
 795 004c 0431     		adds	r1, r1, #4
 796 004e 3246     		mov	r2, r6
 797 0050 FFF7FEFF 		bl	HAL_DMA_Start_IT
 798 0054 0195     		str	r5, [sp, #4]
 799 0056 2368     		ldr	r3, [r4]
 800 0058 1A68     		ldr	r2, [r3]
 801 005a 0192     		str	r2, [sp, #4]
 802 005c 5A68     		ldr	r2, [r3, #4]
 803 005e 0192     		str	r2, [sp, #4]
 804 0060 019A     		ldr	r2, [sp, #4]
 805 0062 84F84850 		strb	r5, [r4, #72]
 806 0066 DA68     		ldr	r2, [r3, #12]
 807 0068 42F48072 		orr	r2, r2, #256
 808 006c DA60     		str	r2, [r3, #12]
 809 006e 2268     		ldr	r2, [r4]
 810 0070 5369     		ldr	r3, [r2, #20]
 811 0072 43F00103 		orr	r3, r3, #1
 812 0076 5361     		str	r3, [r2, #20]
 813 0078 2268     		ldr	r2, [r4]
 814 007a 5369     		ldr	r3, [r2, #20]
 815 007c 43F04003 		orr	r3, r3, #64
 816 0080 5361     		str	r3, [r2, #20]
 817 0082 2846     		mov	r0, r5
 818 0084 06E0     		b	.L77
 819              	.L78:
 820 0086 0220     		movs	r0, #2
 821 0088 04E0     		b	.L77
 822              	.L79:
 823 008a 0120     		movs	r0, #1
 824 008c 02E0     		b	.L77
 825              	.L80:
 826 008e 0120     		movs	r0, #1
 827 0090 00E0     		b	.L77
 828              	.L81:
 829 0092 0220     		movs	r0, #2
ARM GAS  /tmp/cc8jn8xi.s 			page 15


 830              	.L77:
 831 0094 02B0     		add	sp, sp, #8
 832              		@ sp needed
 833 0096 70BD     		pop	{r4, r5, r6, pc}
 834              	.L84:
 835              		.align	2
 836              	.L83:
 837 0098 00000000 		.word	SMARTCARD_DMAReceiveCplt
 838 009c 00000000 		.word	SMARTCARD_DMAError
 840              		.section	.text.HAL_SMARTCARD_Abort,"ax",%progbits
 841              		.align	2
 842              		.global	HAL_SMARTCARD_Abort
 843              		.thumb
 844              		.thumb_func
 846              	HAL_SMARTCARD_Abort:
 847              		@ args = 0, pretend = 0, frame = 0
 848              		@ frame_needed = 0, uses_anonymous_args = 0
 849 0000 10B5     		push	{r4, lr}
 850 0002 0446     		mov	r4, r0
 851 0004 0268     		ldr	r2, [r0]
 852 0006 D368     		ldr	r3, [r2, #12]
 853 0008 23F4F073 		bic	r3, r3, #480
 854 000c D360     		str	r3, [r2, #12]
 855 000e 0268     		ldr	r2, [r0]
 856 0010 5369     		ldr	r3, [r2, #20]
 857 0012 23F00103 		bic	r3, r3, #1
 858 0016 5361     		str	r3, [r2, #20]
 859 0018 0368     		ldr	r3, [r0]
 860 001a 5A69     		ldr	r2, [r3, #20]
 861 001c 12F0800F 		tst	r2, #128
 862 0020 0AD0     		beq	.L86
 863 0022 5A69     		ldr	r2, [r3, #20]
 864 0024 22F08002 		bic	r2, r2, #128
 865 0028 5A61     		str	r2, [r3, #20]
 866 002a 036C     		ldr	r3, [r0, #64]
 867 002c 23B1     		cbz	r3, .L86
 868 002e 0022     		movs	r2, #0
 869 0030 5A63     		str	r2, [r3, #52]
 870 0032 006C     		ldr	r0, [r0, #64]
 871 0034 FFF7FEFF 		bl	HAL_DMA_Abort
 872              	.L86:
 873 0038 2368     		ldr	r3, [r4]
 874 003a 5A69     		ldr	r2, [r3, #20]
 875 003c 12F0400F 		tst	r2, #64
 876 0040 0AD0     		beq	.L87
 877 0042 5A69     		ldr	r2, [r3, #20]
 878 0044 22F04002 		bic	r2, r2, #64
 879 0048 5A61     		str	r2, [r3, #20]
 880 004a 636C     		ldr	r3, [r4, #68]
 881 004c 23B1     		cbz	r3, .L87
 882 004e 0022     		movs	r2, #0
 883 0050 5A63     		str	r2, [r3, #52]
 884 0052 606C     		ldr	r0, [r4, #68]
 885 0054 FFF7FEFF 		bl	HAL_DMA_Abort
 886              	.L87:
 887 0058 0020     		movs	r0, #0
 888 005a E086     		strh	r0, [r4, #54]	@ movhi
ARM GAS  /tmp/cc8jn8xi.s 			page 16


 889 005c E087     		strh	r0, [r4, #62]	@ movhi
 890 005e E064     		str	r0, [r4, #76]
 891 0060 2023     		movs	r3, #32
 892 0062 84F84A30 		strb	r3, [r4, #74]
 893 0066 84F84930 		strb	r3, [r4, #73]
 894 006a 10BD     		pop	{r4, pc}
 896              		.section	.text.HAL_SMARTCARD_AbortTransmit,"ax",%progbits
 897              		.align	2
 898              		.global	HAL_SMARTCARD_AbortTransmit
 899              		.thumb
 900              		.thumb_func
 902              	HAL_SMARTCARD_AbortTransmit:
 903              		@ args = 0, pretend = 0, frame = 0
 904              		@ frame_needed = 0, uses_anonymous_args = 0
 905 0000 10B5     		push	{r4, lr}
 906 0002 0446     		mov	r4, r0
 907 0004 0268     		ldr	r2, [r0]
 908 0006 D368     		ldr	r3, [r2, #12]
 909 0008 23F0C003 		bic	r3, r3, #192
 910 000c D360     		str	r3, [r2, #12]
 911 000e 0368     		ldr	r3, [r0]
 912 0010 5A69     		ldr	r2, [r3, #20]
 913 0012 12F0800F 		tst	r2, #128
 914 0016 0AD0     		beq	.L90
 915 0018 5A69     		ldr	r2, [r3, #20]
 916 001a 22F08002 		bic	r2, r2, #128
 917 001e 5A61     		str	r2, [r3, #20]
 918 0020 036C     		ldr	r3, [r0, #64]
 919 0022 23B1     		cbz	r3, .L90
 920 0024 0022     		movs	r2, #0
 921 0026 5A63     		str	r2, [r3, #52]
 922 0028 006C     		ldr	r0, [r0, #64]
 923 002a FFF7FEFF 		bl	HAL_DMA_Abort
 924              	.L90:
 925 002e 0020     		movs	r0, #0
 926 0030 E086     		strh	r0, [r4, #54]	@ movhi
 927 0032 2023     		movs	r3, #32
 928 0034 84F84930 		strb	r3, [r4, #73]
 929 0038 10BD     		pop	{r4, pc}
 931 003a 00BF     		.section	.text.HAL_SMARTCARD_AbortReceive,"ax",%progbits
 932              		.align	2
 933              		.global	HAL_SMARTCARD_AbortReceive
 934              		.thumb
 935              		.thumb_func
 937              	HAL_SMARTCARD_AbortReceive:
 938              		@ args = 0, pretend = 0, frame = 0
 939              		@ frame_needed = 0, uses_anonymous_args = 0
 940 0000 10B5     		push	{r4, lr}
 941 0002 0446     		mov	r4, r0
 942 0004 0268     		ldr	r2, [r0]
 943 0006 D368     		ldr	r3, [r2, #12]
 944 0008 23F49073 		bic	r3, r3, #288
 945 000c D360     		str	r3, [r2, #12]
 946 000e 0268     		ldr	r2, [r0]
 947 0010 5369     		ldr	r3, [r2, #20]
 948 0012 23F00103 		bic	r3, r3, #1
 949 0016 5361     		str	r3, [r2, #20]
ARM GAS  /tmp/cc8jn8xi.s 			page 17


 950 0018 0368     		ldr	r3, [r0]
 951 001a 5A69     		ldr	r2, [r3, #20]
 952 001c 12F0400F 		tst	r2, #64
 953 0020 0AD0     		beq	.L93
 954 0022 5A69     		ldr	r2, [r3, #20]
 955 0024 22F04002 		bic	r2, r2, #64
 956 0028 5A61     		str	r2, [r3, #20]
 957 002a 436C     		ldr	r3, [r0, #68]
 958 002c 23B1     		cbz	r3, .L93
 959 002e 0022     		movs	r2, #0
 960 0030 5A63     		str	r2, [r3, #52]
 961 0032 406C     		ldr	r0, [r0, #68]
 962 0034 FFF7FEFF 		bl	HAL_DMA_Abort
 963              	.L93:
 964 0038 0020     		movs	r0, #0
 965 003a E087     		strh	r0, [r4, #62]	@ movhi
 966 003c 2023     		movs	r3, #32
 967 003e 84F84A30 		strb	r3, [r4, #74]
 968 0042 10BD     		pop	{r4, pc}
 970              		.section	.text.HAL_SMARTCARD_TxCpltCallback,"ax",%progbits
 971              		.align	2
 972              		.weak	HAL_SMARTCARD_TxCpltCallback
 973              		.thumb
 974              		.thumb_func
 976              	HAL_SMARTCARD_TxCpltCallback:
 977              		@ args = 0, pretend = 0, frame = 0
 978              		@ frame_needed = 0, uses_anonymous_args = 0
 979              		@ link register save eliminated.
 980 0000 7047     		bx	lr
 982 0002 00BF     		.section	.text.SMARTCARD_EndTransmit_IT,"ax",%progbits
 983              		.align	2
 984              		.thumb
 985              		.thumb_func
 987              	SMARTCARD_EndTransmit_IT:
 988              		@ args = 0, pretend = 0, frame = 0
 989              		@ frame_needed = 0, uses_anonymous_args = 0
 990 0000 08B5     		push	{r3, lr}
 991 0002 0168     		ldr	r1, [r0]
 992 0004 CA68     		ldr	r2, [r1, #12]
 993 0006 22F04002 		bic	r2, r2, #64
 994 000a CA60     		str	r2, [r1, #12]
 995 000c 0168     		ldr	r1, [r0]
 996 000e 4A69     		ldr	r2, [r1, #20]
 997 0010 22F00102 		bic	r2, r2, #1
 998 0014 4A61     		str	r2, [r1, #20]
 999 0016 2022     		movs	r2, #32
 1000 0018 80F84920 		strb	r2, [r0, #73]
 1001 001c FFF7FEFF 		bl	HAL_SMARTCARD_TxCpltCallback
 1002 0020 0020     		movs	r0, #0
 1003 0022 08BD     		pop	{r3, pc}
 1005              		.section	.text.HAL_SMARTCARD_RxCpltCallback,"ax",%progbits
 1006              		.align	2
 1007              		.weak	HAL_SMARTCARD_RxCpltCallback
 1008              		.thumb
 1009              		.thumb_func
 1011              	HAL_SMARTCARD_RxCpltCallback:
 1012              		@ args = 0, pretend = 0, frame = 0
ARM GAS  /tmp/cc8jn8xi.s 			page 18


 1013              		@ frame_needed = 0, uses_anonymous_args = 0
 1014              		@ link register save eliminated.
 1015 0000 7047     		bx	lr
 1017 0002 00BF     		.section	.text.SMARTCARD_DMAReceiveCplt,"ax",%progbits
 1018              		.align	2
 1019              		.thumb
 1020              		.thumb_func
 1022              	SMARTCARD_DMAReceiveCplt:
 1023              		@ args = 0, pretend = 0, frame = 0
 1024              		@ frame_needed = 0, uses_anonymous_args = 0
 1025 0000 08B5     		push	{r3, lr}
 1026 0002 406A     		ldr	r0, [r0, #36]
 1027 0004 0023     		movs	r3, #0
 1028 0006 C387     		strh	r3, [r0, #62]	@ movhi
 1029 0008 0268     		ldr	r2, [r0]
 1030 000a D368     		ldr	r3, [r2, #12]
 1031 000c 23F49073 		bic	r3, r3, #288
 1032 0010 D360     		str	r3, [r2, #12]
 1033 0012 0268     		ldr	r2, [r0]
 1034 0014 5369     		ldr	r3, [r2, #20]
 1035 0016 23F00103 		bic	r3, r3, #1
 1036 001a 5361     		str	r3, [r2, #20]
 1037 001c 0268     		ldr	r2, [r0]
 1038 001e 5369     		ldr	r3, [r2, #20]
 1039 0020 23F04003 		bic	r3, r3, #64
 1040 0024 5361     		str	r3, [r2, #20]
 1041 0026 2023     		movs	r3, #32
 1042 0028 80F84A30 		strb	r3, [r0, #74]
 1043 002c FFF7FEFF 		bl	HAL_SMARTCARD_RxCpltCallback
 1044 0030 08BD     		pop	{r3, pc}
 1046 0032 00BF     		.section	.text.SMARTCARD_Receive_IT,"ax",%progbits
 1047              		.align	2
 1048              		.thumb
 1049              		.thumb_func
 1051              	SMARTCARD_Receive_IT:
 1052              		@ args = 0, pretend = 0, frame = 0
 1053              		@ frame_needed = 0, uses_anonymous_args = 0
 1054 0000 08B5     		push	{r3, lr}
 1055 0002 90F84A30 		ldrb	r3, [r0, #74]	@ zero_extendqisi2
 1056 0006 DBB2     		uxtb	r3, r3
 1057 0008 222B     		cmp	r3, #34
 1058 000a 22D1     		bne	.L103
 1059 000c 826B     		ldr	r2, [r0, #56]
 1060 000e 0368     		ldr	r3, [r0]
 1061 0010 5B68     		ldr	r3, [r3, #4]
 1062 0012 DBB2     		uxtb	r3, r3
 1063 0014 1380     		strh	r3, [r2]	@ movhi
 1064 0016 836B     		ldr	r3, [r0, #56]
 1065 0018 0133     		adds	r3, r3, #1
 1066 001a 8363     		str	r3, [r0, #56]
 1067 001c C38F     		ldrh	r3, [r0, #62]
 1068 001e 013B     		subs	r3, r3, #1
 1069 0020 9BB2     		uxth	r3, r3
 1070 0022 C387     		strh	r3, [r0, #62]	@ movhi
 1071 0024 BBB9     		cbnz	r3, .L104
 1072 0026 0268     		ldr	r2, [r0]
 1073 0028 D368     		ldr	r3, [r2, #12]
ARM GAS  /tmp/cc8jn8xi.s 			page 19


 1074 002a 23F02003 		bic	r3, r3, #32
 1075 002e D360     		str	r3, [r2, #12]
 1076 0030 0268     		ldr	r2, [r0]
 1077 0032 D368     		ldr	r3, [r2, #12]
 1078 0034 23F48073 		bic	r3, r3, #256
 1079 0038 D360     		str	r3, [r2, #12]
 1080 003a 0268     		ldr	r2, [r0]
 1081 003c 5369     		ldr	r3, [r2, #20]
 1082 003e 23F00103 		bic	r3, r3, #1
 1083 0042 5361     		str	r3, [r2, #20]
 1084 0044 2023     		movs	r3, #32
 1085 0046 80F84A30 		strb	r3, [r0, #74]
 1086 004a FFF7FEFF 		bl	HAL_SMARTCARD_RxCpltCallback
 1087 004e 0020     		movs	r0, #0
 1088 0050 08BD     		pop	{r3, pc}
 1089              	.L103:
 1090 0052 0220     		movs	r0, #2
 1091 0054 08BD     		pop	{r3, pc}
 1092              	.L104:
 1093 0056 0020     		movs	r0, #0
 1094 0058 08BD     		pop	{r3, pc}
 1096 005a 00BF     		.section	.text.HAL_SMARTCARD_ErrorCallback,"ax",%progbits
 1097              		.align	2
 1098              		.weak	HAL_SMARTCARD_ErrorCallback
 1099              		.thumb
 1100              		.thumb_func
 1102              	HAL_SMARTCARD_ErrorCallback:
 1103              		@ args = 0, pretend = 0, frame = 0
 1104              		@ frame_needed = 0, uses_anonymous_args = 0
 1105              		@ link register save eliminated.
 1106 0000 7047     		bx	lr
 1108 0002 00BF     		.section	.text.SMARTCARD_DMAError,"ax",%progbits
 1109              		.align	2
 1110              		.thumb
 1111              		.thumb_func
 1113              	SMARTCARD_DMAError:
 1114              		@ args = 0, pretend = 0, frame = 0
 1115              		@ frame_needed = 0, uses_anonymous_args = 0
 1116 0000 10B5     		push	{r4, lr}
 1117 0002 446A     		ldr	r4, [r0, #36]
 1118 0004 0023     		movs	r3, #0
 1119 0006 E387     		strh	r3, [r4, #62]	@ movhi
 1120 0008 E386     		strh	r3, [r4, #54]	@ movhi
 1121 000a 1023     		movs	r3, #16
 1122 000c E364     		str	r3, [r4, #76]
 1123 000e 2368     		ldr	r3, [r4]
 1124 0010 5B69     		ldr	r3, [r3, #20]
 1125 0012 03F08002 		and	r2, r3, #128
 1126 0016 94F84930 		ldrb	r3, [r4, #73]	@ zero_extendqisi2
 1127 001a DBB2     		uxtb	r3, r3
 1128 001c 212B     		cmp	r3, #33
 1129 001e 03D1     		bne	.L108
 1130 0020 12B1     		cbz	r2, .L108
 1131 0022 2046     		mov	r0, r4
 1132 0024 FFF7FEFF 		bl	SMARTCARD_EndTxTransfer
 1133              	.L108:
 1134 0028 2368     		ldr	r3, [r4]
ARM GAS  /tmp/cc8jn8xi.s 			page 20


 1135 002a 5B69     		ldr	r3, [r3, #20]
 1136 002c 03F04002 		and	r2, r3, #64
 1137 0030 94F84A30 		ldrb	r3, [r4, #74]	@ zero_extendqisi2
 1138 0034 DBB2     		uxtb	r3, r3
 1139 0036 222B     		cmp	r3, #34
 1140 0038 03D1     		bne	.L109
 1141 003a 12B1     		cbz	r2, .L109
 1142 003c 2046     		mov	r0, r4
 1143 003e FFF7FEFF 		bl	SMARTCARD_EndRxTransfer
 1144              	.L109:
 1145 0042 2046     		mov	r0, r4
 1146 0044 FFF7FEFF 		bl	HAL_SMARTCARD_ErrorCallback
 1147 0048 10BD     		pop	{r4, pc}
 1149 004a 00BF     		.section	.text.HAL_SMARTCARD_IRQHandler,"ax",%progbits
 1150              		.align	2
 1151              		.global	HAL_SMARTCARD_IRQHandler
 1152              		.thumb
 1153              		.thumb_func
 1155              	HAL_SMARTCARD_IRQHandler:
 1156              		@ args = 0, pretend = 0, frame = 0
 1157              		@ frame_needed = 0, uses_anonymous_args = 0
 1158 0000 10B5     		push	{r4, lr}
 1159 0002 0446     		mov	r4, r0
 1160 0004 0268     		ldr	r2, [r0]
 1161 0006 1368     		ldr	r3, [r2]
 1162 0008 D168     		ldr	r1, [r2, #12]
 1163 000a 5269     		ldr	r2, [r2, #20]
 1164 000c 13F00F00 		ands	r0, r3, #15
 1165 0010 09D1     		bne	.L112
 1166 0012 13F0200F 		tst	r3, #32
 1167 0016 06D0     		beq	.L112
 1168 0018 11F0200F 		tst	r1, #32
 1169 001c 03D0     		beq	.L112
 1170 001e 2046     		mov	r0, r4
 1171 0020 FFF7FEFF 		bl	SMARTCARD_Receive_IT
 1172 0024 10BD     		pop	{r4, pc}
 1173              	.L112:
 1174 0026 0028     		cmp	r0, #0
 1175 0028 62D0     		beq	.L114
 1176 002a 12F00102 		ands	r2, r2, #1
 1177 002e 02D1     		bne	.L115
 1178 0030 11F4907F 		tst	r1, #288
 1179 0034 5CD0     		beq	.L114
 1180              	.L115:
 1181 0036 13F0010F 		tst	r3, #1
 1182 003a 06D0     		beq	.L116
 1183 003c 11F4807F 		tst	r1, #256
 1184 0040 03D0     		beq	.L116
 1185 0042 E06C     		ldr	r0, [r4, #76]
 1186 0044 40F00100 		orr	r0, r0, #1
 1187 0048 E064     		str	r0, [r4, #76]
 1188              	.L116:
 1189 004a 13F0020F 		tst	r3, #2
 1190 004e 04D0     		beq	.L117
 1191 0050 1AB1     		cbz	r2, .L117
 1192 0052 E06C     		ldr	r0, [r4, #76]
 1193 0054 40F00400 		orr	r0, r0, #4
ARM GAS  /tmp/cc8jn8xi.s 			page 21


 1194 0058 E064     		str	r0, [r4, #76]
 1195              	.L117:
 1196 005a 13F0040F 		tst	r3, #4
 1197 005e 04D0     		beq	.L118
 1198 0060 1AB1     		cbz	r2, .L118
 1199 0062 E06C     		ldr	r0, [r4, #76]
 1200 0064 40F00200 		orr	r0, r0, #2
 1201 0068 E064     		str	r0, [r4, #76]
 1202              	.L118:
 1203 006a 13F0080F 		tst	r3, #8
 1204 006e 04D0     		beq	.L119
 1205 0070 1AB1     		cbz	r2, .L119
 1206 0072 E26C     		ldr	r2, [r4, #76]
 1207 0074 42F00802 		orr	r2, r2, #8
 1208 0078 E264     		str	r2, [r4, #76]
 1209              	.L119:
 1210 007a E26C     		ldr	r2, [r4, #76]
 1211 007c 002A     		cmp	r2, #0
 1212 007e 4AD0     		beq	.L111
 1213 0080 13F0200F 		tst	r3, #32
 1214 0084 05D0     		beq	.L120
 1215 0086 11F0200F 		tst	r1, #32
 1216 008a 02D0     		beq	.L120
 1217 008c 2046     		mov	r0, r4
 1218 008e FFF7FEFF 		bl	SMARTCARD_Receive_IT
 1219              	.L120:
 1220 0092 2368     		ldr	r3, [r4]
 1221 0094 5B69     		ldr	r3, [r3, #20]
 1222 0096 03F04003 		and	r3, r3, #64
 1223 009a E26C     		ldr	r2, [r4, #76]
 1224 009c 12F0080F 		tst	r2, #8
 1225 00a0 00D1     		bne	.L121
 1226 00a2 FBB1     		cbz	r3, .L122
 1227              	.L121:
 1228 00a4 2046     		mov	r0, r4
 1229 00a6 FFF7FEFF 		bl	SMARTCARD_EndRxTransfer
 1230 00aa 2368     		ldr	r3, [r4]
 1231 00ac 5A69     		ldr	r2, [r3, #20]
 1232 00ae 12F0400F 		tst	r2, #64
 1233 00b2 13D0     		beq	.L123
 1234 00b4 5A69     		ldr	r2, [r3, #20]
 1235 00b6 22F04002 		bic	r2, r2, #64
 1236 00ba 5A61     		str	r2, [r3, #20]
 1237 00bc 636C     		ldr	r3, [r4, #68]
 1238 00be 4BB1     		cbz	r3, .L124
 1239 00c0 154A     		ldr	r2, .L127
 1240 00c2 5A63     		str	r2, [r3, #52]
 1241 00c4 606C     		ldr	r0, [r4, #68]
 1242 00c6 FFF7FEFF 		bl	HAL_DMA_Abort_IT
 1243 00ca 20B3     		cbz	r0, .L111
 1244 00cc 606C     		ldr	r0, [r4, #68]
 1245 00ce 436B     		ldr	r3, [r0, #52]
 1246 00d0 9847     		blx	r3
 1247 00d2 10BD     		pop	{r4, pc}
 1248              	.L124:
 1249 00d4 2046     		mov	r0, r4
 1250 00d6 FFF7FEFF 		bl	HAL_SMARTCARD_ErrorCallback
ARM GAS  /tmp/cc8jn8xi.s 			page 22


 1251 00da 10BD     		pop	{r4, pc}
 1252              	.L123:
 1253 00dc 2046     		mov	r0, r4
 1254 00de FFF7FEFF 		bl	HAL_SMARTCARD_ErrorCallback
 1255 00e2 10BD     		pop	{r4, pc}
 1256              	.L122:
 1257 00e4 2046     		mov	r0, r4
 1258 00e6 FFF7FEFF 		bl	HAL_SMARTCARD_ErrorCallback
 1259 00ea 0023     		movs	r3, #0
 1260 00ec E364     		str	r3, [r4, #76]
 1261 00ee 10BD     		pop	{r4, pc}
 1262              	.L114:
 1263 00f0 13F0800F 		tst	r3, #128
 1264 00f4 06D0     		beq	.L125
 1265 00f6 11F0800F 		tst	r1, #128
 1266 00fa 03D0     		beq	.L125
 1267 00fc 2046     		mov	r0, r4
 1268 00fe FFF7FEFF 		bl	SMARTCARD_Transmit_IT
 1269 0102 10BD     		pop	{r4, pc}
 1270              	.L125:
 1271 0104 13F0400F 		tst	r3, #64
 1272 0108 05D0     		beq	.L111
 1273 010a 11F0400F 		tst	r1, #64
 1274 010e 02D0     		beq	.L111
 1275 0110 2046     		mov	r0, r4
 1276 0112 FFF7FEFF 		bl	SMARTCARD_EndTransmit_IT
 1277              	.L111:
 1278 0116 10BD     		pop	{r4, pc}
 1279              	.L128:
 1280              		.align	2
 1281              	.L127:
 1282 0118 00000000 		.word	SMARTCARD_DMAAbortOnError
 1284              		.section	.text.SMARTCARD_DMAAbortOnError,"ax",%progbits
 1285              		.align	2
 1286              		.thumb
 1287              		.thumb_func
 1289              	SMARTCARD_DMAAbortOnError:
 1290              		@ args = 0, pretend = 0, frame = 0
 1291              		@ frame_needed = 0, uses_anonymous_args = 0
 1292 0000 08B5     		push	{r3, lr}
 1293 0002 406A     		ldr	r0, [r0, #36]
 1294 0004 0023     		movs	r3, #0
 1295 0006 C387     		strh	r3, [r0, #62]	@ movhi
 1296 0008 C386     		strh	r3, [r0, #54]	@ movhi
 1297 000a FFF7FEFF 		bl	HAL_SMARTCARD_ErrorCallback
 1298 000e 08BD     		pop	{r3, pc}
 1300              		.section	.text.HAL_SMARTCARD_AbortCpltCallback,"ax",%progbits
 1301              		.align	2
 1302              		.weak	HAL_SMARTCARD_AbortCpltCallback
 1303              		.thumb
 1304              		.thumb_func
 1306              	HAL_SMARTCARD_AbortCpltCallback:
 1307              		@ args = 0, pretend = 0, frame = 0
 1308              		@ frame_needed = 0, uses_anonymous_args = 0
 1309              		@ link register save eliminated.
 1310 0000 7047     		bx	lr
 1312 0002 00BF     		.section	.text.HAL_SMARTCARD_Abort_IT,"ax",%progbits
ARM GAS  /tmp/cc8jn8xi.s 			page 23


 1313              		.align	2
 1314              		.global	HAL_SMARTCARD_Abort_IT
 1315              		.thumb
 1316              		.thumb_func
 1318              	HAL_SMARTCARD_Abort_IT:
 1319              		@ args = 0, pretend = 0, frame = 0
 1320              		@ frame_needed = 0, uses_anonymous_args = 0
 1321 0000 10B5     		push	{r4, lr}
 1322 0002 0446     		mov	r4, r0
 1323 0004 0268     		ldr	r2, [r0]
 1324 0006 D368     		ldr	r3, [r2, #12]
 1325 0008 23F4F073 		bic	r3, r3, #480
 1326 000c D360     		str	r3, [r2, #12]
 1327 000e 0268     		ldr	r2, [r0]
 1328 0010 5369     		ldr	r3, [r2, #20]
 1329 0012 23F00103 		bic	r3, r3, #1
 1330 0016 5361     		str	r3, [r2, #20]
 1331 0018 036C     		ldr	r3, [r0, #64]
 1332 001a 4BB1     		cbz	r3, .L133
 1333 001c 0268     		ldr	r2, [r0]
 1334 001e 5269     		ldr	r2, [r2, #20]
 1335 0020 12F0800F 		tst	r2, #128
 1336 0024 02D0     		beq	.L134
 1337 0026 264A     		ldr	r2, .L145
 1338 0028 5A63     		str	r2, [r3, #52]
 1339 002a 01E0     		b	.L133
 1340              	.L134:
 1341 002c 0022     		movs	r2, #0
 1342 002e 5A63     		str	r2, [r3, #52]
 1343              	.L133:
 1344 0030 636C     		ldr	r3, [r4, #68]
 1345 0032 4BB1     		cbz	r3, .L135
 1346 0034 2268     		ldr	r2, [r4]
 1347 0036 5269     		ldr	r2, [r2, #20]
 1348 0038 12F0400F 		tst	r2, #64
 1349 003c 02D0     		beq	.L136
 1350 003e 214A     		ldr	r2, .L145+4
 1351 0040 5A63     		str	r2, [r3, #52]
 1352 0042 01E0     		b	.L135
 1353              	.L136:
 1354 0044 0022     		movs	r2, #0
 1355 0046 5A63     		str	r2, [r3, #52]
 1356              	.L135:
 1357 0048 2368     		ldr	r3, [r4]
 1358 004a 5A69     		ldr	r2, [r3, #20]
 1359 004c 12F0800F 		tst	r2, #128
 1360 0050 0DD0     		beq	.L140
 1361 0052 5A69     		ldr	r2, [r3, #20]
 1362 0054 22F08002 		bic	r2, r2, #128
 1363 0058 5A61     		str	r2, [r3, #20]
 1364 005a 206C     		ldr	r0, [r4, #64]
 1365 005c 48B1     		cbz	r0, .L141
 1366 005e FFF7FEFF 		bl	HAL_DMA_Abort_IT
 1367 0062 40B1     		cbz	r0, .L142
 1368 0064 236C     		ldr	r3, [r4, #64]
 1369 0066 0022     		movs	r2, #0
 1370 0068 5A63     		str	r2, [r3, #52]
ARM GAS  /tmp/cc8jn8xi.s 			page 24


 1371 006a 0122     		movs	r2, #1
 1372 006c 04E0     		b	.L137
 1373              	.L140:
 1374 006e 0122     		movs	r2, #1
 1375 0070 02E0     		b	.L137
 1376              	.L141:
 1377 0072 0122     		movs	r2, #1
 1378 0074 00E0     		b	.L137
 1379              	.L142:
 1380 0076 0022     		movs	r2, #0
 1381              	.L137:
 1382 0078 2368     		ldr	r3, [r4]
 1383 007a 5969     		ldr	r1, [r3, #20]
 1384 007c 11F0400F 		tst	r1, #64
 1385 0080 0ED0     		beq	.L138
 1386 0082 5969     		ldr	r1, [r3, #20]
 1387 0084 21F04001 		bic	r1, r1, #64
 1388 0088 5961     		str	r1, [r3, #20]
 1389 008a 606C     		ldr	r0, [r4, #68]
 1390 008c 40B1     		cbz	r0, .L138
 1391 008e FFF7FEFF 		bl	HAL_DMA_Abort_IT
 1392 0092 20B1     		cbz	r0, .L143
 1393 0094 636C     		ldr	r3, [r4, #68]
 1394 0096 0022     		movs	r2, #0
 1395 0098 5A63     		str	r2, [r3, #52]
 1396 009a 0122     		movs	r2, #1
 1397 009c 00E0     		b	.L138
 1398              	.L143:
 1399 009e 0022     		movs	r2, #0
 1400              	.L138:
 1401 00a0 5AB1     		cbz	r2, .L139
 1402 00a2 0023     		movs	r3, #0
 1403 00a4 E386     		strh	r3, [r4, #54]	@ movhi
 1404 00a6 E387     		strh	r3, [r4, #62]	@ movhi
 1405 00a8 E364     		str	r3, [r4, #76]
 1406 00aa 2023     		movs	r3, #32
 1407 00ac 84F84930 		strb	r3, [r4, #73]
 1408 00b0 84F84A30 		strb	r3, [r4, #74]
 1409 00b4 2046     		mov	r0, r4
 1410 00b6 FFF7FEFF 		bl	HAL_SMARTCARD_AbortCpltCallback
 1411              	.L139:
 1412 00ba 0020     		movs	r0, #0
 1413 00bc 10BD     		pop	{r4, pc}
 1414              	.L146:
 1415 00be 00BF     		.align	2
 1416              	.L145:
 1417 00c0 00000000 		.word	SMARTCARD_DMATxAbortCallback
 1418 00c4 00000000 		.word	SMARTCARD_DMARxAbortCallback
 1420              		.section	.text.SMARTCARD_DMARxAbortCallback,"ax",%progbits
 1421              		.align	2
 1422              		.thumb
 1423              		.thumb_func
 1425              	SMARTCARD_DMARxAbortCallback:
 1426              		@ args = 0, pretend = 0, frame = 0
 1427              		@ frame_needed = 0, uses_anonymous_args = 0
 1428 0000 08B5     		push	{r3, lr}
 1429 0002 406A     		ldr	r0, [r0, #36]
ARM GAS  /tmp/cc8jn8xi.s 			page 25


 1430 0004 436C     		ldr	r3, [r0, #68]
 1431 0006 0022     		movs	r2, #0
 1432 0008 5A63     		str	r2, [r3, #52]
 1433 000a 036C     		ldr	r3, [r0, #64]
 1434 000c 0BB1     		cbz	r3, .L148
 1435 000e 5B6B     		ldr	r3, [r3, #52]
 1436 0010 53B9     		cbnz	r3, .L147
 1437              	.L148:
 1438 0012 0023     		movs	r3, #0
 1439 0014 C386     		strh	r3, [r0, #54]	@ movhi
 1440 0016 C387     		strh	r3, [r0, #62]	@ movhi
 1441 0018 C364     		str	r3, [r0, #76]
 1442 001a 2023     		movs	r3, #32
 1443 001c 80F84930 		strb	r3, [r0, #73]
 1444 0020 80F84A30 		strb	r3, [r0, #74]
 1445 0024 FFF7FEFF 		bl	HAL_SMARTCARD_AbortCpltCallback
 1446              	.L147:
 1447 0028 08BD     		pop	{r3, pc}
 1449 002a 00BF     		.section	.text.SMARTCARD_DMATxAbortCallback,"ax",%progbits
 1450              		.align	2
 1451              		.thumb
 1452              		.thumb_func
 1454              	SMARTCARD_DMATxAbortCallback:
 1455              		@ args = 0, pretend = 0, frame = 0
 1456              		@ frame_needed = 0, uses_anonymous_args = 0
 1457 0000 08B5     		push	{r3, lr}
 1458 0002 406A     		ldr	r0, [r0, #36]
 1459 0004 036C     		ldr	r3, [r0, #64]
 1460 0006 0022     		movs	r2, #0
 1461 0008 5A63     		str	r2, [r3, #52]
 1462 000a 436C     		ldr	r3, [r0, #68]
 1463 000c 0BB1     		cbz	r3, .L152
 1464 000e 5B6B     		ldr	r3, [r3, #52]
 1465 0010 53B9     		cbnz	r3, .L151
 1466              	.L152:
 1467 0012 0023     		movs	r3, #0
 1468 0014 C386     		strh	r3, [r0, #54]	@ movhi
 1469 0016 C387     		strh	r3, [r0, #62]	@ movhi
 1470 0018 C364     		str	r3, [r0, #76]
 1471 001a 2023     		movs	r3, #32
 1472 001c 80F84930 		strb	r3, [r0, #73]
 1473 0020 80F84A30 		strb	r3, [r0, #74]
 1474 0024 FFF7FEFF 		bl	HAL_SMARTCARD_AbortCpltCallback
 1475              	.L151:
 1476 0028 08BD     		pop	{r3, pc}
 1478 002a 00BF     		.section	.text.HAL_SMARTCARD_AbortTransmitCpltCallback,"ax",%progbits
 1479              		.align	2
 1480              		.weak	HAL_SMARTCARD_AbortTransmitCpltCallback
 1481              		.thumb
 1482              		.thumb_func
 1484              	HAL_SMARTCARD_AbortTransmitCpltCallback:
 1485              		@ args = 0, pretend = 0, frame = 0
 1486              		@ frame_needed = 0, uses_anonymous_args = 0
 1487              		@ link register save eliminated.
 1488 0000 7047     		bx	lr
 1490 0002 00BF     		.section	.text.HAL_SMARTCARD_AbortTransmit_IT,"ax",%progbits
 1491              		.align	2
ARM GAS  /tmp/cc8jn8xi.s 			page 26


 1492              		.global	HAL_SMARTCARD_AbortTransmit_IT
 1493              		.thumb
 1494              		.thumb_func
 1496              	HAL_SMARTCARD_AbortTransmit_IT:
 1497              		@ args = 0, pretend = 0, frame = 0
 1498              		@ frame_needed = 0, uses_anonymous_args = 0
 1499 0000 10B5     		push	{r4, lr}
 1500 0002 0446     		mov	r4, r0
 1501 0004 0268     		ldr	r2, [r0]
 1502 0006 D368     		ldr	r3, [r2, #12]
 1503 0008 23F0C003 		bic	r3, r3, #192
 1504 000c D360     		str	r3, [r2, #12]
 1505 000e 0368     		ldr	r3, [r0]
 1506 0010 5A69     		ldr	r2, [r3, #20]
 1507 0012 12F0800F 		tst	r2, #128
 1508 0016 17D0     		beq	.L157
 1509 0018 5A69     		ldr	r2, [r3, #20]
 1510 001a 22F08002 		bic	r2, r2, #128
 1511 001e 5A61     		str	r2, [r3, #20]
 1512 0020 036C     		ldr	r3, [r0, #64]
 1513 0022 4BB1     		cbz	r3, .L158
 1514 0024 0D4A     		ldr	r2, .L161
 1515 0026 5A63     		str	r2, [r3, #52]
 1516 0028 006C     		ldr	r0, [r0, #64]
 1517 002a FFF7FEFF 		bl	HAL_DMA_Abort_IT
 1518 002e 90B1     		cbz	r0, .L159
 1519 0030 206C     		ldr	r0, [r4, #64]
 1520 0032 436B     		ldr	r3, [r0, #52]
 1521 0034 9847     		blx	r3
 1522 0036 0EE0     		b	.L159
 1523              	.L158:
 1524 0038 0023     		movs	r3, #0
 1525 003a C386     		strh	r3, [r0, #54]	@ movhi
 1526 003c 2023     		movs	r3, #32
 1527 003e 80F84930 		strb	r3, [r0, #73]
 1528 0042 FFF7FEFF 		bl	HAL_SMARTCARD_AbortTransmitCpltCallback
 1529 0046 06E0     		b	.L159
 1530              	.L157:
 1531 0048 0023     		movs	r3, #0
 1532 004a C386     		strh	r3, [r0, #54]	@ movhi
 1533 004c 2023     		movs	r3, #32
 1534 004e 80F84930 		strb	r3, [r0, #73]
 1535 0052 FFF7FEFF 		bl	HAL_SMARTCARD_AbortTransmitCpltCallback
 1536              	.L159:
 1537 0056 0020     		movs	r0, #0
 1538 0058 10BD     		pop	{r4, pc}
 1539              	.L162:
 1540 005a 00BF     		.align	2
 1541              	.L161:
 1542 005c 00000000 		.word	SMARTCARD_DMATxOnlyAbortCallback
 1544              		.section	.text.SMARTCARD_DMATxOnlyAbortCallback,"ax",%progbits
 1545              		.align	2
 1546              		.thumb
 1547              		.thumb_func
 1549              	SMARTCARD_DMATxOnlyAbortCallback:
 1550              		@ args = 0, pretend = 0, frame = 0
 1551              		@ frame_needed = 0, uses_anonymous_args = 0
ARM GAS  /tmp/cc8jn8xi.s 			page 27


 1552 0000 08B5     		push	{r3, lr}
 1553 0002 406A     		ldr	r0, [r0, #36]
 1554 0004 0023     		movs	r3, #0
 1555 0006 C386     		strh	r3, [r0, #54]	@ movhi
 1556 0008 2023     		movs	r3, #32
 1557 000a 80F84930 		strb	r3, [r0, #73]
 1558 000e FFF7FEFF 		bl	HAL_SMARTCARD_AbortTransmitCpltCallback
 1559 0012 08BD     		pop	{r3, pc}
 1561              		.section	.text.HAL_SMARTCARD_AbortReceiveCpltCallback,"ax",%progbits
 1562              		.align	2
 1563              		.weak	HAL_SMARTCARD_AbortReceiveCpltCallback
 1564              		.thumb
 1565              		.thumb_func
 1567              	HAL_SMARTCARD_AbortReceiveCpltCallback:
 1568              		@ args = 0, pretend = 0, frame = 0
 1569              		@ frame_needed = 0, uses_anonymous_args = 0
 1570              		@ link register save eliminated.
 1571 0000 7047     		bx	lr
 1573 0002 00BF     		.section	.text.HAL_SMARTCARD_AbortReceive_IT,"ax",%progbits
 1574              		.align	2
 1575              		.global	HAL_SMARTCARD_AbortReceive_IT
 1576              		.thumb
 1577              		.thumb_func
 1579              	HAL_SMARTCARD_AbortReceive_IT:
 1580              		@ args = 0, pretend = 0, frame = 0
 1581              		@ frame_needed = 0, uses_anonymous_args = 0
 1582 0000 10B5     		push	{r4, lr}
 1583 0002 0446     		mov	r4, r0
 1584 0004 0268     		ldr	r2, [r0]
 1585 0006 D368     		ldr	r3, [r2, #12]
 1586 0008 23F49073 		bic	r3, r3, #288
 1587 000c D360     		str	r3, [r2, #12]
 1588 000e 0268     		ldr	r2, [r0]
 1589 0010 5369     		ldr	r3, [r2, #20]
 1590 0012 23F00103 		bic	r3, r3, #1
 1591 0016 5361     		str	r3, [r2, #20]
 1592 0018 0368     		ldr	r3, [r0]
 1593 001a 5A69     		ldr	r2, [r3, #20]
 1594 001c 12F0400F 		tst	r2, #64
 1595 0020 17D0     		beq	.L167
 1596 0022 5A69     		ldr	r2, [r3, #20]
 1597 0024 22F04002 		bic	r2, r2, #64
 1598 0028 5A61     		str	r2, [r3, #20]
 1599 002a 436C     		ldr	r3, [r0, #68]
 1600 002c 4BB1     		cbz	r3, .L168
 1601 002e 0D4A     		ldr	r2, .L171
 1602 0030 5A63     		str	r2, [r3, #52]
 1603 0032 406C     		ldr	r0, [r0, #68]
 1604 0034 FFF7FEFF 		bl	HAL_DMA_Abort_IT
 1605 0038 90B1     		cbz	r0, .L169
 1606 003a 606C     		ldr	r0, [r4, #68]
 1607 003c 436B     		ldr	r3, [r0, #52]
 1608 003e 9847     		blx	r3
 1609 0040 0EE0     		b	.L169
 1610              	.L168:
 1611 0042 0023     		movs	r3, #0
 1612 0044 C387     		strh	r3, [r0, #62]	@ movhi
ARM GAS  /tmp/cc8jn8xi.s 			page 28


 1613 0046 2023     		movs	r3, #32
 1614 0048 80F84A30 		strb	r3, [r0, #74]
 1615 004c FFF7FEFF 		bl	HAL_SMARTCARD_AbortReceiveCpltCallback
 1616 0050 06E0     		b	.L169
 1617              	.L167:
 1618 0052 0023     		movs	r3, #0
 1619 0054 C387     		strh	r3, [r0, #62]	@ movhi
 1620 0056 2023     		movs	r3, #32
 1621 0058 80F84A30 		strb	r3, [r0, #74]
 1622 005c FFF7FEFF 		bl	HAL_SMARTCARD_AbortReceiveCpltCallback
 1623              	.L169:
 1624 0060 0020     		movs	r0, #0
 1625 0062 10BD     		pop	{r4, pc}
 1626              	.L172:
 1627              		.align	2
 1628              	.L171:
 1629 0064 00000000 		.word	SMARTCARD_DMARxOnlyAbortCallback
 1631              		.section	.text.SMARTCARD_DMARxOnlyAbortCallback,"ax",%progbits
 1632              		.align	2
 1633              		.thumb
 1634              		.thumb_func
 1636              	SMARTCARD_DMARxOnlyAbortCallback:
 1637              		@ args = 0, pretend = 0, frame = 0
 1638              		@ frame_needed = 0, uses_anonymous_args = 0
 1639 0000 08B5     		push	{r3, lr}
 1640 0002 406A     		ldr	r0, [r0, #36]
 1641 0004 0023     		movs	r3, #0
 1642 0006 C387     		strh	r3, [r0, #62]	@ movhi
 1643 0008 2023     		movs	r3, #32
 1644 000a 80F84A30 		strb	r3, [r0, #74]
 1645 000e FFF7FEFF 		bl	HAL_SMARTCARD_AbortReceiveCpltCallback
 1646 0012 08BD     		pop	{r3, pc}
 1648              		.section	.text.HAL_SMARTCARD_GetState,"ax",%progbits
 1649              		.align	2
 1650              		.global	HAL_SMARTCARD_GetState
 1651              		.thumb
 1652              		.thumb_func
 1654              	HAL_SMARTCARD_GetState:
 1655              		@ args = 0, pretend = 0, frame = 0
 1656              		@ frame_needed = 0, uses_anonymous_args = 0
 1657              		@ link register save eliminated.
 1658 0000 90F84930 		ldrb	r3, [r0, #73]	@ zero_extendqisi2
 1659 0004 90F84A00 		ldrb	r0, [r0, #74]	@ zero_extendqisi2
 1660 0008 1843     		orrs	r0, r0, r3
 1661 000a 7047     		bx	lr
 1663              		.section	.text.HAL_SMARTCARD_GetError,"ax",%progbits
 1664              		.align	2
 1665              		.global	HAL_SMARTCARD_GetError
 1666              		.thumb
 1667              		.thumb_func
 1669              	HAL_SMARTCARD_GetError:
 1670              		@ args = 0, pretend = 0, frame = 0
 1671              		@ frame_needed = 0, uses_anonymous_args = 0
 1672              		@ link register save eliminated.
 1673 0000 C06C     		ldr	r0, [r0, #76]
 1674 0002 7047     		bx	lr
 1676              		.ident	"GCC: (15:4.9.3+svn231177-1) 4.9.3 20150529 (prerelease)"
ARM GAS  /tmp/cc8jn8xi.s 			page 29


ARM GAS  /tmp/cc8jn8xi.s 			page 30


DEFINED SYMBOLS
                            *ABS*:0000000000000000 stm32f1xx_hal_smartcard.c
     /tmp/cc8jn8xi.s:16     .text.SMARTCARD_DMATransmitCplt:0000000000000000 $t
     /tmp/cc8jn8xi.s:20     .text.SMARTCARD_DMATransmitCplt:0000000000000000 SMARTCARD_DMATransmitCplt
     /tmp/cc8jn8xi.s:38     .text.SMARTCARD_EndTxTransfer:0000000000000000 $t
     /tmp/cc8jn8xi.s:42     .text.SMARTCARD_EndTxTransfer:0000000000000000 SMARTCARD_EndTxTransfer
     /tmp/cc8jn8xi.s:55     .text.SMARTCARD_EndRxTransfer:0000000000000000 $t
     /tmp/cc8jn8xi.s:59     .text.SMARTCARD_EndRxTransfer:0000000000000000 SMARTCARD_EndRxTransfer
     /tmp/cc8jn8xi.s:76     .text.SMARTCARD_Transmit_IT:0000000000000000 $t
     /tmp/cc8jn8xi.s:80     .text.SMARTCARD_Transmit_IT:0000000000000000 SMARTCARD_Transmit_IT
     /tmp/cc8jn8xi.s:119    .text.SMARTCARD_SetConfig:0000000000000000 $t
     /tmp/cc8jn8xi.s:123    .text.SMARTCARD_SetConfig:0000000000000000 SMARTCARD_SetConfig
     /tmp/cc8jn8xi.s:218    .text.SMARTCARD_SetConfig:00000000000000e8 $d
     /tmp/cc8jn8xi.s:222    .text.SMARTCARD_WaitOnFlagUntilTimeout:0000000000000000 $t
     /tmp/cc8jn8xi.s:226    .text.SMARTCARD_WaitOnFlagUntilTimeout:0000000000000000 SMARTCARD_WaitOnFlagUntilTimeout
     /tmp/cc8jn8xi.s:274    .text.HAL_SMARTCARD_MspInit:0000000000000000 $t
     /tmp/cc8jn8xi.s:279    .text.HAL_SMARTCARD_MspInit:0000000000000000 HAL_SMARTCARD_MspInit
     /tmp/cc8jn8xi.s:286    .text.HAL_SMARTCARD_Init:0000000000000000 $t
     /tmp/cc8jn8xi.s:291    .text.HAL_SMARTCARD_Init:0000000000000000 HAL_SMARTCARD_Init
     /tmp/cc8jn8xi.s:362    .text.HAL_SMARTCARD_MspDeInit:0000000000000000 $t
     /tmp/cc8jn8xi.s:367    .text.HAL_SMARTCARD_MspDeInit:0000000000000000 HAL_SMARTCARD_MspDeInit
     /tmp/cc8jn8xi.s:374    .text.HAL_SMARTCARD_DeInit:0000000000000000 $t
     /tmp/cc8jn8xi.s:379    .text.HAL_SMARTCARD_DeInit:0000000000000000 HAL_SMARTCARD_DeInit
     /tmp/cc8jn8xi.s:403    .text.HAL_SMARTCARD_Transmit:0000000000000000 $t
     /tmp/cc8jn8xi.s:408    .text.HAL_SMARTCARD_Transmit:0000000000000000 HAL_SMARTCARD_Transmit
     /tmp/cc8jn8xi.s:497    .text.HAL_SMARTCARD_Receive:0000000000000000 $t
     /tmp/cc8jn8xi.s:502    .text.HAL_SMARTCARD_Receive:0000000000000000 HAL_SMARTCARD_Receive
     /tmp/cc8jn8xi.s:577    .text.HAL_SMARTCARD_Transmit_IT:0000000000000000 $t
     /tmp/cc8jn8xi.s:582    .text.HAL_SMARTCARD_Transmit_IT:0000000000000000 HAL_SMARTCARD_Transmit_IT
     /tmp/cc8jn8xi.s:631    .text.HAL_SMARTCARD_Receive_IT:0000000000000000 $t
     /tmp/cc8jn8xi.s:636    .text.HAL_SMARTCARD_Receive_IT:0000000000000000 HAL_SMARTCARD_Receive_IT
     /tmp/cc8jn8xi.s:681    .text.HAL_SMARTCARD_Transmit_DMA:0000000000000000 $t
     /tmp/cc8jn8xi.s:686    .text.HAL_SMARTCARD_Transmit_DMA:0000000000000000 HAL_SMARTCARD_Transmit_DMA
     /tmp/cc8jn8xi.s:749    .text.HAL_SMARTCARD_Transmit_DMA:000000000000007c $d
     /tmp/cc8jn8xi.s:1113   .text.SMARTCARD_DMAError:0000000000000000 SMARTCARD_DMAError
     /tmp/cc8jn8xi.s:753    .text.HAL_SMARTCARD_Receive_DMA:0000000000000000 $t
     /tmp/cc8jn8xi.s:758    .text.HAL_SMARTCARD_Receive_DMA:0000000000000000 HAL_SMARTCARD_Receive_DMA
     /tmp/cc8jn8xi.s:837    .text.HAL_SMARTCARD_Receive_DMA:0000000000000098 $d
     /tmp/cc8jn8xi.s:1022   .text.SMARTCARD_DMAReceiveCplt:0000000000000000 SMARTCARD_DMAReceiveCplt
     /tmp/cc8jn8xi.s:841    .text.HAL_SMARTCARD_Abort:0000000000000000 $t
     /tmp/cc8jn8xi.s:846    .text.HAL_SMARTCARD_Abort:0000000000000000 HAL_SMARTCARD_Abort
     /tmp/cc8jn8xi.s:897    .text.HAL_SMARTCARD_AbortTransmit:0000000000000000 $t
     /tmp/cc8jn8xi.s:902    .text.HAL_SMARTCARD_AbortTransmit:0000000000000000 HAL_SMARTCARD_AbortTransmit
     /tmp/cc8jn8xi.s:932    .text.HAL_SMARTCARD_AbortReceive:0000000000000000 $t
     /tmp/cc8jn8xi.s:937    .text.HAL_SMARTCARD_AbortReceive:0000000000000000 HAL_SMARTCARD_AbortReceive
     /tmp/cc8jn8xi.s:971    .text.HAL_SMARTCARD_TxCpltCallback:0000000000000000 $t
     /tmp/cc8jn8xi.s:976    .text.HAL_SMARTCARD_TxCpltCallback:0000000000000000 HAL_SMARTCARD_TxCpltCallback
     /tmp/cc8jn8xi.s:983    .text.SMARTCARD_EndTransmit_IT:0000000000000000 $t
     /tmp/cc8jn8xi.s:987    .text.SMARTCARD_EndTransmit_IT:0000000000000000 SMARTCARD_EndTransmit_IT
     /tmp/cc8jn8xi.s:1006   .text.HAL_SMARTCARD_RxCpltCallback:0000000000000000 $t
     /tmp/cc8jn8xi.s:1011   .text.HAL_SMARTCARD_RxCpltCallback:0000000000000000 HAL_SMARTCARD_RxCpltCallback
     /tmp/cc8jn8xi.s:1018   .text.SMARTCARD_DMAReceiveCplt:0000000000000000 $t
     /tmp/cc8jn8xi.s:1047   .text.SMARTCARD_Receive_IT:0000000000000000 $t
     /tmp/cc8jn8xi.s:1051   .text.SMARTCARD_Receive_IT:0000000000000000 SMARTCARD_Receive_IT
     /tmp/cc8jn8xi.s:1097   .text.HAL_SMARTCARD_ErrorCallback:0000000000000000 $t
     /tmp/cc8jn8xi.s:1102   .text.HAL_SMARTCARD_ErrorCallback:0000000000000000 HAL_SMARTCARD_ErrorCallback
     /tmp/cc8jn8xi.s:1109   .text.SMARTCARD_DMAError:0000000000000000 $t
ARM GAS  /tmp/cc8jn8xi.s 			page 31


     /tmp/cc8jn8xi.s:1150   .text.HAL_SMARTCARD_IRQHandler:0000000000000000 $t
     /tmp/cc8jn8xi.s:1155   .text.HAL_SMARTCARD_IRQHandler:0000000000000000 HAL_SMARTCARD_IRQHandler
     /tmp/cc8jn8xi.s:1282   .text.HAL_SMARTCARD_IRQHandler:0000000000000118 $d
     /tmp/cc8jn8xi.s:1289   .text.SMARTCARD_DMAAbortOnError:0000000000000000 SMARTCARD_DMAAbortOnError
     /tmp/cc8jn8xi.s:1285   .text.SMARTCARD_DMAAbortOnError:0000000000000000 $t
     /tmp/cc8jn8xi.s:1301   .text.HAL_SMARTCARD_AbortCpltCallback:0000000000000000 $t
     /tmp/cc8jn8xi.s:1306   .text.HAL_SMARTCARD_AbortCpltCallback:0000000000000000 HAL_SMARTCARD_AbortCpltCallback
     /tmp/cc8jn8xi.s:1313   .text.HAL_SMARTCARD_Abort_IT:0000000000000000 $t
     /tmp/cc8jn8xi.s:1318   .text.HAL_SMARTCARD_Abort_IT:0000000000000000 HAL_SMARTCARD_Abort_IT
     /tmp/cc8jn8xi.s:1417   .text.HAL_SMARTCARD_Abort_IT:00000000000000c0 $d
     /tmp/cc8jn8xi.s:1454   .text.SMARTCARD_DMATxAbortCallback:0000000000000000 SMARTCARD_DMATxAbortCallback
     /tmp/cc8jn8xi.s:1425   .text.SMARTCARD_DMARxAbortCallback:0000000000000000 SMARTCARD_DMARxAbortCallback
     /tmp/cc8jn8xi.s:1421   .text.SMARTCARD_DMARxAbortCallback:0000000000000000 $t
     /tmp/cc8jn8xi.s:1450   .text.SMARTCARD_DMATxAbortCallback:0000000000000000 $t
     /tmp/cc8jn8xi.s:1479   .text.HAL_SMARTCARD_AbortTransmitCpltCallback:0000000000000000 $t
     /tmp/cc8jn8xi.s:1484   .text.HAL_SMARTCARD_AbortTransmitCpltCallback:0000000000000000 HAL_SMARTCARD_AbortTransmitCpltCallback
     /tmp/cc8jn8xi.s:1491   .text.HAL_SMARTCARD_AbortTransmit_IT:0000000000000000 $t
     /tmp/cc8jn8xi.s:1496   .text.HAL_SMARTCARD_AbortTransmit_IT:0000000000000000 HAL_SMARTCARD_AbortTransmit_IT
     /tmp/cc8jn8xi.s:1542   .text.HAL_SMARTCARD_AbortTransmit_IT:000000000000005c $d
     /tmp/cc8jn8xi.s:1549   .text.SMARTCARD_DMATxOnlyAbortCallback:0000000000000000 SMARTCARD_DMATxOnlyAbortCallback
     /tmp/cc8jn8xi.s:1545   .text.SMARTCARD_DMATxOnlyAbortCallback:0000000000000000 $t
     /tmp/cc8jn8xi.s:1562   .text.HAL_SMARTCARD_AbortReceiveCpltCallback:0000000000000000 $t
     /tmp/cc8jn8xi.s:1567   .text.HAL_SMARTCARD_AbortReceiveCpltCallback:0000000000000000 HAL_SMARTCARD_AbortReceiveCpltCallback
     /tmp/cc8jn8xi.s:1574   .text.HAL_SMARTCARD_AbortReceive_IT:0000000000000000 $t
     /tmp/cc8jn8xi.s:1579   .text.HAL_SMARTCARD_AbortReceive_IT:0000000000000000 HAL_SMARTCARD_AbortReceive_IT
     /tmp/cc8jn8xi.s:1629   .text.HAL_SMARTCARD_AbortReceive_IT:0000000000000064 $d
     /tmp/cc8jn8xi.s:1636   .text.SMARTCARD_DMARxOnlyAbortCallback:0000000000000000 SMARTCARD_DMARxOnlyAbortCallback
     /tmp/cc8jn8xi.s:1632   .text.SMARTCARD_DMARxOnlyAbortCallback:0000000000000000 $t
     /tmp/cc8jn8xi.s:1649   .text.HAL_SMARTCARD_GetState:0000000000000000 $t
     /tmp/cc8jn8xi.s:1654   .text.HAL_SMARTCARD_GetState:0000000000000000 HAL_SMARTCARD_GetState
     /tmp/cc8jn8xi.s:1664   .text.HAL_SMARTCARD_GetError:0000000000000000 $t
     /tmp/cc8jn8xi.s:1669   .text.HAL_SMARTCARD_GetError:0000000000000000 HAL_SMARTCARD_GetError

UNDEFINED SYMBOLS
HAL_RCC_GetPCLK2Freq
HAL_RCC_GetPCLK1Freq
HAL_GetTick
HAL_DMA_Start_IT
HAL_DMA_Abort
HAL_DMA_Abort_IT
