ARM GAS  /tmp/ccAUnyVA.s 			page 1


   1              		.cpu cortex-m3
   2              		.eabi_attribute 20, 1	@ Tag_ABI_FP_denormal
   3              		.eabi_attribute 21, 1	@ Tag_ABI_FP_exceptions
   4              		.eabi_attribute 23, 3	@ Tag_ABI_FP_number_model
   5              		.eabi_attribute 24, 1	@ Tag_ABI_align8_needed
   6              		.eabi_attribute 25, 1	@ Tag_ABI_align8_preserved
   7              		.eabi_attribute 26, 1	@ Tag_ABI_enum_size
   8              		.eabi_attribute 30, 4	@ Tag_ABI_optimization_goals
   9              		.eabi_attribute 34, 1	@ Tag_CPU_unaligned_access
  10              		.eabi_attribute 18, 4	@ Tag_ABI_PCS_wchar_t
  11              		.file	"stm32f1xx_hal_pcd_ex.c"
  12              	@ GNU C11 (15:6.3.1+svn253039-1build1) version 6.3.1 20170620 (arm-none-eabi)
  13              	@	compiled by GNU C version 7.2.0, GMP version 6.1.2, MPFR version 4.0.1-rc1, MPC version 1.1.0, is
  14              	@ warning: MPFR header version 4.0.1-rc1 differs from library version 4.0.1.
  15              	@ GGC heuristics: --param ggc-min-expand=100 --param ggc-min-heapsize=131072
  16              	@ options passed:  -I ./inc -I ./inc/Legacy -I ../cmsisstm32f1xx/inc
  17              	@ -I ../cmsiscore/inc -imultilib thumb/v7-m -D__USES_INITFINI__
  18              	@ -D STM32F103x6 -D RUN_FROM_FLASH=1 -D __c src/stm32f1xx_hal_pcd_ex.c
  19              	@ -mcpu=cortex-m3 -mthumb -auxbase-strip bin/stm32f1xx_hal_pcd_ex.o -g
  20              	@ -gdwarf-2 -Os -Wall -fomit-frame-pointer -fverbose-asm
  21              	@ options enabled:  -faggressive-loop-optimizations -falign-jumps
  22              	@ -falign-labels -falign-loops -fauto-inc-dec -fbranch-count-reg
  23              	@ -fcaller-saves -fchkp-check-incomplete-type -fchkp-check-read
  24              	@ -fchkp-check-write -fchkp-instrument-calls -fchkp-narrow-bounds
  25              	@ -fchkp-optimize -fchkp-store-bounds -fchkp-use-static-bounds
  26              	@ -fchkp-use-static-const-bounds -fchkp-use-wrappers
  27              	@ -fcombine-stack-adjustments -fcommon -fcompare-elim -fcprop-registers
  28              	@ -fcrossjumping -fcse-follow-jumps -fdefer-pop
  29              	@ -fdelete-null-pointer-checks -fdevirtualize -fdevirtualize-speculatively
  30              	@ -fdwarf2-cfi-asm -fearly-inlining -feliminate-unused-debug-types
  31              	@ -fexpensive-optimizations -fforward-propagate -ffunction-cse -fgcse
  32              	@ -fgcse-lm -fgnu-runtime -fgnu-unique -fguess-branch-probability
  33              	@ -fhoist-adjacent-loads -fident -fif-conversion -fif-conversion2
  34              	@ -findirect-inlining -finline -finline-atomics -finline-functions
  35              	@ -finline-functions-called-once -finline-small-functions -fipa-cp
  36              	@ -fipa-cp-alignment -fipa-icf -fipa-icf-functions -fipa-icf-variables
  37              	@ -fipa-profile -fipa-pure-const -fipa-ra -fipa-reference -fipa-sra
  38              	@ -fira-hoist-pressure -fira-share-save-slots -fira-share-spill-slots
  39              	@ -fisolate-erroneous-paths-dereference -fivopts -fkeep-static-consts
  40              	@ -fleading-underscore -flifetime-dse -flra-remat -flto-odr-type-merging
  41              	@ -fmath-errno -fmerge-constants -fmerge-debug-strings
  42              	@ -fmove-loop-invariants -fomit-frame-pointer -foptimize-sibling-calls
  43              	@ -fpartial-inlining -fpeephole -fpeephole2 -fplt -fprefetch-loop-arrays
  44              	@ -freg-struct-return -freorder-blocks -freorder-functions
  45              	@ -frerun-cse-after-loop -fsched-critical-path-heuristic
  46              	@ -fsched-dep-count-heuristic -fsched-group-heuristic -fsched-interblock
  47              	@ -fsched-last-insn-heuristic -fsched-pressure -fsched-rank-heuristic
  48              	@ -fsched-spec -fsched-spec-insn-heuristic -fsched-stalled-insns-dep
  49              	@ -fschedule-insns2 -fsection-anchors -fsemantic-interposition
  50              	@ -fshow-column -fsigned-zeros -fsplit-ivs-in-unroller -fsplit-wide-types
  51              	@ -fssa-backprop -fssa-phiopt -fstdarg-opt -fstrict-aliasing
  52              	@ -fstrict-overflow -fstrict-volatile-bitfields -fsync-libcalls
  53              	@ -fthread-jumps -ftoplevel-reorder -ftrapping-math -ftree-bit-ccp
  54              	@ -ftree-builtin-call-dce -ftree-ccp -ftree-ch -ftree-coalesce-vars
  55              	@ -ftree-copy-prop -ftree-cselim -ftree-dce -ftree-dominator-opts
  56              	@ -ftree-dse -ftree-forwprop -ftree-fre -ftree-loop-if-convert
  57              	@ -ftree-loop-im -ftree-loop-ivcanon -ftree-loop-optimize
ARM GAS  /tmp/ccAUnyVA.s 			page 2


  58              	@ -ftree-parallelize-loops= -ftree-phiprop -ftree-pre -ftree-pta
  59              	@ -ftree-reassoc -ftree-scev-cprop -ftree-sink -ftree-slsr -ftree-sra
  60              	@ -ftree-switch-conversion -ftree-tail-merge -ftree-ter -ftree-vrp
  61              	@ -funit-at-a-time -fvar-tracking -fvar-tracking-assignments -fverbose-asm
  62              	@ -fzero-initialized-in-bss -masm-syntax-unified -mfix-cortex-m3-ldrd
  63              	@ -mlittle-endian -mpic-data-is-text-relative -msched-prolog -mthumb
  64              	@ -munaligned-access -mvectorize-with-neon-quad
  65              	
  66              		.text
  67              	.Ltext0:
  68              		.cfi_sections	.debug_frame
  69              		.align	1
  70              		.global	HAL_PCDEx_PMAConfig
  71              		.syntax unified
  72              		.thumb
  73              		.thumb_func
  74              		.fpu softvfp
  75              		.type	HAL_PCDEx_PMAConfig, %function
  76              	HAL_PCDEx_PMAConfig:
  77              	.LFB65:
  78              		.file 1 "src/stm32f1xx_hal_pcd_ex.c"
   1:src/stm32f1xx_hal_pcd_ex.c **** /**
   2:src/stm32f1xx_hal_pcd_ex.c ****   ******************************************************************************
   3:src/stm32f1xx_hal_pcd_ex.c ****   * @file    stm32f1xx_hal_pcd_ex.c
   4:src/stm32f1xx_hal_pcd_ex.c ****   * @author  MCD Application Team
   5:src/stm32f1xx_hal_pcd_ex.c ****   * @brief   PCD Extended HAL module driver.
   6:src/stm32f1xx_hal_pcd_ex.c ****   *          This file provides firmware functions to manage the following
   7:src/stm32f1xx_hal_pcd_ex.c ****   *          functionalities of the USB Peripheral Controller:
   8:src/stm32f1xx_hal_pcd_ex.c ****   *           + Extended features functions
   9:src/stm32f1xx_hal_pcd_ex.c ****   *
  10:src/stm32f1xx_hal_pcd_ex.c ****   ******************************************************************************
  11:src/stm32f1xx_hal_pcd_ex.c ****   * @attention
  12:src/stm32f1xx_hal_pcd_ex.c ****   *
  13:src/stm32f1xx_hal_pcd_ex.c ****   * <h2><center>&copy; Copyright (c) 2016 STMicroelectronics.
  14:src/stm32f1xx_hal_pcd_ex.c ****   * All rights reserved.</center></h2>
  15:src/stm32f1xx_hal_pcd_ex.c ****   *
  16:src/stm32f1xx_hal_pcd_ex.c ****   * This software component is licensed by ST under BSD 3-Clause license,
  17:src/stm32f1xx_hal_pcd_ex.c ****   * the "License"; You may not use this file except in compliance with the
  18:src/stm32f1xx_hal_pcd_ex.c ****   * License. You may obtain a copy of the License at:
  19:src/stm32f1xx_hal_pcd_ex.c ****   *                        opensource.org/licenses/BSD-3-Clause
  20:src/stm32f1xx_hal_pcd_ex.c ****   *
  21:src/stm32f1xx_hal_pcd_ex.c ****   ******************************************************************************
  22:src/stm32f1xx_hal_pcd_ex.c ****   */
  23:src/stm32f1xx_hal_pcd_ex.c **** 
  24:src/stm32f1xx_hal_pcd_ex.c **** /* Includes ------------------------------------------------------------------*/
  25:src/stm32f1xx_hal_pcd_ex.c **** #include "stm32f1xx_hal.h"
  26:src/stm32f1xx_hal_pcd_ex.c **** 
  27:src/stm32f1xx_hal_pcd_ex.c **** /** @addtogroup STM32F1xx_HAL_Driver
  28:src/stm32f1xx_hal_pcd_ex.c ****   * @{
  29:src/stm32f1xx_hal_pcd_ex.c ****   */
  30:src/stm32f1xx_hal_pcd_ex.c **** 
  31:src/stm32f1xx_hal_pcd_ex.c **** /** @defgroup PCDEx PCDEx
  32:src/stm32f1xx_hal_pcd_ex.c ****   * @brief PCD Extended HAL module driver
  33:src/stm32f1xx_hal_pcd_ex.c ****   * @{
  34:src/stm32f1xx_hal_pcd_ex.c ****   */
  35:src/stm32f1xx_hal_pcd_ex.c **** 
  36:src/stm32f1xx_hal_pcd_ex.c **** #ifdef HAL_PCD_MODULE_ENABLED
ARM GAS  /tmp/ccAUnyVA.s 			page 3


  37:src/stm32f1xx_hal_pcd_ex.c **** 
  38:src/stm32f1xx_hal_pcd_ex.c **** #if defined (USB) || defined (USB_OTG_FS)
  39:src/stm32f1xx_hal_pcd_ex.c **** /* Private types -------------------------------------------------------------*/
  40:src/stm32f1xx_hal_pcd_ex.c **** /* Private variables ---------------------------------------------------------*/
  41:src/stm32f1xx_hal_pcd_ex.c **** /* Private constants ---------------------------------------------------------*/
  42:src/stm32f1xx_hal_pcd_ex.c **** /* Private macros ------------------------------------------------------------*/
  43:src/stm32f1xx_hal_pcd_ex.c **** /* Private functions ---------------------------------------------------------*/
  44:src/stm32f1xx_hal_pcd_ex.c **** /* Exported functions --------------------------------------------------------*/
  45:src/stm32f1xx_hal_pcd_ex.c **** 
  46:src/stm32f1xx_hal_pcd_ex.c **** /** @defgroup PCDEx_Exported_Functions PCDEx Exported Functions
  47:src/stm32f1xx_hal_pcd_ex.c ****   * @{
  48:src/stm32f1xx_hal_pcd_ex.c ****   */
  49:src/stm32f1xx_hal_pcd_ex.c **** 
  50:src/stm32f1xx_hal_pcd_ex.c **** /** @defgroup PCDEx_Exported_Functions_Group1 Peripheral Control functions
  51:src/stm32f1xx_hal_pcd_ex.c ****   * @brief    PCDEx control functions
  52:src/stm32f1xx_hal_pcd_ex.c ****  *
  53:src/stm32f1xx_hal_pcd_ex.c **** @verbatim
  54:src/stm32f1xx_hal_pcd_ex.c ****  ===============================================================================
  55:src/stm32f1xx_hal_pcd_ex.c ****                  ##### Extended features functions #####
  56:src/stm32f1xx_hal_pcd_ex.c ****  ===============================================================================
  57:src/stm32f1xx_hal_pcd_ex.c ****     [..]  This section provides functions allowing to:
  58:src/stm32f1xx_hal_pcd_ex.c ****       (+) Update FIFO configuration
  59:src/stm32f1xx_hal_pcd_ex.c **** 
  60:src/stm32f1xx_hal_pcd_ex.c **** @endverbatim
  61:src/stm32f1xx_hal_pcd_ex.c ****   * @{
  62:src/stm32f1xx_hal_pcd_ex.c ****   */
  63:src/stm32f1xx_hal_pcd_ex.c **** #if defined (USB_OTG_FS)
  64:src/stm32f1xx_hal_pcd_ex.c **** /**
  65:src/stm32f1xx_hal_pcd_ex.c ****   * @brief  Set Tx FIFO
  66:src/stm32f1xx_hal_pcd_ex.c ****   * @param  hpcd PCD handle
  67:src/stm32f1xx_hal_pcd_ex.c ****   * @param  fifo The number of Tx fifo
  68:src/stm32f1xx_hal_pcd_ex.c ****   * @param  size Fifo size
  69:src/stm32f1xx_hal_pcd_ex.c ****   * @retval HAL status
  70:src/stm32f1xx_hal_pcd_ex.c ****   */
  71:src/stm32f1xx_hal_pcd_ex.c **** HAL_StatusTypeDef HAL_PCDEx_SetTxFiFo(PCD_HandleTypeDef *hpcd, uint8_t fifo, uint16_t size)
  72:src/stm32f1xx_hal_pcd_ex.c **** {
  73:src/stm32f1xx_hal_pcd_ex.c ****   uint8_t i;
  74:src/stm32f1xx_hal_pcd_ex.c ****   uint32_t Tx_Offset;
  75:src/stm32f1xx_hal_pcd_ex.c **** 
  76:src/stm32f1xx_hal_pcd_ex.c ****   /*  TXn min size = 16 words. (n  : Transmit FIFO index)
  77:src/stm32f1xx_hal_pcd_ex.c ****       When a TxFIFO is not used, the Configuration should be as follows:
  78:src/stm32f1xx_hal_pcd_ex.c ****           case 1 :  n > m    and Txn is not used    (n,m  : Transmit FIFO indexes)
  79:src/stm32f1xx_hal_pcd_ex.c ****          --> Txm can use the space allocated for Txn.
  80:src/stm32f1xx_hal_pcd_ex.c ****          case2  :  n < m    and Txn is not used    (n,m  : Transmit FIFO indexes)
  81:src/stm32f1xx_hal_pcd_ex.c ****          --> Txn should be configured with the minimum space of 16 words
  82:src/stm32f1xx_hal_pcd_ex.c ****      The FIFO is used optimally when used TxFIFOs are allocated in the top
  83:src/stm32f1xx_hal_pcd_ex.c ****          of the FIFO.Ex: use EP1 and EP2 as IN instead of EP1 and EP3 as IN ones.
  84:src/stm32f1xx_hal_pcd_ex.c ****      When DMA is used 3n * FIFO locations should be reserved for internal DMA registers */
  85:src/stm32f1xx_hal_pcd_ex.c **** 
  86:src/stm32f1xx_hal_pcd_ex.c ****   Tx_Offset = hpcd->Instance->GRXFSIZ;
  87:src/stm32f1xx_hal_pcd_ex.c **** 
  88:src/stm32f1xx_hal_pcd_ex.c ****   if (fifo == 0U)
  89:src/stm32f1xx_hal_pcd_ex.c ****   {
  90:src/stm32f1xx_hal_pcd_ex.c ****     hpcd->Instance->DIEPTXF0_HNPTXFSIZ = ((uint32_t)size << 16) | Tx_Offset;
  91:src/stm32f1xx_hal_pcd_ex.c ****   }
  92:src/stm32f1xx_hal_pcd_ex.c ****   else
  93:src/stm32f1xx_hal_pcd_ex.c ****   {
ARM GAS  /tmp/ccAUnyVA.s 			page 4


  94:src/stm32f1xx_hal_pcd_ex.c ****     Tx_Offset += (hpcd->Instance->DIEPTXF0_HNPTXFSIZ) >> 16;
  95:src/stm32f1xx_hal_pcd_ex.c ****     for (i = 0U; i < (fifo - 1U); i++)
  96:src/stm32f1xx_hal_pcd_ex.c ****     {
  97:src/stm32f1xx_hal_pcd_ex.c ****       Tx_Offset += (hpcd->Instance->DIEPTXF[i] >> 16);
  98:src/stm32f1xx_hal_pcd_ex.c ****     }
  99:src/stm32f1xx_hal_pcd_ex.c **** 
 100:src/stm32f1xx_hal_pcd_ex.c ****     /* Multiply Tx_Size by 2 to get higher performance */
 101:src/stm32f1xx_hal_pcd_ex.c ****     hpcd->Instance->DIEPTXF[fifo - 1U] = ((uint32_t)size << 16) | Tx_Offset;
 102:src/stm32f1xx_hal_pcd_ex.c ****   }
 103:src/stm32f1xx_hal_pcd_ex.c **** 
 104:src/stm32f1xx_hal_pcd_ex.c ****   return HAL_OK;
 105:src/stm32f1xx_hal_pcd_ex.c **** }
 106:src/stm32f1xx_hal_pcd_ex.c **** 
 107:src/stm32f1xx_hal_pcd_ex.c **** /**
 108:src/stm32f1xx_hal_pcd_ex.c ****   * @brief  Set Rx FIFO
 109:src/stm32f1xx_hal_pcd_ex.c ****   * @param  hpcd PCD handle
 110:src/stm32f1xx_hal_pcd_ex.c ****   * @param  size Size of Rx fifo
 111:src/stm32f1xx_hal_pcd_ex.c ****   * @retval HAL status
 112:src/stm32f1xx_hal_pcd_ex.c ****   */
 113:src/stm32f1xx_hal_pcd_ex.c **** HAL_StatusTypeDef HAL_PCDEx_SetRxFiFo(PCD_HandleTypeDef *hpcd, uint16_t size)
 114:src/stm32f1xx_hal_pcd_ex.c **** {
 115:src/stm32f1xx_hal_pcd_ex.c ****   hpcd->Instance->GRXFSIZ = size;
 116:src/stm32f1xx_hal_pcd_ex.c **** 
 117:src/stm32f1xx_hal_pcd_ex.c ****   return HAL_OK;
 118:src/stm32f1xx_hal_pcd_ex.c **** }
 119:src/stm32f1xx_hal_pcd_ex.c **** #endif /* defined (USB_OTG_FS) */
 120:src/stm32f1xx_hal_pcd_ex.c **** #if defined (USB)
 121:src/stm32f1xx_hal_pcd_ex.c **** /**
 122:src/stm32f1xx_hal_pcd_ex.c ****   * @brief  Configure PMA for EP
 123:src/stm32f1xx_hal_pcd_ex.c ****   * @param  hpcd  Device instance
 124:src/stm32f1xx_hal_pcd_ex.c ****   * @param  ep_addr endpoint address
 125:src/stm32f1xx_hal_pcd_ex.c ****   * @param  ep_kind endpoint Kind
 126:src/stm32f1xx_hal_pcd_ex.c ****   *                  USB_SNG_BUF: Single Buffer used
 127:src/stm32f1xx_hal_pcd_ex.c ****   *                  USB_DBL_BUF: Double Buffer used
 128:src/stm32f1xx_hal_pcd_ex.c ****   * @param  pmaadress: EP address in The PMA: In case of single buffer endpoint
 129:src/stm32f1xx_hal_pcd_ex.c ****   *                   this parameter is 16-bit value providing the address
 130:src/stm32f1xx_hal_pcd_ex.c ****   *                   in PMA allocated to endpoint.
 131:src/stm32f1xx_hal_pcd_ex.c ****   *                   In case of double buffer endpoint this parameter
 132:src/stm32f1xx_hal_pcd_ex.c ****   *                   is a 32-bit value providing the endpoint buffer 0 address
 133:src/stm32f1xx_hal_pcd_ex.c ****   *                   in the LSB part of 32-bit value and endpoint buffer 1 address
 134:src/stm32f1xx_hal_pcd_ex.c ****   *                   in the MSB part of 32-bit value.
 135:src/stm32f1xx_hal_pcd_ex.c ****   * @retval HAL status
 136:src/stm32f1xx_hal_pcd_ex.c ****   */
 137:src/stm32f1xx_hal_pcd_ex.c **** 
 138:src/stm32f1xx_hal_pcd_ex.c **** HAL_StatusTypeDef  HAL_PCDEx_PMAConfig(PCD_HandleTypeDef *hpcd,
 139:src/stm32f1xx_hal_pcd_ex.c ****                                        uint16_t ep_addr,
 140:src/stm32f1xx_hal_pcd_ex.c ****                                        uint16_t ep_kind,
 141:src/stm32f1xx_hal_pcd_ex.c ****                                        uint32_t pmaadress)
 142:src/stm32f1xx_hal_pcd_ex.c **** {
  79              		.loc 1 142 0
  80              		.cfi_startproc
  81              		@ args = 0, pretend = 0, frame = 0
  82              		@ frame_needed = 0, uses_anonymous_args = 0
  83              		@ link register save eliminated.
  84              	.LVL0:
 143:src/stm32f1xx_hal_pcd_ex.c ****   PCD_EPTypeDef *ep;
 144:src/stm32f1xx_hal_pcd_ex.c **** 
ARM GAS  /tmp/ccAUnyVA.s 			page 5


 145:src/stm32f1xx_hal_pcd_ex.c ****   /* initialize ep structure*/
 146:src/stm32f1xx_hal_pcd_ex.c ****   if ((0x80U & ep_addr) == 0x80U)
  85              		.loc 1 146 0
  86 0000 11F0800F 		tst	r1, #128	@ ep_addr,
 147:src/stm32f1xx_hal_pcd_ex.c ****   {
 148:src/stm32f1xx_hal_pcd_ex.c ****     ep = &hpcd->IN_ep[ep_addr & EP_ADDR_MSK];
  87              		.loc 1 148 0
  88 0004 1BBF     		ittet	ne
  89 0006 01F00701 		andne	r1, r1, #7	@ tmp132, ep_addr,
  90              	.LVL1:
  91 000a 00EB4110 		addne	r0, r0, r1, lsl #5	@ tmp134, hpcd, tmp132,
  92              	.LVL2:
 149:src/stm32f1xx_hal_pcd_ex.c ****   }
 150:src/stm32f1xx_hal_pcd_ex.c ****   else
 151:src/stm32f1xx_hal_pcd_ex.c ****   {
 152:src/stm32f1xx_hal_pcd_ex.c ****     ep = &hpcd->OUT_ep[ep_addr];
  93              		.loc 1 152 0
  94 000e 00EB4110 		addeq	r0, r0, r1, lsl #5	@ tmp136, hpcd, ep_addr,
 148:src/stm32f1xx_hal_pcd_ex.c ****   }
  95              		.loc 1 148 0
  96 0012 2830     		addne	r0, r0, #40	@ ep, tmp134,
  97              		.loc 1 152 0
  98 0014 08BF     		it	eq
  99 0016 00F59470 		addeq	r0, r0, #296	@ ep, tmp136,
 100              	.LVL3:
 153:src/stm32f1xx_hal_pcd_ex.c ****   }
 154:src/stm32f1xx_hal_pcd_ex.c **** 
 155:src/stm32f1xx_hal_pcd_ex.c ****   /* Here we check if the endpoint is single or double Buffer*/
 156:src/stm32f1xx_hal_pcd_ex.c ****   if (ep_kind == PCD_SNG_BUF)
 101              		.loc 1 156 0
 102 001a 1AB9     		cbnz	r2, .L4	@ ep_kind,
 157:src/stm32f1xx_hal_pcd_ex.c ****   {
 158:src/stm32f1xx_hal_pcd_ex.c ****     /* Single Buffer */
 159:src/stm32f1xx_hal_pcd_ex.c ****     ep->doublebuffer = 0U;
 103              		.loc 1 159 0
 104 001c 0273     		strb	r2, [r0, #12]	@ ep_kind, ep_1->doublebuffer
 160:src/stm32f1xx_hal_pcd_ex.c ****     /* Configure the PMA */
 161:src/stm32f1xx_hal_pcd_ex.c ****     ep->pmaadress = (uint16_t)pmaadress;
 105              		.loc 1 161 0
 106 001e C380     		strh	r3, [r0, #6]	@ movhi	@ pmaadress, ep_1->pmaadress
 107              	.LVL4:
 108              	.L5:
 162:src/stm32f1xx_hal_pcd_ex.c ****   }
 163:src/stm32f1xx_hal_pcd_ex.c ****   else /* USB_DBL_BUF */
 164:src/stm32f1xx_hal_pcd_ex.c ****   {
 165:src/stm32f1xx_hal_pcd_ex.c ****     /* Double Buffer Endpoint */
 166:src/stm32f1xx_hal_pcd_ex.c ****     ep->doublebuffer = 1U;
 167:src/stm32f1xx_hal_pcd_ex.c ****     /* Configure the PMA */
 168:src/stm32f1xx_hal_pcd_ex.c ****     ep->pmaaddr0 = (uint16_t)(pmaadress & 0xFFFFU);
 169:src/stm32f1xx_hal_pcd_ex.c ****     ep->pmaaddr1 = (uint16_t)((pmaadress & 0xFFFF0000U) >> 16);
 170:src/stm32f1xx_hal_pcd_ex.c ****   }
 171:src/stm32f1xx_hal_pcd_ex.c **** 
 172:src/stm32f1xx_hal_pcd_ex.c ****   return HAL_OK;
 173:src/stm32f1xx_hal_pcd_ex.c **** }
 109              		.loc 1 173 0
 110 0020 0020     		movs	r0, #0	@,
 111              	.LVL5:
ARM GAS  /tmp/ccAUnyVA.s 			page 6


 112 0022 7047     		bx	lr	@
 113              	.LVL6:
 114              	.L4:
 166:src/stm32f1xx_hal_pcd_ex.c ****     /* Configure the PMA */
 115              		.loc 1 166 0
 116 0024 0122     		movs	r2, #1	@ tmp140,
 117              	.LVL7:
 168:src/stm32f1xx_hal_pcd_ex.c ****     ep->pmaaddr1 = (uint16_t)((pmaadress & 0xFFFF0000U) >> 16);
 118              		.loc 1 168 0
 119 0026 0381     		strh	r3, [r0, #8]	@ movhi	@ pmaadress, ep_1->pmaaddr0
 169:src/stm32f1xx_hal_pcd_ex.c ****   }
 120              		.loc 1 169 0
 121 0028 1B0C     		lsrs	r3, r3, #16	@ tmp143, pmaadress,
 122              	.LVL8:
 166:src/stm32f1xx_hal_pcd_ex.c ****     /* Configure the PMA */
 123              		.loc 1 166 0
 124 002a 0273     		strb	r2, [r0, #12]	@ tmp140, ep_1->doublebuffer
 169:src/stm32f1xx_hal_pcd_ex.c ****   }
 125              		.loc 1 169 0
 126 002c 4381     		strh	r3, [r0, #10]	@ movhi	@ tmp143, ep_1->pmaaddr1
 127 002e F7E7     		b	.L5	@
 128              		.cfi_endproc
 129              	.LFE65:
 130              		.size	HAL_PCDEx_PMAConfig, .-HAL_PCDEx_PMAConfig
 131              		.align	1
 132              		.weak	HAL_PCDEx_SetConnectionState
 133              		.syntax unified
 134              		.thumb
 135              		.thumb_func
 136              		.fpu softvfp
 137              		.type	HAL_PCDEx_SetConnectionState, %function
 138              	HAL_PCDEx_SetConnectionState:
 139              	.LFB72:
 140              		.cfi_startproc
 141              		@ args = 0, pretend = 0, frame = 0
 142              		@ frame_needed = 0, uses_anonymous_args = 0
 143              		@ link register save eliminated.
 144 0030 7047     		bx	lr	@
 145              		.cfi_endproc
 146              	.LFE72:
 147              		.size	HAL_PCDEx_SetConnectionState, .-HAL_PCDEx_SetConnectionState
 148              		.align	1
 149              		.weak	HAL_PCDEx_LPM_Callback
 150              		.syntax unified
 151              		.thumb
 152              		.thumb_func
 153              		.fpu softvfp
 154              		.type	HAL_PCDEx_LPM_Callback, %function
 155              	HAL_PCDEx_LPM_Callback:
 156              	.LFB70:
 157              		.cfi_startproc
 158              		@ args = 0, pretend = 0, frame = 0
 159              		@ frame_needed = 0, uses_anonymous_args = 0
 160              		@ link register save eliminated.
 161 0032 7047     		bx	lr	@
 162              		.cfi_endproc
 163              	.LFE70:
ARM GAS  /tmp/ccAUnyVA.s 			page 7


 164              		.size	HAL_PCDEx_LPM_Callback, .-HAL_PCDEx_LPM_Callback
 165              		.align	1
 166              		.weak	HAL_PCDEx_BCD_Callback
 167              		.syntax unified
 168              		.thumb
 169              		.thumb_func
 170              		.fpu softvfp
 171              		.type	HAL_PCDEx_BCD_Callback, %function
 172              	HAL_PCDEx_BCD_Callback:
 173              	.LFB68:
 174:src/stm32f1xx_hal_pcd_ex.c **** 
 175:src/stm32f1xx_hal_pcd_ex.c **** /**
 176:src/stm32f1xx_hal_pcd_ex.c ****   * @brief  Software Device Connection,
 177:src/stm32f1xx_hal_pcd_ex.c ****   *         this function is not required by USB OTG FS peripheral, it is used
 178:src/stm32f1xx_hal_pcd_ex.c ****   *         only by USB Device FS peripheral.
 179:src/stm32f1xx_hal_pcd_ex.c ****   * @param  hpcd: PCD handle
 180:src/stm32f1xx_hal_pcd_ex.c ****   * @param  state: connection state (0 : disconnected / 1: connected)
 181:src/stm32f1xx_hal_pcd_ex.c ****   * @retval None
 182:src/stm32f1xx_hal_pcd_ex.c ****   */
 183:src/stm32f1xx_hal_pcd_ex.c **** __weak void HAL_PCDEx_SetConnectionState(PCD_HandleTypeDef *hpcd, uint8_t state)
 184:src/stm32f1xx_hal_pcd_ex.c **** {
 185:src/stm32f1xx_hal_pcd_ex.c ****   /* Prevent unused argument(s) compilation warning */
 186:src/stm32f1xx_hal_pcd_ex.c ****   UNUSED(hpcd);
 187:src/stm32f1xx_hal_pcd_ex.c ****   UNUSED(state);
 188:src/stm32f1xx_hal_pcd_ex.c ****   /* NOTE : This function Should not be modified, when the callback is needed,
 189:src/stm32f1xx_hal_pcd_ex.c ****             the HAL_PCDEx_SetConnectionState could be implemented in the user file
 190:src/stm32f1xx_hal_pcd_ex.c ****    */
 191:src/stm32f1xx_hal_pcd_ex.c **** }
 192:src/stm32f1xx_hal_pcd_ex.c **** #endif /* defined (USB) */
 193:src/stm32f1xx_hal_pcd_ex.c **** 
 194:src/stm32f1xx_hal_pcd_ex.c **** /**
 195:src/stm32f1xx_hal_pcd_ex.c ****   * @brief  Send LPM message to user layer callback.
 196:src/stm32f1xx_hal_pcd_ex.c ****   * @param  hpcd PCD handle
 197:src/stm32f1xx_hal_pcd_ex.c ****   * @param  msg LPM message
 198:src/stm32f1xx_hal_pcd_ex.c ****   * @retval HAL status
 199:src/stm32f1xx_hal_pcd_ex.c ****   */
 200:src/stm32f1xx_hal_pcd_ex.c **** __weak void HAL_PCDEx_LPM_Callback(PCD_HandleTypeDef *hpcd, PCD_LPM_MsgTypeDef msg)
 201:src/stm32f1xx_hal_pcd_ex.c **** {
 202:src/stm32f1xx_hal_pcd_ex.c ****   /* Prevent unused argument(s) compilation warning */
 203:src/stm32f1xx_hal_pcd_ex.c ****   UNUSED(hpcd);
 204:src/stm32f1xx_hal_pcd_ex.c ****   UNUSED(msg);
 205:src/stm32f1xx_hal_pcd_ex.c **** 
 206:src/stm32f1xx_hal_pcd_ex.c ****   /* NOTE : This function should not be modified, when the callback is needed,
 207:src/stm32f1xx_hal_pcd_ex.c ****             the HAL_PCDEx_LPM_Callback could be implemented in the user file
 208:src/stm32f1xx_hal_pcd_ex.c ****    */
 209:src/stm32f1xx_hal_pcd_ex.c **** }
 210:src/stm32f1xx_hal_pcd_ex.c **** 
 211:src/stm32f1xx_hal_pcd_ex.c **** /**
 212:src/stm32f1xx_hal_pcd_ex.c ****   * @brief  Send BatteryCharging message to user layer callback.
 213:src/stm32f1xx_hal_pcd_ex.c ****   * @param  hpcd PCD handle
 214:src/stm32f1xx_hal_pcd_ex.c ****   * @param  msg LPM message
 215:src/stm32f1xx_hal_pcd_ex.c ****   * @retval HAL status
 216:src/stm32f1xx_hal_pcd_ex.c ****   */
 217:src/stm32f1xx_hal_pcd_ex.c **** __weak void HAL_PCDEx_BCD_Callback(PCD_HandleTypeDef *hpcd, PCD_BCD_MsgTypeDef msg)
 218:src/stm32f1xx_hal_pcd_ex.c **** {
 174              		.loc 1 218 0
 175              		.cfi_startproc
ARM GAS  /tmp/ccAUnyVA.s 			page 8


 176              		@ args = 0, pretend = 0, frame = 0
 177              		@ frame_needed = 0, uses_anonymous_args = 0
 178              		@ link register save eliminated.
 179              	.LVL9:
 180 0034 7047     		bx	lr	@
 181              		.cfi_endproc
 182              	.LFE68:
 183              		.size	HAL_PCDEx_BCD_Callback, .-HAL_PCDEx_BCD_Callback
 184              	.Letext0:
 185              		.file 2 "/usr/include/newlib/machine/_default_types.h"
 186              		.file 3 "/usr/include/newlib/sys/_stdint.h"
 187              		.file 4 "../cmsiscore/inc/core_cm3.h"
 188              		.file 5 "../cmsisstm32f1xx/inc/system_stm32f1xx.h"
 189              		.file 6 "../cmsisstm32f1xx/inc/stm32f103x6.h"
 190              		.file 7 "./inc/stm32f1xx_hal_def.h"
 191              		.file 8 "./inc/stm32f1xx_ll_usb.h"
 192              		.file 9 "./inc/stm32f1xx_hal_pcd.h"
 193              		.file 10 "./inc/stm32f1xx_hal.h"
 194              		.section	.debug_info,"",%progbits
 195              	.Ldebug_info0:
 196 0000 DC070000 		.4byte	0x7dc
 197 0004 0200     		.2byte	0x2
 198 0006 00000000 		.4byte	.Ldebug_abbrev0
 199 000a 04       		.byte	0x4
 200 000b 01       		.uleb128 0x1
 201 000c FF010000 		.4byte	.LASF130
 202 0010 0C       		.byte	0xc
 203 0011 EC040000 		.4byte	.LASF131
 204 0015 89040000 		.4byte	.LASF132
 205 0019 00000000 		.4byte	.Ltext0
 206 001d 36000000 		.4byte	.Letext0
 207 0021 00000000 		.4byte	.Ldebug_line0
 208 0025 02       		.uleb128 0x2
 209 0026 01       		.byte	0x1
 210 0027 06       		.byte	0x6
 211 0028 12010000 		.4byte	.LASF0
 212 002c 03       		.uleb128 0x3
 213 002d 62000000 		.4byte	.LASF3
 214 0031 02       		.byte	0x2
 215 0032 1D       		.byte	0x1d
 216 0033 37000000 		.4byte	0x37
 217 0037 02       		.uleb128 0x2
 218 0038 01       		.byte	0x1
 219 0039 08       		.byte	0x8
 220 003a BD040000 		.4byte	.LASF1
 221 003e 02       		.uleb128 0x2
 222 003f 02       		.byte	0x2
 223 0040 05       		.byte	0x5
 224 0041 E2040000 		.4byte	.LASF2
 225 0045 03       		.uleb128 0x3
 226 0046 9D010000 		.4byte	.LASF4
 227 004a 02       		.byte	0x2
 228 004b 2B       		.byte	0x2b
 229 004c 50000000 		.4byte	0x50
 230 0050 02       		.uleb128 0x2
 231 0051 02       		.byte	0x2
 232 0052 07       		.byte	0x7
ARM GAS  /tmp/ccAUnyVA.s 			page 9


 233 0053 E3020000 		.4byte	.LASF5
 234 0057 03       		.uleb128 0x3
 235 0058 F5050000 		.4byte	.LASF6
 236 005c 02       		.byte	0x2
 237 005d 3F       		.byte	0x3f
 238 005e 62000000 		.4byte	0x62
 239 0062 02       		.uleb128 0x2
 240 0063 04       		.byte	0x4
 241 0064 05       		.byte	0x5
 242 0065 48010000 		.4byte	.LASF7
 243 0069 03       		.uleb128 0x3
 244 006a AD010000 		.4byte	.LASF8
 245 006e 02       		.byte	0x2
 246 006f 41       		.byte	0x41
 247 0070 74000000 		.4byte	0x74
 248 0074 02       		.uleb128 0x2
 249 0075 04       		.byte	0x4
 250 0076 07       		.byte	0x7
 251 0077 96020000 		.4byte	.LASF9
 252 007b 02       		.uleb128 0x2
 253 007c 08       		.byte	0x8
 254 007d 05       		.byte	0x5
 255 007e 04010000 		.4byte	.LASF10
 256 0082 02       		.uleb128 0x2
 257 0083 08       		.byte	0x8
 258 0084 07       		.byte	0x7
 259 0085 97000000 		.4byte	.LASF11
 260 0089 04       		.uleb128 0x4
 261 008a 04       		.byte	0x4
 262 008b 05       		.byte	0x5
 263 008c 696E7400 		.ascii	"int\000"
 264 0090 02       		.uleb128 0x2
 265 0091 04       		.byte	0x4
 266 0092 07       		.byte	0x7
 267 0093 F2010000 		.4byte	.LASF12
 268 0097 03       		.uleb128 0x3
 269 0098 94060000 		.4byte	.LASF13
 270 009c 03       		.byte	0x3
 271 009d 18       		.byte	0x18
 272 009e 2C000000 		.4byte	0x2c
 273 00a2 05       		.uleb128 0x5
 274 00a3 97000000 		.4byte	0x97
 275 00a7 06       		.uleb128 0x6
 276 00a8 97000000 		.4byte	0x97
 277 00ac 03       		.uleb128 0x3
 278 00ad 74010000 		.4byte	.LASF14
 279 00b1 03       		.byte	0x3
 280 00b2 24       		.byte	0x24
 281 00b3 45000000 		.4byte	0x45
 282 00b7 05       		.uleb128 0x5
 283 00b8 AC000000 		.4byte	0xac
 284 00bc 03       		.uleb128 0x3
 285 00bd B5040000 		.4byte	.LASF15
 286 00c1 03       		.byte	0x3
 287 00c2 2C       		.byte	0x2c
 288 00c3 57000000 		.4byte	0x57
 289 00c7 05       		.uleb128 0x5
ARM GAS  /tmp/ccAUnyVA.s 			page 10


 290 00c8 BC000000 		.4byte	0xbc
 291 00cc 03       		.uleb128 0x3
 292 00cd 84050000 		.4byte	.LASF16
 293 00d1 03       		.byte	0x3
 294 00d2 30       		.byte	0x30
 295 00d3 69000000 		.4byte	0x69
 296 00d7 05       		.uleb128 0x5
 297 00d8 CC000000 		.4byte	0xcc
 298 00dc 02       		.uleb128 0x2
 299 00dd 04       		.byte	0x4
 300 00de 07       		.byte	0x7
 301 00df B6030000 		.4byte	.LASF17
 302 00e3 07       		.uleb128 0x7
 303 00e4 D5040000 		.4byte	.LASF18
 304 00e8 04       		.byte	0x4
 305 00e9 4807     		.2byte	0x748
 306 00eb C7000000 		.4byte	0xc7
 307 00ef 01       		.byte	0x1
 308 00f0 01       		.byte	0x1
 309 00f1 08       		.uleb128 0x8
 310 00f2 09040000 		.4byte	.LASF19
 311 00f6 05       		.byte	0x5
 312 00f7 33       		.byte	0x33
 313 00f8 CC000000 		.4byte	0xcc
 314 00fc 01       		.byte	0x1
 315 00fd 01       		.byte	0x1
 316 00fe 09       		.uleb128 0x9
 317 00ff A7000000 		.4byte	0xa7
 318 0103 0E010000 		.4byte	0x10e
 319 0107 0A       		.uleb128 0xa
 320 0108 DC000000 		.4byte	0xdc
 321 010c 0F       		.byte	0xf
 322 010d 00       		.byte	0
 323 010e 06       		.uleb128 0x6
 324 010f FE000000 		.4byte	0xfe
 325 0113 08       		.uleb128 0x8
 326 0114 60030000 		.4byte	.LASF20
 327 0118 05       		.byte	0x5
 328 0119 34       		.byte	0x34
 329 011a 0E010000 		.4byte	0x10e
 330 011e 01       		.byte	0x1
 331 011f 01       		.byte	0x1
 332 0120 09       		.uleb128 0x9
 333 0121 A7000000 		.4byte	0xa7
 334 0125 30010000 		.4byte	0x130
 335 0129 0A       		.uleb128 0xa
 336 012a DC000000 		.4byte	0xdc
 337 012e 07       		.byte	0x7
 338 012f 00       		.byte	0
 339 0130 06       		.uleb128 0x6
 340 0131 20010000 		.4byte	0x120
 341 0135 08       		.uleb128 0x8
 342 0136 75000000 		.4byte	.LASF21
 343 013a 05       		.byte	0x5
 344 013b 35       		.byte	0x35
 345 013c 30010000 		.4byte	0x130
 346 0140 01       		.byte	0x1
ARM GAS  /tmp/ccAUnyVA.s 			page 11


 347 0141 01       		.byte	0x1
 348 0142 09       		.uleb128 0x9
 349 0143 CC000000 		.4byte	0xcc
 350 0147 52010000 		.4byte	0x152
 351 014b 0A       		.uleb128 0xa
 352 014c DC000000 		.4byte	0xdc
 353 0150 0B       		.byte	0xb
 354 0151 00       		.byte	0
 355 0152 0B       		.uleb128 0xb
 356 0153 54       		.byte	0x54
 357 0154 06       		.byte	0x6
 358 0155 0502     		.2byte	0x205
 359 0157 E2020000 		.4byte	0x2e2
 360 015b 0C       		.uleb128 0xc
 361 015c 6E060000 		.4byte	.LASF22
 362 0160 06       		.byte	0x6
 363 0161 0702     		.2byte	0x207
 364 0163 B7000000 		.4byte	0xb7
 365 0167 02       		.byte	0x2
 366 0168 23       		.byte	0x23
 367 0169 00       		.uleb128 0
 368 016a 0C       		.uleb128 0xc
 369 016b 23040000 		.4byte	.LASF23
 370 016f 06       		.byte	0x6
 371 0170 0802     		.2byte	0x208
 372 0172 B7000000 		.4byte	0xb7
 373 0176 02       		.byte	0x2
 374 0177 23       		.byte	0x23
 375 0178 02       		.uleb128 0x2
 376 0179 0C       		.uleb128 0xc
 377 017a 2F000000 		.4byte	.LASF24
 378 017e 06       		.byte	0x6
 379 017f 0902     		.2byte	0x209
 380 0181 B7000000 		.4byte	0xb7
 381 0185 02       		.byte	0x2
 382 0186 23       		.byte	0x23
 383 0187 04       		.uleb128 0x4
 384 0188 0C       		.uleb128 0xc
 385 0189 2D040000 		.4byte	.LASF25
 386 018d 06       		.byte	0x6
 387 018e 0A02     		.2byte	0x20a
 388 0190 B7000000 		.4byte	0xb7
 389 0194 02       		.byte	0x2
 390 0195 23       		.byte	0x23
 391 0196 06       		.uleb128 0x6
 392 0197 0C       		.uleb128 0xc
 393 0198 1E010000 		.4byte	.LASF26
 394 019c 06       		.byte	0x6
 395 019d 0B02     		.2byte	0x20b
 396 019f B7000000 		.4byte	0xb7
 397 01a3 02       		.byte	0x2
 398 01a4 23       		.byte	0x23
 399 01a5 08       		.uleb128 0x8
 400 01a6 0C       		.uleb128 0xc
 401 01a7 37040000 		.4byte	.LASF27
 402 01ab 06       		.byte	0x6
 403 01ac 0C02     		.2byte	0x20c
ARM GAS  /tmp/ccAUnyVA.s 			page 12


 404 01ae B7000000 		.4byte	0xb7
 405 01b2 02       		.byte	0x2
 406 01b3 23       		.byte	0x23
 407 01b4 0A       		.uleb128 0xa
 408 01b5 0C       		.uleb128 0xc
 409 01b6 B8010000 		.4byte	.LASF28
 410 01ba 06       		.byte	0x6
 411 01bb 0D02     		.2byte	0x20d
 412 01bd B7000000 		.4byte	0xb7
 413 01c1 02       		.byte	0x2
 414 01c2 23       		.byte	0x23
 415 01c3 0C       		.uleb128 0xc
 416 01c4 0C       		.uleb128 0xc
 417 01c5 7A050000 		.4byte	.LASF29
 418 01c9 06       		.byte	0x6
 419 01ca 0E02     		.2byte	0x20e
 420 01cc B7000000 		.4byte	0xb7
 421 01d0 02       		.byte	0x2
 422 01d1 23       		.byte	0x23
 423 01d2 0E       		.uleb128 0xe
 424 01d3 0C       		.uleb128 0xc
 425 01d4 F9000000 		.4byte	.LASF30
 426 01d8 06       		.byte	0x6
 427 01d9 0F02     		.2byte	0x20f
 428 01db B7000000 		.4byte	0xb7
 429 01df 02       		.byte	0x2
 430 01e0 23       		.byte	0x23
 431 01e1 10       		.uleb128 0x10
 432 01e2 0C       		.uleb128 0xc
 433 01e3 4D040000 		.4byte	.LASF31
 434 01e7 06       		.byte	0x6
 435 01e8 1002     		.2byte	0x210
 436 01ea B7000000 		.4byte	0xb7
 437 01ee 02       		.byte	0x2
 438 01ef 23       		.byte	0x23
 439 01f0 12       		.uleb128 0x12
 440 01f1 0C       		.uleb128 0xc
 441 01f2 DC030000 		.4byte	.LASF32
 442 01f6 06       		.byte	0x6
 443 01f7 1102     		.2byte	0x211
 444 01f9 B7000000 		.4byte	0xb7
 445 01fd 02       		.byte	0x2
 446 01fe 23       		.byte	0x23
 447 01ff 14       		.uleb128 0x14
 448 0200 0C       		.uleb128 0xc
 449 0201 57040000 		.4byte	.LASF33
 450 0205 06       		.byte	0x6
 451 0206 1202     		.2byte	0x212
 452 0208 B7000000 		.4byte	0xb7
 453 020c 02       		.byte	0x2
 454 020d 23       		.byte	0x23
 455 020e 16       		.uleb128 0x16
 456 020f 0C       		.uleb128 0xc
 457 0210 07050000 		.4byte	.LASF34
 458 0214 06       		.byte	0x6
 459 0215 1302     		.2byte	0x213
 460 0217 B7000000 		.4byte	0xb7
ARM GAS  /tmp/ccAUnyVA.s 			page 13


 461 021b 02       		.byte	0x2
 462 021c 23       		.byte	0x23
 463 021d 18       		.uleb128 0x18
 464 021e 0C       		.uleb128 0xc
 465 021f 61040000 		.4byte	.LASF35
 466 0223 06       		.byte	0x6
 467 0224 1402     		.2byte	0x214
 468 0226 B7000000 		.4byte	0xb7
 469 022a 02       		.byte	0x2
 470 022b 23       		.byte	0x23
 471 022c 1A       		.uleb128 0x1a
 472 022d 0C       		.uleb128 0xc
 473 022e 54020000 		.4byte	.LASF36
 474 0232 06       		.byte	0x6
 475 0233 1502     		.2byte	0x215
 476 0235 B7000000 		.4byte	0xb7
 477 0239 02       		.byte	0x2
 478 023a 23       		.byte	0x23
 479 023b 1C       		.uleb128 0x1c
 480 023c 0C       		.uleb128 0xc
 481 023d 6B040000 		.4byte	.LASF37
 482 0241 06       		.byte	0x6
 483 0242 1602     		.2byte	0x216
 484 0244 F2020000 		.4byte	0x2f2
 485 0248 02       		.byte	0x2
 486 0249 23       		.byte	0x23
 487 024a 1E       		.uleb128 0x1e
 488 024b 0C       		.uleb128 0xc
 489 024c 64010000 		.4byte	.LASF38
 490 0250 06       		.byte	0x6
 491 0251 1702     		.2byte	0x217
 492 0253 B7000000 		.4byte	0xb7
 493 0257 02       		.byte	0x2
 494 0258 23       		.byte	0x23
 495 0259 40       		.uleb128 0x40
 496 025a 0C       		.uleb128 0xc
 497 025b 75040000 		.4byte	.LASF39
 498 025f 06       		.byte	0x6
 499 0260 1802     		.2byte	0x218
 500 0262 B7000000 		.4byte	0xb7
 501 0266 02       		.byte	0x2
 502 0267 23       		.byte	0x23
 503 0268 42       		.uleb128 0x42
 504 0269 0C       		.uleb128 0xc
 505 026a 2D010000 		.4byte	.LASF40
 506 026e 06       		.byte	0x6
 507 026f 1902     		.2byte	0x219
 508 0271 B7000000 		.4byte	0xb7
 509 0275 02       		.byte	0x2
 510 0276 23       		.byte	0x23
 511 0277 44       		.uleb128 0x44
 512 0278 0C       		.uleb128 0xc
 513 0279 7F040000 		.4byte	.LASF41
 514 027d 06       		.byte	0x6
 515 027e 1A02     		.2byte	0x21a
 516 0280 B7000000 		.4byte	0xb7
 517 0284 02       		.byte	0x2
ARM GAS  /tmp/ccAUnyVA.s 			page 14


 518 0285 23       		.byte	0x23
 519 0286 46       		.uleb128 0x46
 520 0287 0D       		.uleb128 0xd
 521 0288 464E5200 		.ascii	"FNR\000"
 522 028c 06       		.byte	0x6
 523 028d 1B02     		.2byte	0x21b
 524 028f B7000000 		.4byte	0xb7
 525 0293 02       		.byte	0x2
 526 0294 23       		.byte	0x23
 527 0295 48       		.uleb128 0x48
 528 0296 0C       		.uleb128 0xc
 529 0297 B4050000 		.4byte	.LASF42
 530 029b 06       		.byte	0x6
 531 029c 1C02     		.2byte	0x21c
 532 029e B7000000 		.4byte	0xb7
 533 02a2 02       		.byte	0x2
 534 02a3 23       		.byte	0x23
 535 02a4 4A       		.uleb128 0x4a
 536 02a5 0C       		.uleb128 0xc
 537 02a6 2B060000 		.4byte	.LASF43
 538 02aa 06       		.byte	0x6
 539 02ab 1D02     		.2byte	0x21d
 540 02ad B7000000 		.4byte	0xb7
 541 02b1 02       		.byte	0x2
 542 02b2 23       		.byte	0x23
 543 02b3 4C       		.uleb128 0x4c
 544 02b4 0C       		.uleb128 0xc
 545 02b5 BE050000 		.4byte	.LASF44
 546 02b9 06       		.byte	0x6
 547 02ba 1E02     		.2byte	0x21e
 548 02bc B7000000 		.4byte	0xb7
 549 02c0 02       		.byte	0x2
 550 02c1 23       		.byte	0x23
 551 02c2 4E       		.uleb128 0x4e
 552 02c3 0C       		.uleb128 0xc
 553 02c4 EB010000 		.4byte	.LASF45
 554 02c8 06       		.byte	0x6
 555 02c9 1F02     		.2byte	0x21f
 556 02cb B7000000 		.4byte	0xb7
 557 02cf 02       		.byte	0x2
 558 02d0 23       		.byte	0x23
 559 02d1 50       		.uleb128 0x50
 560 02d2 0C       		.uleb128 0xc
 561 02d3 CB040000 		.4byte	.LASF46
 562 02d7 06       		.byte	0x6
 563 02d8 2002     		.2byte	0x220
 564 02da B7000000 		.4byte	0xb7
 565 02de 02       		.byte	0x2
 566 02df 23       		.byte	0x23
 567 02e0 52       		.uleb128 0x52
 568 02e1 00       		.byte	0
 569 02e2 09       		.uleb128 0x9
 570 02e3 B7000000 		.4byte	0xb7
 571 02e7 F2020000 		.4byte	0x2f2
 572 02eb 0A       		.uleb128 0xa
 573 02ec DC000000 		.4byte	0xdc
 574 02f0 10       		.byte	0x10
ARM GAS  /tmp/ccAUnyVA.s 			page 15


 575 02f1 00       		.byte	0
 576 02f2 05       		.uleb128 0x5
 577 02f3 E2020000 		.4byte	0x2e2
 578 02f7 0E       		.uleb128 0xe
 579 02f8 CC060000 		.4byte	.LASF47
 580 02fc 06       		.byte	0x6
 581 02fd 2102     		.2byte	0x221
 582 02ff 52010000 		.4byte	0x152
 583 0303 02       		.uleb128 0x2
 584 0304 08       		.byte	0x8
 585 0305 04       		.byte	0x4
 586 0306 97050000 		.4byte	.LASF48
 587 030a 0F       		.uleb128 0xf
 588 030b 01       		.byte	0x1
 589 030c 37000000 		.4byte	0x37
 590 0310 07       		.byte	0x7
 591 0311 2A       		.byte	0x2a
 592 0312 2F030000 		.4byte	0x32f
 593 0316 10       		.uleb128 0x10
 594 0317 BB020000 		.4byte	.LASF49
 595 031b 00       		.byte	0
 596 031c 10       		.uleb128 0x10
 597 031d 8D050000 		.4byte	.LASF50
 598 0321 01       		.byte	0x1
 599 0322 10       		.uleb128 0x10
 600 0323 6C000000 		.4byte	.LASF51
 601 0327 02       		.byte	0x2
 602 0328 10       		.uleb128 0x10
 603 0329 D1010000 		.4byte	.LASF52
 604 032d 03       		.byte	0x3
 605 032e 00       		.byte	0
 606 032f 03       		.uleb128 0x3
 607 0330 40030000 		.4byte	.LASF53
 608 0334 07       		.byte	0x7
 609 0335 2F       		.byte	0x2f
 610 0336 0A030000 		.4byte	0x30a
 611 033a 0F       		.uleb128 0xf
 612 033b 01       		.byte	0x1
 613 033c 37000000 		.4byte	0x37
 614 0340 07       		.byte	0x7
 615 0341 35       		.byte	0x35
 616 0342 53030000 		.4byte	0x353
 617 0346 10       		.uleb128 0x10
 618 0347 BF060000 		.4byte	.LASF54
 619 034b 00       		.byte	0
 620 034c 10       		.uleb128 0x10
 621 034d C8030000 		.4byte	.LASF55
 622 0351 01       		.byte	0x1
 623 0352 00       		.byte	0
 624 0353 03       		.uleb128 0x3
 625 0354 32010000 		.4byte	.LASF56
 626 0358 07       		.byte	0x7
 627 0359 38       		.byte	0x38
 628 035a 3A030000 		.4byte	0x33a
 629 035e 11       		.uleb128 0x11
 630 035f 04       		.byte	0x4
 631 0360 12       		.uleb128 0x12
ARM GAS  /tmp/ccAUnyVA.s 			page 16


 632 0361 04       		.byte	0x4
 633 0362 97000000 		.4byte	0x97
 634 0366 13       		.uleb128 0x13
 635 0367 20       		.byte	0x20
 636 0368 08       		.byte	0x8
 637 0369 DC       		.byte	0xdc
 638 036a DF030000 		.4byte	0x3df
 639 036e 14       		.uleb128 0x14
 640 036f E5000000 		.4byte	.LASF57
 641 0373 08       		.byte	0x8
 642 0374 DE       		.byte	0xde
 643 0375 CC000000 		.4byte	0xcc
 644 0379 02       		.byte	0x2
 645 037a 23       		.byte	0x23
 646 037b 00       		.uleb128 0
 647 037c 14       		.uleb128 0x14
 648 037d B9060000 		.4byte	.LASF58
 649 0381 08       		.byte	0x8
 650 0382 E2       		.byte	0xe2
 651 0383 CC000000 		.4byte	0xcc
 652 0387 02       		.byte	0x2
 653 0388 23       		.byte	0x23
 654 0389 04       		.uleb128 0x4
 655 038a 14       		.uleb128 0x14
 656 038b 0C060000 		.4byte	.LASF59
 657 038f 08       		.byte	0x8
 658 0390 E5       		.byte	0xe5
 659 0391 CC000000 		.4byte	0xcc
 660 0395 02       		.byte	0x2
 661 0396 23       		.byte	0x23
 662 0397 08       		.uleb128 0x8
 663 0398 14       		.uleb128 0x14
 664 0399 C6010000 		.4byte	.LASF60
 665 039d 08       		.byte	0x8
 666 039e E7       		.byte	0xe7
 667 039f CC000000 		.4byte	0xcc
 668 03a3 02       		.byte	0x2
 669 03a4 23       		.byte	0x23
 670 03a5 0C       		.uleb128 0xc
 671 03a6 14       		.uleb128 0x14
 672 03a7 4F060000 		.4byte	.LASF61
 673 03ab 08       		.byte	0x8
 674 03ac EA       		.byte	0xea
 675 03ad CC000000 		.4byte	0xcc
 676 03b1 02       		.byte	0x2
 677 03b2 23       		.byte	0x23
 678 03b3 10       		.uleb128 0x10
 679 03b4 14       		.uleb128 0x14
 680 03b5 DE060000 		.4byte	.LASF62
 681 03b9 08       		.byte	0x8
 682 03ba EC       		.byte	0xec
 683 03bb CC000000 		.4byte	0xcc
 684 03bf 02       		.byte	0x2
 685 03c0 23       		.byte	0x23
 686 03c1 14       		.uleb128 0x14
 687 03c2 14       		.uleb128 0x14
 688 03c3 73060000 		.4byte	.LASF63
ARM GAS  /tmp/ccAUnyVA.s 			page 17


 689 03c7 08       		.byte	0x8
 690 03c8 EE       		.byte	0xee
 691 03c9 CC000000 		.4byte	0xcc
 692 03cd 02       		.byte	0x2
 693 03ce 23       		.byte	0x23
 694 03cf 18       		.uleb128 0x18
 695 03d0 14       		.uleb128 0x14
 696 03d1 62050000 		.4byte	.LASF64
 697 03d5 08       		.byte	0x8
 698 03d6 F0       		.byte	0xf0
 699 03d7 CC000000 		.4byte	0xcc
 700 03db 02       		.byte	0x2
 701 03dc 23       		.byte	0x23
 702 03dd 1C       		.uleb128 0x1c
 703 03de 00       		.byte	0
 704 03df 03       		.uleb128 0x3
 705 03e0 37050000 		.4byte	.LASF65
 706 03e4 08       		.byte	0x8
 707 03e5 F1       		.byte	0xf1
 708 03e6 66030000 		.4byte	0x366
 709 03ea 13       		.uleb128 0x13
 710 03eb 20       		.byte	0x20
 711 03ec 08       		.byte	0x8
 712 03ed F3       		.byte	0xf3
 713 03ee C1040000 		.4byte	0x4c1
 714 03f2 15       		.uleb128 0x15
 715 03f3 6E756D00 		.ascii	"num\000"
 716 03f7 08       		.byte	0x8
 717 03f8 F5       		.byte	0xf5
 718 03f9 97000000 		.4byte	0x97
 719 03fd 02       		.byte	0x2
 720 03fe 23       		.byte	0x23
 721 03ff 00       		.uleb128 0
 722 0400 14       		.uleb128 0x14
 723 0401 F3000000 		.4byte	.LASF66
 724 0405 08       		.byte	0x8
 725 0406 F8       		.byte	0xf8
 726 0407 97000000 		.4byte	0x97
 727 040b 02       		.byte	0x2
 728 040c 23       		.byte	0x23
 729 040d 01       		.uleb128 0x1
 730 040e 14       		.uleb128 0x14
 731 040f BD010000 		.4byte	.LASF67
 732 0413 08       		.byte	0x8
 733 0414 FB       		.byte	0xfb
 734 0415 97000000 		.4byte	0x97
 735 0419 02       		.byte	0x2
 736 041a 23       		.byte	0x23
 737 041b 02       		.uleb128 0x2
 738 041c 14       		.uleb128 0x14
 739 041d 83000000 		.4byte	.LASF68
 740 0421 08       		.byte	0x8
 741 0422 FE       		.byte	0xfe
 742 0423 97000000 		.4byte	0x97
 743 0427 02       		.byte	0x2
 744 0428 23       		.byte	0x23
 745 0429 03       		.uleb128 0x3
ARM GAS  /tmp/ccAUnyVA.s 			page 18


 746 042a 0C       		.uleb128 0xc
 747 042b 0C050000 		.4byte	.LASF69
 748 042f 08       		.byte	0x8
 749 0430 0101     		.2byte	0x101
 750 0432 97000000 		.4byte	0x97
 751 0436 02       		.byte	0x2
 752 0437 23       		.byte	0x23
 753 0438 04       		.uleb128 0x4
 754 0439 0C       		.uleb128 0xc
 755 043a 9C060000 		.4byte	.LASF70
 756 043e 08       		.byte	0x8
 757 043f 0401     		.2byte	0x104
 758 0441 AC000000 		.4byte	0xac
 759 0445 02       		.byte	0x2
 760 0446 23       		.byte	0x23
 761 0447 06       		.uleb128 0x6
 762 0448 0C       		.uleb128 0xc
 763 0449 BF030000 		.4byte	.LASF71
 764 044d 08       		.byte	0x8
 765 044e 0701     		.2byte	0x107
 766 0450 AC000000 		.4byte	0xac
 767 0454 02       		.byte	0x2
 768 0455 23       		.byte	0x23
 769 0456 08       		.uleb128 0x8
 770 0457 0C       		.uleb128 0xc
 771 0458 D3030000 		.4byte	.LASF72
 772 045c 08       		.byte	0x8
 773 045d 0A01     		.2byte	0x10a
 774 045f AC000000 		.4byte	0xac
 775 0463 02       		.byte	0x2
 776 0464 23       		.byte	0x23
 777 0465 0A       		.uleb128 0xa
 778 0466 0C       		.uleb128 0xc
 779 0467 90010000 		.4byte	.LASF73
 780 046b 08       		.byte	0x8
 781 046c 0D01     		.2byte	0x10d
 782 046e 97000000 		.4byte	0x97
 783 0472 02       		.byte	0x2
 784 0473 23       		.byte	0x23
 785 0474 0C       		.uleb128 0xc
 786 0475 0C       		.uleb128 0xc
 787 0476 56000000 		.4byte	.LASF74
 788 047a 08       		.byte	0x8
 789 047b 1001     		.2byte	0x110
 790 047d AC000000 		.4byte	0xac
 791 0481 02       		.byte	0x2
 792 0482 23       		.byte	0x23
 793 0483 0E       		.uleb128 0xe
 794 0484 0C       		.uleb128 0xc
 795 0485 19040000 		.4byte	.LASF75
 796 0489 08       		.byte	0x8
 797 048a 1401     		.2byte	0x114
 798 048c CC000000 		.4byte	0xcc
 799 0490 02       		.byte	0x2
 800 0491 23       		.byte	0x23
 801 0492 10       		.uleb128 0x10
 802 0493 0C       		.uleb128 0xc
ARM GAS  /tmp/ccAUnyVA.s 			page 19


 803 0494 31060000 		.4byte	.LASF76
 804 0498 08       		.byte	0x8
 805 0499 1701     		.2byte	0x117
 806 049b 60030000 		.4byte	0x360
 807 049f 02       		.byte	0x2
 808 04a0 23       		.byte	0x23
 809 04a1 14       		.uleb128 0x14
 810 04a2 0C       		.uleb128 0xc
 811 04a3 9B030000 		.4byte	.LASF77
 812 04a7 08       		.byte	0x8
 813 04a8 1901     		.2byte	0x119
 814 04aa CC000000 		.4byte	0xcc
 815 04ae 02       		.byte	0x2
 816 04af 23       		.byte	0x23
 817 04b0 18       		.uleb128 0x18
 818 04b1 0C       		.uleb128 0xc
 819 04b2 69010000 		.4byte	.LASF78
 820 04b6 08       		.byte	0x8
 821 04b7 1B01     		.2byte	0x11b
 822 04b9 CC000000 		.4byte	0xcc
 823 04bd 02       		.byte	0x2
 824 04be 23       		.byte	0x23
 825 04bf 1C       		.uleb128 0x1c
 826 04c0 00       		.byte	0
 827 04c1 0E       		.uleb128 0xe
 828 04c2 DD010000 		.4byte	.LASF79
 829 04c6 08       		.byte	0x8
 830 04c7 1D01     		.2byte	0x11d
 831 04c9 EA030000 		.4byte	0x3ea
 832 04cd 0F       		.uleb128 0xf
 833 04ce 01       		.byte	0x1
 834 04cf 37000000 		.4byte	0x37
 835 04d3 09       		.byte	0x9
 836 04d4 32       		.byte	0x32
 837 04d5 F8040000 		.4byte	0x4f8
 838 04d9 10       		.uleb128 0x10
 839 04da EF060000 		.4byte	.LASF80
 840 04de 00       		.byte	0
 841 04df 10       		.uleb128 0x10
 842 04e0 D1000000 		.4byte	.LASF81
 843 04e4 01       		.byte	0x1
 844 04e5 10       		.uleb128 0x10
 845 04e6 5A060000 		.4byte	.LASF82
 846 04ea 02       		.byte	0x2
 847 04eb 10       		.uleb128 0x10
 848 04ec 05000000 		.4byte	.LASF83
 849 04f0 03       		.byte	0x3
 850 04f1 10       		.uleb128 0x10
 851 04f2 7E060000 		.4byte	.LASF84
 852 04f6 04       		.byte	0x4
 853 04f7 00       		.byte	0
 854 04f8 03       		.uleb128 0x3
 855 04f9 2F030000 		.4byte	.LASF85
 856 04fd 09       		.byte	0x9
 857 04fe 38       		.byte	0x38
 858 04ff CD040000 		.4byte	0x4cd
 859 0503 05       		.uleb128 0x5
ARM GAS  /tmp/ccAUnyVA.s 			page 20


 860 0504 F8040000 		.4byte	0x4f8
 861 0508 0F       		.uleb128 0xf
 862 0509 01       		.byte	0x1
 863 050a 37000000 		.4byte	0x37
 864 050e 09       		.byte	0x9
 865 050f 3C       		.byte	0x3c
 866 0510 2D050000 		.4byte	0x52d
 867 0514 10       		.uleb128 0x10
 868 0515 59020000 		.4byte	.LASF86
 869 0519 00       		.byte	0
 870 051a 10       		.uleb128 0x10
 871 051b 60020000 		.4byte	.LASF87
 872 051f 01       		.byte	0x1
 873 0520 10       		.uleb128 0x10
 874 0521 67020000 		.4byte	.LASF88
 875 0525 02       		.byte	0x2
 876 0526 10       		.uleb128 0x10
 877 0527 AE000000 		.4byte	.LASF89
 878 052b 03       		.byte	0x3
 879 052c 00       		.byte	0
 880 052d 03       		.uleb128 0x3
 881 052e F6020000 		.4byte	.LASF90
 882 0532 09       		.byte	0x9
 883 0533 41       		.byte	0x41
 884 0534 08050000 		.4byte	0x508
 885 0538 0F       		.uleb128 0xf
 886 0539 01       		.byte	0x1
 887 053a 37000000 		.4byte	0x37
 888 053e 09       		.byte	0x9
 889 053f 44       		.byte	0x44
 890 0540 51050000 		.4byte	0x551
 891 0544 10       		.uleb128 0x10
 892 0545 C8050000 		.4byte	.LASF91
 893 0549 00       		.byte	0
 894 054a 10       		.uleb128 0x10
 895 054b A4030000 		.4byte	.LASF92
 896 054f 01       		.byte	0x1
 897 0550 00       		.byte	0
 898 0551 03       		.uleb128 0x3
 899 0552 51010000 		.4byte	.LASF93
 900 0556 09       		.byte	0x9
 901 0557 47       		.byte	0x47
 902 0558 38050000 		.4byte	0x538
 903 055c 0F       		.uleb128 0xf
 904 055d 01       		.byte	0x1
 905 055e 37000000 		.4byte	0x37
 906 0562 09       		.byte	0x9
 907 0563 4A       		.byte	0x4a
 908 0564 8D050000 		.4byte	0x58d
 909 0568 10       		.uleb128 0x10
 910 0569 52030000 		.4byte	.LASF94
 911 056d FF       		.byte	0xff
 912 056e 10       		.uleb128 0x10
 913 056f 0B030000 		.4byte	.LASF95
 914 0573 FE       		.byte	0xfe
 915 0574 10       		.uleb128 0x10
 916 0575 B5000000 		.4byte	.LASF96
ARM GAS  /tmp/ccAUnyVA.s 			page 21


 917 0579 FD       		.byte	0xfd
 918 057a 10       		.uleb128 0x10
 919 057b C2020000 		.4byte	.LASF97
 920 057f FC       		.byte	0xfc
 921 0580 10       		.uleb128 0x10
 922 0581 6E030000 		.4byte	.LASF98
 923 0585 FB       		.byte	0xfb
 924 0586 10       		.uleb128 0x10
 925 0587 46050000 		.4byte	.LASF99
 926 058b 00       		.byte	0
 927 058c 00       		.byte	0
 928 058d 03       		.uleb128 0x3
 929 058e A6060000 		.4byte	.LASF100
 930 0592 09       		.byte	0x9
 931 0593 52       		.byte	0x52
 932 0594 5C050000 		.4byte	0x55c
 933 0598 03       		.uleb128 0x3
 934 0599 41040000 		.4byte	.LASF101
 935 059d 09       		.byte	0x9
 936 059e 5D       		.byte	0x5d
 937 059f F7020000 		.4byte	0x2f7
 938 05a3 03       		.uleb128 0x3
 939 05a4 1B050000 		.4byte	.LASF102
 940 05a8 09       		.byte	0x9
 941 05a9 5E       		.byte	0x5e
 942 05aa DF030000 		.4byte	0x3df
 943 05ae 03       		.uleb128 0x3
 944 05af 48000000 		.4byte	.LASF103
 945 05b3 09       		.byte	0x9
 946 05b4 5F       		.byte	0x5f
 947 05b5 C1040000 		.4byte	0x4c1
 948 05b9 16       		.uleb128 0x16
 949 05ba 6C02     		.2byte	0x26c
 950 05bc 09       		.byte	0x9
 951 05bd 68       		.byte	0x68
 952 05be 73060000 		.4byte	0x673
 953 05c2 14       		.uleb128 0x14
 954 05c3 8E000000 		.4byte	.LASF104
 955 05c7 09       		.byte	0x9
 956 05c8 6B       		.byte	0x6b
 957 05c9 73060000 		.4byte	0x673
 958 05cd 02       		.byte	0x2
 959 05ce 23       		.byte	0x23
 960 05cf 00       		.uleb128 0
 961 05d0 14       		.uleb128 0x14
 962 05d1 96030000 		.4byte	.LASF105
 963 05d5 09       		.byte	0x9
 964 05d6 6C       		.byte	0x6c
 965 05d7 A3050000 		.4byte	0x5a3
 966 05db 02       		.byte	0x2
 967 05dc 23       		.byte	0x23
 968 05dd 04       		.uleb128 0x4
 969 05de 14       		.uleb128 0x14
 970 05df 2B050000 		.4byte	.LASF106
 971 05e3 09       		.byte	0x9
 972 05e4 6D       		.byte	0x6d
 973 05e5 A2000000 		.4byte	0xa2
ARM GAS  /tmp/ccAUnyVA.s 			page 22


 974 05e9 02       		.byte	0x2
 975 05ea 23       		.byte	0x23
 976 05eb 24       		.uleb128 0x24
 977 05ec 14       		.uleb128 0x14
 978 05ed 88000000 		.4byte	.LASF107
 979 05f1 09       		.byte	0x9
 980 05f2 73       		.byte	0x73
 981 05f3 79060000 		.4byte	0x679
 982 05f7 02       		.byte	0x2
 983 05f8 23       		.byte	0x23
 984 05f9 28       		.uleb128 0x28
 985 05fa 14       		.uleb128 0x14
 986 05fb DA050000 		.4byte	.LASF108
 987 05ff 09       		.byte	0x9
 988 0600 74       		.byte	0x74
 989 0601 79060000 		.4byte	0x679
 990 0605 03       		.byte	0x3
 991 0606 23       		.byte	0x23
 992 0607 A802     		.uleb128 0x128
 993 0609 14       		.uleb128 0x14
 994 060a A8010000 		.4byte	.LASF109
 995 060e 09       		.byte	0x9
 996 060f 76       		.byte	0x76
 997 0610 53030000 		.4byte	0x353
 998 0614 03       		.byte	0x3
 999 0615 23       		.byte	0x23
 1000 0616 A804     		.uleb128 0x228
 1001 0618 14       		.uleb128 0x14
 1002 0619 AE050000 		.4byte	.LASF110
 1003 061d 09       		.byte	0x9
 1004 061e 77       		.byte	0x77
 1005 061f 03050000 		.4byte	0x503
 1006 0623 03       		.byte	0x3
 1007 0624 23       		.byte	0x23
 1008 0625 A904     		.uleb128 0x229
 1009 0627 14       		.uleb128 0x14
 1010 0628 25030000 		.4byte	.LASF111
 1011 062c 09       		.byte	0x9
 1012 062d 78       		.byte	0x78
 1013 062e D7000000 		.4byte	0xd7
 1014 0632 03       		.byte	0x3
 1015 0633 23       		.byte	0x23
 1016 0634 AC04     		.uleb128 0x22c
 1017 0636 14       		.uleb128 0x14
 1018 0637 FE000000 		.4byte	.LASF112
 1019 063b 09       		.byte	0x9
 1020 063c 79       		.byte	0x79
 1021 063d 42010000 		.4byte	0x142
 1022 0641 03       		.byte	0x3
 1023 0642 23       		.byte	0x23
 1024 0643 B004     		.uleb128 0x230
 1025 0645 14       		.uleb128 0x14
 1026 0646 23010000 		.4byte	.LASF113
 1027 064a 09       		.byte	0x9
 1028 064b 7A       		.byte	0x7a
 1029 064c 2D050000 		.4byte	0x52d
 1030 0650 03       		.byte	0x3
ARM GAS  /tmp/ccAUnyVA.s 			page 23


 1031 0651 23       		.byte	0x23
 1032 0652 E004     		.uleb128 0x260
 1033 0654 14       		.uleb128 0x14
 1034 0655 FF050000 		.4byte	.LASF114
 1035 0659 09       		.byte	0x9
 1036 065a 7B       		.byte	0x7b
 1037 065b CC000000 		.4byte	0xcc
 1038 065f 03       		.byte	0x3
 1039 0660 23       		.byte	0x23
 1040 0661 E404     		.uleb128 0x264
 1041 0663 14       		.uleb128 0x14
 1042 0664 D8060000 		.4byte	.LASF115
 1043 0668 09       		.byte	0x9
 1044 0669 7D       		.byte	0x7d
 1045 066a 5E030000 		.4byte	0x35e
 1046 066e 03       		.byte	0x3
 1047 066f 23       		.byte	0x23
 1048 0670 E804     		.uleb128 0x268
 1049 0672 00       		.byte	0
 1050 0673 12       		.uleb128 0x12
 1051 0674 04       		.byte	0x4
 1052 0675 98050000 		.4byte	0x598
 1053 0679 09       		.uleb128 0x9
 1054 067a AE050000 		.4byte	0x5ae
 1055 067e 89060000 		.4byte	0x689
 1056 0682 0A       		.uleb128 0xa
 1057 0683 DC000000 		.4byte	0xdc
 1058 0687 07       		.byte	0x7
 1059 0688 00       		.byte	0
 1060 0689 03       		.uleb128 0x3
 1061 068a E1030000 		.4byte	.LASF116
 1062 068e 09       		.byte	0x9
 1063 068f 90       		.byte	0x90
 1064 0690 B9050000 		.4byte	0x5b9
 1065 0694 0F       		.uleb128 0xf
 1066 0695 01       		.byte	0x1
 1067 0696 37000000 		.4byte	0x37
 1068 069a 0A       		.byte	0xa
 1069 069b 33       		.byte	0x33
 1070 069c B9060000 		.4byte	0x6b9
 1071 06a0 10       		.uleb128 0x10
 1072 06a1 7D010000 		.4byte	.LASF117
 1073 06a5 64       		.byte	0x64
 1074 06a6 10       		.uleb128 0x10
 1075 06a7 E1050000 		.4byte	.LASF118
 1076 06ab 0A       		.byte	0xa
 1077 06ac 10       		.uleb128 0x10
 1078 06ad A8020000 		.4byte	.LASF119
 1079 06b1 01       		.byte	0x1
 1080 06b2 10       		.uleb128 0x10
 1081 06b3 F3030000 		.4byte	.LASF120
 1082 06b7 01       		.byte	0x1
 1083 06b8 00       		.byte	0
 1084 06b9 03       		.uleb128 0x3
 1085 06ba 34000000 		.4byte	.LASF121
 1086 06be 0A       		.byte	0xa
 1087 06bf 38       		.byte	0x38
ARM GAS  /tmp/ccAUnyVA.s 			page 24


 1088 06c0 94060000 		.4byte	0x694
 1089 06c4 08       		.uleb128 0x8
 1090 06c5 A3050000 		.4byte	.LASF122
 1091 06c9 0A       		.byte	0xa
 1092 06ca 3D       		.byte	0x3d
 1093 06cb CC000000 		.4byte	0xcc
 1094 06cf 01       		.byte	0x1
 1095 06d0 01       		.byte	0x1
 1096 06d1 08       		.uleb128 0x8
 1097 06d2 6E020000 		.4byte	.LASF123
 1098 06d6 0A       		.byte	0xa
 1099 06d7 3E       		.byte	0x3e
 1100 06d8 B9060000 		.4byte	0x6b9
 1101 06dc 01       		.byte	0x1
 1102 06dd 01       		.byte	0x1
 1103 06de 17       		.uleb128 0x17
 1104 06df 01       		.byte	0x1
 1105 06e0 18000000 		.4byte	.LASF133
 1106 06e4 01       		.byte	0x1
 1107 06e5 D9       		.byte	0xd9
 1108 06e6 01       		.byte	0x1
 1109 06e7 01       		.byte	0x1
 1110 06e8 03070000 		.4byte	0x703
 1111 06ec 18       		.uleb128 0x18
 1112 06ed 00000000 		.4byte	.LASF124
 1113 06f1 01       		.byte	0x1
 1114 06f2 D9       		.byte	0xd9
 1115 06f3 03070000 		.4byte	0x703
 1116 06f7 19       		.uleb128 0x19
 1117 06f8 6D736700 		.ascii	"msg\000"
 1118 06fc 01       		.byte	0x1
 1119 06fd D9       		.byte	0xd9
 1120 06fe 8D050000 		.4byte	0x58d
 1121 0702 00       		.byte	0
 1122 0703 12       		.uleb128 0x12
 1123 0704 04       		.byte	0x4
 1124 0705 89060000 		.4byte	0x689
 1125 0709 1A       		.uleb128 0x1a
 1126 070a 01       		.byte	0x1
 1127 070b 14060000 		.4byte	.LASF125
 1128 070f 01       		.byte	0x1
 1129 0710 C8       		.byte	0xc8
 1130 0711 01       		.byte	0x1
 1131 0712 2D070000 		.4byte	0x72d
 1132 0716 18       		.uleb128 0x18
 1133 0717 00000000 		.4byte	.LASF124
 1134 071b 01       		.byte	0x1
 1135 071c C8       		.byte	0xc8
 1136 071d 03070000 		.4byte	0x703
 1137 0721 19       		.uleb128 0x19
 1138 0722 6D736700 		.ascii	"msg\000"
 1139 0726 01       		.byte	0x1
 1140 0727 C8       		.byte	0xc8
 1141 0728 51050000 		.4byte	0x551
 1142 072c 00       		.byte	0
 1143 072d 1A       		.uleb128 0x1a
 1144 072e 01       		.byte	0x1
ARM GAS  /tmp/ccAUnyVA.s 			page 25


 1145 072f 79020000 		.4byte	.LASF126
 1146 0733 01       		.byte	0x1
 1147 0734 B7       		.byte	0xb7
 1148 0735 01       		.byte	0x1
 1149 0736 51070000 		.4byte	0x751
 1150 073a 18       		.uleb128 0x18
 1151 073b 00000000 		.4byte	.LASF124
 1152 073f 01       		.byte	0x1
 1153 0740 B7       		.byte	0xb7
 1154 0741 03070000 		.4byte	0x703
 1155 0745 18       		.uleb128 0x18
 1156 0746 42010000 		.4byte	.LASF127
 1157 074a 01       		.byte	0x1
 1158 074b B7       		.byte	0xb7
 1159 074c 97000000 		.4byte	0x97
 1160 0750 00       		.byte	0
 1161 0751 1B       		.uleb128 0x1b
 1162 0752 01       		.byte	0x1
 1163 0753 3B060000 		.4byte	.LASF134
 1164 0757 01       		.byte	0x1
 1165 0758 8A       		.byte	0x8a
 1166 0759 01       		.byte	0x1
 1167 075a 2F030000 		.4byte	0x32f
 1168 075e 00000000 		.4byte	.LFB65
 1169 0762 30000000 		.4byte	.LFE65
 1170 0766 02       		.byte	0x2
 1171 0767 7D       		.byte	0x7d
 1172 0768 00       		.sleb128 0
 1173 0769 01       		.byte	0x1
 1174 076a B9070000 		.4byte	0x7b9
 1175 076e 1C       		.uleb128 0x1c
 1176 076f 00000000 		.4byte	.LASF124
 1177 0773 01       		.byte	0x1
 1178 0774 8A       		.byte	0x8a
 1179 0775 03070000 		.4byte	0x703
 1180 0779 00000000 		.4byte	.LLST0
 1181 077d 1C       		.uleb128 0x1c
 1182 077e 04060000 		.4byte	.LASF128
 1183 0782 01       		.byte	0x1
 1184 0783 8B       		.byte	0x8b
 1185 0784 AC000000 		.4byte	0xac
 1186 0788 21000000 		.4byte	.LLST1
 1187 078c 1C       		.uleb128 0x1c
 1188 078d 8E030000 		.4byte	.LASF129
 1189 0791 01       		.byte	0x1
 1190 0792 8C       		.byte	0x8c
 1191 0793 AC000000 		.4byte	0xac
 1192 0797 42000000 		.4byte	.LLST2
 1193 079b 1C       		.uleb128 0x1c
 1194 079c 9C060000 		.4byte	.LASF70
 1195 07a0 01       		.byte	0x1
 1196 07a1 8D       		.byte	0x8d
 1197 07a2 CC000000 		.4byte	0xcc
 1198 07a6 7C000000 		.4byte	.LLST3
 1199 07aa 1D       		.uleb128 0x1d
 1200 07ab 657000   		.ascii	"ep\000"
 1201 07ae 01       		.byte	0x1
ARM GAS  /tmp/ccAUnyVA.s 			page 26


 1202 07af 8F       		.byte	0x8f
 1203 07b0 B9070000 		.4byte	0x7b9
 1204 07b4 B6000000 		.4byte	.LLST4
 1205 07b8 00       		.byte	0
 1206 07b9 12       		.uleb128 0x12
 1207 07ba 04       		.byte	0x4
 1208 07bb AE050000 		.4byte	0x5ae
 1209 07bf 1E       		.uleb128 0x1e
 1210 07c0 DE060000 		.4byte	0x6de
 1211 07c4 34000000 		.4byte	.LFB68
 1212 07c8 36000000 		.4byte	.LFE68
 1213 07cc 02       		.byte	0x2
 1214 07cd 7D       		.byte	0x7d
 1215 07ce 00       		.sleb128 0
 1216 07cf 01       		.byte	0x1
 1217 07d0 1F       		.uleb128 0x1f
 1218 07d1 EC060000 		.4byte	0x6ec
 1219 07d5 01       		.byte	0x1
 1220 07d6 50       		.byte	0x50
 1221 07d7 1F       		.uleb128 0x1f
 1222 07d8 F7060000 		.4byte	0x6f7
 1223 07dc 01       		.byte	0x1
 1224 07dd 51       		.byte	0x51
 1225 07de 00       		.byte	0
 1226 07df 00       		.byte	0
 1227              		.section	.debug_abbrev,"",%progbits
 1228              	.Ldebug_abbrev0:
 1229 0000 01       		.uleb128 0x1
 1230 0001 11       		.uleb128 0x11
 1231 0002 01       		.byte	0x1
 1232 0003 25       		.uleb128 0x25
 1233 0004 0E       		.uleb128 0xe
 1234 0005 13       		.uleb128 0x13
 1235 0006 0B       		.uleb128 0xb
 1236 0007 03       		.uleb128 0x3
 1237 0008 0E       		.uleb128 0xe
 1238 0009 1B       		.uleb128 0x1b
 1239 000a 0E       		.uleb128 0xe
 1240 000b 11       		.uleb128 0x11
 1241 000c 01       		.uleb128 0x1
 1242 000d 12       		.uleb128 0x12
 1243 000e 01       		.uleb128 0x1
 1244 000f 10       		.uleb128 0x10
 1245 0010 06       		.uleb128 0x6
 1246 0011 00       		.byte	0
 1247 0012 00       		.byte	0
 1248 0013 02       		.uleb128 0x2
 1249 0014 24       		.uleb128 0x24
 1250 0015 00       		.byte	0
 1251 0016 0B       		.uleb128 0xb
 1252 0017 0B       		.uleb128 0xb
 1253 0018 3E       		.uleb128 0x3e
 1254 0019 0B       		.uleb128 0xb
 1255 001a 03       		.uleb128 0x3
 1256 001b 0E       		.uleb128 0xe
 1257 001c 00       		.byte	0
 1258 001d 00       		.byte	0
ARM GAS  /tmp/ccAUnyVA.s 			page 27


 1259 001e 03       		.uleb128 0x3
 1260 001f 16       		.uleb128 0x16
 1261 0020 00       		.byte	0
 1262 0021 03       		.uleb128 0x3
 1263 0022 0E       		.uleb128 0xe
 1264 0023 3A       		.uleb128 0x3a
 1265 0024 0B       		.uleb128 0xb
 1266 0025 3B       		.uleb128 0x3b
 1267 0026 0B       		.uleb128 0xb
 1268 0027 49       		.uleb128 0x49
 1269 0028 13       		.uleb128 0x13
 1270 0029 00       		.byte	0
 1271 002a 00       		.byte	0
 1272 002b 04       		.uleb128 0x4
 1273 002c 24       		.uleb128 0x24
 1274 002d 00       		.byte	0
 1275 002e 0B       		.uleb128 0xb
 1276 002f 0B       		.uleb128 0xb
 1277 0030 3E       		.uleb128 0x3e
 1278 0031 0B       		.uleb128 0xb
 1279 0032 03       		.uleb128 0x3
 1280 0033 08       		.uleb128 0x8
 1281 0034 00       		.byte	0
 1282 0035 00       		.byte	0
 1283 0036 05       		.uleb128 0x5
 1284 0037 35       		.uleb128 0x35
 1285 0038 00       		.byte	0
 1286 0039 49       		.uleb128 0x49
 1287 003a 13       		.uleb128 0x13
 1288 003b 00       		.byte	0
 1289 003c 00       		.byte	0
 1290 003d 06       		.uleb128 0x6
 1291 003e 26       		.uleb128 0x26
 1292 003f 00       		.byte	0
 1293 0040 49       		.uleb128 0x49
 1294 0041 13       		.uleb128 0x13
 1295 0042 00       		.byte	0
 1296 0043 00       		.byte	0
 1297 0044 07       		.uleb128 0x7
 1298 0045 34       		.uleb128 0x34
 1299 0046 00       		.byte	0
 1300 0047 03       		.uleb128 0x3
 1301 0048 0E       		.uleb128 0xe
 1302 0049 3A       		.uleb128 0x3a
 1303 004a 0B       		.uleb128 0xb
 1304 004b 3B       		.uleb128 0x3b
 1305 004c 05       		.uleb128 0x5
 1306 004d 49       		.uleb128 0x49
 1307 004e 13       		.uleb128 0x13
 1308 004f 3F       		.uleb128 0x3f
 1309 0050 0C       		.uleb128 0xc
 1310 0051 3C       		.uleb128 0x3c
 1311 0052 0C       		.uleb128 0xc
 1312 0053 00       		.byte	0
 1313 0054 00       		.byte	0
 1314 0055 08       		.uleb128 0x8
 1315 0056 34       		.uleb128 0x34
ARM GAS  /tmp/ccAUnyVA.s 			page 28


 1316 0057 00       		.byte	0
 1317 0058 03       		.uleb128 0x3
 1318 0059 0E       		.uleb128 0xe
 1319 005a 3A       		.uleb128 0x3a
 1320 005b 0B       		.uleb128 0xb
 1321 005c 3B       		.uleb128 0x3b
 1322 005d 0B       		.uleb128 0xb
 1323 005e 49       		.uleb128 0x49
 1324 005f 13       		.uleb128 0x13
 1325 0060 3F       		.uleb128 0x3f
 1326 0061 0C       		.uleb128 0xc
 1327 0062 3C       		.uleb128 0x3c
 1328 0063 0C       		.uleb128 0xc
 1329 0064 00       		.byte	0
 1330 0065 00       		.byte	0
 1331 0066 09       		.uleb128 0x9
 1332 0067 01       		.uleb128 0x1
 1333 0068 01       		.byte	0x1
 1334 0069 49       		.uleb128 0x49
 1335 006a 13       		.uleb128 0x13
 1336 006b 01       		.uleb128 0x1
 1337 006c 13       		.uleb128 0x13
 1338 006d 00       		.byte	0
 1339 006e 00       		.byte	0
 1340 006f 0A       		.uleb128 0xa
 1341 0070 21       		.uleb128 0x21
 1342 0071 00       		.byte	0
 1343 0072 49       		.uleb128 0x49
 1344 0073 13       		.uleb128 0x13
 1345 0074 2F       		.uleb128 0x2f
 1346 0075 0B       		.uleb128 0xb
 1347 0076 00       		.byte	0
 1348 0077 00       		.byte	0
 1349 0078 0B       		.uleb128 0xb
 1350 0079 13       		.uleb128 0x13
 1351 007a 01       		.byte	0x1
 1352 007b 0B       		.uleb128 0xb
 1353 007c 0B       		.uleb128 0xb
 1354 007d 3A       		.uleb128 0x3a
 1355 007e 0B       		.uleb128 0xb
 1356 007f 3B       		.uleb128 0x3b
 1357 0080 05       		.uleb128 0x5
 1358 0081 01       		.uleb128 0x1
 1359 0082 13       		.uleb128 0x13
 1360 0083 00       		.byte	0
 1361 0084 00       		.byte	0
 1362 0085 0C       		.uleb128 0xc
 1363 0086 0D       		.uleb128 0xd
 1364 0087 00       		.byte	0
 1365 0088 03       		.uleb128 0x3
 1366 0089 0E       		.uleb128 0xe
 1367 008a 3A       		.uleb128 0x3a
 1368 008b 0B       		.uleb128 0xb
 1369 008c 3B       		.uleb128 0x3b
 1370 008d 05       		.uleb128 0x5
 1371 008e 49       		.uleb128 0x49
 1372 008f 13       		.uleb128 0x13
ARM GAS  /tmp/ccAUnyVA.s 			page 29


 1373 0090 38       		.uleb128 0x38
 1374 0091 0A       		.uleb128 0xa
 1375 0092 00       		.byte	0
 1376 0093 00       		.byte	0
 1377 0094 0D       		.uleb128 0xd
 1378 0095 0D       		.uleb128 0xd
 1379 0096 00       		.byte	0
 1380 0097 03       		.uleb128 0x3
 1381 0098 08       		.uleb128 0x8
 1382 0099 3A       		.uleb128 0x3a
 1383 009a 0B       		.uleb128 0xb
 1384 009b 3B       		.uleb128 0x3b
 1385 009c 05       		.uleb128 0x5
 1386 009d 49       		.uleb128 0x49
 1387 009e 13       		.uleb128 0x13
 1388 009f 38       		.uleb128 0x38
 1389 00a0 0A       		.uleb128 0xa
 1390 00a1 00       		.byte	0
 1391 00a2 00       		.byte	0
 1392 00a3 0E       		.uleb128 0xe
 1393 00a4 16       		.uleb128 0x16
 1394 00a5 00       		.byte	0
 1395 00a6 03       		.uleb128 0x3
 1396 00a7 0E       		.uleb128 0xe
 1397 00a8 3A       		.uleb128 0x3a
 1398 00a9 0B       		.uleb128 0xb
 1399 00aa 3B       		.uleb128 0x3b
 1400 00ab 05       		.uleb128 0x5
 1401 00ac 49       		.uleb128 0x49
 1402 00ad 13       		.uleb128 0x13
 1403 00ae 00       		.byte	0
 1404 00af 00       		.byte	0
 1405 00b0 0F       		.uleb128 0xf
 1406 00b1 04       		.uleb128 0x4
 1407 00b2 01       		.byte	0x1
 1408 00b3 0B       		.uleb128 0xb
 1409 00b4 0B       		.uleb128 0xb
 1410 00b5 49       		.uleb128 0x49
 1411 00b6 13       		.uleb128 0x13
 1412 00b7 3A       		.uleb128 0x3a
 1413 00b8 0B       		.uleb128 0xb
 1414 00b9 3B       		.uleb128 0x3b
 1415 00ba 0B       		.uleb128 0xb
 1416 00bb 01       		.uleb128 0x1
 1417 00bc 13       		.uleb128 0x13
 1418 00bd 00       		.byte	0
 1419 00be 00       		.byte	0
 1420 00bf 10       		.uleb128 0x10
 1421 00c0 28       		.uleb128 0x28
 1422 00c1 00       		.byte	0
 1423 00c2 03       		.uleb128 0x3
 1424 00c3 0E       		.uleb128 0xe
 1425 00c4 1C       		.uleb128 0x1c
 1426 00c5 0B       		.uleb128 0xb
 1427 00c6 00       		.byte	0
 1428 00c7 00       		.byte	0
 1429 00c8 11       		.uleb128 0x11
ARM GAS  /tmp/ccAUnyVA.s 			page 30


 1430 00c9 0F       		.uleb128 0xf
 1431 00ca 00       		.byte	0
 1432 00cb 0B       		.uleb128 0xb
 1433 00cc 0B       		.uleb128 0xb
 1434 00cd 00       		.byte	0
 1435 00ce 00       		.byte	0
 1436 00cf 12       		.uleb128 0x12
 1437 00d0 0F       		.uleb128 0xf
 1438 00d1 00       		.byte	0
 1439 00d2 0B       		.uleb128 0xb
 1440 00d3 0B       		.uleb128 0xb
 1441 00d4 49       		.uleb128 0x49
 1442 00d5 13       		.uleb128 0x13
 1443 00d6 00       		.byte	0
 1444 00d7 00       		.byte	0
 1445 00d8 13       		.uleb128 0x13
 1446 00d9 13       		.uleb128 0x13
 1447 00da 01       		.byte	0x1
 1448 00db 0B       		.uleb128 0xb
 1449 00dc 0B       		.uleb128 0xb
 1450 00dd 3A       		.uleb128 0x3a
 1451 00de 0B       		.uleb128 0xb
 1452 00df 3B       		.uleb128 0x3b
 1453 00e0 0B       		.uleb128 0xb
 1454 00e1 01       		.uleb128 0x1
 1455 00e2 13       		.uleb128 0x13
 1456 00e3 00       		.byte	0
 1457 00e4 00       		.byte	0
 1458 00e5 14       		.uleb128 0x14
 1459 00e6 0D       		.uleb128 0xd
 1460 00e7 00       		.byte	0
 1461 00e8 03       		.uleb128 0x3
 1462 00e9 0E       		.uleb128 0xe
 1463 00ea 3A       		.uleb128 0x3a
 1464 00eb 0B       		.uleb128 0xb
 1465 00ec 3B       		.uleb128 0x3b
 1466 00ed 0B       		.uleb128 0xb
 1467 00ee 49       		.uleb128 0x49
 1468 00ef 13       		.uleb128 0x13
 1469 00f0 38       		.uleb128 0x38
 1470 00f1 0A       		.uleb128 0xa
 1471 00f2 00       		.byte	0
 1472 00f3 00       		.byte	0
 1473 00f4 15       		.uleb128 0x15
 1474 00f5 0D       		.uleb128 0xd
 1475 00f6 00       		.byte	0
 1476 00f7 03       		.uleb128 0x3
 1477 00f8 08       		.uleb128 0x8
 1478 00f9 3A       		.uleb128 0x3a
 1479 00fa 0B       		.uleb128 0xb
 1480 00fb 3B       		.uleb128 0x3b
 1481 00fc 0B       		.uleb128 0xb
 1482 00fd 49       		.uleb128 0x49
 1483 00fe 13       		.uleb128 0x13
 1484 00ff 38       		.uleb128 0x38
 1485 0100 0A       		.uleb128 0xa
 1486 0101 00       		.byte	0
ARM GAS  /tmp/ccAUnyVA.s 			page 31


 1487 0102 00       		.byte	0
 1488 0103 16       		.uleb128 0x16
 1489 0104 13       		.uleb128 0x13
 1490 0105 01       		.byte	0x1
 1491 0106 0B       		.uleb128 0xb
 1492 0107 05       		.uleb128 0x5
 1493 0108 3A       		.uleb128 0x3a
 1494 0109 0B       		.uleb128 0xb
 1495 010a 3B       		.uleb128 0x3b
 1496 010b 0B       		.uleb128 0xb
 1497 010c 01       		.uleb128 0x1
 1498 010d 13       		.uleb128 0x13
 1499 010e 00       		.byte	0
 1500 010f 00       		.byte	0
 1501 0110 17       		.uleb128 0x17
 1502 0111 2E       		.uleb128 0x2e
 1503 0112 01       		.byte	0x1
 1504 0113 3F       		.uleb128 0x3f
 1505 0114 0C       		.uleb128 0xc
 1506 0115 03       		.uleb128 0x3
 1507 0116 0E       		.uleb128 0xe
 1508 0117 3A       		.uleb128 0x3a
 1509 0118 0B       		.uleb128 0xb
 1510 0119 3B       		.uleb128 0x3b
 1511 011a 0B       		.uleb128 0xb
 1512 011b 27       		.uleb128 0x27
 1513 011c 0C       		.uleb128 0xc
 1514 011d 20       		.uleb128 0x20
 1515 011e 0B       		.uleb128 0xb
 1516 011f 01       		.uleb128 0x1
 1517 0120 13       		.uleb128 0x13
 1518 0121 00       		.byte	0
 1519 0122 00       		.byte	0
 1520 0123 18       		.uleb128 0x18
 1521 0124 05       		.uleb128 0x5
 1522 0125 00       		.byte	0
 1523 0126 03       		.uleb128 0x3
 1524 0127 0E       		.uleb128 0xe
 1525 0128 3A       		.uleb128 0x3a
 1526 0129 0B       		.uleb128 0xb
 1527 012a 3B       		.uleb128 0x3b
 1528 012b 0B       		.uleb128 0xb
 1529 012c 49       		.uleb128 0x49
 1530 012d 13       		.uleb128 0x13
 1531 012e 00       		.byte	0
 1532 012f 00       		.byte	0
 1533 0130 19       		.uleb128 0x19
 1534 0131 05       		.uleb128 0x5
 1535 0132 00       		.byte	0
 1536 0133 03       		.uleb128 0x3
 1537 0134 08       		.uleb128 0x8
 1538 0135 3A       		.uleb128 0x3a
 1539 0136 0B       		.uleb128 0xb
 1540 0137 3B       		.uleb128 0x3b
 1541 0138 0B       		.uleb128 0xb
 1542 0139 49       		.uleb128 0x49
 1543 013a 13       		.uleb128 0x13
ARM GAS  /tmp/ccAUnyVA.s 			page 32


 1544 013b 00       		.byte	0
 1545 013c 00       		.byte	0
 1546 013d 1A       		.uleb128 0x1a
 1547 013e 2E       		.uleb128 0x2e
 1548 013f 01       		.byte	0x1
 1549 0140 3F       		.uleb128 0x3f
 1550 0141 0C       		.uleb128 0xc
 1551 0142 03       		.uleb128 0x3
 1552 0143 0E       		.uleb128 0xe
 1553 0144 3A       		.uleb128 0x3a
 1554 0145 0B       		.uleb128 0xb
 1555 0146 3B       		.uleb128 0x3b
 1556 0147 0B       		.uleb128 0xb
 1557 0148 27       		.uleb128 0x27
 1558 0149 0C       		.uleb128 0xc
 1559 014a 01       		.uleb128 0x1
 1560 014b 13       		.uleb128 0x13
 1561 014c 00       		.byte	0
 1562 014d 00       		.byte	0
 1563 014e 1B       		.uleb128 0x1b
 1564 014f 2E       		.uleb128 0x2e
 1565 0150 01       		.byte	0x1
 1566 0151 3F       		.uleb128 0x3f
 1567 0152 0C       		.uleb128 0xc
 1568 0153 03       		.uleb128 0x3
 1569 0154 0E       		.uleb128 0xe
 1570 0155 3A       		.uleb128 0x3a
 1571 0156 0B       		.uleb128 0xb
 1572 0157 3B       		.uleb128 0x3b
 1573 0158 0B       		.uleb128 0xb
 1574 0159 27       		.uleb128 0x27
 1575 015a 0C       		.uleb128 0xc
 1576 015b 49       		.uleb128 0x49
 1577 015c 13       		.uleb128 0x13
 1578 015d 11       		.uleb128 0x11
 1579 015e 01       		.uleb128 0x1
 1580 015f 12       		.uleb128 0x12
 1581 0160 01       		.uleb128 0x1
 1582 0161 40       		.uleb128 0x40
 1583 0162 0A       		.uleb128 0xa
 1584 0163 9742     		.uleb128 0x2117
 1585 0165 0C       		.uleb128 0xc
 1586 0166 01       		.uleb128 0x1
 1587 0167 13       		.uleb128 0x13
 1588 0168 00       		.byte	0
 1589 0169 00       		.byte	0
 1590 016a 1C       		.uleb128 0x1c
 1591 016b 05       		.uleb128 0x5
 1592 016c 00       		.byte	0
 1593 016d 03       		.uleb128 0x3
 1594 016e 0E       		.uleb128 0xe
 1595 016f 3A       		.uleb128 0x3a
 1596 0170 0B       		.uleb128 0xb
 1597 0171 3B       		.uleb128 0x3b
 1598 0172 0B       		.uleb128 0xb
 1599 0173 49       		.uleb128 0x49
 1600 0174 13       		.uleb128 0x13
ARM GAS  /tmp/ccAUnyVA.s 			page 33


 1601 0175 02       		.uleb128 0x2
 1602 0176 06       		.uleb128 0x6
 1603 0177 00       		.byte	0
 1604 0178 00       		.byte	0
 1605 0179 1D       		.uleb128 0x1d
 1606 017a 34       		.uleb128 0x34
 1607 017b 00       		.byte	0
 1608 017c 03       		.uleb128 0x3
 1609 017d 08       		.uleb128 0x8
 1610 017e 3A       		.uleb128 0x3a
 1611 017f 0B       		.uleb128 0xb
 1612 0180 3B       		.uleb128 0x3b
 1613 0181 0B       		.uleb128 0xb
 1614 0182 49       		.uleb128 0x49
 1615 0183 13       		.uleb128 0x13
 1616 0184 02       		.uleb128 0x2
 1617 0185 06       		.uleb128 0x6
 1618 0186 00       		.byte	0
 1619 0187 00       		.byte	0
 1620 0188 1E       		.uleb128 0x1e
 1621 0189 2E       		.uleb128 0x2e
 1622 018a 01       		.byte	0x1
 1623 018b 31       		.uleb128 0x31
 1624 018c 13       		.uleb128 0x13
 1625 018d 11       		.uleb128 0x11
 1626 018e 01       		.uleb128 0x1
 1627 018f 12       		.uleb128 0x12
 1628 0190 01       		.uleb128 0x1
 1629 0191 40       		.uleb128 0x40
 1630 0192 0A       		.uleb128 0xa
 1631 0193 9742     		.uleb128 0x2117
 1632 0195 0C       		.uleb128 0xc
 1633 0196 00       		.byte	0
 1634 0197 00       		.byte	0
 1635 0198 1F       		.uleb128 0x1f
 1636 0199 05       		.uleb128 0x5
 1637 019a 00       		.byte	0
 1638 019b 31       		.uleb128 0x31
 1639 019c 13       		.uleb128 0x13
 1640 019d 02       		.uleb128 0x2
 1641 019e 0A       		.uleb128 0xa
 1642 019f 00       		.byte	0
 1643 01a0 00       		.byte	0
 1644 01a1 00       		.byte	0
 1645              		.section	.debug_loc,"",%progbits
 1646              	.Ldebug_loc0:
 1647              	.LLST0:
 1648 0000 00000000 		.4byte	.LVL0-.Ltext0
 1649 0004 0E000000 		.4byte	.LVL2-.Ltext0
 1650 0008 0100     		.2byte	0x1
 1651 000a 50       		.byte	0x50
 1652 000b 0E000000 		.4byte	.LVL2-.Ltext0
 1653 000f 30000000 		.4byte	.LFE65-.Ltext0
 1654 0013 0400     		.2byte	0x4
 1655 0015 F3       		.byte	0xf3
 1656 0016 01       		.uleb128 0x1
 1657 0017 50       		.byte	0x50
ARM GAS  /tmp/ccAUnyVA.s 			page 34


 1658 0018 9F       		.byte	0x9f
 1659 0019 00000000 		.4byte	0
 1660 001d 00000000 		.4byte	0
 1661              	.LLST1:
 1662 0021 00000000 		.4byte	.LVL0-.Ltext0
 1663 0025 0A000000 		.4byte	.LVL1-.Ltext0
 1664 0029 0100     		.2byte	0x1
 1665 002b 51       		.byte	0x51
 1666 002c 0A000000 		.4byte	.LVL1-.Ltext0
 1667 0030 30000000 		.4byte	.LFE65-.Ltext0
 1668 0034 0400     		.2byte	0x4
 1669 0036 F3       		.byte	0xf3
 1670 0037 01       		.uleb128 0x1
 1671 0038 51       		.byte	0x51
 1672 0039 9F       		.byte	0x9f
 1673 003a 00000000 		.4byte	0
 1674 003e 00000000 		.4byte	0
 1675              	.LLST2:
 1676 0042 00000000 		.4byte	.LVL0-.Ltext0
 1677 0046 20000000 		.4byte	.LVL4-.Ltext0
 1678 004a 0100     		.2byte	0x1
 1679 004c 52       		.byte	0x52
 1680 004d 20000000 		.4byte	.LVL4-.Ltext0
 1681 0051 24000000 		.4byte	.LVL6-.Ltext0
 1682 0055 0400     		.2byte	0x4
 1683 0057 F3       		.byte	0xf3
 1684 0058 01       		.uleb128 0x1
 1685 0059 52       		.byte	0x52
 1686 005a 9F       		.byte	0x9f
 1687 005b 24000000 		.4byte	.LVL6-.Ltext0
 1688 005f 26000000 		.4byte	.LVL7-.Ltext0
 1689 0063 0100     		.2byte	0x1
 1690 0065 52       		.byte	0x52
 1691 0066 26000000 		.4byte	.LVL7-.Ltext0
 1692 006a 30000000 		.4byte	.LFE65-.Ltext0
 1693 006e 0400     		.2byte	0x4
 1694 0070 F3       		.byte	0xf3
 1695 0071 01       		.uleb128 0x1
 1696 0072 52       		.byte	0x52
 1697 0073 9F       		.byte	0x9f
 1698 0074 00000000 		.4byte	0
 1699 0078 00000000 		.4byte	0
 1700              	.LLST3:
 1701 007c 00000000 		.4byte	.LVL0-.Ltext0
 1702 0080 20000000 		.4byte	.LVL4-.Ltext0
 1703 0084 0100     		.2byte	0x1
 1704 0086 53       		.byte	0x53
 1705 0087 20000000 		.4byte	.LVL4-.Ltext0
 1706 008b 24000000 		.4byte	.LVL6-.Ltext0
 1707 008f 0400     		.2byte	0x4
 1708 0091 F3       		.byte	0xf3
 1709 0092 01       		.uleb128 0x1
 1710 0093 53       		.byte	0x53
 1711 0094 9F       		.byte	0x9f
 1712 0095 24000000 		.4byte	.LVL6-.Ltext0
 1713 0099 2A000000 		.4byte	.LVL8-.Ltext0
 1714 009d 0100     		.2byte	0x1
ARM GAS  /tmp/ccAUnyVA.s 			page 35


 1715 009f 53       		.byte	0x53
 1716 00a0 2A000000 		.4byte	.LVL8-.Ltext0
 1717 00a4 30000000 		.4byte	.LFE65-.Ltext0
 1718 00a8 0400     		.2byte	0x4
 1719 00aa F3       		.byte	0xf3
 1720 00ab 01       		.uleb128 0x1
 1721 00ac 53       		.byte	0x53
 1722 00ad 9F       		.byte	0x9f
 1723 00ae 00000000 		.4byte	0
 1724 00b2 00000000 		.4byte	0
 1725              	.LLST4:
 1726 00b6 1A000000 		.4byte	.LVL3-.Ltext0
 1727 00ba 22000000 		.4byte	.LVL5-.Ltext0
 1728 00be 0100     		.2byte	0x1
 1729 00c0 50       		.byte	0x50
 1730 00c1 24000000 		.4byte	.LVL6-.Ltext0
 1731 00c5 30000000 		.4byte	.LFE65-.Ltext0
 1732 00c9 0100     		.2byte	0x1
 1733 00cb 50       		.byte	0x50
 1734 00cc 00000000 		.4byte	0
 1735 00d0 00000000 		.4byte	0
 1736              		.section	.debug_aranges,"",%progbits
 1737 0000 1C000000 		.4byte	0x1c
 1738 0004 0200     		.2byte	0x2
 1739 0006 00000000 		.4byte	.Ldebug_info0
 1740 000a 04       		.byte	0x4
 1741 000b 00       		.byte	0
 1742 000c 0000     		.2byte	0
 1743 000e 0000     		.2byte	0
 1744 0010 00000000 		.4byte	.Ltext0
 1745 0014 36000000 		.4byte	.Letext0-.Ltext0
 1746 0018 00000000 		.4byte	0
 1747 001c 00000000 		.4byte	0
 1748              		.section	.debug_line,"",%progbits
 1749              	.Ldebug_line0:
 1750 0000 6A010000 		.section	.debug_str,"MS",%progbits,1
 1750      02003F01 
 1750      00000201 
 1750      FB0E0D00 
 1750      01010101 
 1751              	.LASF124:
 1752 0000 68706364 		.ascii	"hpcd\000"
 1752      00
 1753              	.LASF83:
 1754 0005 48414C5F 		.ascii	"HAL_PCD_STATE_BUSY\000"
 1754      5043445F 
 1754      53544154 
 1754      455F4255 
 1754      535900
 1755              	.LASF133:
 1756 0018 48414C5F 		.ascii	"HAL_PCDEx_BCD_Callback\000"
 1756      50434445 
 1756      785F4243 
 1756      445F4361 
 1756      6C6C6261 
 1757              	.LASF24:
 1758 002f 45503152 		.ascii	"EP1R\000"
ARM GAS  /tmp/ccAUnyVA.s 			page 36


 1758      00
 1759              	.LASF121:
 1760 0034 48414C5F 		.ascii	"HAL_TickFreqTypeDef\000"
 1760      5469636B 
 1760      46726571 
 1760      54797065 
 1760      44656600 
 1761              	.LASF103:
 1762 0048 5043445F 		.ascii	"PCD_EPTypeDef\000"
 1762      45505479 
 1762      70654465 
 1762      6600
 1763              	.LASF74:
 1764 0056 74785F66 		.ascii	"tx_fifo_num\000"
 1764      69666F5F 
 1764      6E756D00 
 1765              	.LASF3:
 1766 0062 5F5F7569 		.ascii	"__uint8_t\000"
 1766      6E74385F 
 1766      7400
 1767              	.LASF51:
 1768 006c 48414C5F 		.ascii	"HAL_BUSY\000"
 1768      42555359 
 1768      00
 1769              	.LASF21:
 1770 0075 41504250 		.ascii	"APBPrescTable\000"
 1770      72657363 
 1770      5461626C 
 1770      6500
 1771              	.LASF68:
 1772 0083 74797065 		.ascii	"type\000"
 1772      00
 1773              	.LASF107:
 1774 0088 494E5F65 		.ascii	"IN_ep\000"
 1774      7000
 1775              	.LASF104:
 1776 008e 496E7374 		.ascii	"Instance\000"
 1776      616E6365 
 1776      00
 1777              	.LASF11:
 1778 0097 6C6F6E67 		.ascii	"long long unsigned int\000"
 1778      206C6F6E 
 1778      6720756E 
 1778      7369676E 
 1778      65642069 
 1779              	.LASF89:
 1780 00ae 4C504D5F 		.ascii	"LPM_L3\000"
 1780      4C3300
 1781              	.LASF96:
 1782 00b5 5043445F 		.ascii	"PCD_BCD_STD_DOWNSTREAM_PORT\000"
 1782      4243445F 
 1782      5354445F 
 1782      444F574E 
 1782      53545245 
 1783              	.LASF81:
 1784 00d1 48414C5F 		.ascii	"HAL_PCD_STATE_READY\000"
 1784      5043445F 
ARM GAS  /tmp/ccAUnyVA.s 			page 37


 1784      53544154 
 1784      455F5245 
 1784      41445900 
 1785              	.LASF57:
 1786 00e5 6465765F 		.ascii	"dev_endpoints\000"
 1786      656E6470 
 1786      6F696E74 
 1786      7300
 1787              	.LASF66:
 1788 00f3 69735F69 		.ascii	"is_in\000"
 1788      6E00
 1789              	.LASF30:
 1790 00f9 45503452 		.ascii	"EP4R\000"
 1790      00
 1791              	.LASF112:
 1792 00fe 53657475 		.ascii	"Setup\000"
 1792      7000
 1793              	.LASF10:
 1794 0104 6C6F6E67 		.ascii	"long long int\000"
 1794      206C6F6E 
 1794      6720696E 
 1794      7400
 1795              	.LASF0:
 1796 0112 7369676E 		.ascii	"signed char\000"
 1796      65642063 
 1796      68617200 
 1797              	.LASF26:
 1798 011e 45503252 		.ascii	"EP2R\000"
 1798      00
 1799              	.LASF113:
 1800 0123 4C504D5F 		.ascii	"LPM_State\000"
 1800      53746174 
 1800      6500
 1801              	.LASF40:
 1802 012d 49535452 		.ascii	"ISTR\000"
 1802      00
 1803              	.LASF56:
 1804 0132 48414C5F 		.ascii	"HAL_LockTypeDef\000"
 1804      4C6F636B 
 1804      54797065 
 1804      44656600 
 1805              	.LASF127:
 1806 0142 73746174 		.ascii	"state\000"
 1806      6500
 1807              	.LASF7:
 1808 0148 6C6F6E67 		.ascii	"long int\000"
 1808      20696E74 
 1808      00
 1809              	.LASF93:
 1810 0151 5043445F 		.ascii	"PCD_LPM_MsgTypeDef\000"
 1810      4C504D5F 
 1810      4D736754 
 1810      79706544 
 1810      656600
 1811              	.LASF38:
 1812 0164 434E5452 		.ascii	"CNTR\000"
 1812      00
ARM GAS  /tmp/ccAUnyVA.s 			page 38


 1813              	.LASF78:
 1814 0169 78666572 		.ascii	"xfer_count\000"
 1814      5F636F75 
 1814      6E7400
 1815              	.LASF14:
 1816 0174 75696E74 		.ascii	"uint16_t\000"
 1816      31365F74 
 1816      00
 1817              	.LASF117:
 1818 017d 48414C5F 		.ascii	"HAL_TICK_FREQ_10HZ\000"
 1818      5449434B 
 1818      5F465245 
 1818      515F3130 
 1818      485A00
 1819              	.LASF73:
 1820 0190 646F7562 		.ascii	"doublebuffer\000"
 1820      6C656275 
 1820      66666572 
 1820      00
 1821              	.LASF4:
 1822 019d 5F5F7569 		.ascii	"__uint16_t\000"
 1822      6E743136 
 1822      5F7400
 1823              	.LASF109:
 1824 01a8 4C6F636B 		.ascii	"Lock\000"
 1824      00
 1825              	.LASF8:
 1826 01ad 5F5F7569 		.ascii	"__uint32_t\000"
 1826      6E743332 
 1826      5F7400
 1827              	.LASF28:
 1828 01b8 45503352 		.ascii	"EP3R\000"
 1828      00
 1829              	.LASF67:
 1830 01bd 69735F73 		.ascii	"is_stall\000"
 1830      74616C6C 
 1830      00
 1831              	.LASF60:
 1832 01c6 7068795F 		.ascii	"phy_itface\000"
 1832      69746661 
 1832      636500
 1833              	.LASF52:
 1834 01d1 48414C5F 		.ascii	"HAL_TIMEOUT\000"
 1834      54494D45 
 1834      4F555400 
 1835              	.LASF79:
 1836 01dd 5553425F 		.ascii	"USB_EPTypeDef\000"
 1836      45505479 
 1836      70654465 
 1836      6600
 1837              	.LASF45:
 1838 01eb 42544142 		.ascii	"BTABLE\000"
 1838      4C4500
 1839              	.LASF12:
 1840 01f2 756E7369 		.ascii	"unsigned int\000"
 1840      676E6564 
 1840      20696E74 
ARM GAS  /tmp/ccAUnyVA.s 			page 39


 1840      00
 1841              	.LASF130:
 1842 01ff 474E5520 		.ascii	"GNU C11 6.3.1 20170620 -mcpu=cortex-m3 -mthumb -g -"
 1842      43313120 
 1842      362E332E 
 1842      31203230 
 1842      31373036 
 1843 0232 67647761 		.ascii	"gdwarf-2 -Os -fomit-frame-pointer\000"
 1843      72662D32 
 1843      202D4F73 
 1843      202D666F 
 1843      6D69742D 
 1844              	.LASF36:
 1845 0254 45503752 		.ascii	"EP7R\000"
 1845      00
 1846              	.LASF86:
 1847 0259 4C504D5F 		.ascii	"LPM_L0\000"
 1847      4C3000
 1848              	.LASF87:
 1849 0260 4C504D5F 		.ascii	"LPM_L1\000"
 1849      4C3100
 1850              	.LASF88:
 1851 0267 4C504D5F 		.ascii	"LPM_L2\000"
 1851      4C3200
 1852              	.LASF123:
 1853 026e 75775469 		.ascii	"uwTickFreq\000"
 1853      636B4672 
 1853      657100
 1854              	.LASF126:
 1855 0279 48414C5F 		.ascii	"HAL_PCDEx_SetConnectionState\000"
 1855      50434445 
 1855      785F5365 
 1855      74436F6E 
 1855      6E656374 
 1856              	.LASF9:
 1857 0296 6C6F6E67 		.ascii	"long unsigned int\000"
 1857      20756E73 
 1857      69676E65 
 1857      6420696E 
 1857      7400
 1858              	.LASF119:
 1859 02a8 48414C5F 		.ascii	"HAL_TICK_FREQ_1KHZ\000"
 1859      5449434B 
 1859      5F465245 
 1859      515F314B 
 1859      485A00
 1860              	.LASF49:
 1861 02bb 48414C5F 		.ascii	"HAL_OK\000"
 1861      4F4B00
 1862              	.LASF97:
 1863 02c2 5043445F 		.ascii	"PCD_BCD_CHARGING_DOWNSTREAM_PORT\000"
 1863      4243445F 
 1863      43484152 
 1863      47494E47 
 1863      5F444F57 
 1864              	.LASF5:
 1865 02e3 73686F72 		.ascii	"short unsigned int\000"
ARM GAS  /tmp/ccAUnyVA.s 			page 40


 1865      7420756E 
 1865      7369676E 
 1865      65642069 
 1865      6E7400
 1866              	.LASF90:
 1867 02f6 5043445F 		.ascii	"PCD_LPM_StateTypeDef\000"
 1867      4C504D5F 
 1867      53746174 
 1867      65547970 
 1867      65446566 
 1868              	.LASF95:
 1869 030b 5043445F 		.ascii	"PCD_BCD_CONTACT_DETECTION\000"
 1869      4243445F 
 1869      434F4E54 
 1869      4143545F 
 1869      44455445 
 1870              	.LASF111:
 1871 0325 4572726F 		.ascii	"ErrorCode\000"
 1871      72436F64 
 1871      6500
 1872              	.LASF85:
 1873 032f 5043445F 		.ascii	"PCD_StateTypeDef\000"
 1873      53746174 
 1873      65547970 
 1873      65446566 
 1873      00
 1874              	.LASF53:
 1875 0340 48414C5F 		.ascii	"HAL_StatusTypeDef\000"
 1875      53746174 
 1875      75735479 
 1875      70654465 
 1875      6600
 1876              	.LASF94:
 1877 0352 5043445F 		.ascii	"PCD_BCD_ERROR\000"
 1877      4243445F 
 1877      4552524F 
 1877      5200
 1878              	.LASF20:
 1879 0360 41484250 		.ascii	"AHBPrescTable\000"
 1879      72657363 
 1879      5461626C 
 1879      6500
 1880              	.LASF98:
 1881 036e 5043445F 		.ascii	"PCD_BCD_DEDICATED_CHARGING_PORT\000"
 1881      4243445F 
 1881      44454449 
 1881      43415445 
 1881      445F4348 
 1882              	.LASF129:
 1883 038e 65705F6B 		.ascii	"ep_kind\000"
 1883      696E6400 
 1884              	.LASF105:
 1885 0396 496E6974 		.ascii	"Init\000"
 1885      00
 1886              	.LASF77:
 1887 039b 78666572 		.ascii	"xfer_len\000"
 1887      5F6C656E 
ARM GAS  /tmp/ccAUnyVA.s 			page 41


 1887      00
 1888              	.LASF92:
 1889 03a4 5043445F 		.ascii	"PCD_LPM_L1_ACTIVE\000"
 1889      4C504D5F 
 1889      4C315F41 
 1889      43544956 
 1889      4500
 1890              	.LASF17:
 1891 03b6 73697A65 		.ascii	"sizetype\000"
 1891      74797065 
 1891      00
 1892              	.LASF71:
 1893 03bf 706D6161 		.ascii	"pmaaddr0\000"
 1893      64647230 
 1893      00
 1894              	.LASF55:
 1895 03c8 48414C5F 		.ascii	"HAL_LOCKED\000"
 1895      4C4F434B 
 1895      454400
 1896              	.LASF72:
 1897 03d3 706D6161 		.ascii	"pmaaddr1\000"
 1897      64647231 
 1897      00
 1898              	.LASF32:
 1899 03dc 45503552 		.ascii	"EP5R\000"
 1899      00
 1900              	.LASF116:
 1901 03e1 5043445F 		.ascii	"PCD_HandleTypeDef\000"
 1901      48616E64 
 1901      6C655479 
 1901      70654465 
 1901      6600
 1902              	.LASF120:
 1903 03f3 48414C5F 		.ascii	"HAL_TICK_FREQ_DEFAULT\000"
 1903      5449434B 
 1903      5F465245 
 1903      515F4445 
 1903      4641554C 
 1904              	.LASF19:
 1905 0409 53797374 		.ascii	"SystemCoreClock\000"
 1905      656D436F 
 1905      7265436C 
 1905      6F636B00 
 1906              	.LASF75:
 1907 0419 6D617870 		.ascii	"maxpacket\000"
 1907      61636B65 
 1907      7400
 1908              	.LASF23:
 1909 0423 52455345 		.ascii	"RESERVED0\000"
 1909      52564544 
 1909      3000
 1910              	.LASF25:
 1911 042d 52455345 		.ascii	"RESERVED1\000"
 1911      52564544 
 1911      3100
 1912              	.LASF27:
 1913 0437 52455345 		.ascii	"RESERVED2\000"
ARM GAS  /tmp/ccAUnyVA.s 			page 42


 1913      52564544 
 1913      3200
 1914              	.LASF101:
 1915 0441 5043445F 		.ascii	"PCD_TypeDef\000"
 1915      54797065 
 1915      44656600 
 1916              	.LASF31:
 1917 044d 52455345 		.ascii	"RESERVED4\000"
 1917      52564544 
 1917      3400
 1918              	.LASF33:
 1919 0457 52455345 		.ascii	"RESERVED5\000"
 1919      52564544 
 1919      3500
 1920              	.LASF35:
 1921 0461 52455345 		.ascii	"RESERVED6\000"
 1921      52564544 
 1921      3600
 1922              	.LASF37:
 1923 046b 52455345 		.ascii	"RESERVED7\000"
 1923      52564544 
 1923      3700
 1924              	.LASF39:
 1925 0475 52455345 		.ascii	"RESERVED8\000"
 1925      52564544 
 1925      3800
 1926              	.LASF41:
 1927 047f 52455345 		.ascii	"RESERVED9\000"
 1927      52564544 
 1927      3900
 1928              	.LASF132:
 1929 0489 2F686F6D 		.ascii	"/home/berndoj/git/stm32tctst/lib/stm32f1hal\000"
 1929      652F6265 
 1929      726E646F 
 1929      6A2F6769 
 1929      742F7374 
 1930              	.LASF15:
 1931 04b5 696E7433 		.ascii	"int32_t\000"
 1931      325F7400 
 1932              	.LASF1:
 1933 04bd 756E7369 		.ascii	"unsigned char\000"
 1933      676E6564 
 1933      20636861 
 1933      7200
 1934              	.LASF46:
 1935 04cb 52455345 		.ascii	"RESERVEDC\000"
 1935      52564544 
 1935      4300
 1936              	.LASF18:
 1937 04d5 49544D5F 		.ascii	"ITM_RxBuffer\000"
 1937      52784275 
 1937      66666572 
 1937      00
 1938              	.LASF2:
 1939 04e2 73686F72 		.ascii	"short int\000"
 1939      7420696E 
 1939      7400
ARM GAS  /tmp/ccAUnyVA.s 			page 43


 1940              	.LASF131:
 1941 04ec 7372632F 		.ascii	"src/stm32f1xx_hal_pcd_ex.c\000"
 1941      73746D33 
 1941      32663178 
 1941      785F6861 
 1941      6C5F7063 
 1942              	.LASF34:
 1943 0507 45503652 		.ascii	"EP6R\000"
 1943      00
 1944              	.LASF69:
 1945 050c 64617461 		.ascii	"data_pid_start\000"
 1945      5F706964 
 1945      5F737461 
 1945      727400
 1946              	.LASF102:
 1947 051b 5043445F 		.ascii	"PCD_InitTypeDef\000"
 1947      496E6974 
 1947      54797065 
 1947      44656600 
 1948              	.LASF106:
 1949 052b 5553425F 		.ascii	"USB_Address\000"
 1949      41646472 
 1949      65737300 
 1950              	.LASF65:
 1951 0537 5553425F 		.ascii	"USB_CfgTypeDef\000"
 1951      43666754 
 1951      79706544 
 1951      656600
 1952              	.LASF99:
 1953 0546 5043445F 		.ascii	"PCD_BCD_DISCOVERY_COMPLETED\000"
 1953      4243445F 
 1953      44495343 
 1953      4F564552 
 1953      595F434F 
 1954              	.LASF64:
 1955 0562 62617474 		.ascii	"battery_charging_enable\000"
 1955      6572795F 
 1955      63686172 
 1955      67696E67 
 1955      5F656E61 
 1956              	.LASF29:
 1957 057a 52455345 		.ascii	"RESERVED3\000"
 1957      52564544 
 1957      3300
 1958              	.LASF16:
 1959 0584 75696E74 		.ascii	"uint32_t\000"
 1959      33325F74 
 1959      00
 1960              	.LASF50:
 1961 058d 48414C5F 		.ascii	"HAL_ERROR\000"
 1961      4552524F 
 1961      5200
 1962              	.LASF48:
 1963 0597 6C6F6E67 		.ascii	"long double\000"
 1963      20646F75 
 1963      626C6500 
 1964              	.LASF122:
ARM GAS  /tmp/ccAUnyVA.s 			page 44


 1965 05a3 75775469 		.ascii	"uwTickPrio\000"
 1965      636B5072 
 1965      696F00
 1966              	.LASF110:
 1967 05ae 53746174 		.ascii	"State\000"
 1967      6500
 1968              	.LASF42:
 1969 05b4 52455345 		.ascii	"RESERVEDA\000"
 1969      52564544 
 1969      4100
 1970              	.LASF44:
 1971 05be 52455345 		.ascii	"RESERVEDB\000"
 1971      52564544 
 1971      4200
 1972              	.LASF91:
 1973 05c8 5043445F 		.ascii	"PCD_LPM_L0_ACTIVE\000"
 1973      4C504D5F 
 1973      4C305F41 
 1973      43544956 
 1973      4500
 1974              	.LASF108:
 1975 05da 4F55545F 		.ascii	"OUT_ep\000"
 1975      657000
 1976              	.LASF118:
 1977 05e1 48414C5F 		.ascii	"HAL_TICK_FREQ_100HZ\000"
 1977      5449434B 
 1977      5F465245 
 1977      515F3130 
 1977      30485A00 
 1978              	.LASF6:
 1979 05f5 5F5F696E 		.ascii	"__int32_t\000"
 1979      7433325F 
 1979      7400
 1980              	.LASF114:
 1981 05ff 4245534C 		.ascii	"BESL\000"
 1981      00
 1982              	.LASF128:
 1983 0604 65705F61 		.ascii	"ep_addr\000"
 1983      64647200 
 1984              	.LASF59:
 1985 060c 6570305F 		.ascii	"ep0_mps\000"
 1985      6D707300 
 1986              	.LASF125:
 1987 0614 48414C5F 		.ascii	"HAL_PCDEx_LPM_Callback\000"
 1987      50434445 
 1987      785F4C50 
 1987      4D5F4361 
 1987      6C6C6261 
 1988              	.LASF43:
 1989 062b 44414444 		.ascii	"DADDR\000"
 1989      5200
 1990              	.LASF76:
 1991 0631 78666572 		.ascii	"xfer_buff\000"
 1991      5F627566 
 1991      6600
 1992              	.LASF134:
 1993 063b 48414C5F 		.ascii	"HAL_PCDEx_PMAConfig\000"
ARM GAS  /tmp/ccAUnyVA.s 			page 45


 1993      50434445 
 1993      785F504D 
 1993      41436F6E 
 1993      66696700 
 1994              	.LASF61:
 1995 064f 536F665F 		.ascii	"Sof_enable\000"
 1995      656E6162 
 1995      6C6500
 1996              	.LASF82:
 1997 065a 48414C5F 		.ascii	"HAL_PCD_STATE_ERROR\000"
 1997      5043445F 
 1997      53544154 
 1997      455F4552 
 1997      524F5200 
 1998              	.LASF22:
 1999 066e 45503052 		.ascii	"EP0R\000"
 1999      00
 2000              	.LASF63:
 2001 0673 6C706D5F 		.ascii	"lpm_enable\000"
 2001      656E6162 
 2001      6C6500
 2002              	.LASF84:
 2003 067e 48414C5F 		.ascii	"HAL_PCD_STATE_TIMEOUT\000"
 2003      5043445F 
 2003      53544154 
 2003      455F5449 
 2003      4D454F55 
 2004              	.LASF13:
 2005 0694 75696E74 		.ascii	"uint8_t\000"
 2005      385F7400 
 2006              	.LASF70:
 2007 069c 706D6161 		.ascii	"pmaadress\000"
 2007      64726573 
 2007      7300
 2008              	.LASF100:
 2009 06a6 5043445F 		.ascii	"PCD_BCD_MsgTypeDef\000"
 2009      4243445F 
 2009      4D736754 
 2009      79706544 
 2009      656600
 2010              	.LASF58:
 2011 06b9 73706565 		.ascii	"speed\000"
 2011      6400
 2012              	.LASF54:
 2013 06bf 48414C5F 		.ascii	"HAL_UNLOCKED\000"
 2013      554E4C4F 
 2013      434B4544 
 2013      00
 2014              	.LASF47:
 2015 06cc 5553425F 		.ascii	"USB_TypeDef\000"
 2015      54797065 
 2015      44656600 
 2016              	.LASF115:
 2017 06d8 70446174 		.ascii	"pData\000"
 2017      6100
 2018              	.LASF62:
 2019 06de 6C6F775F 		.ascii	"low_power_enable\000"
ARM GAS  /tmp/ccAUnyVA.s 			page 46


 2019      706F7765 
 2019      725F656E 
 2019      61626C65 
 2019      00
 2020              	.LASF80:
 2021 06ef 48414C5F 		.ascii	"HAL_PCD_STATE_RESET\000"
 2021      5043445F 
 2021      53544154 
 2021      455F5245 
 2021      53455400 
 2022              		.ident	"GCC: (15:6.3.1+svn253039-1build1) 6.3.1 20170620"
ARM GAS  /tmp/ccAUnyVA.s 			page 47


DEFINED SYMBOLS
                            *ABS*:0000000000000000 stm32f1xx_hal_pcd_ex.c
     /tmp/ccAUnyVA.s:69     .text:0000000000000000 $t
     /tmp/ccAUnyVA.s:76     .text:0000000000000000 HAL_PCDEx_PMAConfig
     /tmp/ccAUnyVA.s:138    .text:0000000000000030 HAL_PCDEx_SetConnectionState
     /tmp/ccAUnyVA.s:155    .text:0000000000000032 HAL_PCDEx_LPM_Callback
     /tmp/ccAUnyVA.s:172    .text:0000000000000034 HAL_PCDEx_BCD_Callback
                     .debug_frame:0000000000000010 $d

NO UNDEFINED SYMBOLS
