ARM GAS  /tmp/ccYRrd4O.s 			page 1


   1              		.cpu cortex-m3
   2              		.eabi_attribute 20, 1
   3              		.eabi_attribute 21, 1
   4              		.eabi_attribute 23, 3
   5              		.eabi_attribute 24, 1
   6              		.eabi_attribute 25, 1
   7              		.eabi_attribute 26, 1
   8              		.eabi_attribute 30, 1
   9              		.eabi_attribute 34, 1
  10              		.eabi_attribute 18, 4
  11              		.file	"stm32f1xx_hal_spi.c"
  12              		.section	.text.SPI_AbortRx_ISR,"ax",%progbits
  13              		.align	1
  14              		.syntax unified
  15              		.thumb
  16              		.thumb_func
  17              		.fpu softvfp
  19              	SPI_AbortRx_ISR:
  20              		@ args = 0, pretend = 0, frame = 8
  21              		@ frame_needed = 0, uses_anonymous_args = 0
  22              		@ link register save eliminated.
  23 0000 82B0     		sub	sp, sp, #8
  24 0002 154B     		ldr	r3, .L7
  25 0004 1B68     		ldr	r3, [r3]
  26 0006 154A     		ldr	r2, .L7+4
  27 0008 A2FB0323 		umull	r2, r3, r2, r3
  28 000c 5B0A     		lsrs	r3, r3, #9
  29 000e 6422     		movs	r2, #100
  30 0010 02FB03F3 		mul	r3, r2, r3
  31 0014 0193     		str	r3, [sp, #4]
  32              	.L4:
  33 0016 019B     		ldr	r3, [sp, #4]
  34 0018 43B1     		cbz	r3, .L6
  35 001a 019B     		ldr	r3, [sp, #4]
  36 001c 013B     		subs	r3, r3, #1
  37 001e 0193     		str	r3, [sp, #4]
  38 0020 0368     		ldr	r3, [r0]
  39 0022 9B68     		ldr	r3, [r3, #8]
  40 0024 13F0020F 		tst	r3, #2
  41 0028 F5D0     		beq	.L4
  42 002a 03E0     		b	.L3
  43              	.L6:
  44 002c 436D     		ldr	r3, [r0, #84]
  45 002e 43F04003 		orr	r3, r3, #64
  46 0032 4365     		str	r3, [r0, #84]
  47              	.L3:
  48 0034 0268     		ldr	r2, [r0]
  49 0036 1368     		ldr	r3, [r2]
  50 0038 23F04003 		bic	r3, r3, #64
  51 003c 1360     		str	r3, [r2]
  52 003e 0268     		ldr	r2, [r0]
  53 0040 5368     		ldr	r3, [r2, #4]
  54 0042 23F0E003 		bic	r3, r3, #224
  55 0046 5360     		str	r3, [r2, #4]
  56 0048 0368     		ldr	r3, [r0]
  57 004a DB68     		ldr	r3, [r3, #12]
  58 004c 0723     		movs	r3, #7
ARM GAS  /tmp/ccYRrd4O.s 			page 2


  59 004e 80F85130 		strb	r3, [r0, #81]
  60 0052 02B0     		add	sp, sp, #8
  61              		@ sp needed
  62 0054 7047     		bx	lr
  63              	.L8:
  64 0056 00BF     		.align	2
  65              	.L7:
  66 0058 00000000 		.word	SystemCoreClock
  67 005c F1197605 		.word	91625969
  69              		.section	.text.SPI_AbortTx_ISR,"ax",%progbits
  70              		.align	1
  71              		.syntax unified
  72              		.thumb
  73              		.thumb_func
  74              		.fpu softvfp
  76              	SPI_AbortTx_ISR:
  77              		@ args = 0, pretend = 0, frame = 0
  78              		@ frame_needed = 0, uses_anonymous_args = 0
  79              		@ link register save eliminated.
  80 0000 0268     		ldr	r2, [r0]
  81 0002 5368     		ldr	r3, [r2, #4]
  82 0004 23F08003 		bic	r3, r3, #128
  83 0008 5360     		str	r3, [r2, #4]
  84 000a 0268     		ldr	r2, [r0]
  85 000c 1368     		ldr	r3, [r2]
  86 000e 23F04003 		bic	r3, r3, #64
  87 0012 1360     		str	r3, [r2]
  88 0014 0723     		movs	r3, #7
  89 0016 80F85130 		strb	r3, [r0, #81]
  90 001a 7047     		bx	lr
  92              		.section	.text.SPI_WaitFlagStateUntilTimeout,"ax",%progbits
  93              		.align	1
  94              		.syntax unified
  95              		.thumb
  96              		.thumb_func
  97              		.fpu softvfp
  99              	SPI_WaitFlagStateUntilTimeout:
 100              		@ args = 4, pretend = 0, frame = 0
 101              		@ frame_needed = 0, uses_anonymous_args = 0
 102 0000 F8B5     		push	{r3, r4, r5, r6, r7, lr}
 103 0002 0546     		mov	r5, r0
 104 0004 0F46     		mov	r7, r1
 105 0006 1646     		mov	r6, r2
 106 0008 1C46     		mov	r4, r3
 107              	.L12:
 108 000a 2B68     		ldr	r3, [r5]
 109 000c 9B68     		ldr	r3, [r3, #8]
 110 000e 37EA0303 		bics	r3, r7, r3
 111 0012 0CBF     		ite	eq
 112 0014 0123     		moveq	r3, #1
 113 0016 0023     		movne	r3, #0
 114 0018 B342     		cmp	r3, r6
 115 001a 37D0     		beq	.L20
 116 001c B4F1FF3F 		cmp	r4, #-1
 117 0020 F3D0     		beq	.L12
 118 0022 FFF7FEFF 		bl	HAL_GetTick
 119 0026 069B     		ldr	r3, [sp, #24]
ARM GAS  /tmp/ccYRrd4O.s 			page 3


 120 0028 C01A     		subs	r0, r0, r3
 121 002a 8442     		cmp	r4, r0
 122 002c 01D9     		bls	.L13
 123 002e 002C     		cmp	r4, #0
 124 0030 EBD1     		bne	.L12
 125              	.L13:
 126 0032 2A68     		ldr	r2, [r5]
 127 0034 5368     		ldr	r3, [r2, #4]
 128 0036 23F0E003 		bic	r3, r3, #224
 129 003a 5360     		str	r3, [r2, #4]
 130 003c 6B68     		ldr	r3, [r5, #4]
 131 003e B3F5827F 		cmp	r3, #260
 132 0042 0BD0     		beq	.L21
 133              	.L14:
 134 0044 AB6A     		ldr	r3, [r5, #40]
 135 0046 B3F5005F 		cmp	r3, #8192
 136 004a 14D0     		beq	.L22
 137              	.L16:
 138 004c 0123     		movs	r3, #1
 139 004e 85F85130 		strb	r3, [r5, #81]
 140 0052 0023     		movs	r3, #0
 141 0054 85F85030 		strb	r3, [r5, #80]
 142 0058 0320     		movs	r0, #3
 143 005a F8BD     		pop	{r3, r4, r5, r6, r7, pc}
 144              	.L21:
 145 005c AB68     		ldr	r3, [r5, #8]
 146 005e B3F5004F 		cmp	r3, #32768
 147 0062 02D0     		beq	.L15
 148 0064 B3F5806F 		cmp	r3, #1024
 149 0068 ECD1     		bne	.L14
 150              	.L15:
 151 006a 2A68     		ldr	r2, [r5]
 152 006c 1368     		ldr	r3, [r2]
 153 006e 23F04003 		bic	r3, r3, #64
 154 0072 1360     		str	r3, [r2]
 155 0074 E6E7     		b	.L14
 156              	.L22:
 157 0076 2A68     		ldr	r2, [r5]
 158 0078 1368     		ldr	r3, [r2]
 159 007a 23F40053 		bic	r3, r3, #8192
 160 007e 1360     		str	r3, [r2]
 161 0080 2A68     		ldr	r2, [r5]
 162 0082 1368     		ldr	r3, [r2]
 163 0084 43F40053 		orr	r3, r3, #8192
 164 0088 1360     		str	r3, [r2]
 165 008a DFE7     		b	.L16
 166              	.L20:
 167 008c 0020     		movs	r0, #0
 168 008e F8BD     		pop	{r3, r4, r5, r6, r7, pc}
 170              		.section	.text.SPI_EndRxTxTransaction,"ax",%progbits
 171              		.align	1
 172              		.syntax unified
 173              		.thumb
 174              		.thumb_func
 175              		.fpu softvfp
 177              	SPI_EndRxTxTransaction:
 178              		@ args = 0, pretend = 0, frame = 0
ARM GAS  /tmp/ccYRrd4O.s 			page 4


 179              		@ frame_needed = 0, uses_anonymous_args = 0
 180 0000 10B5     		push	{r4, lr}
 181 0002 82B0     		sub	sp, sp, #8
 182 0004 0446     		mov	r4, r0
 183 0006 0092     		str	r2, [sp]
 184 0008 0B46     		mov	r3, r1
 185 000a 0022     		movs	r2, #0
 186 000c 8021     		movs	r1, #128
 187 000e FFF7FEFF 		bl	SPI_WaitFlagStateUntilTimeout
 188 0012 0346     		mov	r3, r0
 189 0014 20B1     		cbz	r0, .L24
 190 0016 636D     		ldr	r3, [r4, #84]
 191 0018 43F02003 		orr	r3, r3, #32
 192 001c 6365     		str	r3, [r4, #84]
 193 001e 0323     		movs	r3, #3
 194              	.L24:
 195 0020 1846     		mov	r0, r3
 196 0022 02B0     		add	sp, sp, #8
 197              		@ sp needed
 198 0024 10BD     		pop	{r4, pc}
 200              		.section	.text.SPI_EndRxTransaction,"ax",%progbits
 201              		.align	1
 202              		.syntax unified
 203              		.thumb
 204              		.thumb_func
 205              		.fpu softvfp
 207              	SPI_EndRxTransaction:
 208              		@ args = 0, pretend = 0, frame = 0
 209              		@ frame_needed = 0, uses_anonymous_args = 0
 210 0000 10B5     		push	{r4, lr}
 211 0002 82B0     		sub	sp, sp, #8
 212 0004 0446     		mov	r4, r0
 213 0006 4068     		ldr	r0, [r0, #4]
 214 0008 B0F5827F 		cmp	r0, #260
 215 000c 14D0     		beq	.L32
 216              	.L27:
 217 000e 6068     		ldr	r0, [r4, #4]
 218 0010 B0F5827F 		cmp	r0, #260
 219 0014 1DD0     		beq	.L33
 220              	.L29:
 221 0016 0092     		str	r2, [sp]
 222 0018 0B46     		mov	r3, r1
 223 001a 0022     		movs	r2, #0
 224 001c 8021     		movs	r1, #128
 225 001e 2046     		mov	r0, r4
 226 0020 FFF7FEFF 		bl	SPI_WaitFlagStateUntilTimeout
 227 0024 0346     		mov	r3, r0
 228 0026 20B1     		cbz	r0, .L30
 229 0028 636D     		ldr	r3, [r4, #84]
 230 002a 43F02003 		orr	r3, r3, #32
 231 002e 6365     		str	r3, [r4, #84]
 232 0030 0323     		movs	r3, #3
 233              	.L30:
 234 0032 1846     		mov	r0, r3
 235 0034 02B0     		add	sp, sp, #8
 236              		@ sp needed
 237 0036 10BD     		pop	{r4, pc}
ARM GAS  /tmp/ccYRrd4O.s 			page 5


 238              	.L32:
 239 0038 A368     		ldr	r3, [r4, #8]
 240 003a B3F5004F 		cmp	r3, #32768
 241 003e 02D0     		beq	.L28
 242 0040 B3F5806F 		cmp	r3, #1024
 243 0044 E3D1     		bne	.L27
 244              	.L28:
 245 0046 2068     		ldr	r0, [r4]
 246 0048 0368     		ldr	r3, [r0]
 247 004a 23F04003 		bic	r3, r3, #64
 248 004e 0360     		str	r3, [r0]
 249 0050 DDE7     		b	.L27
 250              	.L33:
 251 0052 A368     		ldr	r3, [r4, #8]
 252 0054 B3F5806F 		cmp	r3, #1024
 253 0058 DDD1     		bne	.L29
 254 005a 0092     		str	r2, [sp]
 255 005c 0B46     		mov	r3, r1
 256 005e 0022     		movs	r2, #0
 257 0060 0121     		movs	r1, #1
 258 0062 2046     		mov	r0, r4
 259 0064 FFF7FEFF 		bl	SPI_WaitFlagStateUntilTimeout
 260 0068 0346     		mov	r3, r0
 261 006a 0028     		cmp	r0, #0
 262 006c E1D0     		beq	.L30
 263 006e 636D     		ldr	r3, [r4, #84]
 264 0070 43F02003 		orr	r3, r3, #32
 265 0074 6365     		str	r3, [r4, #84]
 266 0076 0323     		movs	r3, #3
 267 0078 DBE7     		b	.L30
 269              		.section	.text.HAL_SPI_MspInit,"ax",%progbits
 270              		.align	1
 271              		.weak	HAL_SPI_MspInit
 272              		.syntax unified
 273              		.thumb
 274              		.thumb_func
 275              		.fpu softvfp
 277              	HAL_SPI_MspInit:
 278              		@ args = 0, pretend = 0, frame = 0
 279              		@ frame_needed = 0, uses_anonymous_args = 0
 280              		@ link register save eliminated.
 281 0000 7047     		bx	lr
 283              		.section	.text.HAL_SPI_Init,"ax",%progbits
 284              		.align	1
 285              		.global	HAL_SPI_Init
 286              		.syntax unified
 287              		.thumb
 288              		.thumb_func
 289              		.fpu softvfp
 291              	HAL_SPI_Init:
 292              		@ args = 0, pretend = 0, frame = 0
 293              		@ frame_needed = 0, uses_anonymous_args = 0
 294 0000 0028     		cmp	r0, #0
 295 0002 3FD0     		beq	.L39
 296 0004 10B5     		push	{r4, lr}
 297 0006 0446     		mov	r4, r0
 298 0008 90F85130 		ldrb	r3, [r0, #81]	@ zero_extendqisi2
ARM GAS  /tmp/ccYRrd4O.s 			page 6


 299 000c 002B     		cmp	r3, #0
 300 000e 30D0     		beq	.L44
 301              	.L37:
 302 0010 0223     		movs	r3, #2
 303 0012 84F85130 		strb	r3, [r4, #81]
 304 0016 2268     		ldr	r2, [r4]
 305 0018 1368     		ldr	r3, [r2]
 306 001a 23F04003 		bic	r3, r3, #64
 307 001e 1360     		str	r3, [r2]
 308 0020 2268     		ldr	r2, [r4]
 309 0022 6368     		ldr	r3, [r4, #4]
 310 0024 A168     		ldr	r1, [r4, #8]
 311 0026 0B43     		orrs	r3, r3, r1
 312 0028 E168     		ldr	r1, [r4, #12]
 313 002a 0B43     		orrs	r3, r3, r1
 314 002c 2169     		ldr	r1, [r4, #16]
 315 002e 0B43     		orrs	r3, r3, r1
 316 0030 6169     		ldr	r1, [r4, #20]
 317 0032 0B43     		orrs	r3, r3, r1
 318 0034 A169     		ldr	r1, [r4, #24]
 319 0036 01F40071 		and	r1, r1, #512
 320 003a 0B43     		orrs	r3, r3, r1
 321 003c E169     		ldr	r1, [r4, #28]
 322 003e 0B43     		orrs	r3, r3, r1
 323 0040 216A     		ldr	r1, [r4, #32]
 324 0042 0B43     		orrs	r3, r3, r1
 325 0044 A16A     		ldr	r1, [r4, #40]
 326 0046 0B43     		orrs	r3, r3, r1
 327 0048 1360     		str	r3, [r2]
 328 004a 2268     		ldr	r2, [r4]
 329 004c 638B     		ldrh	r3, [r4, #26]
 330 004e 03F00403 		and	r3, r3, #4
 331 0052 5360     		str	r3, [r2, #4]
 332 0054 A36A     		ldr	r3, [r4, #40]
 333 0056 B3F5005F 		cmp	r3, #8192
 334 005a 0FD0     		beq	.L45
 335              	.L38:
 336 005c 2268     		ldr	r2, [r4]
 337 005e D369     		ldr	r3, [r2, #28]
 338 0060 23F40063 		bic	r3, r3, #2048
 339 0064 D361     		str	r3, [r2, #28]
 340 0066 0020     		movs	r0, #0
 341 0068 6065     		str	r0, [r4, #84]
 342 006a 0123     		movs	r3, #1
 343 006c 84F85130 		strb	r3, [r4, #81]
 344 0070 10BD     		pop	{r4, pc}
 345              	.L44:
 346 0072 80F85030 		strb	r3, [r0, #80]
 347 0076 FFF7FEFF 		bl	HAL_SPI_MspInit
 348 007a C9E7     		b	.L37
 349              	.L45:
 350 007c 2368     		ldr	r3, [r4]
 351 007e E26A     		ldr	r2, [r4, #44]
 352 0080 1A61     		str	r2, [r3, #16]
 353 0082 EBE7     		b	.L38
 354              	.L39:
 355 0084 0120     		movs	r0, #1
ARM GAS  /tmp/ccYRrd4O.s 			page 7


 356 0086 7047     		bx	lr
 358              		.section	.text.HAL_SPI_MspDeInit,"ax",%progbits
 359              		.align	1
 360              		.weak	HAL_SPI_MspDeInit
 361              		.syntax unified
 362              		.thumb
 363              		.thumb_func
 364              		.fpu softvfp
 366              	HAL_SPI_MspDeInit:
 367              		@ args = 0, pretend = 0, frame = 0
 368              		@ frame_needed = 0, uses_anonymous_args = 0
 369              		@ link register save eliminated.
 370 0000 7047     		bx	lr
 372              		.section	.text.HAL_SPI_DeInit,"ax",%progbits
 373              		.align	1
 374              		.global	HAL_SPI_DeInit
 375              		.syntax unified
 376              		.thumb
 377              		.thumb_func
 378              		.fpu softvfp
 380              	HAL_SPI_DeInit:
 381              		@ args = 0, pretend = 0, frame = 0
 382              		@ frame_needed = 0, uses_anonymous_args = 0
 383 0000 90B1     		cbz	r0, .L49
 384 0002 10B5     		push	{r4, lr}
 385 0004 0446     		mov	r4, r0
 386 0006 0223     		movs	r3, #2
 387 0008 80F85130 		strb	r3, [r0, #81]
 388 000c 0268     		ldr	r2, [r0]
 389 000e 1368     		ldr	r3, [r2]
 390 0010 23F04003 		bic	r3, r3, #64
 391 0014 1360     		str	r3, [r2]
 392 0016 FFF7FEFF 		bl	HAL_SPI_MspDeInit
 393 001a 0020     		movs	r0, #0
 394 001c 6065     		str	r0, [r4, #84]
 395 001e 84F85100 		strb	r0, [r4, #81]
 396 0022 84F85000 		strb	r0, [r4, #80]
 397 0026 10BD     		pop	{r4, pc}
 398              	.L49:
 399 0028 0120     		movs	r0, #1
 400 002a 7047     		bx	lr
 402              		.section	.text.HAL_SPI_Transmit,"ax",%progbits
 403              		.align	1
 404              		.global	HAL_SPI_Transmit
 405              		.syntax unified
 406              		.thumb
 407              		.thumb_func
 408              		.fpu softvfp
 410              	HAL_SPI_Transmit:
 411              		@ args = 0, pretend = 0, frame = 8
 412              		@ frame_needed = 0, uses_anonymous_args = 0
 413 0000 2DE9F041 		push	{r4, r5, r6, r7, r8, lr}
 414 0004 82B0     		sub	sp, sp, #8
 415 0006 90F85040 		ldrb	r4, [r0, #80]	@ zero_extendqisi2
 416 000a 012C     		cmp	r4, #1
 417 000c 03D1     		bne	.L89
 418 000e 0220     		movs	r0, #2
ARM GAS  /tmp/ccYRrd4O.s 			page 8


 419              	.L55:
 420 0010 02B0     		add	sp, sp, #8
 421              		@ sp needed
 422 0012 BDE8F081 		pop	{r4, r5, r6, r7, r8, pc}
 423              	.L89:
 424 0016 1D46     		mov	r5, r3
 425 0018 1746     		mov	r7, r2
 426 001a 8846     		mov	r8, r1
 427 001c 0446     		mov	r4, r0
 428 001e 0123     		movs	r3, #1
 429 0020 80F85030 		strb	r3, [r0, #80]
 430 0024 FFF7FEFF 		bl	HAL_GetTick
 431 0028 0646     		mov	r6, r0
 432 002a 94F85130 		ldrb	r3, [r4, #81]	@ zero_extendqisi2
 433 002e DBB2     		uxtb	r3, r3
 434 0030 012B     		cmp	r3, #1
 435 0032 07D0     		beq	.L90
 436 0034 0220     		movs	r0, #2
 437              	.L56:
 438 0036 0123     		movs	r3, #1
 439 0038 84F85130 		strb	r3, [r4, #81]
 440 003c 0023     		movs	r3, #0
 441 003e 84F85030 		strb	r3, [r4, #80]
 442 0042 E5E7     		b	.L55
 443              	.L90:
 444 0044 B8F1000F 		cmp	r8, #0
 445 0048 00F0B580 		beq	.L81
 446 004c 002F     		cmp	r7, #0
 447 004e 00F0B480 		beq	.L82
 448 0052 0323     		movs	r3, #3
 449 0054 84F85130 		strb	r3, [r4, #81]
 450 0058 0023     		movs	r3, #0
 451 005a 6365     		str	r3, [r4, #84]
 452 005c C4F83080 		str	r8, [r4, #48]
 453 0060 A786     		strh	r7, [r4, #52]	@ movhi
 454 0062 E786     		strh	r7, [r4, #54]	@ movhi
 455 0064 A363     		str	r3, [r4, #56]
 456 0066 A387     		strh	r3, [r4, #60]	@ movhi
 457 0068 E387     		strh	r3, [r4, #62]	@ movhi
 458 006a 6364     		str	r3, [r4, #68]
 459 006c 2364     		str	r3, [r4, #64]
 460 006e A368     		ldr	r3, [r4, #8]
 461 0070 B3F5004F 		cmp	r3, #32768
 462 0074 21D0     		beq	.L91
 463              	.L57:
 464 0076 A36A     		ldr	r3, [r4, #40]
 465 0078 B3F5005F 		cmp	r3, #8192
 466 007c 23D0     		beq	.L92
 467              	.L58:
 468 007e 2368     		ldr	r3, [r4]
 469 0080 1A68     		ldr	r2, [r3]
 470 0082 12F0400F 		tst	r2, #64
 471 0086 03D1     		bne	.L59
 472 0088 1A68     		ldr	r2, [r3]
 473 008a 42F04002 		orr	r2, r2, #64
 474 008e 1A60     		str	r2, [r3]
 475              	.L59:
ARM GAS  /tmp/ccYRrd4O.s 			page 9


 476 0090 E368     		ldr	r3, [r4, #12]
 477 0092 B3F5006F 		cmp	r3, #2048
 478 0096 21D0     		beq	.L93
 479 0098 6368     		ldr	r3, [r4, #4]
 480 009a 0BB1     		cbz	r3, .L69
 481 009c 012F     		cmp	r7, #1
 482 009e 57D1     		bne	.L71
 483              	.L69:
 484 00a0 2368     		ldr	r3, [r4]
 485 00a2 226B     		ldr	r2, [r4, #48]
 486 00a4 1278     		ldrb	r2, [r2]	@ zero_extendqisi2
 487 00a6 1A73     		strb	r2, [r3, #12]
 488 00a8 236B     		ldr	r3, [r4, #48]
 489 00aa 0133     		adds	r3, r3, #1
 490 00ac 2363     		str	r3, [r4, #48]
 491 00ae E38E     		ldrh	r3, [r4, #54]
 492 00b0 9BB2     		uxth	r3, r3
 493 00b2 013B     		subs	r3, r3, #1
 494 00b4 9BB2     		uxth	r3, r3
 495 00b6 E386     		strh	r3, [r4, #54]	@ movhi
 496 00b8 4AE0     		b	.L71
 497              	.L91:
 498 00ba 2268     		ldr	r2, [r4]
 499 00bc 1368     		ldr	r3, [r2]
 500 00be 43F48043 		orr	r3, r3, #16384
 501 00c2 1360     		str	r3, [r2]
 502 00c4 D7E7     		b	.L57
 503              	.L92:
 504 00c6 2268     		ldr	r2, [r4]
 505 00c8 1368     		ldr	r3, [r2]
 506 00ca 23F40053 		bic	r3, r3, #8192
 507 00ce 1360     		str	r3, [r2]
 508 00d0 2268     		ldr	r2, [r4]
 509 00d2 1368     		ldr	r3, [r2]
 510 00d4 43F40053 		orr	r3, r3, #8192
 511 00d8 1360     		str	r3, [r2]
 512 00da D0E7     		b	.L58
 513              	.L93:
 514 00dc 6368     		ldr	r3, [r4, #4]
 515 00de 0BB1     		cbz	r3, .L61
 516 00e0 012F     		cmp	r7, #1
 517 00e2 16D1     		bne	.L63
 518              	.L61:
 519 00e4 2368     		ldr	r3, [r4]
 520 00e6 226B     		ldr	r2, [r4, #48]
 521 00e8 1288     		ldrh	r2, [r2]
 522 00ea DA60     		str	r2, [r3, #12]
 523 00ec 236B     		ldr	r3, [r4, #48]
 524 00ee 0233     		adds	r3, r3, #2
 525 00f0 2363     		str	r3, [r4, #48]
 526 00f2 E38E     		ldrh	r3, [r4, #54]
 527 00f4 9BB2     		uxth	r3, r3
 528 00f6 013B     		subs	r3, r3, #1
 529 00f8 9BB2     		uxth	r3, r3
 530 00fa E386     		strh	r3, [r4, #54]	@ movhi
 531 00fc 09E0     		b	.L63
 532              	.L64:
ARM GAS  /tmp/ccYRrd4O.s 			page 10


 533 00fe FFF7FEFF 		bl	HAL_GetTick
 534 0102 801B     		subs	r0, r0, r6
 535 0104 A842     		cmp	r0, r5
 536 0106 02D3     		bcc	.L66
 537 0108 B5F1FF3F 		cmp	r5, #-1
 538 010c 57D1     		bne	.L83
 539              	.L66:
 540 010e 002D     		cmp	r5, #0
 541 0110 57D0     		beq	.L84
 542              	.L63:
 543 0112 E38E     		ldrh	r3, [r4, #54]
 544 0114 9BB2     		uxth	r3, r3
 545 0116 002B     		cmp	r3, #0
 546 0118 2ED0     		beq	.L68
 547 011a 2368     		ldr	r3, [r4]
 548 011c 9A68     		ldr	r2, [r3, #8]
 549 011e 12F0020F 		tst	r2, #2
 550 0122 ECD0     		beq	.L64
 551 0124 226B     		ldr	r2, [r4, #48]
 552 0126 1288     		ldrh	r2, [r2]
 553 0128 DA60     		str	r2, [r3, #12]
 554 012a 236B     		ldr	r3, [r4, #48]
 555 012c 0233     		adds	r3, r3, #2
 556 012e 2363     		str	r3, [r4, #48]
 557 0130 E38E     		ldrh	r3, [r4, #54]
 558 0132 9BB2     		uxth	r3, r3
 559 0134 013B     		subs	r3, r3, #1
 560 0136 9BB2     		uxth	r3, r3
 561 0138 E386     		strh	r3, [r4, #54]	@ movhi
 562 013a EAE7     		b	.L63
 563              	.L72:
 564 013c FFF7FEFF 		bl	HAL_GetTick
 565 0140 801B     		subs	r0, r0, r6
 566 0142 8542     		cmp	r5, r0
 567 0144 02D8     		bhi	.L74
 568 0146 B5F1FF3F 		cmp	r5, #-1
 569 014a 3CD1     		bne	.L85
 570              	.L74:
 571 014c 002D     		cmp	r5, #0
 572 014e 3CD0     		beq	.L86
 573              	.L71:
 574 0150 E28E     		ldrh	r2, [r4, #54]
 575 0152 92B2     		uxth	r2, r2
 576 0154 82B1     		cbz	r2, .L68
 577 0156 2368     		ldr	r3, [r4]
 578 0158 9A68     		ldr	r2, [r3, #8]
 579 015a 12F0020F 		tst	r2, #2
 580 015e EDD0     		beq	.L72
 581 0160 226B     		ldr	r2, [r4, #48]
 582 0162 1278     		ldrb	r2, [r2]	@ zero_extendqisi2
 583 0164 1A73     		strb	r2, [r3, #12]
 584 0166 236B     		ldr	r3, [r4, #48]
 585 0168 0133     		adds	r3, r3, #1
 586 016a 2363     		str	r3, [r4, #48]
 587 016c E28E     		ldrh	r2, [r4, #54]
 588 016e 92B2     		uxth	r2, r2
 589 0170 013A     		subs	r2, r2, #1
ARM GAS  /tmp/ccYRrd4O.s 			page 11


 590 0172 92B2     		uxth	r2, r2
 591 0174 E286     		strh	r2, [r4, #54]	@ movhi
 592 0176 EBE7     		b	.L71
 593              	.L68:
 594 0178 A36A     		ldr	r3, [r4, #40]
 595 017a B3F5005F 		cmp	r3, #8192
 596 017e 14D0     		beq	.L94
 597              	.L76:
 598 0180 3246     		mov	r2, r6
 599 0182 2946     		mov	r1, r5
 600 0184 2046     		mov	r0, r4
 601 0186 FFF7FEFF 		bl	SPI_EndRxTxTransaction
 602 018a 08B1     		cbz	r0, .L77
 603 018c 2023     		movs	r3, #32
 604 018e 6365     		str	r3, [r4, #84]
 605              	.L77:
 606 0190 A368     		ldr	r3, [r4, #8]
 607 0192 33B9     		cbnz	r3, .L78
 608 0194 0193     		str	r3, [sp, #4]
 609 0196 2368     		ldr	r3, [r4]
 610 0198 DA68     		ldr	r2, [r3, #12]
 611 019a 0192     		str	r2, [sp, #4]
 612 019c 9B68     		ldr	r3, [r3, #8]
 613 019e 0193     		str	r3, [sp, #4]
 614 01a0 019B     		ldr	r3, [sp, #4]
 615              	.L78:
 616 01a2 636D     		ldr	r3, [r4, #84]
 617 01a4 9BB9     		cbnz	r3, .L87
 618 01a6 0020     		movs	r0, #0
 619 01a8 45E7     		b	.L56
 620              	.L94:
 621 01aa 2268     		ldr	r2, [r4]
 622 01ac 1368     		ldr	r3, [r2]
 623 01ae 43F48053 		orr	r3, r3, #4096
 624 01b2 1360     		str	r3, [r2]
 625 01b4 E4E7     		b	.L76
 626              	.L81:
 627 01b6 0120     		movs	r0, #1
 628 01b8 3DE7     		b	.L56
 629              	.L82:
 630 01ba 0120     		movs	r0, #1
 631 01bc 3BE7     		b	.L56
 632              	.L83:
 633 01be 0320     		movs	r0, #3
 634 01c0 39E7     		b	.L56
 635              	.L84:
 636 01c2 0320     		movs	r0, #3
 637 01c4 37E7     		b	.L56
 638              	.L85:
 639 01c6 0320     		movs	r0, #3
 640 01c8 35E7     		b	.L56
 641              	.L86:
 642 01ca 0320     		movs	r0, #3
 643 01cc 33E7     		b	.L56
 644              	.L87:
 645 01ce 0120     		movs	r0, #1
 646 01d0 31E7     		b	.L56
ARM GAS  /tmp/ccYRrd4O.s 			page 12


 648              		.section	.text.HAL_SPI_Transmit_IT,"ax",%progbits
 649              		.align	1
 650              		.global	HAL_SPI_Transmit_IT
 651              		.syntax unified
 652              		.thumb
 653              		.thumb_func
 654              		.fpu softvfp
 656              	HAL_SPI_Transmit_IT:
 657              		@ args = 0, pretend = 0, frame = 0
 658              		@ frame_needed = 0, uses_anonymous_args = 0
 659              		@ link register save eliminated.
 660 0000 0346     		mov	r3, r0
 661 0002 90F85000 		ldrb	r0, [r0, #80]	@ zero_extendqisi2
 662 0006 0128     		cmp	r0, #1
 663 0008 52D0     		beq	.L102
 664 000a 0120     		movs	r0, #1
 665 000c 83F85000 		strb	r0, [r3, #80]
 666 0010 0029     		cmp	r1, #0
 667 0012 44D0     		beq	.L103
 668 0014 002A     		cmp	r2, #0
 669 0016 44D0     		beq	.L104
 670 0018 93F85100 		ldrb	r0, [r3, #81]	@ zero_extendqisi2
 671 001c C0B2     		uxtb	r0, r0
 672 001e 0128     		cmp	r0, #1
 673 0020 01D0     		beq	.L107
 674 0022 0220     		movs	r0, #2
 675 0024 3EE0     		b	.L97
 676              	.L107:
 677 0026 0320     		movs	r0, #3
 678 0028 83F85100 		strb	r0, [r3, #81]
 679 002c 0020     		movs	r0, #0
 680 002e 5865     		str	r0, [r3, #84]
 681 0030 1963     		str	r1, [r3, #48]
 682 0032 9A86     		strh	r2, [r3, #52]	@ movhi
 683 0034 DA86     		strh	r2, [r3, #54]	@ movhi
 684 0036 9863     		str	r0, [r3, #56]
 685 0038 9887     		strh	r0, [r3, #60]	@ movhi
 686 003a D887     		strh	r0, [r3, #62]	@ movhi
 687 003c 1864     		str	r0, [r3, #64]
 688 003e DA68     		ldr	r2, [r3, #12]
 689 0040 CAB1     		cbz	r2, .L98
 690 0042 1C4A     		ldr	r2, .L110
 691 0044 5A64     		str	r2, [r3, #68]
 692              	.L99:
 693 0046 9A68     		ldr	r2, [r3, #8]
 694 0048 B2F5004F 		cmp	r2, #32768
 695 004c 16D0     		beq	.L108
 696              	.L100:
 697 004e 9A6A     		ldr	r2, [r3, #40]
 698 0050 B2F5005F 		cmp	r2, #8192
 699 0054 18D0     		beq	.L109
 700              	.L101:
 701 0056 1968     		ldr	r1, [r3]
 702 0058 4A68     		ldr	r2, [r1, #4]
 703 005a 42F0A002 		orr	r2, r2, #160
 704 005e 4A60     		str	r2, [r1, #4]
 705 0060 1A68     		ldr	r2, [r3]
ARM GAS  /tmp/ccYRrd4O.s 			page 13


 706 0062 1168     		ldr	r1, [r2]
 707 0064 11F0400F 		tst	r1, #64
 708 0068 20D1     		bne	.L106
 709 006a 1168     		ldr	r1, [r2]
 710 006c 41F04001 		orr	r1, r1, #64
 711 0070 1160     		str	r1, [r2]
 712 0072 0020     		movs	r0, #0
 713 0074 16E0     		b	.L97
 714              	.L98:
 715 0076 104A     		ldr	r2, .L110+4
 716 0078 5A64     		str	r2, [r3, #68]
 717 007a E4E7     		b	.L99
 718              	.L108:
 719 007c 1968     		ldr	r1, [r3]
 720 007e 0A68     		ldr	r2, [r1]
 721 0080 42F48042 		orr	r2, r2, #16384
 722 0084 0A60     		str	r2, [r1]
 723 0086 E2E7     		b	.L100
 724              	.L109:
 725 0088 1968     		ldr	r1, [r3]
 726 008a 0A68     		ldr	r2, [r1]
 727 008c 22F40052 		bic	r2, r2, #8192
 728 0090 0A60     		str	r2, [r1]
 729 0092 1968     		ldr	r1, [r3]
 730 0094 0A68     		ldr	r2, [r1]
 731 0096 42F40052 		orr	r2, r2, #8192
 732 009a 0A60     		str	r2, [r1]
 733 009c DBE7     		b	.L101
 734              	.L103:
 735 009e 0120     		movs	r0, #1
 736 00a0 00E0     		b	.L97
 737              	.L104:
 738 00a2 0120     		movs	r0, #1
 739              	.L97:
 740 00a4 0022     		movs	r2, #0
 741 00a6 83F85020 		strb	r2, [r3, #80]
 742 00aa 7047     		bx	lr
 743              	.L106:
 744 00ac 0020     		movs	r0, #0
 745 00ae F9E7     		b	.L97
 746              	.L102:
 747 00b0 0220     		movs	r0, #2
 748 00b2 7047     		bx	lr
 749              	.L111:
 750              		.align	2
 751              	.L110:
 752 00b4 00000000 		.word	SPI_TxISR_16BIT
 753 00b8 00000000 		.word	SPI_TxISR_8BIT
 755              		.section	.text.HAL_SPI_TransmitReceive_IT,"ax",%progbits
 756              		.align	1
 757              		.global	HAL_SPI_TransmitReceive_IT
 758              		.syntax unified
 759              		.thumb
 760              		.thumb_func
 761              		.fpu softvfp
 763              	HAL_SPI_TransmitReceive_IT:
 764              		@ args = 0, pretend = 0, frame = 0
ARM GAS  /tmp/ccYRrd4O.s 			page 14


 765              		@ frame_needed = 0, uses_anonymous_args = 0
 766              		@ link register save eliminated.
 767 0000 30B4     		push	{r4, r5}
 768 0002 90F85040 		ldrb	r4, [r0, #80]	@ zero_extendqisi2
 769 0006 012C     		cmp	r4, #1
 770 0008 63D0     		beq	.L120
 771 000a 0124     		movs	r4, #1
 772 000c 80F85040 		strb	r4, [r0, #80]
 773 0010 90F85140 		ldrb	r4, [r0, #81]	@ zero_extendqisi2
 774 0014 E4B2     		uxtb	r4, r4
 775 0016 4568     		ldr	r5, [r0, #4]
 776 0018 012C     		cmp	r4, #1
 777 001a 10D0     		beq	.L114
 778 001c B5F5827F 		cmp	r5, #260
 779 0020 06D0     		beq	.L129
 780 0022 0223     		movs	r3, #2
 781              	.L115:
 782 0024 0022     		movs	r2, #0
 783 0026 80F85020 		strb	r2, [r0, #80]
 784              	.L113:
 785 002a 1846     		mov	r0, r3
 786 002c 30BC     		pop	{r4, r5}
 787 002e 7047     		bx	lr
 788              	.L129:
 789 0030 8568     		ldr	r5, [r0, #8]
 790 0032 002D     		cmp	r5, #0
 791 0034 43D1     		bne	.L122
 792 0036 042C     		cmp	r4, #4
 793 0038 01D0     		beq	.L114
 794 003a 0223     		movs	r3, #2
 795 003c F2E7     		b	.L115
 796              	.L114:
 797 003e 0029     		cmp	r1, #0
 798 0040 3FD0     		beq	.L124
 799 0042 002A     		cmp	r2, #0
 800 0044 3FD0     		beq	.L125
 801 0046 002B     		cmp	r3, #0
 802 0048 3FD0     		beq	.L126
 803 004a 90F85140 		ldrb	r4, [r0, #81]	@ zero_extendqisi2
 804 004e E4B2     		uxtb	r4, r4
 805 0050 042C     		cmp	r4, #4
 806 0052 02D0     		beq	.L116
 807 0054 0524     		movs	r4, #5
 808 0056 80F85140 		strb	r4, [r0, #81]
 809              	.L116:
 810 005a 0024     		movs	r4, #0
 811 005c 4465     		str	r4, [r0, #84]
 812 005e 0163     		str	r1, [r0, #48]
 813 0060 8386     		strh	r3, [r0, #52]	@ movhi
 814 0062 C386     		strh	r3, [r0, #54]	@ movhi
 815 0064 8263     		str	r2, [r0, #56]
 816 0066 8387     		strh	r3, [r0, #60]	@ movhi
 817 0068 C387     		strh	r3, [r0, #62]	@ movhi
 818 006a C368     		ldr	r3, [r0, #12]
 819 006c BBB1     		cbz	r3, .L117
 820 006e 1A4B     		ldr	r3, .L131
 821 0070 0364     		str	r3, [r0, #64]
ARM GAS  /tmp/ccYRrd4O.s 			page 15


 822 0072 1A4B     		ldr	r3, .L131+4
 823 0074 4364     		str	r3, [r0, #68]
 824              	.L118:
 825 0076 836A     		ldr	r3, [r0, #40]
 826 0078 B3F5005F 		cmp	r3, #8192
 827 007c 14D0     		beq	.L130
 828              	.L119:
 829 007e 0268     		ldr	r2, [r0]
 830 0080 5368     		ldr	r3, [r2, #4]
 831 0082 43F0E003 		orr	r3, r3, #224
 832 0086 5360     		str	r3, [r2, #4]
 833 0088 0368     		ldr	r3, [r0]
 834 008a 1A68     		ldr	r2, [r3]
 835 008c 12F0400F 		tst	r2, #64
 836 0090 1DD1     		bne	.L127
 837 0092 1A68     		ldr	r2, [r3]
 838 0094 42F04002 		orr	r2, r2, #64
 839 0098 1A60     		str	r2, [r3]
 840 009a 0023     		movs	r3, #0
 841 009c C2E7     		b	.L115
 842              	.L117:
 843 009e 104B     		ldr	r3, .L131+8
 844 00a0 0364     		str	r3, [r0, #64]
 845 00a2 104B     		ldr	r3, .L131+12
 846 00a4 4364     		str	r3, [r0, #68]
 847 00a6 E6E7     		b	.L118
 848              	.L130:
 849 00a8 0268     		ldr	r2, [r0]
 850 00aa 1368     		ldr	r3, [r2]
 851 00ac 23F40053 		bic	r3, r3, #8192
 852 00b0 1360     		str	r3, [r2]
 853 00b2 0268     		ldr	r2, [r0]
 854 00b4 1368     		ldr	r3, [r2]
 855 00b6 43F40053 		orr	r3, r3, #8192
 856 00ba 1360     		str	r3, [r2]
 857 00bc DFE7     		b	.L119
 858              	.L122:
 859 00be 0223     		movs	r3, #2
 860 00c0 B0E7     		b	.L115
 861              	.L124:
 862 00c2 0123     		movs	r3, #1
 863 00c4 AEE7     		b	.L115
 864              	.L125:
 865 00c6 0123     		movs	r3, #1
 866 00c8 ACE7     		b	.L115
 867              	.L126:
 868 00ca 0123     		movs	r3, #1
 869 00cc AAE7     		b	.L115
 870              	.L127:
 871 00ce 0023     		movs	r3, #0
 872 00d0 A8E7     		b	.L115
 873              	.L120:
 874 00d2 0223     		movs	r3, #2
 875 00d4 A9E7     		b	.L113
 876              	.L132:
 877 00d6 00BF     		.align	2
 878              	.L131:
ARM GAS  /tmp/ccYRrd4O.s 			page 16


 879 00d8 00000000 		.word	SPI_2linesRxISR_16BIT
 880 00dc 00000000 		.word	SPI_2linesTxISR_16BIT
 881 00e0 00000000 		.word	SPI_2linesRxISR_8BIT
 882 00e4 00000000 		.word	SPI_2linesTxISR_8BIT
 884              		.section	.text.HAL_SPI_Receive_IT,"ax",%progbits
 885              		.align	1
 886              		.global	HAL_SPI_Receive_IT
 887              		.syntax unified
 888              		.thumb
 889              		.thumb_func
 890              		.fpu softvfp
 892              	HAL_SPI_Receive_IT:
 893              		@ args = 0, pretend = 0, frame = 0
 894              		@ frame_needed = 0, uses_anonymous_args = 0
 895 0000 38B5     		push	{r3, r4, r5, lr}
 896 0002 0446     		mov	r4, r0
 897 0004 8568     		ldr	r5, [r0, #8]
 898 0006 1DB9     		cbnz	r5, .L134
 899 0008 4368     		ldr	r3, [r0, #4]
 900 000a B3F5827F 		cmp	r3, #260
 901 000e 10D0     		beq	.L147
 902              	.L134:
 903 0010 94F85000 		ldrb	r0, [r4, #80]	@ zero_extendqisi2
 904 0014 0128     		cmp	r0, #1
 905 0016 59D0     		beq	.L141
 906 0018 0123     		movs	r3, #1
 907 001a 84F85030 		strb	r3, [r4, #80]
 908 001e 94F85100 		ldrb	r0, [r4, #81]	@ zero_extendqisi2
 909 0022 C0B2     		uxtb	r0, r0
 910 0024 9842     		cmp	r0, r3
 911 0026 0CD0     		beq	.L148
 912 0028 0220     		movs	r0, #2
 913              	.L136:
 914 002a 0023     		movs	r3, #0
 915 002c 84F85030 		strb	r3, [r4, #80]
 916 0030 38BD     		pop	{r3, r4, r5, pc}
 917              	.L147:
 918 0032 1346     		mov	r3, r2
 919 0034 0422     		movs	r2, #4
 920 0036 80F85120 		strb	r2, [r0, #81]
 921 003a 0A46     		mov	r2, r1
 922 003c FFF7FEFF 		bl	HAL_SPI_TransmitReceive_IT
 923 0040 38BD     		pop	{r3, r4, r5, pc}
 924              	.L148:
 925 0042 0029     		cmp	r1, #0
 926 0044 3CD0     		beq	.L143
 927 0046 002A     		cmp	r2, #0
 928 0048 3CD0     		beq	.L144
 929 004a 0423     		movs	r3, #4
 930 004c 84F85130 		strb	r3, [r4, #81]
 931 0050 0023     		movs	r3, #0
 932 0052 6365     		str	r3, [r4, #84]
 933 0054 A163     		str	r1, [r4, #56]
 934 0056 A287     		strh	r2, [r4, #60]	@ movhi
 935 0058 E287     		strh	r2, [r4, #62]	@ movhi
 936 005a 2363     		str	r3, [r4, #48]
 937 005c A386     		strh	r3, [r4, #52]	@ movhi
ARM GAS  /tmp/ccYRrd4O.s 			page 17


 938 005e E386     		strh	r3, [r4, #54]	@ movhi
 939 0060 6364     		str	r3, [r4, #68]
 940 0062 E368     		ldr	r3, [r4, #12]
 941 0064 C3B1     		cbz	r3, .L137
 942 0066 1A4B     		ldr	r3, .L151
 943 0068 2364     		str	r3, [r4, #64]
 944              	.L138:
 945 006a B5F5004F 		cmp	r5, #32768
 946 006e 16D0     		beq	.L149
 947              	.L139:
 948 0070 A36A     		ldr	r3, [r4, #40]
 949 0072 B3F5005F 		cmp	r3, #8192
 950 0076 18D0     		beq	.L150
 951              	.L140:
 952 0078 2268     		ldr	r2, [r4]
 953 007a 5368     		ldr	r3, [r2, #4]
 954 007c 43F06003 		orr	r3, r3, #96
 955 0080 5360     		str	r3, [r2, #4]
 956 0082 2368     		ldr	r3, [r4]
 957 0084 1A68     		ldr	r2, [r3]
 958 0086 12F0400F 		tst	r2, #64
 959 008a 1DD1     		bne	.L145
 960 008c 1A68     		ldr	r2, [r3]
 961 008e 42F04002 		orr	r2, r2, #64
 962 0092 1A60     		str	r2, [r3]
 963 0094 0020     		movs	r0, #0
 964 0096 C8E7     		b	.L136
 965              	.L137:
 966 0098 0E4B     		ldr	r3, .L151+4
 967 009a 2364     		str	r3, [r4, #64]
 968 009c E5E7     		b	.L138
 969              	.L149:
 970 009e 2268     		ldr	r2, [r4]
 971 00a0 1368     		ldr	r3, [r2]
 972 00a2 23F48043 		bic	r3, r3, #16384
 973 00a6 1360     		str	r3, [r2]
 974 00a8 E2E7     		b	.L139
 975              	.L150:
 976 00aa 2268     		ldr	r2, [r4]
 977 00ac 1368     		ldr	r3, [r2]
 978 00ae 23F40053 		bic	r3, r3, #8192
 979 00b2 1360     		str	r3, [r2]
 980 00b4 2268     		ldr	r2, [r4]
 981 00b6 1368     		ldr	r3, [r2]
 982 00b8 43F40053 		orr	r3, r3, #8192
 983 00bc 1360     		str	r3, [r2]
 984 00be DBE7     		b	.L140
 985              	.L143:
 986 00c0 0120     		movs	r0, #1
 987 00c2 B2E7     		b	.L136
 988              	.L144:
 989 00c4 0120     		movs	r0, #1
 990 00c6 B0E7     		b	.L136
 991              	.L145:
 992 00c8 0020     		movs	r0, #0
 993 00ca AEE7     		b	.L136
 994              	.L141:
ARM GAS  /tmp/ccYRrd4O.s 			page 18


 995 00cc 0220     		movs	r0, #2
 996 00ce 38BD     		pop	{r3, r4, r5, pc}
 997              	.L152:
 998              		.align	2
 999              	.L151:
 1000 00d0 00000000 		.word	SPI_RxISR_16BIT
 1001 00d4 00000000 		.word	SPI_RxISR_8BIT
 1003              		.section	.text.HAL_SPI_Transmit_DMA,"ax",%progbits
 1004              		.align	1
 1005              		.global	HAL_SPI_Transmit_DMA
 1006              		.syntax unified
 1007              		.thumb
 1008              		.thumb_func
 1009              		.fpu softvfp
 1011              	HAL_SPI_Transmit_DMA:
 1012              		@ args = 0, pretend = 0, frame = 0
 1013              		@ frame_needed = 0, uses_anonymous_args = 0
 1014 0000 90F85030 		ldrb	r3, [r0, #80]	@ zero_extendqisi2
 1015 0004 012B     		cmp	r3, #1
 1016 0006 6FD0     		beq	.L160
 1017 0008 10B5     		push	{r4, lr}
 1018 000a 0446     		mov	r4, r0
 1019 000c 0123     		movs	r3, #1
 1020 000e 80F85030 		strb	r3, [r0, #80]
 1021 0012 90F85130 		ldrb	r3, [r0, #81]	@ zero_extendqisi2
 1022 0016 DBB2     		uxtb	r3, r3
 1023 0018 012B     		cmp	r3, #1
 1024 001a 05D0     		beq	.L168
 1025 001c 0223     		movs	r3, #2
 1026              	.L155:
 1027 001e 0022     		movs	r2, #0
 1028 0020 84F85020 		strb	r2, [r4, #80]
 1029 0024 1846     		mov	r0, r3
 1030 0026 10BD     		pop	{r4, pc}
 1031              	.L168:
 1032 0028 0029     		cmp	r1, #0
 1033 002a 59D0     		beq	.L162
 1034 002c 002A     		cmp	r2, #0
 1035 002e 59D0     		beq	.L163
 1036 0030 0323     		movs	r3, #3
 1037 0032 80F85130 		strb	r3, [r0, #81]
 1038 0036 0023     		movs	r3, #0
 1039 0038 4365     		str	r3, [r0, #84]
 1040 003a 0163     		str	r1, [r0, #48]
 1041 003c 8286     		strh	r2, [r0, #52]	@ movhi
 1042 003e C286     		strh	r2, [r0, #54]	@ movhi
 1043 0040 8363     		str	r3, [r0, #56]
 1044 0042 4364     		str	r3, [r0, #68]
 1045 0044 0364     		str	r3, [r0, #64]
 1046 0046 8387     		strh	r3, [r0, #60]	@ movhi
 1047 0048 C387     		strh	r3, [r0, #62]	@ movhi
 1048 004a 8368     		ldr	r3, [r0, #8]
 1049 004c B3F5004F 		cmp	r3, #32768
 1050 0050 21D0     		beq	.L169
 1051              	.L156:
 1052 0052 A36A     		ldr	r3, [r4, #40]
 1053 0054 B3F5005F 		cmp	r3, #8192
ARM GAS  /tmp/ccYRrd4O.s 			page 19


 1054 0058 23D0     		beq	.L170
 1055              	.L157:
 1056 005a A36C     		ldr	r3, [r4, #72]
 1057 005c 244A     		ldr	r2, .L171
 1058 005e DA62     		str	r2, [r3, #44]
 1059 0060 A36C     		ldr	r3, [r4, #72]
 1060 0062 244A     		ldr	r2, .L171+4
 1061 0064 9A62     		str	r2, [r3, #40]
 1062 0066 A36C     		ldr	r3, [r4, #72]
 1063 0068 234A     		ldr	r2, .L171+8
 1064 006a 1A63     		str	r2, [r3, #48]
 1065 006c A36C     		ldr	r3, [r4, #72]
 1066 006e 0022     		movs	r2, #0
 1067 0070 5A63     		str	r2, [r3, #52]
 1068 0072 2268     		ldr	r2, [r4]
 1069 0074 E38E     		ldrh	r3, [r4, #54]
 1070 0076 9BB2     		uxth	r3, r3
 1071 0078 0C32     		adds	r2, r2, #12
 1072 007a 216B     		ldr	r1, [r4, #48]
 1073 007c A06C     		ldr	r0, [r4, #72]
 1074 007e FFF7FEFF 		bl	HAL_DMA_Start_IT
 1075 0082 0346     		mov	r3, r0
 1076 0084 C0B1     		cbz	r0, .L158
 1077 0086 636D     		ldr	r3, [r4, #84]
 1078 0088 43F01003 		orr	r3, r3, #16
 1079 008c 6365     		str	r3, [r4, #84]
 1080 008e 0123     		movs	r3, #1
 1081 0090 84F85130 		strb	r3, [r4, #81]
 1082 0094 C3E7     		b	.L155
 1083              	.L169:
 1084 0096 0268     		ldr	r2, [r0]
 1085 0098 1368     		ldr	r3, [r2]
 1086 009a 43F48043 		orr	r3, r3, #16384
 1087 009e 1360     		str	r3, [r2]
 1088 00a0 D7E7     		b	.L156
 1089              	.L170:
 1090 00a2 2268     		ldr	r2, [r4]
 1091 00a4 1368     		ldr	r3, [r2]
 1092 00a6 23F40053 		bic	r3, r3, #8192
 1093 00aa 1360     		str	r3, [r2]
 1094 00ac 2268     		ldr	r2, [r4]
 1095 00ae 1368     		ldr	r3, [r2]
 1096 00b0 43F40053 		orr	r3, r3, #8192
 1097 00b4 1360     		str	r3, [r2]
 1098 00b6 D0E7     		b	.L157
 1099              	.L158:
 1100 00b8 2268     		ldr	r2, [r4]
 1101 00ba 1168     		ldr	r1, [r2]
 1102 00bc 11F0400F 		tst	r1, #64
 1103 00c0 03D1     		bne	.L159
 1104 00c2 1168     		ldr	r1, [r2]
 1105 00c4 41F04001 		orr	r1, r1, #64
 1106 00c8 1160     		str	r1, [r2]
 1107              	.L159:
 1108 00ca 2168     		ldr	r1, [r4]
 1109 00cc 4A68     		ldr	r2, [r1, #4]
 1110 00ce 42F02002 		orr	r2, r2, #32
ARM GAS  /tmp/ccYRrd4O.s 			page 20


 1111 00d2 4A60     		str	r2, [r1, #4]
 1112 00d4 2168     		ldr	r1, [r4]
 1113 00d6 4A68     		ldr	r2, [r1, #4]
 1114 00d8 42F00202 		orr	r2, r2, #2
 1115 00dc 4A60     		str	r2, [r1, #4]
 1116 00de 9EE7     		b	.L155
 1117              	.L162:
 1118 00e0 0123     		movs	r3, #1
 1119 00e2 9CE7     		b	.L155
 1120              	.L163:
 1121 00e4 0123     		movs	r3, #1
 1122 00e6 9AE7     		b	.L155
 1123              	.L160:
 1124 00e8 0223     		movs	r3, #2
 1125 00ea 1846     		mov	r0, r3
 1126 00ec 7047     		bx	lr
 1127              	.L172:
 1128 00ee 00BF     		.align	2
 1129              	.L171:
 1130 00f0 00000000 		.word	SPI_DMAHalfTransmitCplt
 1131 00f4 00000000 		.word	SPI_DMATransmitCplt
 1132 00f8 00000000 		.word	SPI_DMAError
 1134              		.section	.text.HAL_SPI_TransmitReceive_DMA,"ax",%progbits
 1135              		.align	1
 1136              		.global	HAL_SPI_TransmitReceive_DMA
 1137              		.syntax unified
 1138              		.thumb
 1139              		.thumb_func
 1140              		.fpu softvfp
 1142              	HAL_SPI_TransmitReceive_DMA:
 1143              		@ args = 0, pretend = 0, frame = 0
 1144              		@ frame_needed = 0, uses_anonymous_args = 0
 1145 0000 38B5     		push	{r3, r4, r5, lr}
 1146 0002 90F85040 		ldrb	r4, [r0, #80]	@ zero_extendqisi2
 1147 0006 012C     		cmp	r4, #1
 1148 0008 00F0AA80 		beq	.L184
 1149 000c 0446     		mov	r4, r0
 1150 000e 0120     		movs	r0, #1
 1151 0010 84F85000 		strb	r0, [r4, #80]
 1152 0014 94F85100 		ldrb	r0, [r4, #81]	@ zero_extendqisi2
 1153 0018 C0B2     		uxtb	r0, r0
 1154 001a 6568     		ldr	r5, [r4, #4]
 1155 001c 0128     		cmp	r0, #1
 1156 001e 10D0     		beq	.L175
 1157 0020 B5F5827F 		cmp	r5, #260
 1158 0024 05D0     		beq	.L192
 1159 0026 0223     		movs	r3, #2
 1160              	.L176:
 1161 0028 0022     		movs	r2, #0
 1162 002a 84F85020 		strb	r2, [r4, #80]
 1163              	.L174:
 1164 002e 1846     		mov	r0, r3
 1165 0030 38BD     		pop	{r3, r4, r5, pc}
 1166              	.L192:
 1167 0032 A568     		ldr	r5, [r4, #8]
 1168 0034 002D     		cmp	r5, #0
 1169 0036 40F08B80 		bne	.L186
ARM GAS  /tmp/ccYRrd4O.s 			page 21


 1170 003a 0428     		cmp	r0, #4
 1171 003c 01D0     		beq	.L175
 1172 003e 0223     		movs	r3, #2
 1173 0040 F2E7     		b	.L176
 1174              	.L175:
 1175 0042 0029     		cmp	r1, #0
 1176 0044 00F08680 		beq	.L188
 1177 0048 002A     		cmp	r2, #0
 1178 004a 00F08580 		beq	.L189
 1179 004e 002B     		cmp	r3, #0
 1180 0050 00F08480 		beq	.L190
 1181 0054 94F85100 		ldrb	r0, [r4, #81]	@ zero_extendqisi2
 1182 0058 C0B2     		uxtb	r0, r0
 1183 005a 0428     		cmp	r0, #4
 1184 005c 02D0     		beq	.L177
 1185 005e 0520     		movs	r0, #5
 1186 0060 84F85100 		strb	r0, [r4, #81]
 1187              	.L177:
 1188 0064 0020     		movs	r0, #0
 1189 0066 6065     		str	r0, [r4, #84]
 1190 0068 2163     		str	r1, [r4, #48]
 1191 006a A386     		strh	r3, [r4, #52]	@ movhi
 1192 006c E386     		strh	r3, [r4, #54]	@ movhi
 1193 006e A263     		str	r2, [r4, #56]
 1194 0070 A387     		strh	r3, [r4, #60]	@ movhi
 1195 0072 E387     		strh	r3, [r4, #62]	@ movhi
 1196 0074 2064     		str	r0, [r4, #64]
 1197 0076 6064     		str	r0, [r4, #68]
 1198 0078 A36A     		ldr	r3, [r4, #40]
 1199 007a B3F5005F 		cmp	r3, #8192
 1200 007e 21D0     		beq	.L193
 1201              	.L178:
 1202 0080 94F85130 		ldrb	r3, [r4, #81]	@ zero_extendqisi2
 1203 0084 DBB2     		uxtb	r3, r3
 1204 0086 042B     		cmp	r3, #4
 1205 0088 27D0     		beq	.L194
 1206 008a E36C     		ldr	r3, [r4, #76]
 1207 008c 354A     		ldr	r2, .L195
 1208 008e DA62     		str	r2, [r3, #44]
 1209 0090 E36C     		ldr	r3, [r4, #76]
 1210 0092 354A     		ldr	r2, .L195+4
 1211 0094 9A62     		str	r2, [r3, #40]
 1212              	.L180:
 1213 0096 E36C     		ldr	r3, [r4, #76]
 1214 0098 344A     		ldr	r2, .L195+8
 1215 009a 1A63     		str	r2, [r3, #48]
 1216 009c E36C     		ldr	r3, [r4, #76]
 1217 009e 0022     		movs	r2, #0
 1218 00a0 5A63     		str	r2, [r3, #52]
 1219 00a2 2168     		ldr	r1, [r4]
 1220 00a4 E38F     		ldrh	r3, [r4, #62]
 1221 00a6 9BB2     		uxth	r3, r3
 1222 00a8 A26B     		ldr	r2, [r4, #56]
 1223 00aa 0C31     		adds	r1, r1, #12
 1224 00ac E06C     		ldr	r0, [r4, #76]
 1225 00ae FFF7FEFF 		bl	HAL_DMA_Start_IT
 1226 00b2 C8B1     		cbz	r0, .L181
ARM GAS  /tmp/ccYRrd4O.s 			page 22


 1227 00b4 636D     		ldr	r3, [r4, #84]
 1228 00b6 43F01003 		orr	r3, r3, #16
 1229 00ba 6365     		str	r3, [r4, #84]
 1230 00bc 0123     		movs	r3, #1
 1231 00be 84F85130 		strb	r3, [r4, #81]
 1232 00c2 B1E7     		b	.L176
 1233              	.L193:
 1234 00c4 2268     		ldr	r2, [r4]
 1235 00c6 1368     		ldr	r3, [r2]
 1236 00c8 23F40053 		bic	r3, r3, #8192
 1237 00cc 1360     		str	r3, [r2]
 1238 00ce 2268     		ldr	r2, [r4]
 1239 00d0 1368     		ldr	r3, [r2]
 1240 00d2 43F40053 		orr	r3, r3, #8192
 1241 00d6 1360     		str	r3, [r2]
 1242 00d8 D2E7     		b	.L178
 1243              	.L194:
 1244 00da E36C     		ldr	r3, [r4, #76]
 1245 00dc 244A     		ldr	r2, .L195+12
 1246 00de DA62     		str	r2, [r3, #44]
 1247 00e0 E36C     		ldr	r3, [r4, #76]
 1248 00e2 244A     		ldr	r2, .L195+16
 1249 00e4 9A62     		str	r2, [r3, #40]
 1250 00e6 D6E7     		b	.L180
 1251              	.L181:
 1252 00e8 2268     		ldr	r2, [r4]
 1253 00ea 5368     		ldr	r3, [r2, #4]
 1254 00ec 43F00103 		orr	r3, r3, #1
 1255 00f0 5360     		str	r3, [r2, #4]
 1256 00f2 A26C     		ldr	r2, [r4, #72]
 1257 00f4 0023     		movs	r3, #0
 1258 00f6 D362     		str	r3, [r2, #44]
 1259 00f8 A26C     		ldr	r2, [r4, #72]
 1260 00fa 9362     		str	r3, [r2, #40]
 1261 00fc A26C     		ldr	r2, [r4, #72]
 1262 00fe 1363     		str	r3, [r2, #48]
 1263 0100 A26C     		ldr	r2, [r4, #72]
 1264 0102 5363     		str	r3, [r2, #52]
 1265 0104 2268     		ldr	r2, [r4]
 1266 0106 E38E     		ldrh	r3, [r4, #54]
 1267 0108 9BB2     		uxth	r3, r3
 1268 010a 0C32     		adds	r2, r2, #12
 1269 010c 216B     		ldr	r1, [r4, #48]
 1270 010e A06C     		ldr	r0, [r4, #72]
 1271 0110 FFF7FEFF 		bl	HAL_DMA_Start_IT
 1272 0114 0346     		mov	r3, r0
 1273 0116 38B1     		cbz	r0, .L182
 1274 0118 636D     		ldr	r3, [r4, #84]
 1275 011a 43F01003 		orr	r3, r3, #16
 1276 011e 6365     		str	r3, [r4, #84]
 1277 0120 0123     		movs	r3, #1
 1278 0122 84F85130 		strb	r3, [r4, #81]
 1279 0126 7FE7     		b	.L176
 1280              	.L182:
 1281 0128 2268     		ldr	r2, [r4]
 1282 012a 1168     		ldr	r1, [r2]
 1283 012c 11F0400F 		tst	r1, #64
ARM GAS  /tmp/ccYRrd4O.s 			page 23


 1284 0130 03D1     		bne	.L183
 1285 0132 1168     		ldr	r1, [r2]
 1286 0134 41F04001 		orr	r1, r1, #64
 1287 0138 1160     		str	r1, [r2]
 1288              	.L183:
 1289 013a 2168     		ldr	r1, [r4]
 1290 013c 4A68     		ldr	r2, [r1, #4]
 1291 013e 42F02002 		orr	r2, r2, #32
 1292 0142 4A60     		str	r2, [r1, #4]
 1293 0144 2168     		ldr	r1, [r4]
 1294 0146 4A68     		ldr	r2, [r1, #4]
 1295 0148 42F00202 		orr	r2, r2, #2
 1296 014c 4A60     		str	r2, [r1, #4]
 1297 014e 6BE7     		b	.L176
 1298              	.L186:
 1299 0150 0223     		movs	r3, #2
 1300 0152 69E7     		b	.L176
 1301              	.L188:
 1302 0154 0123     		movs	r3, #1
 1303 0156 67E7     		b	.L176
 1304              	.L189:
 1305 0158 0123     		movs	r3, #1
 1306 015a 65E7     		b	.L176
 1307              	.L190:
 1308 015c 0123     		movs	r3, #1
 1309 015e 63E7     		b	.L176
 1310              	.L184:
 1311 0160 0223     		movs	r3, #2
 1312 0162 64E7     		b	.L174
 1313              	.L196:
 1314              		.align	2
 1315              	.L195:
 1316 0164 00000000 		.word	SPI_DMAHalfTransmitReceiveCplt
 1317 0168 00000000 		.word	SPI_DMATransmitReceiveCplt
 1318 016c 00000000 		.word	SPI_DMAError
 1319 0170 00000000 		.word	SPI_DMAHalfReceiveCplt
 1320 0174 00000000 		.word	SPI_DMAReceiveCplt
 1322              		.section	.text.HAL_SPI_Receive_DMA,"ax",%progbits
 1323              		.align	1
 1324              		.global	HAL_SPI_Receive_DMA
 1325              		.syntax unified
 1326              		.thumb
 1327              		.thumb_func
 1328              		.fpu softvfp
 1330              	HAL_SPI_Receive_DMA:
 1331              		@ args = 0, pretend = 0, frame = 0
 1332              		@ frame_needed = 0, uses_anonymous_args = 0
 1333 0000 38B5     		push	{r3, r4, r5, lr}
 1334 0002 0446     		mov	r4, r0
 1335 0004 8568     		ldr	r5, [r0, #8]
 1336 0006 1DB9     		cbnz	r5, .L198
 1337 0008 4368     		ldr	r3, [r0, #4]
 1338 000a B3F5827F 		cmp	r3, #260
 1339 000e 11D0     		beq	.L210
 1340              	.L198:
 1341 0010 94F85000 		ldrb	r0, [r4, #80]	@ zero_extendqisi2
 1342 0014 0128     		cmp	r0, #1
ARM GAS  /tmp/ccYRrd4O.s 			page 24


 1343 0016 74D0     		beq	.L205
 1344 0018 0123     		movs	r3, #1
 1345 001a 84F85030 		strb	r3, [r4, #80]
 1346 001e 94F85100 		ldrb	r0, [r4, #81]	@ zero_extendqisi2
 1347 0022 C0B2     		uxtb	r0, r0
 1348 0024 9842     		cmp	r0, r3
 1349 0026 0ED0     		beq	.L211
 1350 0028 0223     		movs	r3, #2
 1351              	.L200:
 1352 002a 0022     		movs	r2, #0
 1353 002c 84F85020 		strb	r2, [r4, #80]
 1354              	.L199:
 1355 0030 1846     		mov	r0, r3
 1356 0032 38BD     		pop	{r3, r4, r5, pc}
 1357              	.L210:
 1358 0034 0423     		movs	r3, #4
 1359 0036 80F85130 		strb	r3, [r0, #81]
 1360 003a 1346     		mov	r3, r2
 1361 003c 0A46     		mov	r2, r1
 1362 003e FFF7FEFF 		bl	HAL_SPI_TransmitReceive_DMA
 1363 0042 0346     		mov	r3, r0
 1364 0044 F4E7     		b	.L199
 1365              	.L211:
 1366 0046 0029     		cmp	r1, #0
 1367 0048 57D0     		beq	.L207
 1368 004a 002A     		cmp	r2, #0
 1369 004c 57D0     		beq	.L208
 1370 004e 0423     		movs	r3, #4
 1371 0050 84F85130 		strb	r3, [r4, #81]
 1372 0054 0023     		movs	r3, #0
 1373 0056 6365     		str	r3, [r4, #84]
 1374 0058 A163     		str	r1, [r4, #56]
 1375 005a A287     		strh	r2, [r4, #60]	@ movhi
 1376 005c E287     		strh	r2, [r4, #62]	@ movhi
 1377 005e 2364     		str	r3, [r4, #64]
 1378 0060 6364     		str	r3, [r4, #68]
 1379 0062 A386     		strh	r3, [r4, #52]	@ movhi
 1380 0064 E386     		strh	r3, [r4, #54]	@ movhi
 1381 0066 B5F5004F 		cmp	r5, #32768
 1382 006a 21D0     		beq	.L212
 1383              	.L201:
 1384 006c A36A     		ldr	r3, [r4, #40]
 1385 006e B3F5005F 		cmp	r3, #8192
 1386 0072 23D0     		beq	.L213
 1387              	.L202:
 1388 0074 E36C     		ldr	r3, [r4, #76]
 1389 0076 244A     		ldr	r2, .L214
 1390 0078 DA62     		str	r2, [r3, #44]
 1391 007a E36C     		ldr	r3, [r4, #76]
 1392 007c 234A     		ldr	r2, .L214+4
 1393 007e 9A62     		str	r2, [r3, #40]
 1394 0080 E36C     		ldr	r3, [r4, #76]
 1395 0082 234A     		ldr	r2, .L214+8
 1396 0084 1A63     		str	r2, [r3, #48]
 1397 0086 E36C     		ldr	r3, [r4, #76]
 1398 0088 0022     		movs	r2, #0
 1399 008a 5A63     		str	r2, [r3, #52]
ARM GAS  /tmp/ccYRrd4O.s 			page 25


 1400 008c 2168     		ldr	r1, [r4]
 1401 008e E38F     		ldrh	r3, [r4, #62]
 1402 0090 9BB2     		uxth	r3, r3
 1403 0092 A26B     		ldr	r2, [r4, #56]
 1404 0094 0C31     		adds	r1, r1, #12
 1405 0096 E06C     		ldr	r0, [r4, #76]
 1406 0098 FFF7FEFF 		bl	HAL_DMA_Start_IT
 1407 009c 0346     		mov	r3, r0
 1408 009e C0B1     		cbz	r0, .L203
 1409 00a0 636D     		ldr	r3, [r4, #84]
 1410 00a2 43F01003 		orr	r3, r3, #16
 1411 00a6 6365     		str	r3, [r4, #84]
 1412 00a8 0123     		movs	r3, #1
 1413 00aa 84F85130 		strb	r3, [r4, #81]
 1414 00ae BCE7     		b	.L200
 1415              	.L212:
 1416 00b0 2268     		ldr	r2, [r4]
 1417 00b2 1368     		ldr	r3, [r2]
 1418 00b4 23F48043 		bic	r3, r3, #16384
 1419 00b8 1360     		str	r3, [r2]
 1420 00ba D7E7     		b	.L201
 1421              	.L213:
 1422 00bc 2268     		ldr	r2, [r4]
 1423 00be 1368     		ldr	r3, [r2]
 1424 00c0 23F40053 		bic	r3, r3, #8192
 1425 00c4 1360     		str	r3, [r2]
 1426 00c6 2268     		ldr	r2, [r4]
 1427 00c8 1368     		ldr	r3, [r2]
 1428 00ca 43F40053 		orr	r3, r3, #8192
 1429 00ce 1360     		str	r3, [r2]
 1430 00d0 D0E7     		b	.L202
 1431              	.L203:
 1432 00d2 2268     		ldr	r2, [r4]
 1433 00d4 1168     		ldr	r1, [r2]
 1434 00d6 11F0400F 		tst	r1, #64
 1435 00da 03D1     		bne	.L204
 1436 00dc 1168     		ldr	r1, [r2]
 1437 00de 41F04001 		orr	r1, r1, #64
 1438 00e2 1160     		str	r1, [r2]
 1439              	.L204:
 1440 00e4 2168     		ldr	r1, [r4]
 1441 00e6 4A68     		ldr	r2, [r1, #4]
 1442 00e8 42F02002 		orr	r2, r2, #32
 1443 00ec 4A60     		str	r2, [r1, #4]
 1444 00ee 2168     		ldr	r1, [r4]
 1445 00f0 4A68     		ldr	r2, [r1, #4]
 1446 00f2 42F00102 		orr	r2, r2, #1
 1447 00f6 4A60     		str	r2, [r1, #4]
 1448 00f8 97E7     		b	.L200
 1449              	.L207:
 1450 00fa 0123     		movs	r3, #1
 1451 00fc 95E7     		b	.L200
 1452              	.L208:
 1453 00fe 0123     		movs	r3, #1
 1454 0100 93E7     		b	.L200
 1455              	.L205:
 1456 0102 0223     		movs	r3, #2
ARM GAS  /tmp/ccYRrd4O.s 			page 26


 1457 0104 94E7     		b	.L199
 1458              	.L215:
 1459 0106 00BF     		.align	2
 1460              	.L214:
 1461 0108 00000000 		.word	SPI_DMAHalfReceiveCplt
 1462 010c 00000000 		.word	SPI_DMAReceiveCplt
 1463 0110 00000000 		.word	SPI_DMAError
 1465              		.section	.text.HAL_SPI_Abort,"ax",%progbits
 1466              		.align	1
 1467              		.global	HAL_SPI_Abort
 1468              		.syntax unified
 1469              		.thumb
 1470              		.thumb_func
 1471              		.fpu softvfp
 1473              	HAL_SPI_Abort:
 1474              		@ args = 0, pretend = 0, frame = 16
 1475              		@ frame_needed = 0, uses_anonymous_args = 0
 1476 0000 10B5     		push	{r4, lr}
 1477 0002 84B0     		sub	sp, sp, #16
 1478 0004 0446     		mov	r4, r0
 1479 0006 494B     		ldr	r3, .L237
 1480 0008 1B68     		ldr	r3, [r3]
 1481 000a 494A     		ldr	r2, .L237+4
 1482 000c A2FB0323 		umull	r2, r3, r2, r3
 1483 0010 5B0A     		lsrs	r3, r3, #9
 1484 0012 6422     		movs	r2, #100
 1485 0014 02FB03F3 		mul	r3, r2, r3
 1486 0018 0293     		str	r3, [sp, #8]
 1487 001a 029B     		ldr	r3, [sp, #8]
 1488 001c 0393     		str	r3, [sp, #12]
 1489 001e 0268     		ldr	r2, [r0]
 1490 0020 5368     		ldr	r3, [r2, #4]
 1491 0022 23F02003 		bic	r3, r3, #32
 1492 0026 5360     		str	r3, [r2, #4]
 1493 0028 0268     		ldr	r2, [r0]
 1494 002a 5368     		ldr	r3, [r2, #4]
 1495 002c 13F0800F 		tst	r3, #128
 1496 0030 12D0     		beq	.L217
 1497 0032 404B     		ldr	r3, .L237+8
 1498 0034 4364     		str	r3, [r0, #68]
 1499              	.L220:
 1500 0036 039B     		ldr	r3, [sp, #12]
 1501 0038 43B1     		cbz	r3, .L234
 1502 003a 039B     		ldr	r3, [sp, #12]
 1503 003c 013B     		subs	r3, r3, #1
 1504 003e 0393     		str	r3, [sp, #12]
 1505 0040 94F85130 		ldrb	r3, [r4, #81]	@ zero_extendqisi2
 1506 0044 DBB2     		uxtb	r3, r3
 1507 0046 072B     		cmp	r3, #7
 1508 0048 F5D1     		bne	.L220
 1509 004a 03E0     		b	.L219
 1510              	.L234:
 1511 004c 636D     		ldr	r3, [r4, #84]
 1512 004e 43F04003 		orr	r3, r3, #64
 1513 0052 6365     		str	r3, [r4, #84]
 1514              	.L219:
 1515 0054 029B     		ldr	r3, [sp, #8]
ARM GAS  /tmp/ccYRrd4O.s 			page 27


 1516 0056 0393     		str	r3, [sp, #12]
 1517              	.L217:
 1518 0058 5368     		ldr	r3, [r2, #4]
 1519 005a 13F0400F 		tst	r3, #64
 1520 005e 12D0     		beq	.L221
 1521 0060 354B     		ldr	r3, .L237+12
 1522 0062 2364     		str	r3, [r4, #64]
 1523              	.L224:
 1524 0064 039B     		ldr	r3, [sp, #12]
 1525 0066 43B1     		cbz	r3, .L235
 1526 0068 039B     		ldr	r3, [sp, #12]
 1527 006a 013B     		subs	r3, r3, #1
 1528 006c 0393     		str	r3, [sp, #12]
 1529 006e 94F85130 		ldrb	r3, [r4, #81]	@ zero_extendqisi2
 1530 0072 DBB2     		uxtb	r3, r3
 1531 0074 072B     		cmp	r3, #7
 1532 0076 F5D1     		bne	.L224
 1533 0078 03E0     		b	.L223
 1534              	.L235:
 1535 007a 636D     		ldr	r3, [r4, #84]
 1536 007c 43F04003 		orr	r3, r3, #64
 1537 0080 6365     		str	r3, [r4, #84]
 1538              	.L223:
 1539 0082 029B     		ldr	r3, [sp, #8]
 1540 0084 0393     		str	r3, [sp, #12]
 1541              	.L221:
 1542 0086 5368     		ldr	r3, [r2, #4]
 1543 0088 13F0020F 		tst	r3, #2
 1544 008c 1DD0     		beq	.L225
 1545 008e A36C     		ldr	r3, [r4, #72]
 1546 0090 DBB1     		cbz	r3, .L225
 1547 0092 0022     		movs	r2, #0
 1548 0094 5A63     		str	r2, [r3, #52]
 1549 0096 A06C     		ldr	r0, [r4, #72]
 1550 0098 FFF7FEFF 		bl	HAL_DMA_Abort
 1551 009c 08B1     		cbz	r0, .L226
 1552 009e 4023     		movs	r3, #64
 1553 00a0 6365     		str	r3, [r4, #84]
 1554              	.L226:
 1555 00a2 2268     		ldr	r2, [r4]
 1556 00a4 5368     		ldr	r3, [r2, #4]
 1557 00a6 23F00203 		bic	r3, r3, #2
 1558 00aa 5360     		str	r3, [r2, #4]
 1559              	.L228:
 1560 00ac 039B     		ldr	r3, [sp, #12]
 1561 00ae 43B1     		cbz	r3, .L236
 1562 00b0 039B     		ldr	r3, [sp, #12]
 1563 00b2 013B     		subs	r3, r3, #1
 1564 00b4 0393     		str	r3, [sp, #12]
 1565 00b6 2368     		ldr	r3, [r4]
 1566 00b8 9B68     		ldr	r3, [r3, #8]
 1567 00ba 13F0020F 		tst	r3, #2
 1568 00be F5D0     		beq	.L228
 1569 00c0 03E0     		b	.L225
 1570              	.L236:
 1571 00c2 636D     		ldr	r3, [r4, #84]
 1572 00c4 43F04003 		orr	r3, r3, #64
ARM GAS  /tmp/ccYRrd4O.s 			page 28


 1573 00c8 6365     		str	r3, [r4, #84]
 1574              	.L225:
 1575 00ca 2368     		ldr	r3, [r4]
 1576 00cc 5B68     		ldr	r3, [r3, #4]
 1577 00ce 13F0010F 		tst	r3, #1
 1578 00d2 13D0     		beq	.L229
 1579 00d4 E36C     		ldr	r3, [r4, #76]
 1580 00d6 8BB1     		cbz	r3, .L229
 1581 00d8 0022     		movs	r2, #0
 1582 00da 5A63     		str	r2, [r3, #52]
 1583 00dc E06C     		ldr	r0, [r4, #76]
 1584 00de FFF7FEFF 		bl	HAL_DMA_Abort
 1585 00e2 08B1     		cbz	r0, .L230
 1586 00e4 4023     		movs	r3, #64
 1587 00e6 6365     		str	r3, [r4, #84]
 1588              	.L230:
 1589 00e8 2268     		ldr	r2, [r4]
 1590 00ea 1368     		ldr	r3, [r2]
 1591 00ec 23F04003 		bic	r3, r3, #64
 1592 00f0 1360     		str	r3, [r2]
 1593 00f2 2268     		ldr	r2, [r4]
 1594 00f4 5368     		ldr	r3, [r2, #4]
 1595 00f6 23F00103 		bic	r3, r3, #1
 1596 00fa 5360     		str	r3, [r2, #4]
 1597              	.L229:
 1598 00fc 0023     		movs	r3, #0
 1599 00fe E387     		strh	r3, [r4, #62]	@ movhi
 1600 0100 E386     		strh	r3, [r4, #54]	@ movhi
 1601 0102 636D     		ldr	r3, [r4, #84]
 1602 0104 402B     		cmp	r3, #64
 1603 0106 0ED0     		beq	.L232
 1604 0108 0020     		movs	r0, #0
 1605 010a 6065     		str	r0, [r4, #84]
 1606              	.L231:
 1607 010c 0023     		movs	r3, #0
 1608 010e 0193     		str	r3, [sp, #4]
 1609 0110 2368     		ldr	r3, [r4]
 1610 0112 DA68     		ldr	r2, [r3, #12]
 1611 0114 0192     		str	r2, [sp, #4]
 1612 0116 9B68     		ldr	r3, [r3, #8]
 1613 0118 0193     		str	r3, [sp, #4]
 1614 011a 019B     		ldr	r3, [sp, #4]
 1615 011c 0123     		movs	r3, #1
 1616 011e 84F85130 		strb	r3, [r4, #81]
 1617 0122 04B0     		add	sp, sp, #16
 1618              		@ sp needed
 1619 0124 10BD     		pop	{r4, pc}
 1620              	.L232:
 1621 0126 0120     		movs	r0, #1
 1622 0128 F0E7     		b	.L231
 1623              	.L238:
 1624 012a 00BF     		.align	2
 1625              	.L237:
 1626 012c 00000000 		.word	SystemCoreClock
 1627 0130 F1197605 		.word	91625969
 1628 0134 00000000 		.word	SPI_AbortTx_ISR
 1629 0138 00000000 		.word	SPI_AbortRx_ISR
ARM GAS  /tmp/ccYRrd4O.s 			page 29


 1631              		.section	.text.HAL_SPI_DMAPause,"ax",%progbits
 1632              		.align	1
 1633              		.global	HAL_SPI_DMAPause
 1634              		.syntax unified
 1635              		.thumb
 1636              		.thumb_func
 1637              		.fpu softvfp
 1639              	HAL_SPI_DMAPause:
 1640              		@ args = 0, pretend = 0, frame = 0
 1641              		@ frame_needed = 0, uses_anonymous_args = 0
 1642              		@ link register save eliminated.
 1643 0000 90F85030 		ldrb	r3, [r0, #80]	@ zero_extendqisi2
 1644 0004 012B     		cmp	r3, #1
 1645 0006 0CD0     		beq	.L241
 1646 0008 0123     		movs	r3, #1
 1647 000a 80F85030 		strb	r3, [r0, #80]
 1648 000e 0268     		ldr	r2, [r0]
 1649 0010 5368     		ldr	r3, [r2, #4]
 1650 0012 23F00303 		bic	r3, r3, #3
 1651 0016 5360     		str	r3, [r2, #4]
 1652 0018 0023     		movs	r3, #0
 1653 001a 80F85030 		strb	r3, [r0, #80]
 1654 001e 1846     		mov	r0, r3
 1655 0020 7047     		bx	lr
 1656              	.L241:
 1657 0022 0220     		movs	r0, #2
 1658 0024 7047     		bx	lr
 1660              		.section	.text.HAL_SPI_DMAResume,"ax",%progbits
 1661              		.align	1
 1662              		.global	HAL_SPI_DMAResume
 1663              		.syntax unified
 1664              		.thumb
 1665              		.thumb_func
 1666              		.fpu softvfp
 1668              	HAL_SPI_DMAResume:
 1669              		@ args = 0, pretend = 0, frame = 0
 1670              		@ frame_needed = 0, uses_anonymous_args = 0
 1671              		@ link register save eliminated.
 1672 0000 90F85030 		ldrb	r3, [r0, #80]	@ zero_extendqisi2
 1673 0004 012B     		cmp	r3, #1
 1674 0006 0CD0     		beq	.L244
 1675 0008 0123     		movs	r3, #1
 1676 000a 80F85030 		strb	r3, [r0, #80]
 1677 000e 0268     		ldr	r2, [r0]
 1678 0010 5368     		ldr	r3, [r2, #4]
 1679 0012 43F00303 		orr	r3, r3, #3
 1680 0016 5360     		str	r3, [r2, #4]
 1681 0018 0023     		movs	r3, #0
 1682 001a 80F85030 		strb	r3, [r0, #80]
 1683 001e 1846     		mov	r0, r3
 1684 0020 7047     		bx	lr
 1685              	.L244:
 1686 0022 0220     		movs	r0, #2
 1687 0024 7047     		bx	lr
 1689              		.section	.text.HAL_SPI_DMAStop,"ax",%progbits
 1690              		.align	1
 1691              		.global	HAL_SPI_DMAStop
ARM GAS  /tmp/ccYRrd4O.s 			page 30


 1692              		.syntax unified
 1693              		.thumb
 1694              		.thumb_func
 1695              		.fpu softvfp
 1697              	HAL_SPI_DMAStop:
 1698              		@ args = 0, pretend = 0, frame = 0
 1699              		@ frame_needed = 0, uses_anonymous_args = 0
 1700 0000 38B5     		push	{r3, r4, r5, lr}
 1701 0002 0446     		mov	r4, r0
 1702 0004 806C     		ldr	r0, [r0, #72]
 1703 0006 E0B1     		cbz	r0, .L248
 1704 0008 FFF7FEFF 		bl	HAL_DMA_Abort
 1705 000c 0546     		mov	r5, r0
 1706 000e 20B1     		cbz	r0, .L246
 1707 0010 636D     		ldr	r3, [r4, #84]
 1708 0012 43F01003 		orr	r3, r3, #16
 1709 0016 6365     		str	r3, [r4, #84]
 1710 0018 0125     		movs	r5, #1
 1711              	.L246:
 1712 001a E06C     		ldr	r0, [r4, #76]
 1713 001c 38B1     		cbz	r0, .L247
 1714 001e FFF7FEFF 		bl	HAL_DMA_Abort
 1715 0022 20B1     		cbz	r0, .L247
 1716 0024 636D     		ldr	r3, [r4, #84]
 1717 0026 43F01003 		orr	r3, r3, #16
 1718 002a 6365     		str	r3, [r4, #84]
 1719 002c 0125     		movs	r5, #1
 1720              	.L247:
 1721 002e 2268     		ldr	r2, [r4]
 1722 0030 5368     		ldr	r3, [r2, #4]
 1723 0032 23F00303 		bic	r3, r3, #3
 1724 0036 5360     		str	r3, [r2, #4]
 1725 0038 0123     		movs	r3, #1
 1726 003a 84F85130 		strb	r3, [r4, #81]
 1727 003e 2846     		mov	r0, r5
 1728 0040 38BD     		pop	{r3, r4, r5, pc}
 1729              	.L248:
 1730 0042 0025     		movs	r5, #0
 1731 0044 E9E7     		b	.L246
 1733              		.section	.text.HAL_SPI_TxCpltCallback,"ax",%progbits
 1734              		.align	1
 1735              		.weak	HAL_SPI_TxCpltCallback
 1736              		.syntax unified
 1737              		.thumb
 1738              		.thumb_func
 1739              		.fpu softvfp
 1741              	HAL_SPI_TxCpltCallback:
 1742              		@ args = 0, pretend = 0, frame = 0
 1743              		@ frame_needed = 0, uses_anonymous_args = 0
 1744              		@ link register save eliminated.
 1745 0000 7047     		bx	lr
 1747              		.section	.text.HAL_SPI_RxCpltCallback,"ax",%progbits
 1748              		.align	1
 1749              		.weak	HAL_SPI_RxCpltCallback
 1750              		.syntax unified
 1751              		.thumb
 1752              		.thumb_func
ARM GAS  /tmp/ccYRrd4O.s 			page 31


 1753              		.fpu softvfp
 1755              	HAL_SPI_RxCpltCallback:
 1756              		@ args = 0, pretend = 0, frame = 0
 1757              		@ frame_needed = 0, uses_anonymous_args = 0
 1758              		@ link register save eliminated.
 1759 0000 7047     		bx	lr
 1761              		.section	.text.HAL_SPI_TxRxCpltCallback,"ax",%progbits
 1762              		.align	1
 1763              		.weak	HAL_SPI_TxRxCpltCallback
 1764              		.syntax unified
 1765              		.thumb
 1766              		.thumb_func
 1767              		.fpu softvfp
 1769              	HAL_SPI_TxRxCpltCallback:
 1770              		@ args = 0, pretend = 0, frame = 0
 1771              		@ frame_needed = 0, uses_anonymous_args = 0
 1772              		@ link register save eliminated.
 1773 0000 7047     		bx	lr
 1775              		.section	.text.HAL_SPI_TxHalfCpltCallback,"ax",%progbits
 1776              		.align	1
 1777              		.weak	HAL_SPI_TxHalfCpltCallback
 1778              		.syntax unified
 1779              		.thumb
 1780              		.thumb_func
 1781              		.fpu softvfp
 1783              	HAL_SPI_TxHalfCpltCallback:
 1784              		@ args = 0, pretend = 0, frame = 0
 1785              		@ frame_needed = 0, uses_anonymous_args = 0
 1786              		@ link register save eliminated.
 1787 0000 7047     		bx	lr
 1789              		.section	.text.SPI_DMAHalfTransmitCplt,"ax",%progbits
 1790              		.align	1
 1791              		.syntax unified
 1792              		.thumb
 1793              		.thumb_func
 1794              		.fpu softvfp
 1796              	SPI_DMAHalfTransmitCplt:
 1797              		@ args = 0, pretend = 0, frame = 0
 1798              		@ frame_needed = 0, uses_anonymous_args = 0
 1799 0000 08B5     		push	{r3, lr}
 1800 0002 406A     		ldr	r0, [r0, #36]
 1801 0004 FFF7FEFF 		bl	HAL_SPI_TxHalfCpltCallback
 1802 0008 08BD     		pop	{r3, pc}
 1804              		.section	.text.HAL_SPI_RxHalfCpltCallback,"ax",%progbits
 1805              		.align	1
 1806              		.weak	HAL_SPI_RxHalfCpltCallback
 1807              		.syntax unified
 1808              		.thumb
 1809              		.thumb_func
 1810              		.fpu softvfp
 1812              	HAL_SPI_RxHalfCpltCallback:
 1813              		@ args = 0, pretend = 0, frame = 0
 1814              		@ frame_needed = 0, uses_anonymous_args = 0
 1815              		@ link register save eliminated.
 1816 0000 7047     		bx	lr
 1818              		.section	.text.SPI_DMAHalfReceiveCplt,"ax",%progbits
 1819              		.align	1
ARM GAS  /tmp/ccYRrd4O.s 			page 32


 1820              		.syntax unified
 1821              		.thumb
 1822              		.thumb_func
 1823              		.fpu softvfp
 1825              	SPI_DMAHalfReceiveCplt:
 1826              		@ args = 0, pretend = 0, frame = 0
 1827              		@ frame_needed = 0, uses_anonymous_args = 0
 1828 0000 08B5     		push	{r3, lr}
 1829 0002 406A     		ldr	r0, [r0, #36]
 1830 0004 FFF7FEFF 		bl	HAL_SPI_RxHalfCpltCallback
 1831 0008 08BD     		pop	{r3, pc}
 1833              		.section	.text.HAL_SPI_TxRxHalfCpltCallback,"ax",%progbits
 1834              		.align	1
 1835              		.weak	HAL_SPI_TxRxHalfCpltCallback
 1836              		.syntax unified
 1837              		.thumb
 1838              		.thumb_func
 1839              		.fpu softvfp
 1841              	HAL_SPI_TxRxHalfCpltCallback:
 1842              		@ args = 0, pretend = 0, frame = 0
 1843              		@ frame_needed = 0, uses_anonymous_args = 0
 1844              		@ link register save eliminated.
 1845 0000 7047     		bx	lr
 1847              		.section	.text.SPI_DMAHalfTransmitReceiveCplt,"ax",%progbits
 1848              		.align	1
 1849              		.syntax unified
 1850              		.thumb
 1851              		.thumb_func
 1852              		.fpu softvfp
 1854              	SPI_DMAHalfTransmitReceiveCplt:
 1855              		@ args = 0, pretend = 0, frame = 0
 1856              		@ frame_needed = 0, uses_anonymous_args = 0
 1857 0000 08B5     		push	{r3, lr}
 1858 0002 406A     		ldr	r0, [r0, #36]
 1859 0004 FFF7FEFF 		bl	HAL_SPI_TxRxHalfCpltCallback
 1860 0008 08BD     		pop	{r3, pc}
 1862              		.section	.text.HAL_SPI_ErrorCallback,"ax",%progbits
 1863              		.align	1
 1864              		.weak	HAL_SPI_ErrorCallback
 1865              		.syntax unified
 1866              		.thumb
 1867              		.thumb_func
 1868              		.fpu softvfp
 1870              	HAL_SPI_ErrorCallback:
 1871              		@ args = 0, pretend = 0, frame = 0
 1872              		@ frame_needed = 0, uses_anonymous_args = 0
 1873              		@ link register save eliminated.
 1874 0000 7047     		bx	lr
 1876              		.section	.text.SPI_CloseTx_ISR,"ax",%progbits
 1877              		.align	1
 1878              		.syntax unified
 1879              		.thumb
 1880              		.thumb_func
 1881              		.fpu softvfp
 1883              	SPI_CloseTx_ISR:
 1884              		@ args = 0, pretend = 0, frame = 8
 1885              		@ frame_needed = 0, uses_anonymous_args = 0
ARM GAS  /tmp/ccYRrd4O.s 			page 33


 1886 0000 10B5     		push	{r4, lr}
 1887 0002 82B0     		sub	sp, sp, #8
 1888 0004 0446     		mov	r4, r0
 1889 0006 204B     		ldr	r3, .L274
 1890 0008 1B68     		ldr	r3, [r3]
 1891 000a 204A     		ldr	r2, .L274+4
 1892 000c A2FB0323 		umull	r2, r3, r2, r3
 1893 0010 5B0A     		lsrs	r3, r3, #9
 1894 0012 6422     		movs	r2, #100
 1895 0014 02FB03F3 		mul	r3, r2, r3
 1896 0018 0193     		str	r3, [sp, #4]
 1897 001a FFF7FEFF 		bl	HAL_GetTick
 1898 001e 0246     		mov	r2, r0
 1899              	.L266:
 1900 0020 019B     		ldr	r3, [sp, #4]
 1901 0022 43B1     		cbz	r3, .L272
 1902 0024 019B     		ldr	r3, [sp, #4]
 1903 0026 013B     		subs	r3, r3, #1
 1904 0028 0193     		str	r3, [sp, #4]
 1905 002a 2368     		ldr	r3, [r4]
 1906 002c 9B68     		ldr	r3, [r3, #8]
 1907 002e 13F0020F 		tst	r3, #2
 1908 0032 F5D0     		beq	.L266
 1909 0034 03E0     		b	.L265
 1910              	.L272:
 1911 0036 636D     		ldr	r3, [r4, #84]
 1912 0038 43F02003 		orr	r3, r3, #32
 1913 003c 6365     		str	r3, [r4, #84]
 1914              	.L265:
 1915 003e 2168     		ldr	r1, [r4]
 1916 0040 4B68     		ldr	r3, [r1, #4]
 1917 0042 23F0A003 		bic	r3, r3, #160
 1918 0046 4B60     		str	r3, [r1, #4]
 1919 0048 6421     		movs	r1, #100
 1920 004a 2046     		mov	r0, r4
 1921 004c FFF7FEFF 		bl	SPI_EndRxTxTransaction
 1922 0050 18B1     		cbz	r0, .L267
 1923 0052 636D     		ldr	r3, [r4, #84]
 1924 0054 43F02003 		orr	r3, r3, #32
 1925 0058 6365     		str	r3, [r4, #84]
 1926              	.L267:
 1927 005a A368     		ldr	r3, [r4, #8]
 1928 005c 33B9     		cbnz	r3, .L268
 1929 005e 0093     		str	r3, [sp]
 1930 0060 2368     		ldr	r3, [r4]
 1931 0062 DA68     		ldr	r2, [r3, #12]
 1932 0064 0092     		str	r2, [sp]
 1933 0066 9B68     		ldr	r3, [r3, #8]
 1934 0068 0093     		str	r3, [sp]
 1935 006a 009B     		ldr	r3, [sp]
 1936              	.L268:
 1937 006c 0123     		movs	r3, #1
 1938 006e 84F85130 		strb	r3, [r4, #81]
 1939 0072 636D     		ldr	r3, [r4, #84]
 1940 0074 23B9     		cbnz	r3, .L273
 1941 0076 2046     		mov	r0, r4
 1942 0078 FFF7FEFF 		bl	HAL_SPI_TxCpltCallback
ARM GAS  /tmp/ccYRrd4O.s 			page 34


 1943              	.L263:
 1944 007c 02B0     		add	sp, sp, #8
 1945              		@ sp needed
 1946 007e 10BD     		pop	{r4, pc}
 1947              	.L273:
 1948 0080 2046     		mov	r0, r4
 1949 0082 FFF7FEFF 		bl	HAL_SPI_ErrorCallback
 1950 0086 F9E7     		b	.L263
 1951              	.L275:
 1952              		.align	2
 1953              	.L274:
 1954 0088 00000000 		.word	SystemCoreClock
 1955 008c F1197605 		.word	91625969
 1957              		.section	.text.SPI_TxISR_8BIT,"ax",%progbits
 1958              		.align	1
 1959              		.syntax unified
 1960              		.thumb
 1961              		.thumb_func
 1962              		.fpu softvfp
 1964              	SPI_TxISR_8BIT:
 1965              		@ args = 0, pretend = 0, frame = 0
 1966              		@ frame_needed = 0, uses_anonymous_args = 0
 1967 0000 08B5     		push	{r3, lr}
 1968 0002 0368     		ldr	r3, [r0]
 1969 0004 026B     		ldr	r2, [r0, #48]
 1970 0006 1278     		ldrb	r2, [r2]	@ zero_extendqisi2
 1971 0008 1A73     		strb	r2, [r3, #12]
 1972 000a 036B     		ldr	r3, [r0, #48]
 1973 000c 0133     		adds	r3, r3, #1
 1974 000e 0363     		str	r3, [r0, #48]
 1975 0010 C38E     		ldrh	r3, [r0, #54]
 1976 0012 9BB2     		uxth	r3, r3
 1977 0014 013B     		subs	r3, r3, #1
 1978 0016 9BB2     		uxth	r3, r3
 1979 0018 C386     		strh	r3, [r0, #54]	@ movhi
 1980 001a C38E     		ldrh	r3, [r0, #54]
 1981 001c 9BB2     		uxth	r3, r3
 1982 001e 2BB9     		cbnz	r3, .L276
 1983 0020 836A     		ldr	r3, [r0, #40]
 1984 0022 B3F5005F 		cmp	r3, #8192
 1985 0026 02D0     		beq	.L280
 1986              	.L278:
 1987 0028 FFF7FEFF 		bl	SPI_CloseTx_ISR
 1988              	.L276:
 1989 002c 08BD     		pop	{r3, pc}
 1990              	.L280:
 1991 002e 0268     		ldr	r2, [r0]
 1992 0030 1368     		ldr	r3, [r2]
 1993 0032 43F48053 		orr	r3, r3, #4096
 1994 0036 1360     		str	r3, [r2]
 1995 0038 F6E7     		b	.L278
 1997              		.section	.text.SPI_TxISR_16BIT,"ax",%progbits
 1998              		.align	1
 1999              		.syntax unified
 2000              		.thumb
 2001              		.thumb_func
 2002              		.fpu softvfp
ARM GAS  /tmp/ccYRrd4O.s 			page 35


 2004              	SPI_TxISR_16BIT:
 2005              		@ args = 0, pretend = 0, frame = 0
 2006              		@ frame_needed = 0, uses_anonymous_args = 0
 2007 0000 08B5     		push	{r3, lr}
 2008 0002 0368     		ldr	r3, [r0]
 2009 0004 026B     		ldr	r2, [r0, #48]
 2010 0006 1288     		ldrh	r2, [r2]
 2011 0008 DA60     		str	r2, [r3, #12]
 2012 000a 036B     		ldr	r3, [r0, #48]
 2013 000c 0233     		adds	r3, r3, #2
 2014 000e 0363     		str	r3, [r0, #48]
 2015 0010 C38E     		ldrh	r3, [r0, #54]
 2016 0012 9BB2     		uxth	r3, r3
 2017 0014 013B     		subs	r3, r3, #1
 2018 0016 9BB2     		uxth	r3, r3
 2019 0018 C386     		strh	r3, [r0, #54]	@ movhi
 2020 001a C38E     		ldrh	r3, [r0, #54]
 2021 001c 9BB2     		uxth	r3, r3
 2022 001e 2BB9     		cbnz	r3, .L281
 2023 0020 836A     		ldr	r3, [r0, #40]
 2024 0022 B3F5005F 		cmp	r3, #8192
 2025 0026 02D0     		beq	.L285
 2026              	.L283:
 2027 0028 FFF7FEFF 		bl	SPI_CloseTx_ISR
 2028              	.L281:
 2029 002c 08BD     		pop	{r3, pc}
 2030              	.L285:
 2031 002e 0268     		ldr	r2, [r0]
 2032 0030 1368     		ldr	r3, [r2]
 2033 0032 43F48053 		orr	r3, r3, #4096
 2034 0036 1360     		str	r3, [r2]
 2035 0038 F6E7     		b	.L283
 2037              		.section	.text.SPI_DMAError,"ax",%progbits
 2038              		.align	1
 2039              		.syntax unified
 2040              		.thumb
 2041              		.thumb_func
 2042              		.fpu softvfp
 2044              	SPI_DMAError:
 2045              		@ args = 0, pretend = 0, frame = 0
 2046              		@ frame_needed = 0, uses_anonymous_args = 0
 2047 0000 08B5     		push	{r3, lr}
 2048 0002 406A     		ldr	r0, [r0, #36]
 2049 0004 0268     		ldr	r2, [r0]
 2050 0006 5368     		ldr	r3, [r2, #4]
 2051 0008 23F00303 		bic	r3, r3, #3
 2052 000c 5360     		str	r3, [r2, #4]
 2053 000e 436D     		ldr	r3, [r0, #84]
 2054 0010 43F01003 		orr	r3, r3, #16
 2055 0014 4365     		str	r3, [r0, #84]
 2056 0016 0123     		movs	r3, #1
 2057 0018 80F85130 		strb	r3, [r0, #81]
 2058 001c FFF7FEFF 		bl	HAL_SPI_ErrorCallback
 2059 0020 08BD     		pop	{r3, pc}
 2061              		.section	.text.SPI_DMATransmitCplt,"ax",%progbits
 2062              		.align	1
 2063              		.syntax unified
ARM GAS  /tmp/ccYRrd4O.s 			page 36


 2064              		.thumb
 2065              		.thumb_func
 2066              		.fpu softvfp
 2068              	SPI_DMATransmitCplt:
 2069              		@ args = 0, pretend = 0, frame = 8
 2070              		@ frame_needed = 0, uses_anonymous_args = 0
 2071 0000 30B5     		push	{r4, r5, lr}
 2072 0002 83B0     		sub	sp, sp, #12
 2073 0004 0546     		mov	r5, r0
 2074 0006 446A     		ldr	r4, [r0, #36]
 2075 0008 FFF7FEFF 		bl	HAL_GetTick
 2076 000c 2B68     		ldr	r3, [r5]
 2077 000e 1B68     		ldr	r3, [r3]
 2078 0010 13F0200F 		tst	r3, #32
 2079 0014 23D1     		bne	.L289
 2080 0016 2268     		ldr	r2, [r4]
 2081 0018 5368     		ldr	r3, [r2, #4]
 2082 001a 23F02003 		bic	r3, r3, #32
 2083 001e 5360     		str	r3, [r2, #4]
 2084 0020 2268     		ldr	r2, [r4]
 2085 0022 5368     		ldr	r3, [r2, #4]
 2086 0024 23F00203 		bic	r3, r3, #2
 2087 0028 5360     		str	r3, [r2, #4]
 2088 002a 0246     		mov	r2, r0
 2089 002c 6421     		movs	r1, #100
 2090 002e 2046     		mov	r0, r4
 2091 0030 FFF7FEFF 		bl	SPI_EndRxTxTransaction
 2092 0034 18B1     		cbz	r0, .L290
 2093 0036 636D     		ldr	r3, [r4, #84]
 2094 0038 43F02003 		orr	r3, r3, #32
 2095 003c 6365     		str	r3, [r4, #84]
 2096              	.L290:
 2097 003e A368     		ldr	r3, [r4, #8]
 2098 0040 33B9     		cbnz	r3, .L291
 2099 0042 0193     		str	r3, [sp, #4]
 2100 0044 2368     		ldr	r3, [r4]
 2101 0046 DA68     		ldr	r2, [r3, #12]
 2102 0048 0192     		str	r2, [sp, #4]
 2103 004a 9B68     		ldr	r3, [r3, #8]
 2104 004c 0193     		str	r3, [sp, #4]
 2105 004e 019B     		ldr	r3, [sp, #4]
 2106              	.L291:
 2107 0050 0023     		movs	r3, #0
 2108 0052 E386     		strh	r3, [r4, #54]	@ movhi
 2109 0054 0123     		movs	r3, #1
 2110 0056 84F85130 		strb	r3, [r4, #81]
 2111 005a 636D     		ldr	r3, [r4, #84]
 2112 005c 23B9     		cbnz	r3, .L294
 2113              	.L289:
 2114 005e 2046     		mov	r0, r4
 2115 0060 FFF7FEFF 		bl	HAL_SPI_TxCpltCallback
 2116              	.L288:
 2117 0064 03B0     		add	sp, sp, #12
 2118              		@ sp needed
 2119 0066 30BD     		pop	{r4, r5, pc}
 2120              	.L294:
 2121 0068 2046     		mov	r0, r4
ARM GAS  /tmp/ccYRrd4O.s 			page 37


 2122 006a FFF7FEFF 		bl	HAL_SPI_ErrorCallback
 2123 006e F9E7     		b	.L288
 2125              		.section	.text.HAL_SPI_IRQHandler,"ax",%progbits
 2126              		.align	1
 2127              		.global	HAL_SPI_IRQHandler
 2128              		.syntax unified
 2129              		.thumb
 2130              		.thumb_func
 2131              		.fpu softvfp
 2133              	HAL_SPI_IRQHandler:
 2134              		@ args = 0, pretend = 0, frame = 16
 2135              		@ frame_needed = 0, uses_anonymous_args = 0
 2136 0000 10B5     		push	{r4, lr}
 2137 0002 84B0     		sub	sp, sp, #16
 2138 0004 0446     		mov	r4, r0
 2139 0006 0268     		ldr	r2, [r0]
 2140 0008 5168     		ldr	r1, [r2, #4]
 2141 000a 9368     		ldr	r3, [r2, #8]
 2142 000c 03F04100 		and	r0, r3, #65
 2143 0010 0128     		cmp	r0, #1
 2144 0012 5AD0     		beq	.L305
 2145              	.L296:
 2146 0014 13F0020F 		tst	r3, #2
 2147 0018 02D0     		beq	.L298
 2148 001a 11F0800F 		tst	r1, #128
 2149 001e 5BD1     		bne	.L306
 2150              	.L298:
 2151 0020 13F0600F 		tst	r3, #96
 2152 0024 5BD0     		beq	.L295
 2153 0026 11F0200F 		tst	r1, #32
 2154 002a 58D0     		beq	.L295
 2155 002c 13F0400F 		tst	r3, #64
 2156 0030 0FD0     		beq	.L299
 2157 0032 94F85100 		ldrb	r0, [r4, #81]	@ zero_extendqisi2
 2158 0036 C0B2     		uxtb	r0, r0
 2159 0038 0328     		cmp	r0, #3
 2160 003a 52D0     		beq	.L300
 2161 003c 606D     		ldr	r0, [r4, #84]
 2162 003e 40F00400 		orr	r0, r0, #4
 2163 0042 6065     		str	r0, [r4, #84]
 2164 0044 0020     		movs	r0, #0
 2165 0046 0190     		str	r0, [sp, #4]
 2166 0048 D068     		ldr	r0, [r2, #12]
 2167 004a 0190     		str	r0, [sp, #4]
 2168 004c 9068     		ldr	r0, [r2, #8]
 2169 004e 0190     		str	r0, [sp, #4]
 2170 0050 0198     		ldr	r0, [sp, #4]
 2171              	.L299:
 2172 0052 13F0200F 		tst	r3, #32
 2173 0056 0CD0     		beq	.L301
 2174 0058 636D     		ldr	r3, [r4, #84]
 2175 005a 43F00103 		orr	r3, r3, #1
 2176 005e 6365     		str	r3, [r4, #84]
 2177 0060 0023     		movs	r3, #0
 2178 0062 0393     		str	r3, [sp, #12]
 2179 0064 9368     		ldr	r3, [r2, #8]
 2180 0066 0393     		str	r3, [sp, #12]
ARM GAS  /tmp/ccYRrd4O.s 			page 38


 2181 0068 1368     		ldr	r3, [r2]
 2182 006a 23F04003 		bic	r3, r3, #64
 2183 006e 1360     		str	r3, [r2]
 2184 0070 039B     		ldr	r3, [sp, #12]
 2185              	.L301:
 2186 0072 636D     		ldr	r3, [r4, #84]
 2187 0074 002B     		cmp	r3, #0
 2188 0076 32D0     		beq	.L295
 2189 0078 2268     		ldr	r2, [r4]
 2190 007a 5368     		ldr	r3, [r2, #4]
 2191 007c 23F0E003 		bic	r3, r3, #224
 2192 0080 5360     		str	r3, [r2, #4]
 2193 0082 0123     		movs	r3, #1
 2194 0084 84F85130 		strb	r3, [r4, #81]
 2195 0088 11F0030F 		tst	r1, #3
 2196 008c 31D0     		beq	.L302
 2197 008e 2268     		ldr	r2, [r4]
 2198 0090 5368     		ldr	r3, [r2, #4]
 2199 0092 23F00303 		bic	r3, r3, #3
 2200 0096 5360     		str	r3, [r2, #4]
 2201 0098 E36C     		ldr	r3, [r4, #76]
 2202 009a 4BB1     		cbz	r3, .L303
 2203 009c 174A     		ldr	r2, .L307
 2204 009e 5A63     		str	r2, [r3, #52]
 2205 00a0 E06C     		ldr	r0, [r4, #76]
 2206 00a2 FFF7FEFF 		bl	HAL_DMA_Abort_IT
 2207 00a6 18B1     		cbz	r0, .L303
 2208 00a8 636D     		ldr	r3, [r4, #84]
 2209 00aa 43F04003 		orr	r3, r3, #64
 2210 00ae 6365     		str	r3, [r4, #84]
 2211              	.L303:
 2212 00b0 A36C     		ldr	r3, [r4, #72]
 2213 00b2 A3B1     		cbz	r3, .L295
 2214 00b4 114A     		ldr	r2, .L307
 2215 00b6 5A63     		str	r2, [r3, #52]
 2216 00b8 A06C     		ldr	r0, [r4, #72]
 2217 00ba FFF7FEFF 		bl	HAL_DMA_Abort_IT
 2218 00be 70B1     		cbz	r0, .L295
 2219 00c0 636D     		ldr	r3, [r4, #84]
 2220 00c2 43F04003 		orr	r3, r3, #64
 2221 00c6 6365     		str	r3, [r4, #84]
 2222 00c8 09E0     		b	.L295
 2223              	.L305:
 2224 00ca 11F0400F 		tst	r1, #64
 2225 00ce A1D0     		beq	.L296
 2226 00d0 236C     		ldr	r3, [r4, #64]
 2227 00d2 2046     		mov	r0, r4
 2228 00d4 9847     		blx	r3
 2229 00d6 02E0     		b	.L295
 2230              	.L306:
 2231 00d8 636C     		ldr	r3, [r4, #68]
 2232 00da 2046     		mov	r0, r4
 2233 00dc 9847     		blx	r3
 2234              	.L295:
 2235 00de 04B0     		add	sp, sp, #16
 2236              		@ sp needed
 2237 00e0 10BD     		pop	{r4, pc}
ARM GAS  /tmp/ccYRrd4O.s 			page 39


 2238              	.L300:
 2239 00e2 0023     		movs	r3, #0
 2240 00e4 0293     		str	r3, [sp, #8]
 2241 00e6 D368     		ldr	r3, [r2, #12]
 2242 00e8 0293     		str	r3, [sp, #8]
 2243 00ea 9368     		ldr	r3, [r2, #8]
 2244 00ec 0293     		str	r3, [sp, #8]
 2245 00ee 029B     		ldr	r3, [sp, #8]
 2246 00f0 F5E7     		b	.L295
 2247              	.L302:
 2248 00f2 2046     		mov	r0, r4
 2249 00f4 FFF7FEFF 		bl	HAL_SPI_ErrorCallback
 2250 00f8 F1E7     		b	.L295
 2251              	.L308:
 2252 00fa 00BF     		.align	2
 2253              	.L307:
 2254 00fc 00000000 		.word	SPI_DMAAbortOnError
 2256              		.section	.text.SPI_DMAAbortOnError,"ax",%progbits
 2257              		.align	1
 2258              		.syntax unified
 2259              		.thumb
 2260              		.thumb_func
 2261              		.fpu softvfp
 2263              	SPI_DMAAbortOnError:
 2264              		@ args = 0, pretend = 0, frame = 0
 2265              		@ frame_needed = 0, uses_anonymous_args = 0
 2266 0000 08B5     		push	{r3, lr}
 2267 0002 406A     		ldr	r0, [r0, #36]
 2268 0004 0023     		movs	r3, #0
 2269 0006 C387     		strh	r3, [r0, #62]	@ movhi
 2270 0008 C386     		strh	r3, [r0, #54]	@ movhi
 2271 000a FFF7FEFF 		bl	HAL_SPI_ErrorCallback
 2272 000e 08BD     		pop	{r3, pc}
 2274              		.section	.text.HAL_SPI_AbortCpltCallback,"ax",%progbits
 2275              		.align	1
 2276              		.weak	HAL_SPI_AbortCpltCallback
 2277              		.syntax unified
 2278              		.thumb
 2279              		.thumb_func
 2280              		.fpu softvfp
 2282              	HAL_SPI_AbortCpltCallback:
 2283              		@ args = 0, pretend = 0, frame = 0
 2284              		@ frame_needed = 0, uses_anonymous_args = 0
 2285              		@ link register save eliminated.
 2286 0000 7047     		bx	lr
 2288              		.section	.text.HAL_SPI_Abort_IT,"ax",%progbits
 2289              		.align	1
 2290              		.global	HAL_SPI_Abort_IT
 2291              		.syntax unified
 2292              		.thumb
 2293              		.thumb_func
 2294              		.fpu softvfp
 2296              	HAL_SPI_Abort_IT:
 2297              		@ args = 0, pretend = 0, frame = 16
 2298              		@ frame_needed = 0, uses_anonymous_args = 0
 2299 0000 30B5     		push	{r4, r5, lr}
 2300 0002 85B0     		sub	sp, sp, #20
ARM GAS  /tmp/ccYRrd4O.s 			page 40


 2301 0004 0446     		mov	r4, r0
 2302 0006 4E4B     		ldr	r3, .L339
 2303 0008 1B68     		ldr	r3, [r3]
 2304 000a 4E4A     		ldr	r2, .L339+4
 2305 000c A2FB0323 		umull	r2, r3, r2, r3
 2306 0010 5B0A     		lsrs	r3, r3, #9
 2307 0012 6422     		movs	r2, #100
 2308 0014 02FB03F3 		mul	r3, r2, r3
 2309 0018 0293     		str	r3, [sp, #8]
 2310 001a 029B     		ldr	r3, [sp, #8]
 2311 001c 0393     		str	r3, [sp, #12]
 2312 001e 0268     		ldr	r2, [r0]
 2313 0020 5368     		ldr	r3, [r2, #4]
 2314 0022 23F02003 		bic	r3, r3, #32
 2315 0026 5360     		str	r3, [r2, #4]
 2316 0028 0268     		ldr	r2, [r0]
 2317 002a 5368     		ldr	r3, [r2, #4]
 2318 002c 13F0800F 		tst	r3, #128
 2319 0030 12D0     		beq	.L313
 2320 0032 454B     		ldr	r3, .L339+8
 2321 0034 4364     		str	r3, [r0, #68]
 2322              	.L316:
 2323 0036 039B     		ldr	r3, [sp, #12]
 2324 0038 43B1     		cbz	r3, .L336
 2325 003a 039B     		ldr	r3, [sp, #12]
 2326 003c 013B     		subs	r3, r3, #1
 2327 003e 0393     		str	r3, [sp, #12]
 2328 0040 94F85130 		ldrb	r3, [r4, #81]	@ zero_extendqisi2
 2329 0044 DBB2     		uxtb	r3, r3
 2330 0046 072B     		cmp	r3, #7
 2331 0048 F5D1     		bne	.L316
 2332 004a 03E0     		b	.L315
 2333              	.L336:
 2334 004c 636D     		ldr	r3, [r4, #84]
 2335 004e 43F04003 		orr	r3, r3, #64
 2336 0052 6365     		str	r3, [r4, #84]
 2337              	.L315:
 2338 0054 029B     		ldr	r3, [sp, #8]
 2339 0056 0393     		str	r3, [sp, #12]
 2340              	.L313:
 2341 0058 5368     		ldr	r3, [r2, #4]
 2342 005a 13F0400F 		tst	r3, #64
 2343 005e 12D0     		beq	.L317
 2344 0060 3A4B     		ldr	r3, .L339+12
 2345 0062 2364     		str	r3, [r4, #64]
 2346              	.L320:
 2347 0064 039B     		ldr	r3, [sp, #12]
 2348 0066 43B1     		cbz	r3, .L337
 2349 0068 039B     		ldr	r3, [sp, #12]
 2350 006a 013B     		subs	r3, r3, #1
 2351 006c 0393     		str	r3, [sp, #12]
 2352 006e 94F85130 		ldrb	r3, [r4, #81]	@ zero_extendqisi2
 2353 0072 DBB2     		uxtb	r3, r3
 2354 0074 072B     		cmp	r3, #7
 2355 0076 F5D1     		bne	.L320
 2356 0078 03E0     		b	.L319
 2357              	.L337:
ARM GAS  /tmp/ccYRrd4O.s 			page 41


 2358 007a 636D     		ldr	r3, [r4, #84]
 2359 007c 43F04003 		orr	r3, r3, #64
 2360 0080 6365     		str	r3, [r4, #84]
 2361              	.L319:
 2362 0082 029B     		ldr	r3, [sp, #8]
 2363 0084 0393     		str	r3, [sp, #12]
 2364              	.L317:
 2365 0086 A36C     		ldr	r3, [r4, #72]
 2366 0088 2BB1     		cbz	r3, .L321
 2367 008a 5268     		ldr	r2, [r2, #4]
 2368 008c 12F0020F 		tst	r2, #2
 2369 0090 1BD0     		beq	.L322
 2370 0092 2F4A     		ldr	r2, .L339+16
 2371 0094 5A63     		str	r2, [r3, #52]
 2372              	.L321:
 2373 0096 E36C     		ldr	r3, [r4, #76]
 2374 0098 33B1     		cbz	r3, .L323
 2375 009a 2268     		ldr	r2, [r4]
 2376 009c 5268     		ldr	r2, [r2, #4]
 2377 009e 12F0010F 		tst	r2, #1
 2378 00a2 15D0     		beq	.L324
 2379 00a4 2B4A     		ldr	r2, .L339+20
 2380 00a6 5A63     		str	r2, [r3, #52]
 2381              	.L323:
 2382 00a8 2368     		ldr	r3, [r4]
 2383 00aa 5B68     		ldr	r3, [r3, #4]
 2384 00ac 13F0020F 		tst	r3, #2
 2385 00b0 11D0     		beq	.L329
 2386 00b2 A06C     		ldr	r0, [r4, #72]
 2387 00b4 20B3     		cbz	r0, .L330
 2388 00b6 FFF7FEFF 		bl	HAL_DMA_Abort_IT
 2389 00ba 18B3     		cbz	r0, .L331
 2390 00bc A36C     		ldr	r3, [r4, #72]
 2391 00be 0022     		movs	r2, #0
 2392 00c0 5A63     		str	r2, [r3, #52]
 2393 00c2 4023     		movs	r3, #64
 2394 00c4 6365     		str	r3, [r4, #84]
 2395 00c6 0125     		movs	r5, #1
 2396 00c8 06E0     		b	.L325
 2397              	.L322:
 2398 00ca 0022     		movs	r2, #0
 2399 00cc 5A63     		str	r2, [r3, #52]
 2400 00ce E2E7     		b	.L321
 2401              	.L324:
 2402 00d0 0022     		movs	r2, #0
 2403 00d2 5A63     		str	r2, [r3, #52]
 2404 00d4 E8E7     		b	.L323
 2405              	.L329:
 2406 00d6 0125     		movs	r5, #1
 2407              	.L325:
 2408 00d8 2368     		ldr	r3, [r4]
 2409 00da 5B68     		ldr	r3, [r3, #4]
 2410 00dc 13F0010F 		tst	r3, #1
 2411 00e0 09D0     		beq	.L326
 2412 00e2 E06C     		ldr	r0, [r4, #76]
 2413 00e4 38B1     		cbz	r0, .L326
 2414 00e6 FFF7FEFF 		bl	HAL_DMA_Abort_IT
ARM GAS  /tmp/ccYRrd4O.s 			page 42


 2415 00ea 68B1     		cbz	r0, .L332
 2416 00ec E36C     		ldr	r3, [r4, #76]
 2417 00ee 0022     		movs	r2, #0
 2418 00f0 5A63     		str	r2, [r3, #52]
 2419 00f2 4023     		movs	r3, #64
 2420 00f4 6365     		str	r3, [r4, #84]
 2421              	.L326:
 2422 00f6 4DB9     		cbnz	r5, .L338
 2423 00f8 0025     		movs	r5, #0
 2424              	.L327:
 2425 00fa 2846     		mov	r0, r5
 2426 00fc 05B0     		add	sp, sp, #20
 2427              		@ sp needed
 2428 00fe 30BD     		pop	{r4, r5, pc}
 2429              	.L330:
 2430 0100 0125     		movs	r5, #1
 2431 0102 E9E7     		b	.L325
 2432              	.L331:
 2433 0104 0025     		movs	r5, #0
 2434 0106 E7E7     		b	.L325
 2435              	.L332:
 2436 0108 0025     		movs	r5, #0
 2437 010a F4E7     		b	.L326
 2438              	.L338:
 2439 010c 0023     		movs	r3, #0
 2440 010e E387     		strh	r3, [r4, #62]	@ movhi
 2441 0110 E386     		strh	r3, [r4, #54]	@ movhi
 2442 0112 636D     		ldr	r3, [r4, #84]
 2443 0114 402B     		cmp	r3, #64
 2444 0116 10D0     		beq	.L334
 2445 0118 0025     		movs	r5, #0
 2446 011a 6565     		str	r5, [r4, #84]
 2447              	.L328:
 2448 011c 0023     		movs	r3, #0
 2449 011e 0193     		str	r3, [sp, #4]
 2450 0120 2368     		ldr	r3, [r4]
 2451 0122 DA68     		ldr	r2, [r3, #12]
 2452 0124 0192     		str	r2, [sp, #4]
 2453 0126 9B68     		ldr	r3, [r3, #8]
 2454 0128 0193     		str	r3, [sp, #4]
 2455 012a 019B     		ldr	r3, [sp, #4]
 2456 012c 0123     		movs	r3, #1
 2457 012e 84F85130 		strb	r3, [r4, #81]
 2458 0132 2046     		mov	r0, r4
 2459 0134 FFF7FEFF 		bl	HAL_SPI_AbortCpltCallback
 2460 0138 DFE7     		b	.L327
 2461              	.L334:
 2462 013a 0125     		movs	r5, #1
 2463 013c EEE7     		b	.L328
 2464              	.L340:
 2465 013e 00BF     		.align	2
 2466              	.L339:
 2467 0140 00000000 		.word	SystemCoreClock
 2468 0144 F1197605 		.word	91625969
 2469 0148 00000000 		.word	SPI_AbortTx_ISR
 2470 014c 00000000 		.word	SPI_AbortRx_ISR
 2471 0150 00000000 		.word	SPI_DMATxAbortCallback
ARM GAS  /tmp/ccYRrd4O.s 			page 43


 2472 0154 00000000 		.word	SPI_DMARxAbortCallback
 2474              		.section	.text.SPI_DMARxAbortCallback,"ax",%progbits
 2475              		.align	1
 2476              		.syntax unified
 2477              		.thumb
 2478              		.thumb_func
 2479              		.fpu softvfp
 2481              	SPI_DMARxAbortCallback:
 2482              		@ args = 0, pretend = 0, frame = 8
 2483              		@ frame_needed = 0, uses_anonymous_args = 0
 2484 0000 10B5     		push	{r4, lr}
 2485 0002 82B0     		sub	sp, sp, #8
 2486 0004 446A     		ldr	r4, [r0, #36]
 2487 0006 2268     		ldr	r2, [r4]
 2488 0008 1368     		ldr	r3, [r2]
 2489 000a 23F04003 		bic	r3, r3, #64
 2490 000e 1360     		str	r3, [r2]
 2491 0010 E36C     		ldr	r3, [r4, #76]
 2492 0012 0022     		movs	r2, #0
 2493 0014 5A63     		str	r2, [r3, #52]
 2494 0016 2268     		ldr	r2, [r4]
 2495 0018 5368     		ldr	r3, [r2, #4]
 2496 001a 23F00103 		bic	r3, r3, #1
 2497 001e 5360     		str	r3, [r2, #4]
 2498 0020 FFF7FEFF 		bl	HAL_GetTick
 2499 0024 0246     		mov	r2, r0
 2500 0026 6421     		movs	r1, #100
 2501 0028 2046     		mov	r0, r4
 2502 002a FFF7FEFF 		bl	SPI_EndRxTxTransaction
 2503 002e 18B1     		cbz	r0, .L342
 2504 0030 636D     		ldr	r3, [r4, #84]
 2505 0032 43F04003 		orr	r3, r3, #64
 2506 0036 6365     		str	r3, [r4, #84]
 2507              	.L342:
 2508 0038 A36C     		ldr	r3, [r4, #72]
 2509 003a 1BB1     		cbz	r3, .L343
 2510 003c 5B6B     		ldr	r3, [r3, #52]
 2511 003e 0BB1     		cbz	r3, .L343
 2512              	.L341:
 2513 0040 02B0     		add	sp, sp, #8
 2514              		@ sp needed
 2515 0042 10BD     		pop	{r4, pc}
 2516              	.L343:
 2517 0044 0023     		movs	r3, #0
 2518 0046 E387     		strh	r3, [r4, #62]	@ movhi
 2519 0048 E386     		strh	r3, [r4, #54]	@ movhi
 2520 004a 636D     		ldr	r3, [r4, #84]
 2521 004c 402B     		cmp	r3, #64
 2522 004e 01D0     		beq	.L345
 2523 0050 0023     		movs	r3, #0
 2524 0052 6365     		str	r3, [r4, #84]
 2525              	.L345:
 2526 0054 0023     		movs	r3, #0
 2527 0056 0193     		str	r3, [sp, #4]
 2528 0058 2368     		ldr	r3, [r4]
 2529 005a DA68     		ldr	r2, [r3, #12]
 2530 005c 0192     		str	r2, [sp, #4]
ARM GAS  /tmp/ccYRrd4O.s 			page 44


 2531 005e 9B68     		ldr	r3, [r3, #8]
 2532 0060 0193     		str	r3, [sp, #4]
 2533 0062 019B     		ldr	r3, [sp, #4]
 2534 0064 0123     		movs	r3, #1
 2535 0066 84F85130 		strb	r3, [r4, #81]
 2536 006a 2046     		mov	r0, r4
 2537 006c FFF7FEFF 		bl	HAL_SPI_AbortCpltCallback
 2538 0070 E6E7     		b	.L341
 2540              		.section	.text.SPI_DMATxAbortCallback,"ax",%progbits
 2541              		.align	1
 2542              		.syntax unified
 2543              		.thumb
 2544              		.thumb_func
 2545              		.fpu softvfp
 2547              	SPI_DMATxAbortCallback:
 2548              		@ args = 0, pretend = 0, frame = 8
 2549              		@ frame_needed = 0, uses_anonymous_args = 0
 2550 0000 00B5     		push	{lr}
 2551 0002 83B0     		sub	sp, sp, #12
 2552 0004 406A     		ldr	r0, [r0, #36]
 2553 0006 836C     		ldr	r3, [r0, #72]
 2554 0008 0022     		movs	r2, #0
 2555 000a 5A63     		str	r2, [r3, #52]
 2556 000c 1D4B     		ldr	r3, .L356
 2557 000e 1B68     		ldr	r3, [r3]
 2558 0010 1D4A     		ldr	r2, .L356+4
 2559 0012 A2FB0323 		umull	r2, r3, r2, r3
 2560 0016 5B0A     		lsrs	r3, r3, #9
 2561 0018 6422     		movs	r2, #100
 2562 001a 02FB03F3 		mul	r3, r2, r3
 2563 001e 0193     		str	r3, [sp, #4]
 2564 0020 0268     		ldr	r2, [r0]
 2565 0022 5368     		ldr	r3, [r2, #4]
 2566 0024 23F00203 		bic	r3, r3, #2
 2567 0028 5360     		str	r3, [r2, #4]
 2568              	.L350:
 2569 002a 019B     		ldr	r3, [sp, #4]
 2570 002c 43B1     		cbz	r3, .L355
 2571 002e 019B     		ldr	r3, [sp, #4]
 2572 0030 013B     		subs	r3, r3, #1
 2573 0032 0193     		str	r3, [sp, #4]
 2574 0034 0368     		ldr	r3, [r0]
 2575 0036 9B68     		ldr	r3, [r3, #8]
 2576 0038 13F0020F 		tst	r3, #2
 2577 003c F5D0     		beq	.L350
 2578 003e 03E0     		b	.L349
 2579              	.L355:
 2580 0040 436D     		ldr	r3, [r0, #84]
 2581 0042 43F04003 		orr	r3, r3, #64
 2582 0046 4365     		str	r3, [r0, #84]
 2583              	.L349:
 2584 0048 C36C     		ldr	r3, [r0, #76]
 2585 004a 23B1     		cbz	r3, .L351
 2586 004c 5B6B     		ldr	r3, [r3, #52]
 2587 004e 13B1     		cbz	r3, .L351
 2588              	.L347:
 2589 0050 03B0     		add	sp, sp, #12
ARM GAS  /tmp/ccYRrd4O.s 			page 45


 2590              		@ sp needed
 2591 0052 5DF804FB 		ldr	pc, [sp], #4
 2592              	.L351:
 2593 0056 0023     		movs	r3, #0
 2594 0058 C387     		strh	r3, [r0, #62]	@ movhi
 2595 005a C386     		strh	r3, [r0, #54]	@ movhi
 2596 005c 436D     		ldr	r3, [r0, #84]
 2597 005e 402B     		cmp	r3, #64
 2598 0060 01D0     		beq	.L353
 2599 0062 0023     		movs	r3, #0
 2600 0064 4365     		str	r3, [r0, #84]
 2601              	.L353:
 2602 0066 0023     		movs	r3, #0
 2603 0068 0093     		str	r3, [sp]
 2604 006a 0368     		ldr	r3, [r0]
 2605 006c DA68     		ldr	r2, [r3, #12]
 2606 006e 0092     		str	r2, [sp]
 2607 0070 9B68     		ldr	r3, [r3, #8]
 2608 0072 0093     		str	r3, [sp]
 2609 0074 009B     		ldr	r3, [sp]
 2610 0076 0123     		movs	r3, #1
 2611 0078 80F85130 		strb	r3, [r0, #81]
 2612 007c FFF7FEFF 		bl	HAL_SPI_AbortCpltCallback
 2613 0080 E6E7     		b	.L347
 2614              	.L357:
 2615 0082 00BF     		.align	2
 2616              	.L356:
 2617 0084 00000000 		.word	SystemCoreClock
 2618 0088 F1197605 		.word	91625969
 2620              		.section	.text.HAL_SPI_GetState,"ax",%progbits
 2621              		.align	1
 2622              		.global	HAL_SPI_GetState
 2623              		.syntax unified
 2624              		.thumb
 2625              		.thumb_func
 2626              		.fpu softvfp
 2628              	HAL_SPI_GetState:
 2629              		@ args = 0, pretend = 0, frame = 0
 2630              		@ frame_needed = 0, uses_anonymous_args = 0
 2631              		@ link register save eliminated.
 2632 0000 90F85100 		ldrb	r0, [r0, #81]	@ zero_extendqisi2
 2633 0004 7047     		bx	lr
 2635              		.section	.text.HAL_SPI_GetError,"ax",%progbits
 2636              		.align	1
 2637              		.global	HAL_SPI_GetError
 2638              		.syntax unified
 2639              		.thumb
 2640              		.thumb_func
 2641              		.fpu softvfp
 2643              	HAL_SPI_GetError:
 2644              		@ args = 0, pretend = 0, frame = 0
 2645              		@ frame_needed = 0, uses_anonymous_args = 0
 2646              		@ link register save eliminated.
 2647 0000 406D     		ldr	r0, [r0, #84]
 2648 0002 7047     		bx	lr
 2650              		.section	.text.SPI_ISCRCErrorValid,"ax",%progbits
 2651              		.align	1
ARM GAS  /tmp/ccYRrd4O.s 			page 46


 2652              		.global	SPI_ISCRCErrorValid
 2653              		.syntax unified
 2654              		.thumb
 2655              		.thumb_func
 2656              		.fpu softvfp
 2658              	SPI_ISCRCErrorValid:
 2659              		@ args = 0, pretend = 0, frame = 0
 2660              		@ frame_needed = 0, uses_anonymous_args = 0
 2661              		@ link register save eliminated.
 2662 0000 0120     		movs	r0, #1
 2663 0002 7047     		bx	lr
 2665              		.section	.text.HAL_SPI_TransmitReceive,"ax",%progbits
 2666              		.align	1
 2667              		.global	HAL_SPI_TransmitReceive
 2668              		.syntax unified
 2669              		.thumb
 2670              		.thumb_func
 2671              		.fpu softvfp
 2673              	HAL_SPI_TransmitReceive:
 2674              		@ args = 4, pretend = 0, frame = 8
 2675              		@ frame_needed = 0, uses_anonymous_args = 0
 2676 0000 2DE9F043 		push	{r4, r5, r6, r7, r8, r9, lr}
 2677 0004 85B0     		sub	sp, sp, #20
 2678 0006 0C9D     		ldr	r5, [sp, #48]
 2679 0008 90F85040 		ldrb	r4, [r0, #80]	@ zero_extendqisi2
 2680 000c 012C     		cmp	r4, #1
 2681 000e 04D1     		bne	.L404
 2682 0010 0226     		movs	r6, #2
 2683              	.L362:
 2684 0012 3046     		mov	r0, r6
 2685 0014 05B0     		add	sp, sp, #20
 2686              		@ sp needed
 2687 0016 BDE8F083 		pop	{r4, r5, r6, r7, r8, r9, pc}
 2688              	.L404:
 2689 001a 1E46     		mov	r6, r3
 2690 001c 9146     		mov	r9, r2
 2691 001e 0F46     		mov	r7, r1
 2692 0020 0446     		mov	r4, r0
 2693 0022 0123     		movs	r3, #1
 2694 0024 80F85030 		strb	r3, [r0, #80]
 2695 0028 FFF7FEFF 		bl	HAL_GetTick
 2696 002c 8046     		mov	r8, r0
 2697 002e 94F85130 		ldrb	r3, [r4, #81]	@ zero_extendqisi2
 2698 0032 DBB2     		uxtb	r3, r3
 2699 0034 6268     		ldr	r2, [r4, #4]
 2700 0036 012B     		cmp	r3, #1
 2701 0038 12D0     		beq	.L363
 2702 003a B2F5827F 		cmp	r2, #260
 2703 003e 07D0     		beq	.L405
 2704 0040 0226     		movs	r6, #2
 2705              	.L364:
 2706 0042 0123     		movs	r3, #1
 2707 0044 84F85130 		strb	r3, [r4, #81]
 2708 0048 0023     		movs	r3, #0
 2709 004a 84F85030 		strb	r3, [r4, #80]
 2710 004e E0E7     		b	.L362
 2711              	.L405:
ARM GAS  /tmp/ccYRrd4O.s 			page 47


 2712 0050 A268     		ldr	r2, [r4, #8]
 2713 0052 002A     		cmp	r2, #0
 2714 0054 40F04681 		bne	.L390
 2715 0058 042B     		cmp	r3, #4
 2716 005a 01D0     		beq	.L363
 2717 005c 0226     		movs	r6, #2
 2718 005e F0E7     		b	.L364
 2719              	.L363:
 2720 0060 002F     		cmp	r7, #0
 2721 0062 00F04181 		beq	.L392
 2722 0066 B9F1000F 		cmp	r9, #0
 2723 006a 00F03F81 		beq	.L393
 2724 006e 002E     		cmp	r6, #0
 2725 0070 00F03E81 		beq	.L394
 2726 0074 94F85130 		ldrb	r3, [r4, #81]	@ zero_extendqisi2
 2727 0078 DBB2     		uxtb	r3, r3
 2728 007a 042B     		cmp	r3, #4
 2729 007c 02D0     		beq	.L365
 2730 007e 0523     		movs	r3, #5
 2731 0080 84F85130 		strb	r3, [r4, #81]
 2732              	.L365:
 2733 0084 0023     		movs	r3, #0
 2734 0086 6365     		str	r3, [r4, #84]
 2735 0088 C4F83890 		str	r9, [r4, #56]
 2736 008c E687     		strh	r6, [r4, #62]	@ movhi
 2737 008e A687     		strh	r6, [r4, #60]	@ movhi
 2738 0090 2763     		str	r7, [r4, #48]
 2739 0092 E686     		strh	r6, [r4, #54]	@ movhi
 2740 0094 A686     		strh	r6, [r4, #52]	@ movhi
 2741 0096 2364     		str	r3, [r4, #64]
 2742 0098 6364     		str	r3, [r4, #68]
 2743 009a A36A     		ldr	r3, [r4, #40]
 2744 009c B3F5005F 		cmp	r3, #8192
 2745 00a0 1ED0     		beq	.L406
 2746              	.L366:
 2747 00a2 2368     		ldr	r3, [r4]
 2748 00a4 1A68     		ldr	r2, [r3]
 2749 00a6 12F0400F 		tst	r2, #64
 2750 00aa 03D1     		bne	.L367
 2751 00ac 1A68     		ldr	r2, [r3]
 2752 00ae 42F04002 		orr	r2, r2, #64
 2753 00b2 1A60     		str	r2, [r3]
 2754              	.L367:
 2755 00b4 E368     		ldr	r3, [r4, #12]
 2756 00b6 B3F5006F 		cmp	r3, #2048
 2757 00ba 1CD0     		beq	.L407
 2758 00bc 6368     		ldr	r3, [r4, #4]
 2759 00be 0BB1     		cbz	r3, .L376
 2760 00c0 012E     		cmp	r6, #1
 2761 00c2 0BD1     		bne	.L377
 2762              	.L376:
 2763 00c4 2368     		ldr	r3, [r4]
 2764 00c6 226B     		ldr	r2, [r4, #48]
 2765 00c8 1278     		ldrb	r2, [r2]	@ zero_extendqisi2
 2766 00ca 1A73     		strb	r2, [r3, #12]
 2767 00cc 236B     		ldr	r3, [r4, #48]
 2768 00ce 0133     		adds	r3, r3, #1
ARM GAS  /tmp/ccYRrd4O.s 			page 48


 2769 00d0 2363     		str	r3, [r4, #48]
 2770 00d2 E38E     		ldrh	r3, [r4, #54]
 2771 00d4 9BB2     		uxth	r3, r3
 2772 00d6 013B     		subs	r3, r3, #1
 2773 00d8 9BB2     		uxth	r3, r3
 2774 00da E386     		strh	r3, [r4, #54]	@ movhi
 2775              	.L377:
 2776 00dc 0126     		movs	r6, #1
 2777 00de 90E0     		b	.L381
 2778              	.L406:
 2779 00e0 2268     		ldr	r2, [r4]
 2780 00e2 1368     		ldr	r3, [r2]
 2781 00e4 23F40053 		bic	r3, r3, #8192
 2782 00e8 1360     		str	r3, [r2]
 2783 00ea 2268     		ldr	r2, [r4]
 2784 00ec 1368     		ldr	r3, [r2]
 2785 00ee 43F40053 		orr	r3, r3, #8192
 2786 00f2 1360     		str	r3, [r2]
 2787 00f4 D5E7     		b	.L366
 2788              	.L407:
 2789 00f6 6368     		ldr	r3, [r4, #4]
 2790 00f8 0BB1     		cbz	r3, .L369
 2791 00fa 012E     		cmp	r6, #1
 2792 00fc 0BD1     		bne	.L370
 2793              	.L369:
 2794 00fe 2368     		ldr	r3, [r4]
 2795 0100 226B     		ldr	r2, [r4, #48]
 2796 0102 1288     		ldrh	r2, [r2]
 2797 0104 DA60     		str	r2, [r3, #12]
 2798 0106 236B     		ldr	r3, [r4, #48]
 2799 0108 0233     		adds	r3, r3, #2
 2800 010a 2363     		str	r3, [r4, #48]
 2801 010c E38E     		ldrh	r3, [r4, #54]
 2802 010e 9BB2     		uxth	r3, r3
 2803 0110 013B     		subs	r3, r3, #1
 2804 0112 9BB2     		uxth	r3, r3
 2805 0114 E386     		strh	r3, [r4, #54]	@ movhi
 2806              	.L370:
 2807 0116 0126     		movs	r6, #1
 2808 0118 25E0     		b	.L371
 2809              	.L408:
 2810 011a 2268     		ldr	r2, [r4]
 2811 011c 1368     		ldr	r3, [r2]
 2812 011e 43F48053 		orr	r3, r3, #4096
 2813 0122 1360     		str	r3, [r2]
 2814 0124 0026     		movs	r6, #0
 2815 0126 00E0     		b	.L372
 2816              	.L395:
 2817 0128 0026     		movs	r6, #0
 2818              	.L372:
 2819 012a 2368     		ldr	r3, [r4]
 2820 012c 9A68     		ldr	r2, [r3, #8]
 2821 012e 12F0010F 		tst	r2, #1
 2822 0132 0ED0     		beq	.L373
 2823 0134 E28F     		ldrh	r2, [r4, #62]
 2824 0136 92B2     		uxth	r2, r2
 2825 0138 5AB1     		cbz	r2, .L373
ARM GAS  /tmp/ccYRrd4O.s 			page 49


 2826 013a A26B     		ldr	r2, [r4, #56]
 2827 013c DB68     		ldr	r3, [r3, #12]
 2828 013e 1380     		strh	r3, [r2]	@ movhi
 2829 0140 A36B     		ldr	r3, [r4, #56]
 2830 0142 0233     		adds	r3, r3, #2
 2831 0144 A363     		str	r3, [r4, #56]
 2832 0146 E38F     		ldrh	r3, [r4, #62]
 2833 0148 9BB2     		uxth	r3, r3
 2834 014a 013B     		subs	r3, r3, #1
 2835 014c 9BB2     		uxth	r3, r3
 2836 014e E387     		strh	r3, [r4, #62]	@ movhi
 2837 0150 0126     		movs	r6, #1
 2838              	.L373:
 2839 0152 FFF7FEFF 		bl	HAL_GetTick
 2840 0156 A0EB0800 		sub	r0, r0, r8
 2841 015a A842     		cmp	r0, r5
 2842 015c 03D3     		bcc	.L371
 2843 015e B5F1FF3F 		cmp	r5, #-1
 2844 0162 40F0C780 		bne	.L397
 2845              	.L371:
 2846 0166 E38E     		ldrh	r3, [r4, #54]
 2847 0168 9BB2     		uxth	r3, r3
 2848 016a 1BB9     		cbnz	r3, .L374
 2849 016c E38F     		ldrh	r3, [r4, #62]
 2850 016e 9BB2     		uxth	r3, r3
 2851 0170 002B     		cmp	r3, #0
 2852 0172 6CD0     		beq	.L375
 2853              	.L374:
 2854 0174 2368     		ldr	r3, [r4]
 2855 0176 9A68     		ldr	r2, [r3, #8]
 2856 0178 12F0020F 		tst	r2, #2
 2857 017c D5D0     		beq	.L372
 2858 017e E28E     		ldrh	r2, [r4, #54]
 2859 0180 92B2     		uxth	r2, r2
 2860 0182 002A     		cmp	r2, #0
 2861 0184 D1D0     		beq	.L372
 2862 0186 002E     		cmp	r6, #0
 2863 0188 CFD0     		beq	.L372
 2864 018a 226B     		ldr	r2, [r4, #48]
 2865 018c 1288     		ldrh	r2, [r2]
 2866 018e DA60     		str	r2, [r3, #12]
 2867 0190 236B     		ldr	r3, [r4, #48]
 2868 0192 0233     		adds	r3, r3, #2
 2869 0194 2363     		str	r3, [r4, #48]
 2870 0196 E38E     		ldrh	r3, [r4, #54]
 2871 0198 9BB2     		uxth	r3, r3
 2872 019a 013B     		subs	r3, r3, #1
 2873 019c 9BB2     		uxth	r3, r3
 2874 019e E386     		strh	r3, [r4, #54]	@ movhi
 2875 01a0 E38E     		ldrh	r3, [r4, #54]
 2876 01a2 9BB2     		uxth	r3, r3
 2877 01a4 002B     		cmp	r3, #0
 2878 01a6 BFD1     		bne	.L395
 2879 01a8 A36A     		ldr	r3, [r4, #40]
 2880 01aa B3F5005F 		cmp	r3, #8192
 2881 01ae B4D0     		beq	.L408
 2882 01b0 0026     		movs	r6, #0
ARM GAS  /tmp/ccYRrd4O.s 			page 50


 2883 01b2 BAE7     		b	.L372
 2884              	.L410:
 2885 01b4 2268     		ldr	r2, [r4]
 2886 01b6 1368     		ldr	r3, [r2]
 2887 01b8 43F48053 		orr	r3, r3, #4096
 2888 01bc 1360     		str	r3, [r2]
 2889 01be 0026     		movs	r6, #0
 2890 01c0 00E0     		b	.L378
 2891              	.L398:
 2892 01c2 0026     		movs	r6, #0
 2893              	.L378:
 2894 01c4 2368     		ldr	r3, [r4]
 2895 01c6 9A68     		ldr	r2, [r3, #8]
 2896 01c8 12F0010F 		tst	r2, #1
 2897 01cc 0ED0     		beq	.L379
 2898 01ce E28F     		ldrh	r2, [r4, #62]
 2899 01d0 92B2     		uxth	r2, r2
 2900 01d2 5AB1     		cbz	r2, .L379
 2901 01d4 A26B     		ldr	r2, [r4, #56]
 2902 01d6 DB68     		ldr	r3, [r3, #12]
 2903 01d8 1370     		strb	r3, [r2]
 2904 01da A36B     		ldr	r3, [r4, #56]
 2905 01dc 0133     		adds	r3, r3, #1
 2906 01de A363     		str	r3, [r4, #56]
 2907 01e0 E38F     		ldrh	r3, [r4, #62]
 2908 01e2 9BB2     		uxth	r3, r3
 2909 01e4 013B     		subs	r3, r3, #1
 2910 01e6 9BB2     		uxth	r3, r3
 2911 01e8 E387     		strh	r3, [r4, #62]	@ movhi
 2912 01ea 0126     		movs	r6, #1
 2913              	.L379:
 2914 01ec FFF7FEFF 		bl	HAL_GetTick
 2915 01f0 A0EB0800 		sub	r0, r0, r8
 2916 01f4 8542     		cmp	r5, r0
 2917 01f6 02D8     		bhi	.L380
 2918 01f8 B5F1FF3F 		cmp	r5, #-1
 2919 01fc 7CD1     		bne	.L400
 2920              	.L380:
 2921 01fe 002D     		cmp	r5, #0
 2922 0200 7CD0     		beq	.L409
 2923              	.L381:
 2924 0202 E38E     		ldrh	r3, [r4, #54]
 2925 0204 9BB2     		uxth	r3, r3
 2926 0206 13B9     		cbnz	r3, .L382
 2927 0208 E38F     		ldrh	r3, [r4, #62]
 2928 020a 9BB2     		uxth	r3, r3
 2929 020c FBB1     		cbz	r3, .L375
 2930              	.L382:
 2931 020e 2368     		ldr	r3, [r4]
 2932 0210 9A68     		ldr	r2, [r3, #8]
 2933 0212 12F0020F 		tst	r2, #2
 2934 0216 D5D0     		beq	.L378
 2935 0218 E28E     		ldrh	r2, [r4, #54]
 2936 021a 92B2     		uxth	r2, r2
 2937 021c 002A     		cmp	r2, #0
 2938 021e D1D0     		beq	.L378
 2939 0220 002E     		cmp	r6, #0
ARM GAS  /tmp/ccYRrd4O.s 			page 51


 2940 0222 CFD0     		beq	.L378
 2941 0224 226B     		ldr	r2, [r4, #48]
 2942 0226 1278     		ldrb	r2, [r2]	@ zero_extendqisi2
 2943 0228 1A73     		strb	r2, [r3, #12]
 2944 022a 236B     		ldr	r3, [r4, #48]
 2945 022c 0133     		adds	r3, r3, #1
 2946 022e 2363     		str	r3, [r4, #48]
 2947 0230 E38E     		ldrh	r3, [r4, #54]
 2948 0232 9BB2     		uxth	r3, r3
 2949 0234 013B     		subs	r3, r3, #1
 2950 0236 9BB2     		uxth	r3, r3
 2951 0238 E386     		strh	r3, [r4, #54]	@ movhi
 2952 023a E38E     		ldrh	r3, [r4, #54]
 2953 023c 9BB2     		uxth	r3, r3
 2954 023e 002B     		cmp	r3, #0
 2955 0240 BFD1     		bne	.L398
 2956 0242 A36A     		ldr	r3, [r4, #40]
 2957 0244 B3F5005F 		cmp	r3, #8192
 2958 0248 B4D0     		beq	.L410
 2959 024a 0026     		movs	r6, #0
 2960 024c BAE7     		b	.L378
 2961              	.L375:
 2962 024e A36A     		ldr	r3, [r4, #40]
 2963 0250 B3F5005F 		cmp	r3, #8192
 2964 0254 0ED0     		beq	.L411
 2965              	.L383:
 2966 0256 2668     		ldr	r6, [r4]
 2967 0258 B368     		ldr	r3, [r6, #8]
 2968 025a 13F0100F 		tst	r3, #16
 2969 025e 2AD0     		beq	.L402
 2970 0260 2046     		mov	r0, r4
 2971 0262 FFF7FEFF 		bl	SPI_ISCRCErrorValid
 2972 0266 0128     		cmp	r0, #1
 2973 0268 16D0     		beq	.L412
 2974 026a 4FF6EF73 		movw	r3, #65519
 2975 026e B360     		str	r3, [r6, #8]
 2976 0270 0026     		movs	r6, #0
 2977 0272 21E0     		b	.L385
 2978              	.L411:
 2979 0274 CDF80080 		str	r8, [sp]
 2980 0278 2B46     		mov	r3, r5
 2981 027a 0122     		movs	r2, #1
 2982 027c 1146     		mov	r1, r2
 2983 027e 2046     		mov	r0, r4
 2984 0280 FFF7FEFF 		bl	SPI_WaitFlagStateUntilTimeout
 2985 0284 28B1     		cbz	r0, .L384
 2986 0286 636D     		ldr	r3, [r4, #84]
 2987 0288 43F00203 		orr	r3, r3, #2
 2988 028c 6365     		str	r3, [r4, #84]
 2989 028e 0326     		movs	r6, #3
 2990 0290 D7E6     		b	.L364
 2991              	.L384:
 2992 0292 2368     		ldr	r3, [r4]
 2993 0294 DB68     		ldr	r3, [r3, #12]
 2994 0296 DEE7     		b	.L383
 2995              	.L412:
 2996 0298 636D     		ldr	r3, [r4, #84]
ARM GAS  /tmp/ccYRrd4O.s 			page 52


 2997 029a 43F00203 		orr	r3, r3, #2
 2998 029e 6365     		str	r3, [r4, #84]
 2999 02a0 3368     		ldr	r3, [r6]
 3000 02a2 23F40053 		bic	r3, r3, #8192
 3001 02a6 3360     		str	r3, [r6]
 3002 02a8 2268     		ldr	r2, [r4]
 3003 02aa 1368     		ldr	r3, [r2]
 3004 02ac 43F40053 		orr	r3, r3, #8192
 3005 02b0 1360     		str	r3, [r2]
 3006 02b2 0126     		movs	r6, #1
 3007 02b4 00E0     		b	.L385
 3008              	.L402:
 3009 02b6 0026     		movs	r6, #0
 3010              	.L385:
 3011 02b8 4246     		mov	r2, r8
 3012 02ba 2946     		mov	r1, r5
 3013 02bc 2046     		mov	r0, r4
 3014 02be FFF7FEFF 		bl	SPI_EndRxTxTransaction
 3015 02c2 18B1     		cbz	r0, .L387
 3016 02c4 2023     		movs	r3, #32
 3017 02c6 6365     		str	r3, [r4, #84]
 3018 02c8 0126     		movs	r6, #1
 3019 02ca BAE6     		b	.L364
 3020              	.L387:
 3021 02cc A368     		ldr	r3, [r4, #8]
 3022 02ce 002B     		cmp	r3, #0
 3023 02d0 7FF4B7AE 		bne	.L364
 3024 02d4 0393     		str	r3, [sp, #12]
 3025 02d6 2368     		ldr	r3, [r4]
 3026 02d8 DA68     		ldr	r2, [r3, #12]
 3027 02da 0392     		str	r2, [sp, #12]
 3028 02dc 9B68     		ldr	r3, [r3, #8]
 3029 02de 0393     		str	r3, [sp, #12]
 3030 02e0 039B     		ldr	r3, [sp, #12]
 3031 02e2 AEE6     		b	.L364
 3032              	.L390:
 3033 02e4 0226     		movs	r6, #2
 3034 02e6 ACE6     		b	.L364
 3035              	.L392:
 3036 02e8 0126     		movs	r6, #1
 3037 02ea AAE6     		b	.L364
 3038              	.L393:
 3039 02ec 0126     		movs	r6, #1
 3040 02ee A8E6     		b	.L364
 3041              	.L394:
 3042 02f0 0126     		movs	r6, #1
 3043 02f2 A6E6     		b	.L364
 3044              	.L397:
 3045 02f4 0326     		movs	r6, #3
 3046 02f6 A4E6     		b	.L364
 3047              	.L400:
 3048 02f8 0326     		movs	r6, #3
 3049 02fa A2E6     		b	.L364
 3050              	.L409:
 3051 02fc 0326     		movs	r6, #3
 3052 02fe A0E6     		b	.L364
 3054              		.section	.text.HAL_SPI_Receive,"ax",%progbits
ARM GAS  /tmp/ccYRrd4O.s 			page 53


 3055              		.align	1
 3056              		.global	HAL_SPI_Receive
 3057              		.syntax unified
 3058              		.thumb
 3059              		.thumb_func
 3060              		.fpu softvfp
 3062              	HAL_SPI_Receive:
 3063              		@ args = 0, pretend = 0, frame = 0
 3064              		@ frame_needed = 0, uses_anonymous_args = 0
 3065 0000 2DE9F041 		push	{r4, r5, r6, r7, r8, lr}
 3066 0004 82B0     		sub	sp, sp, #8
 3067 0006 0446     		mov	r4, r0
 3068 0008 0F46     		mov	r7, r1
 3069 000a 9046     		mov	r8, r2
 3070 000c 1D46     		mov	r5, r3
 3071 000e 4368     		ldr	r3, [r0, #4]
 3072 0010 B3F5827F 		cmp	r3, #260
 3073 0014 07D0     		beq	.L450
 3074              	.L414:
 3075 0016 94F85030 		ldrb	r3, [r4, #80]	@ zero_extendqisi2
 3076 001a 012B     		cmp	r3, #1
 3077 001c 0FD1     		bne	.L451
 3078 001e 0220     		movs	r0, #2
 3079              	.L415:
 3080 0020 02B0     		add	sp, sp, #8
 3081              		@ sp needed
 3082 0022 BDE8F081 		pop	{r4, r5, r6, r7, r8, pc}
 3083              	.L450:
 3084 0026 8368     		ldr	r3, [r0, #8]
 3085 0028 002B     		cmp	r3, #0
 3086 002a F4D1     		bne	.L414
 3087 002c 0423     		movs	r3, #4
 3088 002e 80F85130 		strb	r3, [r0, #81]
 3089 0032 0095     		str	r5, [sp]
 3090 0034 1346     		mov	r3, r2
 3091 0036 0A46     		mov	r2, r1
 3092 0038 FFF7FEFF 		bl	HAL_SPI_TransmitReceive
 3093 003c F0E7     		b	.L415
 3094              	.L451:
 3095 003e 0123     		movs	r3, #1
 3096 0040 84F85030 		strb	r3, [r4, #80]
 3097 0044 FFF7FEFF 		bl	HAL_GetTick
 3098 0048 0646     		mov	r6, r0
 3099 004a 94F85130 		ldrb	r3, [r4, #81]	@ zero_extendqisi2
 3100 004e DBB2     		uxtb	r3, r3
 3101 0050 012B     		cmp	r3, #1
 3102 0052 07D0     		beq	.L452
 3103 0054 0220     		movs	r0, #2
 3104              	.L416:
 3105 0056 0123     		movs	r3, #1
 3106 0058 84F85130 		strb	r3, [r4, #81]
 3107 005c 0023     		movs	r3, #0
 3108 005e 84F85030 		strb	r3, [r4, #80]
 3109 0062 DDE7     		b	.L415
 3110              	.L452:
 3111 0064 002F     		cmp	r7, #0
 3112 0066 00F0DD80 		beq	.L441
ARM GAS  /tmp/ccYRrd4O.s 			page 54


 3113 006a B8F1000F 		cmp	r8, #0
 3114 006e 00F0DB80 		beq	.L442
 3115 0072 0423     		movs	r3, #4
 3116 0074 84F85130 		strb	r3, [r4, #81]
 3117 0078 0023     		movs	r3, #0
 3118 007a 6365     		str	r3, [r4, #84]
 3119 007c A763     		str	r7, [r4, #56]
 3120 007e A4F83C80 		strh	r8, [r4, #60]	@ movhi
 3121 0082 A4F83E80 		strh	r8, [r4, #62]	@ movhi
 3122 0086 2363     		str	r3, [r4, #48]
 3123 0088 A386     		strh	r3, [r4, #52]	@ movhi
 3124 008a E386     		strh	r3, [r4, #54]	@ movhi
 3125 008c 2364     		str	r3, [r4, #64]
 3126 008e 6364     		str	r3, [r4, #68]
 3127 0090 A36A     		ldr	r3, [r4, #40]
 3128 0092 B3F5005F 		cmp	r3, #8192
 3129 0096 0FD0     		beq	.L453
 3130              	.L417:
 3131 0098 A368     		ldr	r3, [r4, #8]
 3132 009a B3F5004F 		cmp	r3, #32768
 3133 009e 1BD0     		beq	.L454
 3134              	.L418:
 3135 00a0 2368     		ldr	r3, [r4]
 3136 00a2 1A68     		ldr	r2, [r3]
 3137 00a4 12F0400F 		tst	r2, #64
 3138 00a8 03D1     		bne	.L419
 3139 00aa 1A68     		ldr	r2, [r3]
 3140 00ac 42F04002 		orr	r2, r2, #64
 3141 00b0 1A60     		str	r2, [r3]
 3142              	.L419:
 3143 00b2 E368     		ldr	r3, [r4, #12]
 3144 00b4 13B3     		cbz	r3, .L420
 3145 00b6 40E0     		b	.L421
 3146              	.L453:
 3147 00b8 2268     		ldr	r2, [r4]
 3148 00ba 1368     		ldr	r3, [r2]
 3149 00bc 23F40053 		bic	r3, r3, #8192
 3150 00c0 1360     		str	r3, [r2]
 3151 00c2 2268     		ldr	r2, [r4]
 3152 00c4 1368     		ldr	r3, [r2]
 3153 00c6 43F40053 		orr	r3, r3, #8192
 3154 00ca 1360     		str	r3, [r2]
 3155 00cc E38F     		ldrh	r3, [r4, #62]
 3156 00ce 9BB2     		uxth	r3, r3
 3157 00d0 013B     		subs	r3, r3, #1
 3158 00d2 9BB2     		uxth	r3, r3
 3159 00d4 E387     		strh	r3, [r4, #62]	@ movhi
 3160 00d6 DFE7     		b	.L417
 3161              	.L454:
 3162 00d8 2268     		ldr	r2, [r4]
 3163 00da 1368     		ldr	r3, [r2]
 3164 00dc 23F48043 		bic	r3, r3, #16384
 3165 00e0 1360     		str	r3, [r2]
 3166 00e2 DDE7     		b	.L418
 3167              	.L422:
 3168 00e4 FFF7FEFF 		bl	HAL_GetTick
 3169 00e8 801B     		subs	r0, r0, r6
ARM GAS  /tmp/ccYRrd4O.s 			page 55


 3170 00ea 8542     		cmp	r5, r0
 3171 00ec 03D8     		bhi	.L424
 3172 00ee B5F1FF3F 		cmp	r5, #-1
 3173 00f2 40F09B80 		bne	.L443
 3174              	.L424:
 3175 00f6 002D     		cmp	r5, #0
 3176 00f8 00F09A80 		beq	.L444
 3177              	.L420:
 3178 00fc E38F     		ldrh	r3, [r4, #62]
 3179 00fe 9BB2     		uxth	r3, r3
 3180 0100 002B     		cmp	r3, #0
 3181 0102 2ED0     		beq	.L426
 3182 0104 2368     		ldr	r3, [r4]
 3183 0106 9A68     		ldr	r2, [r3, #8]
 3184 0108 12F0010F 		tst	r2, #1
 3185 010c EAD0     		beq	.L422
 3186 010e A26B     		ldr	r2, [r4, #56]
 3187 0110 1B7B     		ldrb	r3, [r3, #12]	@ zero_extendqisi2
 3188 0112 1370     		strb	r3, [r2]
 3189 0114 A36B     		ldr	r3, [r4, #56]
 3190 0116 0133     		adds	r3, r3, #1
 3191 0118 A363     		str	r3, [r4, #56]
 3192 011a E38F     		ldrh	r3, [r4, #62]
 3193 011c 9BB2     		uxth	r3, r3
 3194 011e 013B     		subs	r3, r3, #1
 3195 0120 9BB2     		uxth	r3, r3
 3196 0122 E387     		strh	r3, [r4, #62]	@ movhi
 3197 0124 EAE7     		b	.L420
 3198              	.L427:
 3199 0126 FFF7FEFF 		bl	HAL_GetTick
 3200 012a 801B     		subs	r0, r0, r6
 3201 012c 8542     		cmp	r5, r0
 3202 012e 02D8     		bhi	.L429
 3203 0130 B5F1FF3F 		cmp	r5, #-1
 3204 0134 7ED1     		bne	.L445
 3205              	.L429:
 3206 0136 002D     		cmp	r5, #0
 3207 0138 7ED0     		beq	.L446
 3208              	.L421:
 3209 013a E38F     		ldrh	r3, [r4, #62]
 3210 013c 9BB2     		uxth	r3, r3
 3211 013e 83B1     		cbz	r3, .L426
 3212 0140 2368     		ldr	r3, [r4]
 3213 0142 9A68     		ldr	r2, [r3, #8]
 3214 0144 12F0010F 		tst	r2, #1
 3215 0148 EDD0     		beq	.L427
 3216 014a A26B     		ldr	r2, [r4, #56]
 3217 014c DB68     		ldr	r3, [r3, #12]
 3218 014e 1380     		strh	r3, [r2]	@ movhi
 3219 0150 A36B     		ldr	r3, [r4, #56]
 3220 0152 0233     		adds	r3, r3, #2
 3221 0154 A363     		str	r3, [r4, #56]
 3222 0156 E38F     		ldrh	r3, [r4, #62]
 3223 0158 9BB2     		uxth	r3, r3
 3224 015a 013B     		subs	r3, r3, #1
 3225 015c 9BB2     		uxth	r3, r3
 3226 015e E387     		strh	r3, [r4, #62]	@ movhi
ARM GAS  /tmp/ccYRrd4O.s 			page 56


 3227 0160 EBE7     		b	.L421
 3228              	.L426:
 3229 0162 A36A     		ldr	r3, [r4, #40]
 3230 0164 B3F5005F 		cmp	r3, #8192
 3231 0168 19D0     		beq	.L455
 3232              	.L431:
 3233 016a 3246     		mov	r2, r6
 3234 016c 2946     		mov	r1, r5
 3235 016e 2046     		mov	r0, r4
 3236 0170 FFF7FEFF 		bl	SPI_EndRxTransaction
 3237 0174 08B1     		cbz	r0, .L436
 3238 0176 2023     		movs	r3, #32
 3239 0178 6365     		str	r3, [r4, #84]
 3240              	.L436:
 3241 017a 2568     		ldr	r5, [r4]
 3242 017c AB68     		ldr	r3, [r5, #8]
 3243 017e 13F0100F 		tst	r3, #16
 3244 0182 07D0     		beq	.L437
 3245 0184 2046     		mov	r0, r4
 3246 0186 FFF7FEFF 		bl	SPI_ISCRCErrorValid
 3247 018a 0128     		cmp	r0, #1
 3248 018c 3CD0     		beq	.L456
 3249 018e 4FF6EF73 		movw	r3, #65519
 3250 0192 AB60     		str	r3, [r5, #8]
 3251              	.L437:
 3252 0194 636D     		ldr	r3, [r4, #84]
 3253 0196 002B     		cmp	r3, #0
 3254 0198 52D1     		bne	.L448
 3255 019a 0020     		movs	r0, #0
 3256 019c 5BE7     		b	.L416
 3257              	.L455:
 3258 019e 2268     		ldr	r2, [r4]
 3259 01a0 1368     		ldr	r3, [r2]
 3260 01a2 43F48053 		orr	r3, r3, #4096
 3261 01a6 1360     		str	r3, [r2]
 3262 01a8 2368     		ldr	r3, [r4]
 3263 01aa 1A68     		ldr	r2, [r3]
 3264 01ac 12F4805F 		tst	r2, #4096
 3265 01b0 03D0     		beq	.L432
 3266 01b2 1A68     		ldr	r2, [r3]
 3267 01b4 22F48052 		bic	r2, r2, #4096
 3268 01b8 1A60     		str	r2, [r3]
 3269              	.L432:
 3270 01ba 0096     		str	r6, [sp]
 3271 01bc 2B46     		mov	r3, r5
 3272 01be 0122     		movs	r2, #1
 3273 01c0 1146     		mov	r1, r2
 3274 01c2 2046     		mov	r0, r4
 3275 01c4 FFF7FEFF 		bl	SPI_WaitFlagStateUntilTimeout
 3276 01c8 0028     		cmp	r0, #0
 3277 01ca 37D1     		bne	.L447
 3278 01cc E368     		ldr	r3, [r4, #12]
 3279 01ce B3F5006F 		cmp	r3, #2048
 3280 01d2 11D0     		beq	.L457
 3281 01d4 A36B     		ldr	r3, [r4, #56]
 3282 01d6 2268     		ldr	r2, [r4]
 3283 01d8 127B     		ldrb	r2, [r2, #12]	@ zero_extendqisi2
ARM GAS  /tmp/ccYRrd4O.s 			page 57


 3284 01da 1A70     		strb	r2, [r3]
 3285              	.L434:
 3286 01dc 0096     		str	r6, [sp]
 3287 01de 2B46     		mov	r3, r5
 3288 01e0 0122     		movs	r2, #1
 3289 01e2 1146     		mov	r1, r2
 3290 01e4 2046     		mov	r0, r4
 3291 01e6 FFF7FEFF 		bl	SPI_WaitFlagStateUntilTimeout
 3292 01ea 50B1     		cbz	r0, .L435
 3293 01ec 636D     		ldr	r3, [r4, #84]
 3294 01ee 43F00203 		orr	r3, r3, #2
 3295 01f2 6365     		str	r3, [r4, #84]
 3296 01f4 0320     		movs	r0, #3
 3297 01f6 2EE7     		b	.L416
 3298              	.L457:
 3299 01f8 A36B     		ldr	r3, [r4, #56]
 3300 01fa 2268     		ldr	r2, [r4]
 3301 01fc D268     		ldr	r2, [r2, #12]
 3302 01fe 1A80     		strh	r2, [r3]	@ movhi
 3303 0200 ECE7     		b	.L434
 3304              	.L435:
 3305 0202 2368     		ldr	r3, [r4]
 3306 0204 DB68     		ldr	r3, [r3, #12]
 3307 0206 B0E7     		b	.L431
 3308              	.L456:
 3309 0208 636D     		ldr	r3, [r4, #84]
 3310 020a 43F00203 		orr	r3, r3, #2
 3311 020e 6365     		str	r3, [r4, #84]
 3312 0210 2B68     		ldr	r3, [r5]
 3313 0212 23F40053 		bic	r3, r3, #8192
 3314 0216 2B60     		str	r3, [r5]
 3315 0218 2268     		ldr	r2, [r4]
 3316 021a 1368     		ldr	r3, [r2]
 3317 021c 43F40053 		orr	r3, r3, #8192
 3318 0220 1360     		str	r3, [r2]
 3319 0222 B7E7     		b	.L437
 3320              	.L441:
 3321 0224 0120     		movs	r0, #1
 3322 0226 16E7     		b	.L416
 3323              	.L442:
 3324 0228 0120     		movs	r0, #1
 3325 022a 14E7     		b	.L416
 3326              	.L443:
 3327 022c 0320     		movs	r0, #3
 3328 022e 12E7     		b	.L416
 3329              	.L444:
 3330 0230 0320     		movs	r0, #3
 3331 0232 10E7     		b	.L416
 3332              	.L445:
 3333 0234 0320     		movs	r0, #3
 3334 0236 0EE7     		b	.L416
 3335              	.L446:
 3336 0238 0320     		movs	r0, #3
 3337 023a 0CE7     		b	.L416
 3338              	.L447:
 3339 023c 0320     		movs	r0, #3
 3340 023e 0AE7     		b	.L416
ARM GAS  /tmp/ccYRrd4O.s 			page 58


 3341              	.L448:
 3342 0240 0120     		movs	r0, #1
 3343 0242 08E7     		b	.L416
 3345              		.section	.text.SPI_CloseRx_ISR,"ax",%progbits
 3346              		.align	1
 3347              		.syntax unified
 3348              		.thumb
 3349              		.thumb_func
 3350              		.fpu softvfp
 3352              	SPI_CloseRx_ISR:
 3353              		@ args = 0, pretend = 0, frame = 8
 3354              		@ frame_needed = 0, uses_anonymous_args = 0
 3355 0000 30B5     		push	{r4, r5, lr}
 3356 0002 83B0     		sub	sp, sp, #12
 3357 0004 0446     		mov	r4, r0
 3358 0006 0268     		ldr	r2, [r0]
 3359 0008 5368     		ldr	r3, [r2, #4]
 3360 000a 23F06003 		bic	r3, r3, #96
 3361 000e 5360     		str	r3, [r2, #4]
 3362 0010 FFF7FEFF 		bl	HAL_GetTick
 3363 0014 0246     		mov	r2, r0
 3364 0016 6421     		movs	r1, #100
 3365 0018 2046     		mov	r0, r4
 3366 001a FFF7FEFF 		bl	SPI_EndRxTransaction
 3367 001e 18B1     		cbz	r0, .L459
 3368 0020 636D     		ldr	r3, [r4, #84]
 3369 0022 43F02003 		orr	r3, r3, #32
 3370 0026 6365     		str	r3, [r4, #84]
 3371              	.L459:
 3372 0028 A368     		ldr	r3, [r4, #8]
 3373 002a 33B9     		cbnz	r3, .L460
 3374 002c 0193     		str	r3, [sp, #4]
 3375 002e 2368     		ldr	r3, [r4]
 3376 0030 DA68     		ldr	r2, [r3, #12]
 3377 0032 0192     		str	r2, [sp, #4]
 3378 0034 9B68     		ldr	r3, [r3, #8]
 3379 0036 0193     		str	r3, [sp, #4]
 3380 0038 019B     		ldr	r3, [sp, #4]
 3381              	.L460:
 3382 003a 0123     		movs	r3, #1
 3383 003c 84F85130 		strb	r3, [r4, #81]
 3384 0040 2568     		ldr	r5, [r4]
 3385 0042 AB68     		ldr	r3, [r5, #8]
 3386 0044 13F0100F 		tst	r3, #16
 3387 0048 1AD0     		beq	.L461
 3388 004a 2046     		mov	r0, r4
 3389 004c FFF7FEFF 		bl	SPI_ISCRCErrorValid
 3390 0050 0128     		cmp	r0, #1
 3391 0052 04D0     		beq	.L466
 3392 0054 4FF6EF73 		movw	r3, #65519
 3393 0058 AB60     		str	r3, [r5, #8]
 3394              	.L458:
 3395 005a 03B0     		add	sp, sp, #12
 3396              		@ sp needed
 3397 005c 30BD     		pop	{r4, r5, pc}
 3398              	.L466:
 3399 005e 636D     		ldr	r3, [r4, #84]
ARM GAS  /tmp/ccYRrd4O.s 			page 59


 3400 0060 43F00203 		orr	r3, r3, #2
 3401 0064 6365     		str	r3, [r4, #84]
 3402 0066 2B68     		ldr	r3, [r5]
 3403 0068 23F40053 		bic	r3, r3, #8192
 3404 006c 2B60     		str	r3, [r5]
 3405 006e 2268     		ldr	r2, [r4]
 3406 0070 1368     		ldr	r3, [r2]
 3407 0072 43F40053 		orr	r3, r3, #8192
 3408 0076 1360     		str	r3, [r2]
 3409 0078 2046     		mov	r0, r4
 3410 007a FFF7FEFF 		bl	HAL_SPI_ErrorCallback
 3411 007e ECE7     		b	.L458
 3412              	.L461:
 3413 0080 636D     		ldr	r3, [r4, #84]
 3414 0082 1BB1     		cbz	r3, .L467
 3415 0084 2046     		mov	r0, r4
 3416 0086 FFF7FEFF 		bl	HAL_SPI_ErrorCallback
 3417 008a E6E7     		b	.L458
 3418              	.L467:
 3419 008c 2046     		mov	r0, r4
 3420 008e FFF7FEFF 		bl	HAL_SPI_RxCpltCallback
 3421 0092 E2E7     		b	.L458
 3423              		.section	.text.SPI_RxISR_8BIT,"ax",%progbits
 3424              		.align	1
 3425              		.syntax unified
 3426              		.thumb
 3427              		.thumb_func
 3428              		.fpu softvfp
 3430              	SPI_RxISR_8BIT:
 3431              		@ args = 0, pretend = 0, frame = 0
 3432              		@ frame_needed = 0, uses_anonymous_args = 0
 3433 0000 08B5     		push	{r3, lr}
 3434 0002 836B     		ldr	r3, [r0, #56]
 3435 0004 0268     		ldr	r2, [r0]
 3436 0006 127B     		ldrb	r2, [r2, #12]	@ zero_extendqisi2
 3437 0008 1A70     		strb	r2, [r3]
 3438 000a 836B     		ldr	r3, [r0, #56]
 3439 000c 0133     		adds	r3, r3, #1
 3440 000e 8363     		str	r3, [r0, #56]
 3441 0010 C38F     		ldrh	r3, [r0, #62]
 3442 0012 9BB2     		uxth	r3, r3
 3443 0014 013B     		subs	r3, r3, #1
 3444 0016 9BB2     		uxth	r3, r3
 3445 0018 C387     		strh	r3, [r0, #62]	@ movhi
 3446 001a C38F     		ldrh	r3, [r0, #62]
 3447 001c 9BB2     		uxth	r3, r3
 3448 001e 012B     		cmp	r3, #1
 3449 0020 12D0     		beq	.L474
 3450              	.L469:
 3451 0022 0368     		ldr	r3, [r0]
 3452 0024 1A68     		ldr	r2, [r3]
 3453 0026 12F4805F 		tst	r2, #4096
 3454 002a 03D0     		beq	.L470
 3455 002c 1A68     		ldr	r2, [r3]
 3456 002e 22F48052 		bic	r2, r2, #4096
 3457 0032 1A60     		str	r2, [r3]
 3458              	.L470:
ARM GAS  /tmp/ccYRrd4O.s 			page 60


 3459 0034 C38F     		ldrh	r3, [r0, #62]
 3460 0036 9BB2     		uxth	r3, r3
 3461 0038 2BB9     		cbnz	r3, .L468
 3462 003a 836A     		ldr	r3, [r0, #40]
 3463 003c B3F5005F 		cmp	r3, #8192
 3464 0040 0CD0     		beq	.L475
 3465 0042 FFF7FEFF 		bl	SPI_CloseRx_ISR
 3466              	.L468:
 3467 0046 08BD     		pop	{r3, pc}
 3468              	.L474:
 3469 0048 836A     		ldr	r3, [r0, #40]
 3470 004a B3F5005F 		cmp	r3, #8192
 3471 004e E8D1     		bne	.L469
 3472 0050 0268     		ldr	r2, [r0]
 3473 0052 1368     		ldr	r3, [r2]
 3474 0054 43F48053 		orr	r3, r3, #4096
 3475 0058 1360     		str	r3, [r2]
 3476 005a E2E7     		b	.L469
 3477              	.L475:
 3478 005c 014B     		ldr	r3, .L476
 3479 005e 0364     		str	r3, [r0, #64]
 3480 0060 08BD     		pop	{r3, pc}
 3481              	.L477:
 3482 0062 00BF     		.align	2
 3483              	.L476:
 3484 0064 00000000 		.word	SPI_RxISR_8BITCRC
 3486              		.section	.text.SPI_RxISR_8BITCRC,"ax",%progbits
 3487              		.align	1
 3488              		.syntax unified
 3489              		.thumb
 3490              		.thumb_func
 3491              		.fpu softvfp
 3493              	SPI_RxISR_8BITCRC:
 3494              		@ args = 0, pretend = 0, frame = 0
 3495              		@ frame_needed = 0, uses_anonymous_args = 0
 3496 0000 08B5     		push	{r3, lr}
 3497 0002 0368     		ldr	r3, [r0]
 3498 0004 1B7B     		ldrb	r3, [r3, #12]	@ zero_extendqisi2
 3499 0006 FFF7FEFF 		bl	SPI_CloseRx_ISR
 3500 000a 08BD     		pop	{r3, pc}
 3502              		.section	.text.SPI_RxISR_16BIT,"ax",%progbits
 3503              		.align	1
 3504              		.syntax unified
 3505              		.thumb
 3506              		.thumb_func
 3507              		.fpu softvfp
 3509              	SPI_RxISR_16BIT:
 3510              		@ args = 0, pretend = 0, frame = 0
 3511              		@ frame_needed = 0, uses_anonymous_args = 0
 3512 0000 08B5     		push	{r3, lr}
 3513 0002 836B     		ldr	r3, [r0, #56]
 3514 0004 0268     		ldr	r2, [r0]
 3515 0006 D268     		ldr	r2, [r2, #12]
 3516 0008 1A80     		strh	r2, [r3]	@ movhi
 3517 000a 836B     		ldr	r3, [r0, #56]
 3518 000c 0233     		adds	r3, r3, #2
 3519 000e 8363     		str	r3, [r0, #56]
ARM GAS  /tmp/ccYRrd4O.s 			page 61


 3520 0010 C38F     		ldrh	r3, [r0, #62]
 3521 0012 9BB2     		uxth	r3, r3
 3522 0014 013B     		subs	r3, r3, #1
 3523 0016 9BB2     		uxth	r3, r3
 3524 0018 C387     		strh	r3, [r0, #62]	@ movhi
 3525 001a C38F     		ldrh	r3, [r0, #62]
 3526 001c 9BB2     		uxth	r3, r3
 3527 001e 012B     		cmp	r3, #1
 3528 0020 12D0     		beq	.L486
 3529              	.L481:
 3530 0022 0368     		ldr	r3, [r0]
 3531 0024 1A68     		ldr	r2, [r3]
 3532 0026 12F4805F 		tst	r2, #4096
 3533 002a 03D0     		beq	.L482
 3534 002c 1A68     		ldr	r2, [r3]
 3535 002e 22F48052 		bic	r2, r2, #4096
 3536 0032 1A60     		str	r2, [r3]
 3537              	.L482:
 3538 0034 C38F     		ldrh	r3, [r0, #62]
 3539 0036 9BB2     		uxth	r3, r3
 3540 0038 2BB9     		cbnz	r3, .L480
 3541 003a 836A     		ldr	r3, [r0, #40]
 3542 003c B3F5005F 		cmp	r3, #8192
 3543 0040 0CD0     		beq	.L487
 3544 0042 FFF7FEFF 		bl	SPI_CloseRx_ISR
 3545              	.L480:
 3546 0046 08BD     		pop	{r3, pc}
 3547              	.L486:
 3548 0048 836A     		ldr	r3, [r0, #40]
 3549 004a B3F5005F 		cmp	r3, #8192
 3550 004e E8D1     		bne	.L481
 3551 0050 0268     		ldr	r2, [r0]
 3552 0052 1368     		ldr	r3, [r2]
 3553 0054 43F48053 		orr	r3, r3, #4096
 3554 0058 1360     		str	r3, [r2]
 3555 005a E2E7     		b	.L481
 3556              	.L487:
 3557 005c 014B     		ldr	r3, .L488
 3558 005e 0364     		str	r3, [r0, #64]
 3559 0060 08BD     		pop	{r3, pc}
 3560              	.L489:
 3561 0062 00BF     		.align	2
 3562              	.L488:
 3563 0064 00000000 		.word	SPI_RxISR_16BITCRC
 3565              		.section	.text.SPI_RxISR_16BITCRC,"ax",%progbits
 3566              		.align	1
 3567              		.syntax unified
 3568              		.thumb
 3569              		.thumb_func
 3570              		.fpu softvfp
 3572              	SPI_RxISR_16BITCRC:
 3573              		@ args = 0, pretend = 0, frame = 0
 3574              		@ frame_needed = 0, uses_anonymous_args = 0
 3575 0000 08B5     		push	{r3, lr}
 3576 0002 0368     		ldr	r3, [r0]
 3577 0004 DA68     		ldr	r2, [r3, #12]
 3578 0006 5A68     		ldr	r2, [r3, #4]
ARM GAS  /tmp/ccYRrd4O.s 			page 62


 3579 0008 22F06002 		bic	r2, r2, #96
 3580 000c 5A60     		str	r2, [r3, #4]
 3581 000e FFF7FEFF 		bl	SPI_CloseRx_ISR
 3582 0012 08BD     		pop	{r3, pc}
 3584              		.section	.text.SPI_CloseRxTx_ISR,"ax",%progbits
 3585              		.align	1
 3586              		.syntax unified
 3587              		.thumb
 3588              		.thumb_func
 3589              		.fpu softvfp
 3591              	SPI_CloseRxTx_ISR:
 3592              		@ args = 0, pretend = 0, frame = 8
 3593              		@ frame_needed = 0, uses_anonymous_args = 0
 3594 0000 30B5     		push	{r4, r5, lr}
 3595 0002 83B0     		sub	sp, sp, #12
 3596 0004 0446     		mov	r4, r0
 3597 0006 394B     		ldr	r3, .L507
 3598 0008 1B68     		ldr	r3, [r3]
 3599 000a 394A     		ldr	r2, .L507+4
 3600 000c A2FB0323 		umull	r2, r3, r2, r3
 3601 0010 5B0A     		lsrs	r3, r3, #9
 3602 0012 6422     		movs	r2, #100
 3603 0014 02FB03F3 		mul	r3, r2, r3
 3604 0018 0193     		str	r3, [sp, #4]
 3605 001a FFF7FEFF 		bl	HAL_GetTick
 3606 001e 0246     		mov	r2, r0
 3607 0020 2168     		ldr	r1, [r4]
 3608 0022 4B68     		ldr	r3, [r1, #4]
 3609 0024 23F02003 		bic	r3, r3, #32
 3610 0028 4B60     		str	r3, [r1, #4]
 3611              	.L495:
 3612 002a 019B     		ldr	r3, [sp, #4]
 3613 002c 43B1     		cbz	r3, .L504
 3614 002e 019B     		ldr	r3, [sp, #4]
 3615 0030 013B     		subs	r3, r3, #1
 3616 0032 0193     		str	r3, [sp, #4]
 3617 0034 2368     		ldr	r3, [r4]
 3618 0036 9B68     		ldr	r3, [r3, #8]
 3619 0038 13F0020F 		tst	r3, #2
 3620 003c F5D0     		beq	.L495
 3621 003e 03E0     		b	.L494
 3622              	.L504:
 3623 0040 636D     		ldr	r3, [r4, #84]
 3624 0042 43F02003 		orr	r3, r3, #32
 3625 0046 6365     		str	r3, [r4, #84]
 3626              	.L494:
 3627 0048 6421     		movs	r1, #100
 3628 004a 2046     		mov	r0, r4
 3629 004c FFF7FEFF 		bl	SPI_EndRxTxTransaction
 3630 0050 18B1     		cbz	r0, .L496
 3631 0052 636D     		ldr	r3, [r4, #84]
 3632 0054 43F02003 		orr	r3, r3, #32
 3633 0058 6365     		str	r3, [r4, #84]
 3634              	.L496:
 3635 005a A368     		ldr	r3, [r4, #8]
 3636 005c 33B9     		cbnz	r3, .L497
 3637 005e 0093     		str	r3, [sp]
ARM GAS  /tmp/ccYRrd4O.s 			page 63


 3638 0060 2368     		ldr	r3, [r4]
 3639 0062 DA68     		ldr	r2, [r3, #12]
 3640 0064 0092     		str	r2, [sp]
 3641 0066 9B68     		ldr	r3, [r3, #8]
 3642 0068 0093     		str	r3, [sp]
 3643 006a 009B     		ldr	r3, [sp]
 3644              	.L497:
 3645 006c 2568     		ldr	r5, [r4]
 3646 006e AB68     		ldr	r3, [r5, #8]
 3647 0070 13F0100F 		tst	r3, #16
 3648 0074 1DD0     		beq	.L498
 3649 0076 2046     		mov	r0, r4
 3650 0078 FFF7FEFF 		bl	SPI_ISCRCErrorValid
 3651 007c 0128     		cmp	r0, #1
 3652 007e 04D0     		beq	.L505
 3653 0080 4FF6EF73 		movw	r3, #65519
 3654 0084 AB60     		str	r3, [r5, #8]
 3655              	.L492:
 3656 0086 03B0     		add	sp, sp, #12
 3657              		@ sp needed
 3658 0088 30BD     		pop	{r4, r5, pc}
 3659              	.L505:
 3660 008a 0123     		movs	r3, #1
 3661 008c 84F85130 		strb	r3, [r4, #81]
 3662 0090 636D     		ldr	r3, [r4, #84]
 3663 0092 43F00203 		orr	r3, r3, #2
 3664 0096 6365     		str	r3, [r4, #84]
 3665 0098 2B68     		ldr	r3, [r5]
 3666 009a 23F40053 		bic	r3, r3, #8192
 3667 009e 2B60     		str	r3, [r5]
 3668 00a0 2268     		ldr	r2, [r4]
 3669 00a2 1368     		ldr	r3, [r2]
 3670 00a4 43F40053 		orr	r3, r3, #8192
 3671 00a8 1360     		str	r3, [r2]
 3672 00aa 2046     		mov	r0, r4
 3673 00ac FFF7FEFF 		bl	HAL_SPI_ErrorCallback
 3674 00b0 E9E7     		b	.L492
 3675              	.L498:
 3676 00b2 636D     		ldr	r3, [r4, #84]
 3677 00b4 93B9     		cbnz	r3, .L501
 3678 00b6 94F85130 		ldrb	r3, [r4, #81]	@ zero_extendqisi2
 3679 00ba DBB2     		uxtb	r3, r3
 3680 00bc 042B     		cmp	r3, #4
 3681 00be 06D0     		beq	.L506
 3682 00c0 0123     		movs	r3, #1
 3683 00c2 84F85130 		strb	r3, [r4, #81]
 3684 00c6 2046     		mov	r0, r4
 3685 00c8 FFF7FEFF 		bl	HAL_SPI_TxRxCpltCallback
 3686 00cc DBE7     		b	.L492
 3687              	.L506:
 3688 00ce 0123     		movs	r3, #1
 3689 00d0 84F85130 		strb	r3, [r4, #81]
 3690 00d4 2046     		mov	r0, r4
 3691 00d6 FFF7FEFF 		bl	HAL_SPI_RxCpltCallback
 3692 00da D4E7     		b	.L492
 3693              	.L501:
 3694 00dc 0123     		movs	r3, #1
ARM GAS  /tmp/ccYRrd4O.s 			page 64


 3695 00de 84F85130 		strb	r3, [r4, #81]
 3696 00e2 2046     		mov	r0, r4
 3697 00e4 FFF7FEFF 		bl	HAL_SPI_ErrorCallback
 3698 00e8 CDE7     		b	.L492
 3699              	.L508:
 3700 00ea 00BF     		.align	2
 3701              	.L507:
 3702 00ec 00000000 		.word	SystemCoreClock
 3703 00f0 F1197605 		.word	91625969
 3705              		.section	.text.SPI_2linesTxISR_8BIT,"ax",%progbits
 3706              		.align	1
 3707              		.syntax unified
 3708              		.thumb
 3709              		.thumb_func
 3710              		.fpu softvfp
 3712              	SPI_2linesTxISR_8BIT:
 3713              		@ args = 0, pretend = 0, frame = 0
 3714              		@ frame_needed = 0, uses_anonymous_args = 0
 3715 0000 08B5     		push	{r3, lr}
 3716 0002 0368     		ldr	r3, [r0]
 3717 0004 026B     		ldr	r2, [r0, #48]
 3718 0006 1278     		ldrb	r2, [r2]	@ zero_extendqisi2
 3719 0008 1A73     		strb	r2, [r3, #12]
 3720 000a 036B     		ldr	r3, [r0, #48]
 3721 000c 0133     		adds	r3, r3, #1
 3722 000e 0363     		str	r3, [r0, #48]
 3723 0010 C38E     		ldrh	r3, [r0, #54]
 3724 0012 9BB2     		uxth	r3, r3
 3725 0014 013B     		subs	r3, r3, #1
 3726 0016 9BB2     		uxth	r3, r3
 3727 0018 C386     		strh	r3, [r0, #54]	@ movhi
 3728 001a C38E     		ldrh	r3, [r0, #54]
 3729 001c 9BB2     		uxth	r3, r3
 3730 001e 5BB9     		cbnz	r3, .L509
 3731 0020 836A     		ldr	r3, [r0, #40]
 3732 0022 B3F5005F 		cmp	r3, #8192
 3733 0026 08D0     		beq	.L513
 3734 0028 0268     		ldr	r2, [r0]
 3735 002a 5368     		ldr	r3, [r2, #4]
 3736 002c 23F08003 		bic	r3, r3, #128
 3737 0030 5360     		str	r3, [r2, #4]
 3738 0032 C38F     		ldrh	r3, [r0, #62]
 3739 0034 9BB2     		uxth	r3, r3
 3740 0036 5BB1     		cbz	r3, .L514
 3741              	.L509:
 3742 0038 08BD     		pop	{r3, pc}
 3743              	.L513:
 3744 003a 0268     		ldr	r2, [r0]
 3745 003c 1368     		ldr	r3, [r2]
 3746 003e 43F48053 		orr	r3, r3, #4096
 3747 0042 1360     		str	r3, [r2]
 3748 0044 0268     		ldr	r2, [r0]
 3749 0046 5368     		ldr	r3, [r2, #4]
 3750 0048 23F08003 		bic	r3, r3, #128
 3751 004c 5360     		str	r3, [r2, #4]
 3752 004e 08BD     		pop	{r3, pc}
 3753              	.L514:
ARM GAS  /tmp/ccYRrd4O.s 			page 65


 3754 0050 FFF7FEFF 		bl	SPI_CloseRxTx_ISR
 3755 0054 F0E7     		b	.L509
 3757              		.section	.text.SPI_2linesRxISR_8BIT,"ax",%progbits
 3758              		.align	1
 3759              		.syntax unified
 3760              		.thumb
 3761              		.thumb_func
 3762              		.fpu softvfp
 3764              	SPI_2linesRxISR_8BIT:
 3765              		@ args = 0, pretend = 0, frame = 0
 3766              		@ frame_needed = 0, uses_anonymous_args = 0
 3767 0000 08B5     		push	{r3, lr}
 3768 0002 836B     		ldr	r3, [r0, #56]
 3769 0004 0268     		ldr	r2, [r0]
 3770 0006 127B     		ldrb	r2, [r2, #12]	@ zero_extendqisi2
 3771 0008 1A70     		strb	r2, [r3]
 3772 000a 836B     		ldr	r3, [r0, #56]
 3773 000c 0133     		adds	r3, r3, #1
 3774 000e 8363     		str	r3, [r0, #56]
 3775 0010 C38F     		ldrh	r3, [r0, #62]
 3776 0012 9BB2     		uxth	r3, r3
 3777 0014 013B     		subs	r3, r3, #1
 3778 0016 9BB2     		uxth	r3, r3
 3779 0018 C387     		strh	r3, [r0, #62]	@ movhi
 3780 001a C38F     		ldrh	r3, [r0, #62]
 3781 001c 9BB2     		uxth	r3, r3
 3782 001e 5BB9     		cbnz	r3, .L515
 3783 0020 836A     		ldr	r3, [r0, #40]
 3784 0022 B3F5005F 		cmp	r3, #8192
 3785 0026 08D0     		beq	.L519
 3786 0028 0268     		ldr	r2, [r0]
 3787 002a 5368     		ldr	r3, [r2, #4]
 3788 002c 23F06003 		bic	r3, r3, #96
 3789 0030 5360     		str	r3, [r2, #4]
 3790 0032 C38E     		ldrh	r3, [r0, #54]
 3791 0034 9BB2     		uxth	r3, r3
 3792 0036 1BB1     		cbz	r3, .L520
 3793              	.L515:
 3794 0038 08BD     		pop	{r3, pc}
 3795              	.L519:
 3796 003a 034B     		ldr	r3, .L521
 3797 003c 0364     		str	r3, [r0, #64]
 3798 003e 08BD     		pop	{r3, pc}
 3799              	.L520:
 3800 0040 FFF7FEFF 		bl	SPI_CloseRxTx_ISR
 3801 0044 F8E7     		b	.L515
 3802              	.L522:
 3803 0046 00BF     		.align	2
 3804              	.L521:
 3805 0048 00000000 		.word	SPI_2linesRxISR_8BITCRC
 3807              		.section	.text.SPI_2linesRxISR_8BITCRC,"ax",%progbits
 3808              		.align	1
 3809              		.syntax unified
 3810              		.thumb
 3811              		.thumb_func
 3812              		.fpu softvfp
 3814              	SPI_2linesRxISR_8BITCRC:
ARM GAS  /tmp/ccYRrd4O.s 			page 66


 3815              		@ args = 0, pretend = 0, frame = 0
 3816              		@ frame_needed = 0, uses_anonymous_args = 0
 3817 0000 08B5     		push	{r3, lr}
 3818 0002 0368     		ldr	r3, [r0]
 3819 0004 1A7B     		ldrb	r2, [r3, #12]	@ zero_extendqisi2
 3820 0006 5A68     		ldr	r2, [r3, #4]
 3821 0008 22F06002 		bic	r2, r2, #96
 3822 000c 5A60     		str	r2, [r3, #4]
 3823 000e C38E     		ldrh	r3, [r0, #54]
 3824 0010 9BB2     		uxth	r3, r3
 3825 0012 03B1     		cbz	r3, .L526
 3826              	.L523:
 3827 0014 08BD     		pop	{r3, pc}
 3828              	.L526:
 3829 0016 FFF7FEFF 		bl	SPI_CloseRxTx_ISR
 3830 001a FBE7     		b	.L523
 3832              		.section	.text.SPI_2linesTxISR_16BIT,"ax",%progbits
 3833              		.align	1
 3834              		.syntax unified
 3835              		.thumb
 3836              		.thumb_func
 3837              		.fpu softvfp
 3839              	SPI_2linesTxISR_16BIT:
 3840              		@ args = 0, pretend = 0, frame = 0
 3841              		@ frame_needed = 0, uses_anonymous_args = 0
 3842 0000 08B5     		push	{r3, lr}
 3843 0002 0368     		ldr	r3, [r0]
 3844 0004 026B     		ldr	r2, [r0, #48]
 3845 0006 1288     		ldrh	r2, [r2]
 3846 0008 DA60     		str	r2, [r3, #12]
 3847 000a 036B     		ldr	r3, [r0, #48]
 3848 000c 0233     		adds	r3, r3, #2
 3849 000e 0363     		str	r3, [r0, #48]
 3850 0010 C38E     		ldrh	r3, [r0, #54]
 3851 0012 9BB2     		uxth	r3, r3
 3852 0014 013B     		subs	r3, r3, #1
 3853 0016 9BB2     		uxth	r3, r3
 3854 0018 C386     		strh	r3, [r0, #54]	@ movhi
 3855 001a C38E     		ldrh	r3, [r0, #54]
 3856 001c 9BB2     		uxth	r3, r3
 3857 001e 5BB9     		cbnz	r3, .L527
 3858 0020 836A     		ldr	r3, [r0, #40]
 3859 0022 B3F5005F 		cmp	r3, #8192
 3860 0026 08D0     		beq	.L531
 3861 0028 0268     		ldr	r2, [r0]
 3862 002a 5368     		ldr	r3, [r2, #4]
 3863 002c 23F08003 		bic	r3, r3, #128
 3864 0030 5360     		str	r3, [r2, #4]
 3865 0032 C38F     		ldrh	r3, [r0, #62]
 3866 0034 9BB2     		uxth	r3, r3
 3867 0036 5BB1     		cbz	r3, .L532
 3868              	.L527:
 3869 0038 08BD     		pop	{r3, pc}
 3870              	.L531:
 3871 003a 0268     		ldr	r2, [r0]
 3872 003c 1368     		ldr	r3, [r2]
 3873 003e 43F48053 		orr	r3, r3, #4096
ARM GAS  /tmp/ccYRrd4O.s 			page 67


 3874 0042 1360     		str	r3, [r2]
 3875 0044 0268     		ldr	r2, [r0]
 3876 0046 5368     		ldr	r3, [r2, #4]
 3877 0048 23F08003 		bic	r3, r3, #128
 3878 004c 5360     		str	r3, [r2, #4]
 3879 004e 08BD     		pop	{r3, pc}
 3880              	.L532:
 3881 0050 FFF7FEFF 		bl	SPI_CloseRxTx_ISR
 3882 0054 F0E7     		b	.L527
 3884              		.section	.text.SPI_2linesRxISR_16BIT,"ax",%progbits
 3885              		.align	1
 3886              		.syntax unified
 3887              		.thumb
 3888              		.thumb_func
 3889              		.fpu softvfp
 3891              	SPI_2linesRxISR_16BIT:
 3892              		@ args = 0, pretend = 0, frame = 0
 3893              		@ frame_needed = 0, uses_anonymous_args = 0
 3894 0000 08B5     		push	{r3, lr}
 3895 0002 836B     		ldr	r3, [r0, #56]
 3896 0004 0268     		ldr	r2, [r0]
 3897 0006 D268     		ldr	r2, [r2, #12]
 3898 0008 1A80     		strh	r2, [r3]	@ movhi
 3899 000a 836B     		ldr	r3, [r0, #56]
 3900 000c 0233     		adds	r3, r3, #2
 3901 000e 8363     		str	r3, [r0, #56]
 3902 0010 C38F     		ldrh	r3, [r0, #62]
 3903 0012 9BB2     		uxth	r3, r3
 3904 0014 013B     		subs	r3, r3, #1
 3905 0016 9BB2     		uxth	r3, r3
 3906 0018 C387     		strh	r3, [r0, #62]	@ movhi
 3907 001a C38F     		ldrh	r3, [r0, #62]
 3908 001c 9BB2     		uxth	r3, r3
 3909 001e 5BB9     		cbnz	r3, .L533
 3910 0020 836A     		ldr	r3, [r0, #40]
 3911 0022 B3F5005F 		cmp	r3, #8192
 3912 0026 08D0     		beq	.L537
 3913 0028 0268     		ldr	r2, [r0]
 3914 002a 5368     		ldr	r3, [r2, #4]
 3915 002c 23F04003 		bic	r3, r3, #64
 3916 0030 5360     		str	r3, [r2, #4]
 3917 0032 C38E     		ldrh	r3, [r0, #54]
 3918 0034 9BB2     		uxth	r3, r3
 3919 0036 1BB1     		cbz	r3, .L538
 3920              	.L533:
 3921 0038 08BD     		pop	{r3, pc}
 3922              	.L537:
 3923 003a 034B     		ldr	r3, .L539
 3924 003c 0364     		str	r3, [r0, #64]
 3925 003e 08BD     		pop	{r3, pc}
 3926              	.L538:
 3927 0040 FFF7FEFF 		bl	SPI_CloseRxTx_ISR
 3928 0044 F8E7     		b	.L533
 3929              	.L540:
 3930 0046 00BF     		.align	2
 3931              	.L539:
 3932 0048 00000000 		.word	SPI_2linesRxISR_16BITCRC
ARM GAS  /tmp/ccYRrd4O.s 			page 68


 3934              		.section	.text.SPI_2linesRxISR_16BITCRC,"ax",%progbits
 3935              		.align	1
 3936              		.syntax unified
 3937              		.thumb
 3938              		.thumb_func
 3939              		.fpu softvfp
 3941              	SPI_2linesRxISR_16BITCRC:
 3942              		@ args = 0, pretend = 0, frame = 0
 3943              		@ frame_needed = 0, uses_anonymous_args = 0
 3944 0000 08B5     		push	{r3, lr}
 3945 0002 0368     		ldr	r3, [r0]
 3946 0004 DA68     		ldr	r2, [r3, #12]
 3947 0006 5A68     		ldr	r2, [r3, #4]
 3948 0008 22F04002 		bic	r2, r2, #64
 3949 000c 5A60     		str	r2, [r3, #4]
 3950 000e FFF7FEFF 		bl	SPI_CloseRxTx_ISR
 3951 0012 08BD     		pop	{r3, pc}
 3953              		.section	.text.SPI_DMAReceiveCplt,"ax",%progbits
 3954              		.align	1
 3955              		.syntax unified
 3956              		.thumb
 3957              		.thumb_func
 3958              		.fpu softvfp
 3960              	SPI_DMAReceiveCplt:
 3961              		@ args = 0, pretend = 0, frame = 0
 3962              		@ frame_needed = 0, uses_anonymous_args = 0
 3963 0000 70B5     		push	{r4, r5, r6, lr}
 3964 0002 82B0     		sub	sp, sp, #8
 3965 0004 0546     		mov	r5, r0
 3966 0006 446A     		ldr	r4, [r0, #36]
 3967 0008 FFF7FEFF 		bl	HAL_GetTick
 3968 000c 2B68     		ldr	r3, [r5]
 3969 000e 1B68     		ldr	r3, [r3]
 3970 0010 13F0200F 		tst	r3, #32
 3971 0014 2AD1     		bne	.L544
 3972 0016 0646     		mov	r6, r0
 3973 0018 2268     		ldr	r2, [r4]
 3974 001a 5368     		ldr	r3, [r2, #4]
 3975 001c 23F02003 		bic	r3, r3, #32
 3976 0020 5360     		str	r3, [r2, #4]
 3977 0022 A36A     		ldr	r3, [r4, #40]
 3978 0024 B3F5005F 		cmp	r3, #8192
 3979 0028 25D0     		beq	.L552
 3980              	.L545:
 3981 002a 2268     		ldr	r2, [r4]
 3982 002c 5368     		ldr	r3, [r2, #4]
 3983 002e 23F00303 		bic	r3, r3, #3
 3984 0032 5360     		str	r3, [r2, #4]
 3985 0034 3246     		mov	r2, r6
 3986 0036 6421     		movs	r1, #100
 3987 0038 2046     		mov	r0, r4
 3988 003a FFF7FEFF 		bl	SPI_EndRxTransaction
 3989 003e 08B1     		cbz	r0, .L547
 3990 0040 2023     		movs	r3, #32
 3991 0042 6365     		str	r3, [r4, #84]
 3992              	.L547:
 3993 0044 0023     		movs	r3, #0
ARM GAS  /tmp/ccYRrd4O.s 			page 69


 3994 0046 E387     		strh	r3, [r4, #62]	@ movhi
 3995 0048 0123     		movs	r3, #1
 3996 004a 84F85130 		strb	r3, [r4, #81]
 3997 004e 2568     		ldr	r5, [r4]
 3998 0050 AB68     		ldr	r3, [r5, #8]
 3999 0052 13F0100F 		tst	r3, #16
 4000 0056 07D0     		beq	.L548
 4001 0058 2046     		mov	r0, r4
 4002 005a FFF7FEFF 		bl	SPI_ISCRCErrorValid
 4003 005e 0128     		cmp	r0, #1
 4004 0060 18D0     		beq	.L553
 4005 0062 4FF6EF73 		movw	r3, #65519
 4006 0066 AB60     		str	r3, [r5, #8]
 4007              	.L548:
 4008 0068 636D     		ldr	r3, [r4, #84]
 4009 006a 0BBB     		cbnz	r3, .L554
 4010              	.L544:
 4011 006c 2046     		mov	r0, r4
 4012 006e FFF7FEFF 		bl	HAL_SPI_RxCpltCallback
 4013              	.L543:
 4014 0072 02B0     		add	sp, sp, #8
 4015              		@ sp needed
 4016 0074 70BD     		pop	{r4, r5, r6, pc}
 4017              	.L552:
 4018 0076 0090     		str	r0, [sp]
 4019 0078 6423     		movs	r3, #100
 4020 007a 0122     		movs	r2, #1
 4021 007c 1146     		mov	r1, r2
 4022 007e 2046     		mov	r0, r4
 4023 0080 FFF7FEFF 		bl	SPI_WaitFlagStateUntilTimeout
 4024 0084 18B1     		cbz	r0, .L546
 4025 0086 636D     		ldr	r3, [r4, #84]
 4026 0088 43F00203 		orr	r3, r3, #2
 4027 008c 6365     		str	r3, [r4, #84]
 4028              	.L546:
 4029 008e 2368     		ldr	r3, [r4]
 4030 0090 DB68     		ldr	r3, [r3, #12]
 4031 0092 CAE7     		b	.L545
 4032              	.L553:
 4033 0094 636D     		ldr	r3, [r4, #84]
 4034 0096 43F00203 		orr	r3, r3, #2
 4035 009a 6365     		str	r3, [r4, #84]
 4036 009c 2B68     		ldr	r3, [r5]
 4037 009e 23F40053 		bic	r3, r3, #8192
 4038 00a2 2B60     		str	r3, [r5]
 4039 00a4 2268     		ldr	r2, [r4]
 4040 00a6 1368     		ldr	r3, [r2]
 4041 00a8 43F40053 		orr	r3, r3, #8192
 4042 00ac 1360     		str	r3, [r2]
 4043 00ae DBE7     		b	.L548
 4044              	.L554:
 4045 00b0 2046     		mov	r0, r4
 4046 00b2 FFF7FEFF 		bl	HAL_SPI_ErrorCallback
 4047 00b6 DCE7     		b	.L543
 4049              		.section	.text.SPI_DMATransmitReceiveCplt,"ax",%progbits
 4050              		.align	1
 4051              		.syntax unified
ARM GAS  /tmp/ccYRrd4O.s 			page 70


 4052              		.thumb
 4053              		.thumb_func
 4054              		.fpu softvfp
 4056              	SPI_DMATransmitReceiveCplt:
 4057              		@ args = 0, pretend = 0, frame = 0
 4058              		@ frame_needed = 0, uses_anonymous_args = 0
 4059 0000 70B5     		push	{r4, r5, r6, lr}
 4060 0002 82B0     		sub	sp, sp, #8
 4061 0004 0546     		mov	r5, r0
 4062 0006 446A     		ldr	r4, [r0, #36]
 4063 0008 FFF7FEFF 		bl	HAL_GetTick
 4064 000c 2B68     		ldr	r3, [r5]
 4065 000e 1B68     		ldr	r3, [r3]
 4066 0010 13F0200F 		tst	r3, #32
 4067 0014 2DD1     		bne	.L556
 4068 0016 0646     		mov	r6, r0
 4069 0018 2268     		ldr	r2, [r4]
 4070 001a 5368     		ldr	r3, [r2, #4]
 4071 001c 23F02003 		bic	r3, r3, #32
 4072 0020 5360     		str	r3, [r2, #4]
 4073 0022 A36A     		ldr	r3, [r4, #40]
 4074 0024 B3F5005F 		cmp	r3, #8192
 4075 0028 28D0     		beq	.L564
 4076              	.L557:
 4077 002a 3246     		mov	r2, r6
 4078 002c 6421     		movs	r1, #100
 4079 002e 2046     		mov	r0, r4
 4080 0030 FFF7FEFF 		bl	SPI_EndRxTxTransaction
 4081 0034 18B1     		cbz	r0, .L559
 4082 0036 636D     		ldr	r3, [r4, #84]
 4083 0038 43F02003 		orr	r3, r3, #32
 4084 003c 6365     		str	r3, [r4, #84]
 4085              	.L559:
 4086 003e 2268     		ldr	r2, [r4]
 4087 0040 5368     		ldr	r3, [r2, #4]
 4088 0042 23F00303 		bic	r3, r3, #3
 4089 0046 5360     		str	r3, [r2, #4]
 4090 0048 0023     		movs	r3, #0
 4091 004a E386     		strh	r3, [r4, #54]	@ movhi
 4092 004c E387     		strh	r3, [r4, #62]	@ movhi
 4093 004e 0123     		movs	r3, #1
 4094 0050 84F85130 		strb	r3, [r4, #81]
 4095 0054 2568     		ldr	r5, [r4]
 4096 0056 AB68     		ldr	r3, [r5, #8]
 4097 0058 13F0100F 		tst	r3, #16
 4098 005c 07D0     		beq	.L560
 4099 005e 2046     		mov	r0, r4
 4100 0060 FFF7FEFF 		bl	SPI_ISCRCErrorValid
 4101 0064 0128     		cmp	r0, #1
 4102 0066 18D0     		beq	.L565
 4103 0068 4FF6EF73 		movw	r3, #65519
 4104 006c AB60     		str	r3, [r5, #8]
 4105              	.L560:
 4106 006e 636D     		ldr	r3, [r4, #84]
 4107 0070 0BBB     		cbnz	r3, .L566
 4108              	.L556:
 4109 0072 2046     		mov	r0, r4
ARM GAS  /tmp/ccYRrd4O.s 			page 71


 4110 0074 FFF7FEFF 		bl	HAL_SPI_TxRxCpltCallback
 4111              	.L555:
 4112 0078 02B0     		add	sp, sp, #8
 4113              		@ sp needed
 4114 007a 70BD     		pop	{r4, r5, r6, pc}
 4115              	.L564:
 4116 007c 0090     		str	r0, [sp]
 4117 007e 6423     		movs	r3, #100
 4118 0080 0122     		movs	r2, #1
 4119 0082 1146     		mov	r1, r2
 4120 0084 2046     		mov	r0, r4
 4121 0086 FFF7FEFF 		bl	SPI_WaitFlagStateUntilTimeout
 4122 008a 18B1     		cbz	r0, .L558
 4123 008c 636D     		ldr	r3, [r4, #84]
 4124 008e 43F00203 		orr	r3, r3, #2
 4125 0092 6365     		str	r3, [r4, #84]
 4126              	.L558:
 4127 0094 2368     		ldr	r3, [r4]
 4128 0096 DB68     		ldr	r3, [r3, #12]
 4129 0098 C7E7     		b	.L557
 4130              	.L565:
 4131 009a 636D     		ldr	r3, [r4, #84]
 4132 009c 43F00203 		orr	r3, r3, #2
 4133 00a0 6365     		str	r3, [r4, #84]
 4134 00a2 2B68     		ldr	r3, [r5]
 4135 00a4 23F40053 		bic	r3, r3, #8192
 4136 00a8 2B60     		str	r3, [r5]
 4137 00aa 2268     		ldr	r2, [r4]
 4138 00ac 1368     		ldr	r3, [r2]
 4139 00ae 43F40053 		orr	r3, r3, #8192
 4140 00b2 1360     		str	r3, [r2]
 4141 00b4 DBE7     		b	.L560
 4142              	.L566:
 4143 00b6 2046     		mov	r0, r4
 4144 00b8 FFF7FEFF 		bl	HAL_SPI_ErrorCallback
 4145 00bc DCE7     		b	.L555
 4147              		.ident	"GCC: (15:6.3.1+svn253039-1build1) 6.3.1 20170620"
ARM GAS  /tmp/ccYRrd4O.s 			page 72


DEFINED SYMBOLS
                            *ABS*:0000000000000000 stm32f1xx_hal_spi.c
     /tmp/ccYRrd4O.s:13     .text.SPI_AbortRx_ISR:0000000000000000 $t
     /tmp/ccYRrd4O.s:19     .text.SPI_AbortRx_ISR:0000000000000000 SPI_AbortRx_ISR
     /tmp/ccYRrd4O.s:66     .text.SPI_AbortRx_ISR:0000000000000058 $d
     /tmp/ccYRrd4O.s:70     .text.SPI_AbortTx_ISR:0000000000000000 $t
     /tmp/ccYRrd4O.s:76     .text.SPI_AbortTx_ISR:0000000000000000 SPI_AbortTx_ISR
     /tmp/ccYRrd4O.s:93     .text.SPI_WaitFlagStateUntilTimeout:0000000000000000 $t
     /tmp/ccYRrd4O.s:99     .text.SPI_WaitFlagStateUntilTimeout:0000000000000000 SPI_WaitFlagStateUntilTimeout
     /tmp/ccYRrd4O.s:171    .text.SPI_EndRxTxTransaction:0000000000000000 $t
     /tmp/ccYRrd4O.s:177    .text.SPI_EndRxTxTransaction:0000000000000000 SPI_EndRxTxTransaction
     /tmp/ccYRrd4O.s:201    .text.SPI_EndRxTransaction:0000000000000000 $t
     /tmp/ccYRrd4O.s:207    .text.SPI_EndRxTransaction:0000000000000000 SPI_EndRxTransaction
     /tmp/ccYRrd4O.s:270    .text.HAL_SPI_MspInit:0000000000000000 $t
     /tmp/ccYRrd4O.s:277    .text.HAL_SPI_MspInit:0000000000000000 HAL_SPI_MspInit
     /tmp/ccYRrd4O.s:284    .text.HAL_SPI_Init:0000000000000000 $t
     /tmp/ccYRrd4O.s:291    .text.HAL_SPI_Init:0000000000000000 HAL_SPI_Init
     /tmp/ccYRrd4O.s:359    .text.HAL_SPI_MspDeInit:0000000000000000 $t
     /tmp/ccYRrd4O.s:366    .text.HAL_SPI_MspDeInit:0000000000000000 HAL_SPI_MspDeInit
     /tmp/ccYRrd4O.s:373    .text.HAL_SPI_DeInit:0000000000000000 $t
     /tmp/ccYRrd4O.s:380    .text.HAL_SPI_DeInit:0000000000000000 HAL_SPI_DeInit
     /tmp/ccYRrd4O.s:403    .text.HAL_SPI_Transmit:0000000000000000 $t
     /tmp/ccYRrd4O.s:410    .text.HAL_SPI_Transmit:0000000000000000 HAL_SPI_Transmit
     /tmp/ccYRrd4O.s:649    .text.HAL_SPI_Transmit_IT:0000000000000000 $t
     /tmp/ccYRrd4O.s:656    .text.HAL_SPI_Transmit_IT:0000000000000000 HAL_SPI_Transmit_IT
     /tmp/ccYRrd4O.s:752    .text.HAL_SPI_Transmit_IT:00000000000000b4 $d
     /tmp/ccYRrd4O.s:2004   .text.SPI_TxISR_16BIT:0000000000000000 SPI_TxISR_16BIT
     /tmp/ccYRrd4O.s:1964   .text.SPI_TxISR_8BIT:0000000000000000 SPI_TxISR_8BIT
     /tmp/ccYRrd4O.s:756    .text.HAL_SPI_TransmitReceive_IT:0000000000000000 $t
     /tmp/ccYRrd4O.s:763    .text.HAL_SPI_TransmitReceive_IT:0000000000000000 HAL_SPI_TransmitReceive_IT
     /tmp/ccYRrd4O.s:879    .text.HAL_SPI_TransmitReceive_IT:00000000000000d8 $d
     /tmp/ccYRrd4O.s:3891   .text.SPI_2linesRxISR_16BIT:0000000000000000 SPI_2linesRxISR_16BIT
     /tmp/ccYRrd4O.s:3839   .text.SPI_2linesTxISR_16BIT:0000000000000000 SPI_2linesTxISR_16BIT
     /tmp/ccYRrd4O.s:3764   .text.SPI_2linesRxISR_8BIT:0000000000000000 SPI_2linesRxISR_8BIT
     /tmp/ccYRrd4O.s:3712   .text.SPI_2linesTxISR_8BIT:0000000000000000 SPI_2linesTxISR_8BIT
     /tmp/ccYRrd4O.s:885    .text.HAL_SPI_Receive_IT:0000000000000000 $t
     /tmp/ccYRrd4O.s:892    .text.HAL_SPI_Receive_IT:0000000000000000 HAL_SPI_Receive_IT
     /tmp/ccYRrd4O.s:1000   .text.HAL_SPI_Receive_IT:00000000000000d0 $d
     /tmp/ccYRrd4O.s:3509   .text.SPI_RxISR_16BIT:0000000000000000 SPI_RxISR_16BIT
     /tmp/ccYRrd4O.s:3430   .text.SPI_RxISR_8BIT:0000000000000000 SPI_RxISR_8BIT
     /tmp/ccYRrd4O.s:1004   .text.HAL_SPI_Transmit_DMA:0000000000000000 $t
     /tmp/ccYRrd4O.s:1011   .text.HAL_SPI_Transmit_DMA:0000000000000000 HAL_SPI_Transmit_DMA
     /tmp/ccYRrd4O.s:1130   .text.HAL_SPI_Transmit_DMA:00000000000000f0 $d
     /tmp/ccYRrd4O.s:1796   .text.SPI_DMAHalfTransmitCplt:0000000000000000 SPI_DMAHalfTransmitCplt
     /tmp/ccYRrd4O.s:2068   .text.SPI_DMATransmitCplt:0000000000000000 SPI_DMATransmitCplt
     /tmp/ccYRrd4O.s:2044   .text.SPI_DMAError:0000000000000000 SPI_DMAError
     /tmp/ccYRrd4O.s:1135   .text.HAL_SPI_TransmitReceive_DMA:0000000000000000 $t
     /tmp/ccYRrd4O.s:1142   .text.HAL_SPI_TransmitReceive_DMA:0000000000000000 HAL_SPI_TransmitReceive_DMA
     /tmp/ccYRrd4O.s:1316   .text.HAL_SPI_TransmitReceive_DMA:0000000000000164 $d
     /tmp/ccYRrd4O.s:1854   .text.SPI_DMAHalfTransmitReceiveCplt:0000000000000000 SPI_DMAHalfTransmitReceiveCplt
     /tmp/ccYRrd4O.s:4056   .text.SPI_DMATransmitReceiveCplt:0000000000000000 SPI_DMATransmitReceiveCplt
     /tmp/ccYRrd4O.s:1825   .text.SPI_DMAHalfReceiveCplt:0000000000000000 SPI_DMAHalfReceiveCplt
     /tmp/ccYRrd4O.s:3960   .text.SPI_DMAReceiveCplt:0000000000000000 SPI_DMAReceiveCplt
     /tmp/ccYRrd4O.s:1323   .text.HAL_SPI_Receive_DMA:0000000000000000 $t
     /tmp/ccYRrd4O.s:1330   .text.HAL_SPI_Receive_DMA:0000000000000000 HAL_SPI_Receive_DMA
     /tmp/ccYRrd4O.s:1461   .text.HAL_SPI_Receive_DMA:0000000000000108 $d
     /tmp/ccYRrd4O.s:1466   .text.HAL_SPI_Abort:0000000000000000 $t
ARM GAS  /tmp/ccYRrd4O.s 			page 73


     /tmp/ccYRrd4O.s:1473   .text.HAL_SPI_Abort:0000000000000000 HAL_SPI_Abort
     /tmp/ccYRrd4O.s:1626   .text.HAL_SPI_Abort:000000000000012c $d
     /tmp/ccYRrd4O.s:1632   .text.HAL_SPI_DMAPause:0000000000000000 $t
     /tmp/ccYRrd4O.s:1639   .text.HAL_SPI_DMAPause:0000000000000000 HAL_SPI_DMAPause
     /tmp/ccYRrd4O.s:1661   .text.HAL_SPI_DMAResume:0000000000000000 $t
     /tmp/ccYRrd4O.s:1668   .text.HAL_SPI_DMAResume:0000000000000000 HAL_SPI_DMAResume
     /tmp/ccYRrd4O.s:1690   .text.HAL_SPI_DMAStop:0000000000000000 $t
     /tmp/ccYRrd4O.s:1697   .text.HAL_SPI_DMAStop:0000000000000000 HAL_SPI_DMAStop
     /tmp/ccYRrd4O.s:1734   .text.HAL_SPI_TxCpltCallback:0000000000000000 $t
     /tmp/ccYRrd4O.s:1741   .text.HAL_SPI_TxCpltCallback:0000000000000000 HAL_SPI_TxCpltCallback
     /tmp/ccYRrd4O.s:1748   .text.HAL_SPI_RxCpltCallback:0000000000000000 $t
     /tmp/ccYRrd4O.s:1755   .text.HAL_SPI_RxCpltCallback:0000000000000000 HAL_SPI_RxCpltCallback
     /tmp/ccYRrd4O.s:1762   .text.HAL_SPI_TxRxCpltCallback:0000000000000000 $t
     /tmp/ccYRrd4O.s:1769   .text.HAL_SPI_TxRxCpltCallback:0000000000000000 HAL_SPI_TxRxCpltCallback
     /tmp/ccYRrd4O.s:1776   .text.HAL_SPI_TxHalfCpltCallback:0000000000000000 $t
     /tmp/ccYRrd4O.s:1783   .text.HAL_SPI_TxHalfCpltCallback:0000000000000000 HAL_SPI_TxHalfCpltCallback
     /tmp/ccYRrd4O.s:1790   .text.SPI_DMAHalfTransmitCplt:0000000000000000 $t
     /tmp/ccYRrd4O.s:1805   .text.HAL_SPI_RxHalfCpltCallback:0000000000000000 $t
     /tmp/ccYRrd4O.s:1812   .text.HAL_SPI_RxHalfCpltCallback:0000000000000000 HAL_SPI_RxHalfCpltCallback
     /tmp/ccYRrd4O.s:1819   .text.SPI_DMAHalfReceiveCplt:0000000000000000 $t
     /tmp/ccYRrd4O.s:1834   .text.HAL_SPI_TxRxHalfCpltCallback:0000000000000000 $t
     /tmp/ccYRrd4O.s:1841   .text.HAL_SPI_TxRxHalfCpltCallback:0000000000000000 HAL_SPI_TxRxHalfCpltCallback
     /tmp/ccYRrd4O.s:1848   .text.SPI_DMAHalfTransmitReceiveCplt:0000000000000000 $t
     /tmp/ccYRrd4O.s:1863   .text.HAL_SPI_ErrorCallback:0000000000000000 $t
     /tmp/ccYRrd4O.s:1870   .text.HAL_SPI_ErrorCallback:0000000000000000 HAL_SPI_ErrorCallback
     /tmp/ccYRrd4O.s:1877   .text.SPI_CloseTx_ISR:0000000000000000 $t
     /tmp/ccYRrd4O.s:1883   .text.SPI_CloseTx_ISR:0000000000000000 SPI_CloseTx_ISR
     /tmp/ccYRrd4O.s:1954   .text.SPI_CloseTx_ISR:0000000000000088 $d
     /tmp/ccYRrd4O.s:1958   .text.SPI_TxISR_8BIT:0000000000000000 $t
     /tmp/ccYRrd4O.s:1998   .text.SPI_TxISR_16BIT:0000000000000000 $t
     /tmp/ccYRrd4O.s:2038   .text.SPI_DMAError:0000000000000000 $t
     /tmp/ccYRrd4O.s:2062   .text.SPI_DMATransmitCplt:0000000000000000 $t
     /tmp/ccYRrd4O.s:2126   .text.HAL_SPI_IRQHandler:0000000000000000 $t
     /tmp/ccYRrd4O.s:2133   .text.HAL_SPI_IRQHandler:0000000000000000 HAL_SPI_IRQHandler
     /tmp/ccYRrd4O.s:2254   .text.HAL_SPI_IRQHandler:00000000000000fc $d
     /tmp/ccYRrd4O.s:2263   .text.SPI_DMAAbortOnError:0000000000000000 SPI_DMAAbortOnError
     /tmp/ccYRrd4O.s:2257   .text.SPI_DMAAbortOnError:0000000000000000 $t
     /tmp/ccYRrd4O.s:2275   .text.HAL_SPI_AbortCpltCallback:0000000000000000 $t
     /tmp/ccYRrd4O.s:2282   .text.HAL_SPI_AbortCpltCallback:0000000000000000 HAL_SPI_AbortCpltCallback
     /tmp/ccYRrd4O.s:2289   .text.HAL_SPI_Abort_IT:0000000000000000 $t
     /tmp/ccYRrd4O.s:2296   .text.HAL_SPI_Abort_IT:0000000000000000 HAL_SPI_Abort_IT
     /tmp/ccYRrd4O.s:2467   .text.HAL_SPI_Abort_IT:0000000000000140 $d
     /tmp/ccYRrd4O.s:2547   .text.SPI_DMATxAbortCallback:0000000000000000 SPI_DMATxAbortCallback
     /tmp/ccYRrd4O.s:2481   .text.SPI_DMARxAbortCallback:0000000000000000 SPI_DMARxAbortCallback
     /tmp/ccYRrd4O.s:2475   .text.SPI_DMARxAbortCallback:0000000000000000 $t
     /tmp/ccYRrd4O.s:2541   .text.SPI_DMATxAbortCallback:0000000000000000 $t
     /tmp/ccYRrd4O.s:2617   .text.SPI_DMATxAbortCallback:0000000000000084 $d
     /tmp/ccYRrd4O.s:2621   .text.HAL_SPI_GetState:0000000000000000 $t
     /tmp/ccYRrd4O.s:2628   .text.HAL_SPI_GetState:0000000000000000 HAL_SPI_GetState
     /tmp/ccYRrd4O.s:2636   .text.HAL_SPI_GetError:0000000000000000 $t
     /tmp/ccYRrd4O.s:2643   .text.HAL_SPI_GetError:0000000000000000 HAL_SPI_GetError
     /tmp/ccYRrd4O.s:2651   .text.SPI_ISCRCErrorValid:0000000000000000 $t
     /tmp/ccYRrd4O.s:2658   .text.SPI_ISCRCErrorValid:0000000000000000 SPI_ISCRCErrorValid
     /tmp/ccYRrd4O.s:2666   .text.HAL_SPI_TransmitReceive:0000000000000000 $t
     /tmp/ccYRrd4O.s:2673   .text.HAL_SPI_TransmitReceive:0000000000000000 HAL_SPI_TransmitReceive
     /tmp/ccYRrd4O.s:3055   .text.HAL_SPI_Receive:0000000000000000 $t
     /tmp/ccYRrd4O.s:3062   .text.HAL_SPI_Receive:0000000000000000 HAL_SPI_Receive
ARM GAS  /tmp/ccYRrd4O.s 			page 74


     /tmp/ccYRrd4O.s:3346   .text.SPI_CloseRx_ISR:0000000000000000 $t
     /tmp/ccYRrd4O.s:3352   .text.SPI_CloseRx_ISR:0000000000000000 SPI_CloseRx_ISR
     /tmp/ccYRrd4O.s:3424   .text.SPI_RxISR_8BIT:0000000000000000 $t
     /tmp/ccYRrd4O.s:3484   .text.SPI_RxISR_8BIT:0000000000000064 $d
     /tmp/ccYRrd4O.s:3493   .text.SPI_RxISR_8BITCRC:0000000000000000 SPI_RxISR_8BITCRC
     /tmp/ccYRrd4O.s:3487   .text.SPI_RxISR_8BITCRC:0000000000000000 $t
     /tmp/ccYRrd4O.s:3503   .text.SPI_RxISR_16BIT:0000000000000000 $t
     /tmp/ccYRrd4O.s:3563   .text.SPI_RxISR_16BIT:0000000000000064 $d
     /tmp/ccYRrd4O.s:3572   .text.SPI_RxISR_16BITCRC:0000000000000000 SPI_RxISR_16BITCRC
     /tmp/ccYRrd4O.s:3566   .text.SPI_RxISR_16BITCRC:0000000000000000 $t
     /tmp/ccYRrd4O.s:3585   .text.SPI_CloseRxTx_ISR:0000000000000000 $t
     /tmp/ccYRrd4O.s:3591   .text.SPI_CloseRxTx_ISR:0000000000000000 SPI_CloseRxTx_ISR
     /tmp/ccYRrd4O.s:3702   .text.SPI_CloseRxTx_ISR:00000000000000ec $d
     /tmp/ccYRrd4O.s:3706   .text.SPI_2linesTxISR_8BIT:0000000000000000 $t
     /tmp/ccYRrd4O.s:3758   .text.SPI_2linesRxISR_8BIT:0000000000000000 $t
     /tmp/ccYRrd4O.s:3805   .text.SPI_2linesRxISR_8BIT:0000000000000048 $d
     /tmp/ccYRrd4O.s:3814   .text.SPI_2linesRxISR_8BITCRC:0000000000000000 SPI_2linesRxISR_8BITCRC
     /tmp/ccYRrd4O.s:3808   .text.SPI_2linesRxISR_8BITCRC:0000000000000000 $t
     /tmp/ccYRrd4O.s:3833   .text.SPI_2linesTxISR_16BIT:0000000000000000 $t
     /tmp/ccYRrd4O.s:3885   .text.SPI_2linesRxISR_16BIT:0000000000000000 $t
     /tmp/ccYRrd4O.s:3932   .text.SPI_2linesRxISR_16BIT:0000000000000048 $d
     /tmp/ccYRrd4O.s:3941   .text.SPI_2linesRxISR_16BITCRC:0000000000000000 SPI_2linesRxISR_16BITCRC
     /tmp/ccYRrd4O.s:3935   .text.SPI_2linesRxISR_16BITCRC:0000000000000000 $t
     /tmp/ccYRrd4O.s:3954   .text.SPI_DMAReceiveCplt:0000000000000000 $t
     /tmp/ccYRrd4O.s:4050   .text.SPI_DMATransmitReceiveCplt:0000000000000000 $t

UNDEFINED SYMBOLS
SystemCoreClock
HAL_GetTick
HAL_DMA_Start_IT
HAL_DMA_Abort
HAL_DMA_Abort_IT
