ARM GAS  /tmp/ccCGIf4Q.s 			page 1


   1              		.syntax unified
   2              		.cpu cortex-m3
   3              		.fpu softvfp
   4              		.eabi_attribute 20, 1
   5              		.eabi_attribute 21, 1
   6              		.eabi_attribute 23, 3
   7              		.eabi_attribute 24, 1
   8              		.eabi_attribute 25, 1
   9              		.eabi_attribute 26, 1
  10              		.eabi_attribute 30, 4
  11              		.eabi_attribute 34, 1
  12              		.eabi_attribute 18, 4
  13              		.thumb
  14              		.file	"stm32f1xx_hal_i2c.c"
  15              		.section	.text.I2C_IsAcknowledgeFailed,"ax",%progbits
  16              		.align	1
  17              		.thumb
  18              		.thumb_func
  20              	I2C_IsAcknowledgeFailed:
  21              		@ args = 0, pretend = 0, frame = 0
  22              		@ frame_needed = 0, uses_anonymous_args = 0
  23              		@ link register save eliminated.
  24 0000 0168     		ldr	r1, [r0]
  25 0002 0022     		movs	r2, #0
  26 0004 4B69     		ldr	r3, [r1, #20]
  27 0006 13F48063 		ands	r3, r3, #1024
  28 000a 1FBF     		itttt	ne
  29 000c 6FF48063 		mvnne	r3, #1024
  30 0010 4B61     		strne	r3, [r1, #20]
  31 0012 2023     		movne	r3, #32
  32 0014 0263     		strne	r2, [r0, #48]
  33 0016 1FBF     		itttt	ne
  34 0018 80F83D30 		strbne	r3, [r0, #61]
  35 001c 80F83E20 		strbne	r2, [r0, #62]
  36 0020 036C     		ldrne	r3, [r0, #64]
  37 0022 80F83C20 		strbne	r2, [r0, #60]
  38 0026 1DBF     		ittte	ne
  39 0028 43F00403 		orrne	r3, r3, #4
  40 002c 0364     		strne	r3, [r0, #64]
  41 002e 0120     		movne	r0, #1
  42 0030 1846     		moveq	r0, r3
  43 0032 7047     		bx	lr
  45              		.section	.text.I2C_WaitOnMasterAddressFlagUntilTimeout,"ax",%progbits
  46              		.align	1
  47              		.thumb
  48              		.thumb_func
  50              	I2C_WaitOnMasterAddressFlagUntilTimeout:
  51              		@ args = 0, pretend = 0, frame = 0
  52              		@ frame_needed = 0, uses_anonymous_args = 0
  53 0000 2DE9F843 		push	{r3, r4, r5, r6, r7, r8, r9, lr}
  54 0004 0446     		mov	r4, r0
  55 0006 0E46     		mov	r6, r1
  56 0008 1746     		mov	r7, r2
  57 000a 9946     		mov	r9, r3
  58 000c C1F30748 		ubfx	r8, r1, #16, #8
  59              	.L8:
  60 0010 2568     		ldr	r5, [r4]
ARM GAS  /tmp/ccCGIf4Q.s 			page 2


  61 0012 B8F1010F 		cmp	r8, #1
  62 0016 0CBF     		ite	eq
  63 0018 6869     		ldreq	r0, [r5, #20]
  64 001a A869     		ldrne	r0, [r5, #24]
  65 001c C043     		mvns	r0, r0
  66 001e 80B2     		uxth	r0, r0
  67 0020 3042     		tst	r0, r6
  68 0022 14BF     		ite	ne
  69 0024 0120     		movne	r0, #1
  70 0026 0020     		moveq	r0, #0
  71 0028 70B3     		cbz	r0, .L19
  72 002a 6B69     		ldr	r3, [r5, #20]
  73 002c 5A05     		lsls	r2, r3, #21
  74 002e 11D5     		bpl	.L6
  75 0030 2B68     		ldr	r3, [r5]
  76 0032 2022     		movs	r2, #32
  77 0034 43F40073 		orr	r3, r3, #512
  78 0038 2B60     		str	r3, [r5]
  79 003a 6FF48063 		mvn	r3, #1024
  80 003e 6B61     		str	r3, [r5, #20]
  81 0040 0023     		movs	r3, #0
  82 0042 2363     		str	r3, [r4, #48]
  83 0044 84F83D20 		strb	r2, [r4, #61]
  84 0048 84F83E30 		strb	r3, [r4, #62]
  85 004c 226C     		ldr	r2, [r4, #64]
  86 004e 42F00402 		orr	r2, r2, #4
  87 0052 13E0     		b	.L17
  88              	.L6:
  89 0054 7B1C     		adds	r3, r7, #1
  90 0056 DBD0     		beq	.L8
  91 0058 FFF7FEFF 		bl	HAL_GetTick
  92 005c C9EB0000 		rsb	r0, r9, r0
  93 0060 B842     		cmp	r0, r7
  94 0062 01D8     		bhi	.L9
  95 0064 002F     		cmp	r7, #0
  96 0066 D3D1     		bne	.L8
  97              	.L9:
  98 0068 0023     		movs	r3, #0
  99 006a 2022     		movs	r2, #32
 100 006c 2363     		str	r3, [r4, #48]
 101 006e 84F83D20 		strb	r2, [r4, #61]
 102 0072 84F83E30 		strb	r3, [r4, #62]
 103 0076 226C     		ldr	r2, [r4, #64]
 104 0078 42F02002 		orr	r2, r2, #32
 105              	.L17:
 106 007c 2264     		str	r2, [r4, #64]
 107 007e 84F83C30 		strb	r3, [r4, #60]
 108 0082 0120     		movs	r0, #1
 109 0084 BDE8F883 		pop	{r3, r4, r5, r6, r7, r8, r9, pc}
 110              	.L19:
 111 0088 BDE8F883 		pop	{r3, r4, r5, r6, r7, r8, r9, pc}
 113              		.section	.text.I2C_WaitOnFlagUntilTimeout,"ax",%progbits
 114              		.align	1
 115              		.thumb
 116              		.thumb_func
 118              	I2C_WaitOnFlagUntilTimeout:
 119              		@ args = 4, pretend = 0, frame = 0
ARM GAS  /tmp/ccCGIf4Q.s 			page 3


 120              		@ frame_needed = 0, uses_anonymous_args = 0
 121 0000 2DE9F843 		push	{r3, r4, r5, r6, r7, r8, r9, lr}
 122 0004 0446     		mov	r4, r0
 123 0006 0E46     		mov	r6, r1
 124 0008 9046     		mov	r8, r2
 125 000a 1F46     		mov	r7, r3
 126 000c 089D     		ldr	r5, [sp, #32]
 127 000e C1F30749 		ubfx	r9, r1, #16, #8
 128              	.L22:
 129 0012 2368     		ldr	r3, [r4]
 130 0014 B9F1010F 		cmp	r9, #1
 131 0018 0CBF     		ite	eq
 132 001a 5869     		ldreq	r0, [r3, #20]
 133 001c 9869     		ldrne	r0, [r3, #24]
 134 001e C043     		mvns	r0, r0
 135 0020 80B2     		uxth	r0, r0
 136 0022 3042     		tst	r0, r6
 137 0024 0CBF     		ite	eq
 138 0026 0123     		moveq	r3, #1
 139 0028 0023     		movne	r3, #0
 140 002a 4345     		cmp	r3, r8
 141 002c 18D1     		bne	.L32
 142 002e 7B1C     		adds	r3, r7, #1
 143 0030 EFD0     		beq	.L22
 144 0032 FFF7FEFF 		bl	HAL_GetTick
 145 0036 401B     		subs	r0, r0, r5
 146 0038 B842     		cmp	r0, r7
 147 003a 01D8     		bhi	.L23
 148 003c 002F     		cmp	r7, #0
 149 003e E8D1     		bne	.L22
 150              	.L23:
 151 0040 0023     		movs	r3, #0
 152 0042 2022     		movs	r2, #32
 153 0044 2363     		str	r3, [r4, #48]
 154 0046 84F83D20 		strb	r2, [r4, #61]
 155 004a 84F83E30 		strb	r3, [r4, #62]
 156 004e 226C     		ldr	r2, [r4, #64]
 157 0050 84F83C30 		strb	r3, [r4, #60]
 158 0054 42F02002 		orr	r2, r2, #32
 159 0058 2264     		str	r2, [r4, #64]
 160 005a 0120     		movs	r0, #1
 161 005c BDE8F883 		pop	{r3, r4, r5, r6, r7, r8, r9, pc}
 162              	.L32:
 163 0060 0020     		movs	r0, #0
 164 0062 BDE8F883 		pop	{r3, r4, r5, r6, r7, r8, r9, pc}
 166              		.section	.text.I2C_WaitOnTXEFlagUntilTimeout,"ax",%progbits
 167              		.align	1
 168              		.thumb
 169              		.thumb_func
 171              	I2C_WaitOnTXEFlagUntilTimeout:
 172              		@ args = 0, pretend = 0, frame = 0
 173              		@ frame_needed = 0, uses_anonymous_args = 0
 174 0000 70B5     		push	{r4, r5, r6, lr}
 175 0002 0446     		mov	r4, r0
 176 0004 0D46     		mov	r5, r1
 177 0006 1646     		mov	r6, r2
 178              	.L36:
ARM GAS  /tmp/ccCGIf4Q.s 			page 4


 179 0008 2368     		ldr	r3, [r4]
 180 000a 5B69     		ldr	r3, [r3, #20]
 181 000c 1B06     		lsls	r3, r3, #24
 182 000e 1AD4     		bmi	.L43
 183 0010 2046     		mov	r0, r4
 184 0012 FFF7FEFF 		bl	I2C_IsAcknowledgeFailed
 185 0016 C0B9     		cbnz	r0, .L39
 186 0018 6A1C     		adds	r2, r5, #1
 187 001a F5D0     		beq	.L36
 188 001c FFF7FEFF 		bl	HAL_GetTick
 189 0020 801B     		subs	r0, r0, r6
 190 0022 A842     		cmp	r0, r5
 191 0024 01D8     		bhi	.L37
 192 0026 002D     		cmp	r5, #0
 193 0028 EED1     		bne	.L36
 194              	.L37:
 195 002a 0023     		movs	r3, #0
 196 002c 2022     		movs	r2, #32
 197 002e 2363     		str	r3, [r4, #48]
 198 0030 84F83D20 		strb	r2, [r4, #61]
 199 0034 84F83E30 		strb	r3, [r4, #62]
 200 0038 226C     		ldr	r2, [r4, #64]
 201 003a 84F83C30 		strb	r3, [r4, #60]
 202 003e 42F02002 		orr	r2, r2, #32
 203 0042 2264     		str	r2, [r4, #64]
 204 0044 01E0     		b	.L39
 205              	.L43:
 206 0046 0020     		movs	r0, #0
 207 0048 70BD     		pop	{r4, r5, r6, pc}
 208              	.L39:
 209 004a 0120     		movs	r0, #1
 210 004c 70BD     		pop	{r4, r5, r6, pc}
 212              		.section	.text.I2C_RequestMemoryWrite,"ax",%progbits
 213              		.align	1
 214              		.thumb
 215              		.thumb_func
 217              	I2C_RequestMemoryWrite:
 218              		@ args = 8, pretend = 0, frame = 8
 219              		@ frame_needed = 0, uses_anonymous_args = 0
 220 0000 2DE9FF41 		push	{r0, r1, r2, r3, r4, r5, r6, r7, r8, lr}
 221 0004 1546     		mov	r5, r2
 222 0006 0268     		ldr	r2, [r0]
 223 0008 9846     		mov	r8, r3
 224 000a 1368     		ldr	r3, [r2]
 225 000c 0B9E     		ldr	r6, [sp, #44]
 226 000e 43F48073 		orr	r3, r3, #256
 227 0012 1360     		str	r3, [r2]
 228 0014 0F46     		mov	r7, r1
 229 0016 0096     		str	r6, [sp]
 230 0018 4FF00111 		mov	r1, #65537
 231 001c 0022     		movs	r2, #0
 232 001e 0A9B     		ldr	r3, [sp, #40]
 233 0020 0446     		mov	r4, r0
 234 0022 FFF7FEFF 		bl	I2C_WaitOnFlagUntilTimeout
 235 0026 0028     		cmp	r0, #0
 236 0028 2BD1     		bne	.L52
 237 002a 2368     		ldr	r3, [r4]
ARM GAS  /tmp/ccCGIf4Q.s 			page 5


 238 002c 07F0FE07 		and	r7, r7, #254
 239 0030 1F61     		str	r7, [r3, #16]
 240 0032 2046     		mov	r0, r4
 241 0034 1749     		ldr	r1, .L56
 242 0036 0A9A     		ldr	r2, [sp, #40]
 243 0038 3346     		mov	r3, r6
 244 003a FFF7FEFF 		bl	I2C_WaitOnMasterAddressFlagUntilTimeout
 245 003e 00BB     		cbnz	r0, .L52
 246 0040 2368     		ldr	r3, [r4]
 247 0042 0390     		str	r0, [sp, #12]
 248 0044 5A69     		ldr	r2, [r3, #20]
 249 0046 2046     		mov	r0, r4
 250 0048 0392     		str	r2, [sp, #12]
 251 004a 9B69     		ldr	r3, [r3, #24]
 252 004c 0A99     		ldr	r1, [sp, #40]
 253 004e 0393     		str	r3, [sp, #12]
 254 0050 3246     		mov	r2, r6
 255 0052 039B     		ldr	r3, [sp, #12]
 256 0054 FFF7FEFF 		bl	I2C_WaitOnTXEFlagUntilTimeout
 257 0058 58B9     		cbnz	r0, .L55
 258 005a B8F1010F 		cmp	r8, #1
 259 005e 2368     		ldr	r3, [r4]
 260 0060 12D0     		beq	.L53
 261 0062 2A0A     		lsrs	r2, r5, #8
 262 0064 1A61     		str	r2, [r3, #16]
 263 0066 2046     		mov	r0, r4
 264 0068 0A99     		ldr	r1, [sp, #40]
 265 006a 3246     		mov	r2, r6
 266 006c FFF7FEFF 		bl	I2C_WaitOnTXEFlagUntilTimeout
 267 0070 48B1     		cbz	r0, .L50
 268              	.L55:
 269 0072 236C     		ldr	r3, [r4, #64]
 270 0074 042B     		cmp	r3, #4
 271 0076 01BF     		itttt	eq
 272 0078 2268     		ldreq	r2, [r4]
 273 007a 1368     		ldreq	r3, [r2]
 274 007c 43F40073 		orreq	r3, r3, #512
 275 0080 1360     		streq	r3, [r2]
 276              	.L52:
 277 0082 0120     		movs	r0, #1
 278 0084 02E0     		b	.L46
 279              	.L50:
 280 0086 2368     		ldr	r3, [r4]
 281              	.L53:
 282 0088 EDB2     		uxtb	r5, r5
 283 008a 1D61     		str	r5, [r3, #16]
 284              	.L46:
 285 008c 04B0     		add	sp, sp, #16
 286              		@ sp needed
 287 008e BDE8F081 		pop	{r4, r5, r6, r7, r8, pc}
 288              	.L57:
 289 0092 00BF     		.align	2
 290              	.L56:
 291 0094 02000100 		.word	65538
 293              		.section	.text.I2C_RequestMemoryRead,"ax",%progbits
 294              		.align	1
 295              		.thumb
ARM GAS  /tmp/ccCGIf4Q.s 			page 6


 296              		.thumb_func
 298              	I2C_RequestMemoryRead:
 299              		@ args = 8, pretend = 0, frame = 8
 300              		@ frame_needed = 0, uses_anonymous_args = 0
 301 0000 2DE9FF41 		push	{r0, r1, r2, r3, r4, r5, r6, r7, r8, lr}
 302 0004 9846     		mov	r8, r3
 303 0006 0368     		ldr	r3, [r0]
 304 0008 1646     		mov	r6, r2
 305 000a 1A68     		ldr	r2, [r3]
 306 000c 0B9D     		ldr	r5, [sp, #44]
 307 000e 42F48062 		orr	r2, r2, #1024
 308 0012 1A60     		str	r2, [r3]
 309 0014 1A68     		ldr	r2, [r3]
 310 0016 0F46     		mov	r7, r1
 311 0018 42F48072 		orr	r2, r2, #256
 312 001c 1A60     		str	r2, [r3]
 313 001e 4FF00111 		mov	r1, #65537
 314 0022 0095     		str	r5, [sp]
 315 0024 0022     		movs	r2, #0
 316 0026 0A9B     		ldr	r3, [sp, #40]
 317 0028 0446     		mov	r4, r0
 318 002a FFF7FEFF 		bl	I2C_WaitOnFlagUntilTimeout
 319 002e 0028     		cmp	r0, #0
 320 0030 37D1     		bne	.L70
 321 0032 2368     		ldr	r3, [r4]
 322 0034 FFB2     		uxtb	r7, r7
 323 0036 07F0FE02 		and	r2, r7, #254
 324 003a 1A61     		str	r2, [r3, #16]
 325 003c 2046     		mov	r0, r4
 326 003e 2949     		ldr	r1, .L74
 327 0040 0A9A     		ldr	r2, [sp, #40]
 328 0042 2B46     		mov	r3, r5
 329 0044 FFF7FEFF 		bl	I2C_WaitOnMasterAddressFlagUntilTimeout
 330 0048 0028     		cmp	r0, #0
 331 004a 2AD1     		bne	.L70
 332 004c 2368     		ldr	r3, [r4]
 333 004e 0390     		str	r0, [sp, #12]
 334 0050 5A69     		ldr	r2, [r3, #20]
 335 0052 2046     		mov	r0, r4
 336 0054 0392     		str	r2, [sp, #12]
 337 0056 9B69     		ldr	r3, [r3, #24]
 338 0058 0A99     		ldr	r1, [sp, #40]
 339 005a 0393     		str	r3, [sp, #12]
 340 005c 2A46     		mov	r2, r5
 341 005e 039B     		ldr	r3, [sp, #12]
 342 0060 FFF7FEFF 		bl	I2C_WaitOnTXEFlagUntilTimeout
 343 0064 A8B9     		cbnz	r0, .L72
 344 0066 B8F1010F 		cmp	r8, #1
 345 006a 2368     		ldr	r3, [r4]
 346 006c 08D0     		beq	.L67
 347 006e 320A     		lsrs	r2, r6, #8
 348 0070 1A61     		str	r2, [r3, #16]
 349 0072 2046     		mov	r0, r4
 350 0074 0A99     		ldr	r1, [sp, #40]
 351 0076 2A46     		mov	r2, r5
 352 0078 FFF7FEFF 		bl	I2C_WaitOnTXEFlagUntilTimeout
 353 007c 48B9     		cbnz	r0, .L72
ARM GAS  /tmp/ccCGIf4Q.s 			page 7


 354 007e 2368     		ldr	r3, [r4]
 355              	.L67:
 356 0080 F6B2     		uxtb	r6, r6
 357 0082 1E61     		str	r6, [r3, #16]
 358 0084 2A46     		mov	r2, r5
 359 0086 2046     		mov	r0, r4
 360 0088 0A99     		ldr	r1, [sp, #40]
 361 008a FFF7FEFF 		bl	I2C_WaitOnTXEFlagUntilTimeout
 362 008e 0246     		mov	r2, r0
 363 0090 48B1     		cbz	r0, .L66
 364              	.L72:
 365 0092 236C     		ldr	r3, [r4, #64]
 366 0094 042B     		cmp	r3, #4
 367 0096 01BF     		itttt	eq
 368 0098 2268     		ldreq	r2, [r4]
 369 009a 1368     		ldreq	r3, [r2]
 370 009c 43F40073 		orreq	r3, r3, #512
 371 00a0 1360     		streq	r3, [r2]
 372              	.L70:
 373 00a2 0120     		movs	r0, #1
 374 00a4 1AE0     		b	.L60
 375              	.L66:
 376 00a6 2168     		ldr	r1, [r4]
 377 00a8 2046     		mov	r0, r4
 378 00aa 0B68     		ldr	r3, [r1]
 379 00ac 43F48073 		orr	r3, r3, #256
 380 00b0 0B60     		str	r3, [r1]
 381 00b2 0095     		str	r5, [sp]
 382 00b4 4FF00111 		mov	r1, #65537
 383 00b8 0A9B     		ldr	r3, [sp, #40]
 384 00ba FFF7FEFF 		bl	I2C_WaitOnFlagUntilTimeout
 385 00be 0028     		cmp	r0, #0
 386 00c0 EFD1     		bne	.L70
 387 00c2 2368     		ldr	r3, [r4]
 388 00c4 47F00107 		orr	r7, r7, #1
 389 00c8 1F61     		str	r7, [r3, #16]
 390 00ca 2046     		mov	r0, r4
 391 00cc 0549     		ldr	r1, .L74
 392 00ce 0A9A     		ldr	r2, [sp, #40]
 393 00d0 2B46     		mov	r3, r5
 394 00d2 FFF7FEFF 		bl	I2C_WaitOnMasterAddressFlagUntilTimeout
 395 00d6 0030     		adds	r0, r0, #0
 396 00d8 18BF     		it	ne
 397 00da 0120     		movne	r0, #1
 398              	.L60:
 399 00dc 04B0     		add	sp, sp, #16
 400              		@ sp needed
 401 00de BDE8F081 		pop	{r4, r5, r6, r7, r8, pc}
 402              	.L75:
 403 00e2 00BF     		.align	2
 404              	.L74:
 405 00e4 02000100 		.word	65538
 407              		.section	.text.I2C_WaitOnBTFFlagUntilTimeout,"ax",%progbits
 408              		.align	1
 409              		.thumb
 410              		.thumb_func
 412              	I2C_WaitOnBTFFlagUntilTimeout:
ARM GAS  /tmp/ccCGIf4Q.s 			page 8


 413              		@ args = 0, pretend = 0, frame = 0
 414              		@ frame_needed = 0, uses_anonymous_args = 0
 415 0000 70B5     		push	{r4, r5, r6, lr}
 416 0002 0446     		mov	r4, r0
 417 0004 0D46     		mov	r5, r1
 418 0006 1646     		mov	r6, r2
 419              	.L79:
 420 0008 2368     		ldr	r3, [r4]
 421 000a 5B69     		ldr	r3, [r3, #20]
 422 000c 5B07     		lsls	r3, r3, #29
 423 000e 1AD4     		bmi	.L86
 424 0010 2046     		mov	r0, r4
 425 0012 FFF7FEFF 		bl	I2C_IsAcknowledgeFailed
 426 0016 C0B9     		cbnz	r0, .L82
 427 0018 6A1C     		adds	r2, r5, #1
 428 001a F5D0     		beq	.L79
 429 001c FFF7FEFF 		bl	HAL_GetTick
 430 0020 801B     		subs	r0, r0, r6
 431 0022 A842     		cmp	r0, r5
 432 0024 01D8     		bhi	.L80
 433 0026 002D     		cmp	r5, #0
 434 0028 EED1     		bne	.L79
 435              	.L80:
 436 002a 0023     		movs	r3, #0
 437 002c 2022     		movs	r2, #32
 438 002e 2363     		str	r3, [r4, #48]
 439 0030 84F83D20 		strb	r2, [r4, #61]
 440 0034 84F83E30 		strb	r3, [r4, #62]
 441 0038 226C     		ldr	r2, [r4, #64]
 442 003a 84F83C30 		strb	r3, [r4, #60]
 443 003e 42F02002 		orr	r2, r2, #32
 444 0042 2264     		str	r2, [r4, #64]
 445 0044 01E0     		b	.L82
 446              	.L86:
 447 0046 0020     		movs	r0, #0
 448 0048 70BD     		pop	{r4, r5, r6, pc}
 449              	.L82:
 450 004a 0120     		movs	r0, #1
 451 004c 70BD     		pop	{r4, r5, r6, pc}
 453              		.section	.text.I2C_WaitOnRXNEFlagUntilTimeout,"ax",%progbits
 454              		.align	1
 455              		.thumb
 456              		.thumb_func
 458              	I2C_WaitOnRXNEFlagUntilTimeout:
 459              		@ args = 0, pretend = 0, frame = 0
 460              		@ frame_needed = 0, uses_anonymous_args = 0
 461 0000 70B5     		push	{r4, r5, r6, lr}
 462 0002 0446     		mov	r4, r0
 463 0004 0D46     		mov	r5, r1
 464 0006 1646     		mov	r6, r2
 465              	.L88:
 466 0008 2068     		ldr	r0, [r4]
 467 000a 4369     		ldr	r3, [r0, #20]
 468 000c 13F04003 		ands	r3, r3, #64
 469 0010 23D1     		bne	.L95
 470 0012 4269     		ldr	r2, [r0, #20]
 471 0014 D206     		lsls	r2, r2, #27
ARM GAS  /tmp/ccCGIf4Q.s 			page 9


 472 0016 0AD5     		bpl	.L89
 473 0018 6FF01002 		mvn	r2, #16
 474 001c 4261     		str	r2, [r0, #20]
 475 001e 2022     		movs	r2, #32
 476 0020 2363     		str	r3, [r4, #48]
 477 0022 84F83D20 		strb	r2, [r4, #61]
 478 0026 84F83E30 		strb	r3, [r4, #62]
 479 002a 226C     		ldr	r2, [r4, #64]
 480 002c 10E0     		b	.L94
 481              	.L89:
 482 002e FFF7FEFF 		bl	HAL_GetTick
 483 0032 801B     		subs	r0, r0, r6
 484 0034 A842     		cmp	r0, r5
 485 0036 01D8     		bhi	.L91
 486 0038 002D     		cmp	r5, #0
 487 003a E5D1     		bne	.L88
 488              	.L91:
 489 003c 0023     		movs	r3, #0
 490 003e 2022     		movs	r2, #32
 491 0040 2363     		str	r3, [r4, #48]
 492 0042 84F83D20 		strb	r2, [r4, #61]
 493 0046 84F83E30 		strb	r3, [r4, #62]
 494 004a 226C     		ldr	r2, [r4, #64]
 495 004c 42F02002 		orr	r2, r2, #32
 496              	.L94:
 497 0050 2264     		str	r2, [r4, #64]
 498 0052 84F83C30 		strb	r3, [r4, #60]
 499 0056 0120     		movs	r0, #1
 500 0058 70BD     		pop	{r4, r5, r6, pc}
 501              	.L95:
 502 005a 0020     		movs	r0, #0
 503 005c 70BD     		pop	{r4, r5, r6, pc}
 505              		.section	.text.HAL_I2C_MspInit,"ax",%progbits
 506              		.align	1
 507              		.weak	HAL_I2C_MspInit
 508              		.thumb
 509              		.thumb_func
 511              	HAL_I2C_MspInit:
 512              		@ args = 0, pretend = 0, frame = 0
 513              		@ frame_needed = 0, uses_anonymous_args = 0
 514              		@ link register save eliminated.
 515 0000 7047     		bx	lr
 517              		.section	.text.HAL_I2C_Init,"ax",%progbits
 518              		.align	1
 519              		.global	HAL_I2C_Init
 520              		.thumb
 521              		.thumb_func
 523              	HAL_I2C_Init:
 524              		@ args = 0, pretend = 0, frame = 0
 525              		@ frame_needed = 0, uses_anonymous_args = 0
 526 0000 70B5     		push	{r4, r5, r6, lr}
 527 0002 0446     		mov	r4, r0
 528 0004 08B9     		cbnz	r0, .L98
 529              	.L102:
 530 0006 0120     		movs	r0, #1
 531 0008 70BD     		pop	{r4, r5, r6, pc}
 532              	.L98:
ARM GAS  /tmp/ccCGIf4Q.s 			page 10


 533 000a 90F83D30 		ldrb	r3, [r0, #61]	@ zero_extendqisi2
 534 000e 03F0FF02 		and	r2, r3, #255
 535 0012 1BB9     		cbnz	r3, .L100
 536 0014 80F83C20 		strb	r2, [r0, #60]
 537 0018 FFF7FEFF 		bl	HAL_I2C_MspInit
 538              	.L100:
 539 001c 2268     		ldr	r2, [r4]
 540 001e 2423     		movs	r3, #36
 541 0020 84F83D30 		strb	r3, [r4, #61]
 542 0024 1368     		ldr	r3, [r2]
 543 0026 23F00103 		bic	r3, r3, #1
 544 002a 1360     		str	r3, [r2]
 545 002c FFF7FEFF 		bl	HAL_RCC_GetPCLK1Freq
 546 0030 6368     		ldr	r3, [r4, #4]
 547 0032 414A     		ldr	r2, .L119
 548 0034 9342     		cmp	r3, r2
 549 0036 0FD8     		bhi	.L101
 550 0038 404A     		ldr	r2, .L119+4
 551 003a 9042     		cmp	r0, r2
 552 003c E3D9     		bls	.L102
 553 003e 4049     		ldr	r1, .L119+8
 554 0040 2268     		ldr	r2, [r4]
 555 0042 B0FBF1F1 		udiv	r1, r0, r1
 556 0046 5568     		ldr	r5, [r2, #4]
 557 0048 25F03F05 		bic	r5, r5, #63
 558 004c 0D43     		orrs	r5, r5, r1
 559 004e 5560     		str	r5, [r2, #4]
 560 0050 166A     		ldr	r6, [r2, #32]
 561 0052 26F03F06 		bic	r6, r6, #63
 562 0056 15E0     		b	.L118
 563              	.L101:
 564 0058 3A4A     		ldr	r2, .L119+12
 565 005a 9042     		cmp	r0, r2
 566 005c D3D9     		bls	.L102
 567 005e 3849     		ldr	r1, .L119+8
 568 0060 2268     		ldr	r2, [r4]
 569 0062 B0FBF1F1 		udiv	r1, r0, r1
 570 0066 4FF49675 		mov	r5, #300
 571 006a 5668     		ldr	r6, [r2, #4]
 572 006c 4D43     		muls	r5, r1, r5
 573 006e 26F03F06 		bic	r6, r6, #63
 574 0072 0E43     		orrs	r6, r6, r1
 575 0074 4FF47A71 		mov	r1, #1000
 576 0078 B5FBF1F1 		udiv	r1, r5, r1
 577 007c 5660     		str	r6, [r2, #4]
 578 007e 166A     		ldr	r6, [r2, #32]
 579 0080 26F03F06 		bic	r6, r6, #63
 580              	.L118:
 581 0084 0131     		adds	r1, r1, #1
 582 0086 3143     		orrs	r1, r1, r6
 583 0088 1162     		str	r1, [r2, #32]
 584 008a D169     		ldr	r1, [r2, #28]
 585 008c 2A4D     		ldr	r5, .L119
 586 008e 21F44F41 		bic	r1, r1, #52992
 587 0092 AB42     		cmp	r3, r5
 588 0094 21F0FF01 		bic	r1, r1, #255
 589 0098 00F1FF30 		add	r0, r0, #-1
ARM GAS  /tmp/ccCGIf4Q.s 			page 11


 590 009c 09D8     		bhi	.L105
 591 009e 5B00     		lsls	r3, r3, #1
 592 00a0 B0FBF3F0 		udiv	r0, r0, r3
 593 00a4 431C     		adds	r3, r0, #1
 594 00a6 C3F30B03 		ubfx	r3, r3, #0, #12
 595 00aa 042B     		cmp	r3, #4
 596 00ac 38BF     		it	cc
 597 00ae 0423     		movcc	r3, #4
 598 00b0 18E0     		b	.L106
 599              	.L105:
 600 00b2 A568     		ldr	r5, [r4, #8]
 601 00b4 55B9     		cbnz	r5, .L107
 602 00b6 03EB4303 		add	r3, r3, r3, lsl #1
 603 00ba B0FBF3F0 		udiv	r0, r0, r3
 604 00be 431C     		adds	r3, r0, #1
 605 00c0 C3F30B03 		ubfx	r3, r3, #0, #12
 606 00c4 6BB1     		cbz	r3, .L112
 607 00c6 43F40043 		orr	r3, r3, #32768
 608 00ca 0BE0     		b	.L106
 609              	.L107:
 610 00cc 1925     		movs	r5, #25
 611 00ce 6B43     		muls	r3, r5, r3
 612 00d0 B0FBF3F0 		udiv	r0, r0, r3
 613 00d4 431C     		adds	r3, r0, #1
 614 00d6 C3F30B03 		ubfx	r3, r3, #0, #12
 615 00da 13B1     		cbz	r3, .L112
 616 00dc 43F44043 		orr	r3, r3, #49152
 617 00e0 00E0     		b	.L106
 618              	.L112:
 619 00e2 0123     		movs	r3, #1
 620              	.L106:
 621 00e4 0B43     		orrs	r3, r3, r1
 622 00e6 D361     		str	r3, [r2, #28]
 623 00e8 1368     		ldr	r3, [r2]
 624 00ea 206A     		ldr	r0, [r4, #32]
 625 00ec E169     		ldr	r1, [r4, #28]
 626 00ee 23F0C003 		bic	r3, r3, #192
 627 00f2 0143     		orrs	r1, r1, r0
 628 00f4 0B43     		orrs	r3, r3, r1
 629 00f6 1360     		str	r3, [r2]
 630 00f8 9168     		ldr	r1, [r2, #8]
 631 00fa 2369     		ldr	r3, [r4, #16]
 632 00fc E068     		ldr	r0, [r4, #12]
 633 00fe 1843     		orrs	r0, r0, r3
 634 0100 21F40343 		bic	r3, r1, #33536
 635 0104 23F0FF03 		bic	r3, r3, #255
 636 0108 0343     		orrs	r3, r3, r0
 637 010a 9360     		str	r3, [r2, #8]
 638 010c D368     		ldr	r3, [r2, #12]
 639 010e A069     		ldr	r0, [r4, #24]
 640 0110 6169     		ldr	r1, [r4, #20]
 641 0112 23F0FF03 		bic	r3, r3, #255
 642 0116 0143     		orrs	r1, r1, r0
 643 0118 0B43     		orrs	r3, r3, r1
 644 011a D360     		str	r3, [r2, #12]
 645 011c 1368     		ldr	r3, [r2]
 646 011e 0020     		movs	r0, #0
ARM GAS  /tmp/ccCGIf4Q.s 			page 12


 647 0120 43F00103 		orr	r3, r3, #1
 648 0124 1360     		str	r3, [r2]
 649 0126 2023     		movs	r3, #32
 650 0128 2064     		str	r0, [r4, #64]
 651 012a 84F83D30 		strb	r3, [r4, #61]
 652 012e 2063     		str	r0, [r4, #48]
 653 0130 84F83E00 		strb	r0, [r4, #62]
 654 0134 70BD     		pop	{r4, r5, r6, pc}
 655              	.L120:
 656 0136 00BF     		.align	2
 657              	.L119:
 658 0138 A0860100 		.word	100000
 659 013c 7F841E00 		.word	1999999
 660 0140 40420F00 		.word	1000000
 661 0144 FF083D00 		.word	3999999
 663              		.section	.text.HAL_I2C_MspDeInit,"ax",%progbits
 664              		.align	1
 665              		.weak	HAL_I2C_MspDeInit
 666              		.thumb
 667              		.thumb_func
 669              	HAL_I2C_MspDeInit:
 670              		@ args = 0, pretend = 0, frame = 0
 671              		@ frame_needed = 0, uses_anonymous_args = 0
 672              		@ link register save eliminated.
 673 0000 7047     		bx	lr
 675              		.section	.text.HAL_I2C_DeInit,"ax",%progbits
 676              		.align	1
 677              		.global	HAL_I2C_DeInit
 678              		.thumb
 679              		.thumb_func
 681              	HAL_I2C_DeInit:
 682              		@ args = 0, pretend = 0, frame = 0
 683              		@ frame_needed = 0, uses_anonymous_args = 0
 684 0000 10B5     		push	{r4, lr}
 685 0002 0446     		mov	r4, r0
 686 0004 98B1     		cbz	r0, .L124
 687 0006 0268     		ldr	r2, [r0]
 688 0008 2423     		movs	r3, #36
 689 000a 80F83D30 		strb	r3, [r0, #61]
 690 000e 1368     		ldr	r3, [r2]
 691 0010 23F00103 		bic	r3, r3, #1
 692 0014 1360     		str	r3, [r2]
 693 0016 FFF7FEFF 		bl	HAL_I2C_MspDeInit
 694 001a 0020     		movs	r0, #0
 695 001c 2064     		str	r0, [r4, #64]
 696 001e 84F83C00 		strb	r0, [r4, #60]
 697 0022 84F83D00 		strb	r0, [r4, #61]
 698 0026 2063     		str	r0, [r4, #48]
 699 0028 84F83E00 		strb	r0, [r4, #62]
 700 002c 10BD     		pop	{r4, pc}
 701              	.L124:
 702 002e 0120     		movs	r0, #1
 703 0030 10BD     		pop	{r4, pc}
 705              		.section	.text.HAL_I2C_Master_Transmit,"ax",%progbits
 706              		.align	1
 707              		.global	HAL_I2C_Master_Transmit
 708              		.thumb
ARM GAS  /tmp/ccCGIf4Q.s 			page 13


 709              		.thumb_func
 711              	HAL_I2C_Master_Transmit:
 712              		@ args = 4, pretend = 0, frame = 8
 713              		@ frame_needed = 0, uses_anonymous_args = 0
 714 0000 2DE9FF41 		push	{r0, r1, r2, r3, r4, r5, r6, r7, r8, lr}
 715 0004 0446     		mov	r4, r0
 716 0006 1F46     		mov	r7, r3
 717 0008 0D46     		mov	r5, r1
 718 000a 9046     		mov	r8, r2
 719 000c FFF7FEFF 		bl	HAL_GetTick
 720 0010 94F83D30 		ldrb	r3, [r4, #61]	@ zero_extendqisi2
 721 0014 0646     		mov	r6, r0
 722 0016 202B     		cmp	r3, #32
 723 0018 01D0     		beq	.L126
 724              	.L128:
 725 001a 0225     		movs	r5, #2
 726 001c B1E0     		b	.L160
 727              	.L126:
 728 001e 0090     		str	r0, [sp]
 729 0020 5A49     		ldr	r1, .L166
 730 0022 2046     		mov	r0, r4
 731 0024 0122     		movs	r2, #1
 732 0026 1923     		movs	r3, #25
 733 0028 FFF7FEFF 		bl	I2C_WaitOnFlagUntilTimeout
 734 002c 0028     		cmp	r0, #0
 735 002e F4D1     		bne	.L128
 736 0030 94F83C30 		ldrb	r3, [r4, #60]	@ zero_extendqisi2
 737 0034 012B     		cmp	r3, #1
 738 0036 F0D0     		beq	.L128
 739 0038 0123     		movs	r3, #1
 740 003a 84F83C30 		strb	r3, [r4, #60]
 741 003e 2368     		ldr	r3, [r4]
 742 0040 1A68     		ldr	r2, [r3]
 743 0042 D207     		lsls	r2, r2, #31
 744 0044 5EBF     		ittt	pl
 745 0046 1A68     		ldrpl	r2, [r3]
 746 0048 42F00102 		orrpl	r2, r2, #1
 747 004c 1A60     		strpl	r2, [r3]
 748 004e 1A68     		ldr	r2, [r3]
 749 0050 22F40062 		bic	r2, r2, #2048
 750 0054 1A60     		str	r2, [r3]
 751 0056 2122     		movs	r2, #33
 752 0058 84F83D20 		strb	r2, [r4, #61]
 753 005c 1022     		movs	r2, #16
 754 005e 84F83E20 		strb	r2, [r4, #62]
 755 0062 0022     		movs	r2, #0
 756 0064 2264     		str	r2, [r4, #64]
 757 0066 6785     		strh	r7, [r4, #42]	@ movhi
 758 0068 628D     		ldrh	r2, [r4, #42]
 759 006a C4F82480 		str	r8, [r4, #36]
 760 006e 2285     		strh	r2, [r4, #40]	@ movhi
 761 0070 474A     		ldr	r2, .L166+4
 762 0072 E262     		str	r2, [r4, #44]
 763 0074 E26A     		ldr	r2, [r4, #44]
 764 0076 082A     		cmp	r2, #8
 765 0078 07D0     		beq	.L162
 766 007a 012A     		cmp	r2, #1
ARM GAS  /tmp/ccCGIf4Q.s 			page 14


 767 007c 05D0     		beq	.L162
 768 007e 12F5803F 		cmn	r2, #65536
 769 0082 02D0     		beq	.L162
 770 0084 226B     		ldr	r2, [r4, #48]
 771 0086 122A     		cmp	r2, #18
 772 0088 03D1     		bne	.L132
 773              	.L162:
 774 008a 1A68     		ldr	r2, [r3]
 775 008c 42F48072 		orr	r2, r2, #256
 776 0090 1A60     		str	r2, [r3]
 777              	.L132:
 778 0092 0096     		str	r6, [sp]
 779 0094 2046     		mov	r0, r4
 780 0096 4FF00111 		mov	r1, #65537
 781 009a 0022     		movs	r2, #0
 782 009c 0A9B     		ldr	r3, [sp, #40]
 783 009e FFF7FEFF 		bl	I2C_WaitOnFlagUntilTimeout
 784 00a2 0028     		cmp	r0, #0
 785 00a4 6CD1     		bne	.L133
 786 00a6 2369     		ldr	r3, [r4, #16]
 787 00a8 2268     		ldr	r2, [r4]
 788 00aa B3F5804F 		cmp	r3, #16384
 789 00ae 03D1     		bne	.L134
 790 00b0 05F0FE05 		and	r5, r5, #254
 791 00b4 1561     		str	r5, [r2, #16]
 792 00b6 10E0     		b	.L135
 793              	.L134:
 794 00b8 05F44073 		and	r3, r5, #768
 795 00bc DB11     		asrs	r3, r3, #7
 796 00be 43F0F003 		orr	r3, r3, #240
 797 00c2 1361     		str	r3, [r2, #16]
 798 00c4 2046     		mov	r0, r4
 799 00c6 3349     		ldr	r1, .L166+8
 800 00c8 0A9A     		ldr	r2, [sp, #40]
 801 00ca 3346     		mov	r3, r6
 802 00cc FFF7FEFF 		bl	I2C_WaitOnMasterAddressFlagUntilTimeout
 803 00d0 0028     		cmp	r0, #0
 804 00d2 55D1     		bne	.L133
 805 00d4 2368     		ldr	r3, [r4]
 806 00d6 EDB2     		uxtb	r5, r5
 807 00d8 1D61     		str	r5, [r3, #16]
 808              	.L135:
 809 00da 2046     		mov	r0, r4
 810 00dc 2E49     		ldr	r1, .L166+12
 811 00de 0A9A     		ldr	r2, [sp, #40]
 812 00e0 3346     		mov	r3, r6
 813 00e2 FFF7FEFF 		bl	I2C_WaitOnMasterAddressFlagUntilTimeout
 814 00e6 0546     		mov	r5, r0
 815 00e8 0028     		cmp	r0, #0
 816 00ea 49D1     		bne	.L133
 817 00ec 2368     		ldr	r3, [r4]
 818 00ee 0390     		str	r0, [sp, #12]
 819 00f0 5A69     		ldr	r2, [r3, #20]
 820 00f2 0392     		str	r2, [sp, #12]
 821 00f4 9B69     		ldr	r3, [r3, #24]
 822 00f6 0393     		str	r3, [sp, #12]
 823 00f8 039B     		ldr	r3, [sp, #12]
ARM GAS  /tmp/ccCGIf4Q.s 			page 15


 824              	.L140:
 825 00fa 238D     		ldrh	r3, [r4, #40]
 826 00fc 002B     		cmp	r3, #0
 827 00fe 32D0     		beq	.L165
 828 0100 2046     		mov	r0, r4
 829 0102 0A99     		ldr	r1, [sp, #40]
 830 0104 3246     		mov	r2, r6
 831 0106 FFF7FEFF 		bl	I2C_WaitOnTXEFlagUntilTimeout
 832 010a 18BB     		cbnz	r0, .L164
 833 010c 636A     		ldr	r3, [r4, #36]
 834 010e 2068     		ldr	r0, [r4]
 835 0110 1A46     		mov	r2, r3
 836 0112 12F8011B 		ldrb	r1, [r2], #1	@ zero_extendqisi2
 837 0116 0161     		str	r1, [r0, #16]
 838 0118 6262     		str	r2, [r4, #36]
 839 011a 628D     		ldrh	r2, [r4, #42]
 840 011c 013A     		subs	r2, r2, #1
 841 011e 92B2     		uxth	r2, r2
 842 0120 6285     		strh	r2, [r4, #42]	@ movhi
 843 0122 228D     		ldrh	r2, [r4, #40]
 844 0124 4769     		ldr	r7, [r0, #20]
 845 0126 511E     		subs	r1, r2, #1
 846 0128 89B2     		uxth	r1, r1
 847 012a 7F07     		lsls	r7, r7, #29
 848 012c 2185     		strh	r1, [r4, #40]	@ movhi
 849 012e 0AD5     		bpl	.L139
 850 0130 49B1     		cbz	r1, .L139
 851 0132 5978     		ldrb	r1, [r3, #1]	@ zero_extendqisi2
 852 0134 0233     		adds	r3, r3, #2
 853 0136 0161     		str	r1, [r0, #16]
 854 0138 6362     		str	r3, [r4, #36]
 855 013a 638D     		ldrh	r3, [r4, #42]
 856 013c 023A     		subs	r2, r2, #2
 857 013e 013B     		subs	r3, r3, #1
 858 0140 9BB2     		uxth	r3, r3
 859 0142 6385     		strh	r3, [r4, #42]	@ movhi
 860 0144 2285     		strh	r2, [r4, #40]	@ movhi
 861              	.L139:
 862 0146 2046     		mov	r0, r4
 863 0148 0A99     		ldr	r1, [sp, #40]
 864 014a 3246     		mov	r2, r6
 865 014c FFF7FEFF 		bl	I2C_WaitOnBTFFlagUntilTimeout
 866 0150 0028     		cmp	r0, #0
 867 0152 D2D0     		beq	.L140
 868              	.L164:
 869 0154 236C     		ldr	r3, [r4, #64]
 870 0156 042B     		cmp	r3, #4
 871 0158 12D1     		bne	.L133
 872 015a 2268     		ldr	r2, [r4]
 873 015c 1368     		ldr	r3, [r2]
 874 015e 43F40073 		orr	r3, r3, #512
 875 0162 1360     		str	r3, [r2]
 876 0164 0CE0     		b	.L133
 877              	.L165:
 878 0166 2168     		ldr	r1, [r4]
 879 0168 0A68     		ldr	r2, [r1]
 880 016a 42F40072 		orr	r2, r2, #512
ARM GAS  /tmp/ccCGIf4Q.s 			page 16


 881 016e 0A60     		str	r2, [r1]
 882 0170 2022     		movs	r2, #32
 883 0172 84F83D20 		strb	r2, [r4, #61]
 884 0176 84F83C30 		strb	r3, [r4, #60]
 885 017a 84F83E30 		strb	r3, [r4, #62]
 886 017e 00E0     		b	.L160
 887              	.L133:
 888 0180 0125     		movs	r5, #1
 889              	.L160:
 890 0182 2846     		mov	r0, r5
 891 0184 04B0     		add	sp, sp, #16
 892              		@ sp needed
 893 0186 BDE8F081 		pop	{r4, r5, r6, r7, r8, pc}
 894              	.L167:
 895 018a 00BF     		.align	2
 896              	.L166:
 897 018c 02001000 		.word	1048578
 898 0190 0000FFFF 		.word	-65536
 899 0194 08000100 		.word	65544
 900 0198 02000100 		.word	65538
 902              		.section	.text.HAL_I2C_Master_Receive,"ax",%progbits
 903              		.align	1
 904              		.global	HAL_I2C_Master_Receive
 905              		.thumb
 906              		.thumb_func
 908              	HAL_I2C_Master_Receive:
 909              		@ args = 4, pretend = 0, frame = 24
 910              		@ frame_needed = 0, uses_anonymous_args = 0
 911 0000 2DE9F043 		push	{r4, r5, r6, r7, r8, r9, lr}
 912 0004 0446     		mov	r4, r0
 913 0006 89B0     		sub	sp, sp, #36
 914 0008 9846     		mov	r8, r3
 915 000a 0F46     		mov	r7, r1
 916 000c 9146     		mov	r9, r2
 917 000e 109E     		ldr	r6, [sp, #64]
 918 0010 FFF7FEFF 		bl	HAL_GetTick
 919 0014 94F83D30 		ldrb	r3, [r4, #61]	@ zero_extendqisi2
 920 0018 0546     		mov	r5, r0
 921 001a 202B     		cmp	r3, #32
 922 001c 01D0     		beq	.L169
 923              	.L171:
 924 001e 0227     		movs	r7, #2
 925 0020 60E1     		b	.L205
 926              	.L169:
 927 0022 0090     		str	r0, [sp]
 928 0024 9849     		ldr	r1, .L215
 929 0026 2046     		mov	r0, r4
 930 0028 0122     		movs	r2, #1
 931 002a 1923     		movs	r3, #25
 932 002c FFF7FEFF 		bl	I2C_WaitOnFlagUntilTimeout
 933 0030 0028     		cmp	r0, #0
 934 0032 F4D1     		bne	.L171
 935 0034 94F83C30 		ldrb	r3, [r4, #60]	@ zero_extendqisi2
 936 0038 012B     		cmp	r3, #1
 937 003a F0D0     		beq	.L171
 938 003c 0123     		movs	r3, #1
 939 003e 84F83C30 		strb	r3, [r4, #60]
ARM GAS  /tmp/ccCGIf4Q.s 			page 17


 940 0042 2368     		ldr	r3, [r4]
 941 0044 1A68     		ldr	r2, [r3]
 942 0046 D007     		lsls	r0, r2, #31
 943 0048 5EBF     		ittt	pl
 944 004a 1A68     		ldrpl	r2, [r3]
 945 004c 42F00102 		orrpl	r2, r2, #1
 946 0050 1A60     		strpl	r2, [r3]
 947 0052 1A68     		ldr	r2, [r3]
 948 0054 22F40062 		bic	r2, r2, #2048
 949 0058 1A60     		str	r2, [r3]
 950 005a 2222     		movs	r2, #34
 951 005c 84F83D20 		strb	r2, [r4, #61]
 952 0060 1022     		movs	r2, #16
 953 0062 84F83E20 		strb	r2, [r4, #62]
 954 0066 0022     		movs	r2, #0
 955 0068 2264     		str	r2, [r4, #64]
 956 006a A4F82A80 		strh	r8, [r4, #42]	@ movhi
 957 006e 628D     		ldrh	r2, [r4, #42]
 958 0070 C4F82490 		str	r9, [r4, #36]
 959 0074 2285     		strh	r2, [r4, #40]	@ movhi
 960 0076 854A     		ldr	r2, .L215+4
 961 0078 E262     		str	r2, [r4, #44]
 962 007a E26A     		ldr	r2, [r4, #44]
 963 007c 1968     		ldr	r1, [r3]
 964 007e 082A     		cmp	r2, #8
 965 0080 41F48061 		orr	r1, r1, #1024
 966 0084 1960     		str	r1, [r3]
 967 0086 07D0     		beq	.L208
 968 0088 012A     		cmp	r2, #1
 969 008a 05D0     		beq	.L208
 970 008c 12F5803F 		cmn	r2, #65536
 971 0090 02D0     		beq	.L208
 972 0092 226B     		ldr	r2, [r4, #48]
 973 0094 112A     		cmp	r2, #17
 974 0096 03D1     		bne	.L175
 975              	.L208:
 976 0098 1A68     		ldr	r2, [r3]
 977 009a 42F48072 		orr	r2, r2, #256
 978 009e 1A60     		str	r2, [r3]
 979              	.L175:
 980 00a0 0095     		str	r5, [sp]
 981 00a2 2046     		mov	r0, r4
 982 00a4 4FF00111 		mov	r1, #65537
 983 00a8 0022     		movs	r2, #0
 984 00aa 3346     		mov	r3, r6
 985 00ac FFF7FEFF 		bl	I2C_WaitOnFlagUntilTimeout
 986 00b0 0028     		cmp	r0, #0
 987 00b2 40F01681 		bne	.L176
 988 00b6 2369     		ldr	r3, [r4, #16]
 989 00b8 B3F5804F 		cmp	r3, #16384
 990 00bc 2368     		ldr	r3, [r4]
 991 00be 04D1     		bne	.L177
 992 00c0 47F00107 		orr	r7, r7, #1
 993 00c4 FFB2     		uxtb	r7, r7
 994 00c6 1F61     		str	r7, [r3, #16]
 995 00c8 35E0     		b	.L178
 996              	.L177:
ARM GAS  /tmp/ccCGIf4Q.s 			page 18


 997 00ca 07F44078 		and	r8, r7, #768
 998 00ce 4FEAD818 		lsr	r8, r8, #7
 999 00d2 48F0F002 		orr	r2, r8, #240
 1000 00d6 1A61     		str	r2, [r3, #16]
 1001 00d8 2046     		mov	r0, r4
 1002 00da 6D49     		ldr	r1, .L215+8
 1003 00dc 3246     		mov	r2, r6
 1004 00de 2B46     		mov	r3, r5
 1005 00e0 FFF7FEFF 		bl	I2C_WaitOnMasterAddressFlagUntilTimeout
 1006 00e4 0028     		cmp	r0, #0
 1007 00e6 40F0FC80 		bne	.L176
 1008 00ea 2368     		ldr	r3, [r4]
 1009 00ec FFB2     		uxtb	r7, r7
 1010 00ee 1F61     		str	r7, [r3, #16]
 1011 00f0 3246     		mov	r2, r6
 1012 00f2 2046     		mov	r0, r4
 1013 00f4 6749     		ldr	r1, .L215+12
 1014 00f6 2B46     		mov	r3, r5
 1015 00f8 FFF7FEFF 		bl	I2C_WaitOnMasterAddressFlagUntilTimeout
 1016 00fc 0246     		mov	r2, r0
 1017 00fe 0028     		cmp	r0, #0
 1018 0100 40F0EF80 		bne	.L176
 1019 0104 2368     		ldr	r3, [r4]
 1020 0106 0790     		str	r0, [sp, #28]
 1021 0108 5969     		ldr	r1, [r3, #20]
 1022 010a 2046     		mov	r0, r4
 1023 010c 0791     		str	r1, [sp, #28]
 1024 010e 9969     		ldr	r1, [r3, #24]
 1025 0110 0791     		str	r1, [sp, #28]
 1026 0112 0799     		ldr	r1, [sp, #28]
 1027 0114 1968     		ldr	r1, [r3]
 1028 0116 41F48071 		orr	r1, r1, #256
 1029 011a 1960     		str	r1, [r3]
 1030 011c 0095     		str	r5, [sp]
 1031 011e 4FF00111 		mov	r1, #65537
 1032 0122 3346     		mov	r3, r6
 1033 0124 FFF7FEFF 		bl	I2C_WaitOnFlagUntilTimeout
 1034 0128 0028     		cmp	r0, #0
 1035 012a 40F0DA80 		bne	.L176
 1036 012e 2268     		ldr	r2, [r4]
 1037 0130 48F0F103 		orr	r3, r8, #241
 1038 0134 1361     		str	r3, [r2, #16]
 1039              	.L178:
 1040 0136 2046     		mov	r0, r4
 1041 0138 5649     		ldr	r1, .L215+12
 1042 013a 3246     		mov	r2, r6
 1043 013c 2B46     		mov	r3, r5
 1044 013e FFF7FEFF 		bl	I2C_WaitOnMasterAddressFlagUntilTimeout
 1045 0142 0746     		mov	r7, r0
 1046 0144 0028     		cmp	r0, #0
 1047 0146 40F0CC80 		bne	.L176
 1048 014a 228D     		ldrh	r2, [r4, #40]
 1049 014c 2368     		ldr	r3, [r4]
 1050 014e 52B9     		cbnz	r2, .L213
 1051 0150 0397     		str	r7, [sp, #12]
 1052 0152 5A69     		ldr	r2, [r3, #20]
 1053 0154 0392     		str	r2, [sp, #12]
ARM GAS  /tmp/ccCGIf4Q.s 			page 19


 1054 0156 9A69     		ldr	r2, [r3, #24]
 1055 0158 0392     		str	r2, [sp, #12]
 1056 015a 039A     		ldr	r2, [sp, #12]
 1057 015c 1A68     		ldr	r2, [r3]
 1058 015e 42F40072 		orr	r2, r2, #512
 1059 0162 1A60     		str	r2, [r3]
 1060 0164 49E0     		b	.L183
 1061              	.L213:
 1062 0166 012A     		cmp	r2, #1
 1063 0168 0FD1     		bne	.L181
 1064 016a 1A68     		ldr	r2, [r3]
 1065 016c 22F48062 		bic	r2, r2, #1024
 1066 0170 1A60     		str	r2, [r3]
 1067              	@ 142 "../cmsiscore/inc/cmsis_gcc.h" 1
 1068 0172 72B6     		cpsid i
 1069              	@ 0 "" 2
 1070              		.thumb
 1071 0174 2368     		ldr	r3, [r4]
 1072 0176 0497     		str	r7, [sp, #16]
 1073 0178 5A69     		ldr	r2, [r3, #20]
 1074 017a 0492     		str	r2, [sp, #16]
 1075 017c 9A69     		ldr	r2, [r3, #24]
 1076 017e 0492     		str	r2, [sp, #16]
 1077 0180 049A     		ldr	r2, [sp, #16]
 1078 0182 1A68     		ldr	r2, [r3]
 1079 0184 42F40072 		orr	r2, r2, #512
 1080 0188 10E0     		b	.L209
 1081              	.L181:
 1082 018a 022A     		cmp	r2, #2
 1083 018c 1A68     		ldr	r2, [r3]
 1084 018e 10D1     		bne	.L182
 1085 0190 42F40062 		orr	r2, r2, #2048
 1086 0194 1A60     		str	r2, [r3]
 1087              	@ 142 "../cmsiscore/inc/cmsis_gcc.h" 1
 1088 0196 72B6     		cpsid i
 1089              	@ 0 "" 2
 1090              		.thumb
 1091 0198 2368     		ldr	r3, [r4]
 1092 019a 0597     		str	r7, [sp, #20]
 1093 019c 5A69     		ldr	r2, [r3, #20]
 1094 019e 0592     		str	r2, [sp, #20]
 1095 01a0 9A69     		ldr	r2, [r3, #24]
 1096 01a2 0592     		str	r2, [sp, #20]
 1097 01a4 059A     		ldr	r2, [sp, #20]
 1098 01a6 1A68     		ldr	r2, [r3]
 1099 01a8 22F48062 		bic	r2, r2, #1024
 1100              	.L209:
 1101 01ac 1A60     		str	r2, [r3]
 1102              	@ 131 "../cmsiscore/inc/cmsis_gcc.h" 1
 1103 01ae 62B6     		cpsie i
 1104              	@ 0 "" 2
 1105              		.thumb
 1106 01b0 23E0     		b	.L183
 1107              	.L182:
 1108 01b2 42F48062 		orr	r2, r2, #1024
 1109 01b6 1A60     		str	r2, [r3]
 1110 01b8 0697     		str	r7, [sp, #24]
ARM GAS  /tmp/ccCGIf4Q.s 			page 20


 1111 01ba 5A69     		ldr	r2, [r3, #20]
 1112 01bc 0692     		str	r2, [sp, #24]
 1113 01be 9B69     		ldr	r3, [r3, #24]
 1114 01c0 0693     		str	r3, [sp, #24]
 1115 01c2 069B     		ldr	r3, [sp, #24]
 1116 01c4 19E0     		b	.L183
 1117              	.L190:
 1118 01c6 032B     		cmp	r3, #3
 1119 01c8 68D8     		bhi	.L184
 1120 01ca 012B     		cmp	r3, #1
 1121 01cc 19D1     		bne	.L185
 1122 01ce 2046     		mov	r0, r4
 1123 01d0 3146     		mov	r1, r6
 1124 01d2 2A46     		mov	r2, r5
 1125 01d4 FFF7FEFF 		bl	I2C_WaitOnRXNEFlagUntilTimeout
 1126 01d8 0028     		cmp	r0, #0
 1127 01da 40F08280 		bne	.L176
 1128              	.L212:
 1129 01de 2268     		ldr	r2, [r4]
 1130 01e0 636A     		ldr	r3, [r4, #36]
 1131 01e2 1269     		ldr	r2, [r2, #16]
 1132 01e4 1A70     		strb	r2, [r3]
 1133              	.L210:
 1134 01e6 636A     		ldr	r3, [r4, #36]
 1135 01e8 0133     		adds	r3, r3, #1
 1136 01ea 6362     		str	r3, [r4, #36]
 1137 01ec 238D     		ldrh	r3, [r4, #40]
 1138 01ee 013B     		subs	r3, r3, #1
 1139 01f0 2385     		strh	r3, [r4, #40]	@ movhi
 1140 01f2 638D     		ldrh	r3, [r4, #42]
 1141 01f4 013B     		subs	r3, r3, #1
 1142 01f6 9BB2     		uxth	r3, r3
 1143 01f8 6385     		strh	r3, [r4, #42]	@ movhi
 1144              	.L183:
 1145 01fa 238D     		ldrh	r3, [r4, #40]
 1146 01fc 002B     		cmp	r3, #0
 1147 01fe E2D1     		bne	.L190
 1148 0200 67E0     		b	.L214
 1149              	.L185:
 1150 0202 022B     		cmp	r3, #2
 1151 0204 0095     		str	r5, [sp]
 1152 0206 2046     		mov	r0, r4
 1153 0208 2349     		ldr	r1, .L215+16
 1154 020a 4FF00002 		mov	r2, #0
 1155 020e 3346     		mov	r3, r6
 1156 0210 05D1     		bne	.L188
 1157 0212 FFF7FEFF 		bl	I2C_WaitOnFlagUntilTimeout
 1158 0216 0028     		cmp	r0, #0
 1159 0218 63D1     		bne	.L176
 1160              	@ 142 "../cmsiscore/inc/cmsis_gcc.h" 1
 1161 021a 72B6     		cpsid i
 1162              	@ 0 "" 2
 1163              		.thumb
 1164 021c 20E0     		b	.L211
 1165              	.L188:
 1166 021e FFF7FEFF 		bl	I2C_WaitOnFlagUntilTimeout
 1167 0222 0246     		mov	r2, r0
ARM GAS  /tmp/ccCGIf4Q.s 			page 21


 1168 0224 0028     		cmp	r0, #0
 1169 0226 5CD1     		bne	.L176
 1170 0228 2168     		ldr	r1, [r4]
 1171 022a 0B68     		ldr	r3, [r1]
 1172 022c 23F48063 		bic	r3, r3, #1024
 1173 0230 0B60     		str	r3, [r1]
 1174              	@ 142 "../cmsiscore/inc/cmsis_gcc.h" 1
 1175 0232 72B6     		cpsid i
 1176              	@ 0 "" 2
 1177              		.thumb
 1178 0234 2168     		ldr	r1, [r4]
 1179 0236 636A     		ldr	r3, [r4, #36]
 1180 0238 0969     		ldr	r1, [r1, #16]
 1181 023a 2046     		mov	r0, r4
 1182 023c 1970     		strb	r1, [r3]
 1183 023e 636A     		ldr	r3, [r4, #36]
 1184 0240 0095     		str	r5, [sp]
 1185 0242 0133     		adds	r3, r3, #1
 1186 0244 6362     		str	r3, [r4, #36]
 1187 0246 238D     		ldrh	r3, [r4, #40]
 1188 0248 1349     		ldr	r1, .L215+16
 1189 024a 013B     		subs	r3, r3, #1
 1190 024c 2385     		strh	r3, [r4, #40]	@ movhi
 1191 024e 638D     		ldrh	r3, [r4, #42]
 1192 0250 013B     		subs	r3, r3, #1
 1193 0252 9BB2     		uxth	r3, r3
 1194 0254 6385     		strh	r3, [r4, #42]	@ movhi
 1195 0256 3346     		mov	r3, r6
 1196 0258 FFF7FEFF 		bl	I2C_WaitOnFlagUntilTimeout
 1197 025c 0028     		cmp	r0, #0
 1198 025e 40D1     		bne	.L176
 1199              	.L211:
 1200 0260 2368     		ldr	r3, [r4]
 1201 0262 1A68     		ldr	r2, [r3]
 1202 0264 42F40072 		orr	r2, r2, #512
 1203 0268 1A60     		str	r2, [r3]
 1204 026a 1B69     		ldr	r3, [r3, #16]
 1205 026c 626A     		ldr	r2, [r4, #36]
 1206 026e 1370     		strb	r3, [r2]
 1207 0270 636A     		ldr	r3, [r4, #36]
 1208 0272 0133     		adds	r3, r3, #1
 1209 0274 6362     		str	r3, [r4, #36]
 1210 0276 238D     		ldrh	r3, [r4, #40]
 1211 0278 013B     		subs	r3, r3, #1
 1212 027a 2385     		strh	r3, [r4, #40]	@ movhi
 1213 027c 638D     		ldrh	r3, [r4, #42]
 1214 027e 013B     		subs	r3, r3, #1
 1215 0280 9BB2     		uxth	r3, r3
 1216 0282 6385     		strh	r3, [r4, #42]	@ movhi
 1217              	@ 131 "../cmsiscore/inc/cmsis_gcc.h" 1
 1218 0284 62B6     		cpsie i
 1219              	@ 0 "" 2
 1220              		.thumb
 1221 0286 AAE7     		b	.L212
 1222              	.L216:
 1223              		.align	2
 1224              	.L215:
ARM GAS  /tmp/ccCGIf4Q.s 			page 22


 1225 0288 02001000 		.word	1048578
 1226 028c 0000FFFF 		.word	-65536
 1227 0290 08000100 		.word	65544
 1228 0294 02000100 		.word	65538
 1229 0298 04000100 		.word	65540
 1230              	.L184:
 1231 029c 2046     		mov	r0, r4
 1232 029e 3146     		mov	r1, r6
 1233 02a0 2A46     		mov	r2, r5
 1234 02a2 FFF7FEFF 		bl	I2C_WaitOnRXNEFlagUntilTimeout
 1235 02a6 E0B9     		cbnz	r0, .L176
 1236 02a8 2268     		ldr	r2, [r4]
 1237 02aa 636A     		ldr	r3, [r4, #36]
 1238 02ac 1269     		ldr	r2, [r2, #16]
 1239 02ae 1A70     		strb	r2, [r3]
 1240 02b0 626A     		ldr	r2, [r4, #36]
 1241 02b2 531C     		adds	r3, r2, #1
 1242 02b4 6362     		str	r3, [r4, #36]
 1243 02b6 238D     		ldrh	r3, [r4, #40]
 1244 02b8 013B     		subs	r3, r3, #1
 1245 02ba 2385     		strh	r3, [r4, #40]	@ movhi
 1246 02bc 638D     		ldrh	r3, [r4, #42]
 1247 02be 013B     		subs	r3, r3, #1
 1248 02c0 9BB2     		uxth	r3, r3
 1249 02c2 6385     		strh	r3, [r4, #42]	@ movhi
 1250 02c4 2368     		ldr	r3, [r4]
 1251 02c6 5969     		ldr	r1, [r3, #20]
 1252 02c8 4907     		lsls	r1, r1, #29
 1253 02ca 96D5     		bpl	.L183
 1254 02cc 1B69     		ldr	r3, [r3, #16]
 1255 02ce 5370     		strb	r3, [r2, #1]
 1256 02d0 89E7     		b	.L210
 1257              	.L214:
 1258 02d2 2022     		movs	r2, #32
 1259 02d4 84F83D20 		strb	r2, [r4, #61]
 1260 02d8 84F83C30 		strb	r3, [r4, #60]
 1261 02dc 84F83E30 		strb	r3, [r4, #62]
 1262 02e0 00E0     		b	.L205
 1263              	.L176:
 1264 02e2 0127     		movs	r7, #1
 1265              	.L205:
 1266 02e4 3846     		mov	r0, r7
 1267 02e6 09B0     		add	sp, sp, #36
 1268              		@ sp needed
 1269 02e8 BDE8F083 		pop	{r4, r5, r6, r7, r8, r9, pc}
 1271              		.section	.text.HAL_I2C_Slave_Transmit,"ax",%progbits
 1272              		.align	1
 1273              		.global	HAL_I2C_Slave_Transmit
 1274              		.thumb
 1275              		.thumb_func
 1277              	HAL_I2C_Slave_Transmit:
 1278              		@ args = 0, pretend = 0, frame = 8
 1279              		@ frame_needed = 0, uses_anonymous_args = 0
 1280 0000 2DE9FF41 		push	{r0, r1, r2, r3, r4, r5, r6, r7, r8, lr}
 1281 0004 0446     		mov	r4, r0
 1282 0006 1D46     		mov	r5, r3
 1283 0008 0F46     		mov	r7, r1
ARM GAS  /tmp/ccCGIf4Q.s 			page 23


 1284 000a 9046     		mov	r8, r2
 1285 000c FFF7FEFF 		bl	HAL_GetTick
 1286 0010 94F83D30 		ldrb	r3, [r4, #61]	@ zero_extendqisi2
 1287 0014 0646     		mov	r6, r0
 1288 0016 202B     		cmp	r3, #32
 1289 0018 40F09880 		bne	.L228
 1290 001c 002F     		cmp	r7, #0
 1291 001e 6DD0     		beq	.L238
 1292 0020 B8F1000F 		cmp	r8, #0
 1293 0024 6AD0     		beq	.L238
 1294 0026 94F83C30 		ldrb	r3, [r4, #60]	@ zero_extendqisi2
 1295 002a 012B     		cmp	r3, #1
 1296 002c 00F08E80 		beq	.L228
 1297 0030 0123     		movs	r3, #1
 1298 0032 84F83C30 		strb	r3, [r4, #60]
 1299 0036 2368     		ldr	r3, [r4]
 1300 0038 1A68     		ldr	r2, [r3]
 1301 003a D207     		lsls	r2, r2, #31
 1302 003c 58BF     		it	pl
 1303 003e 1868     		ldrpl	r0, [r3]
 1304 0040 4FF02102 		mov	r2, #33
 1305 0044 5CBF     		itt	pl
 1306 0046 40F00100 		orrpl	r0, r0, #1
 1307 004a 1860     		strpl	r0, [r3]
 1308 004c 1868     		ldr	r0, [r3]
 1309 004e 20F40060 		bic	r0, r0, #2048
 1310 0052 1860     		str	r0, [r3]
 1311 0054 84F83D20 		strb	r2, [r4, #61]
 1312 0058 2022     		movs	r2, #32
 1313 005a 84F83E20 		strb	r2, [r4, #62]
 1314 005e 0022     		movs	r2, #0
 1315 0060 2264     		str	r2, [r4, #64]
 1316 0062 A4F82A80 		strh	r8, [r4, #42]	@ movhi
 1317 0066 618D     		ldrh	r1, [r4, #42]
 1318 0068 6762     		str	r7, [r4, #36]
 1319 006a 2185     		strh	r1, [r4, #40]	@ movhi
 1320 006c 3949     		ldr	r1, .L241
 1321 006e 2046     		mov	r0, r4
 1322 0070 E162     		str	r1, [r4, #44]
 1323 0072 1968     		ldr	r1, [r3]
 1324 0074 41F48061 		orr	r1, r1, #1024
 1325 0078 1960     		str	r1, [r3]
 1326 007a 0096     		str	r6, [sp]
 1327 007c 3649     		ldr	r1, .L241+4
 1328 007e 2B46     		mov	r3, r5
 1329 0080 FFF7FEFF 		bl	I2C_WaitOnFlagUntilTimeout
 1330 0084 0246     		mov	r2, r0
 1331 0086 0028     		cmp	r0, #0
 1332 0088 38D1     		bne	.L238
 1333 008a 2368     		ldr	r3, [r4]
 1334 008c 0290     		str	r0, [sp, #8]
 1335 008e 5969     		ldr	r1, [r3, #20]
 1336 0090 0291     		str	r1, [sp, #8]
 1337 0092 9B69     		ldr	r3, [r3, #24]
 1338 0094 0293     		str	r3, [sp, #8]
 1339 0096 029B     		ldr	r3, [sp, #8]
 1340 0098 2369     		ldr	r3, [r4, #16]
ARM GAS  /tmp/ccCGIf4Q.s 			page 24


 1341 009a B3F5404F 		cmp	r3, #49152
 1342 009e 1FD1     		bne	.L223
 1343 00a0 0096     		str	r6, [sp]
 1344 00a2 2046     		mov	r0, r4
 1345 00a4 2C49     		ldr	r1, .L241+4
 1346 00a6 2B46     		mov	r3, r5
 1347 00a8 FFF7FEFF 		bl	I2C_WaitOnFlagUntilTimeout
 1348 00ac 30BB     		cbnz	r0, .L238
 1349 00ae 2368     		ldr	r3, [r4]
 1350 00b0 0390     		str	r0, [sp, #12]
 1351 00b2 5A69     		ldr	r2, [r3, #20]
 1352 00b4 0392     		str	r2, [sp, #12]
 1353 00b6 9B69     		ldr	r3, [r3, #24]
 1354 00b8 0393     		str	r3, [sp, #12]
 1355 00ba 039B     		ldr	r3, [sp, #12]
 1356 00bc 10E0     		b	.L223
 1357              	.L224:
 1358 00be 636A     		ldr	r3, [r4, #36]
 1359 00c0 1946     		mov	r1, r3
 1360 00c2 11F8010B 		ldrb	r0, [r1], #1	@ zero_extendqisi2
 1361 00c6 1061     		str	r0, [r2, #16]
 1362 00c8 6162     		str	r1, [r4, #36]
 1363 00ca 618D     		ldrh	r1, [r4, #42]
 1364 00cc 0139     		subs	r1, r1, #1
 1365 00ce 89B2     		uxth	r1, r1
 1366 00d0 6185     		strh	r1, [r4, #42]	@ movhi
 1367 00d2 218D     		ldrh	r1, [r4, #40]
 1368 00d4 5769     		ldr	r7, [r2, #20]
 1369 00d6 481E     		subs	r0, r1, #1
 1370 00d8 80B2     		uxth	r0, r0
 1371 00da 7F07     		lsls	r7, r7, #29
 1372 00dc 2085     		strh	r0, [r4, #40]	@ movhi
 1373 00de 0FD4     		bmi	.L239
 1374              	.L223:
 1375 00e0 228D     		ldrh	r2, [r4, #40]
 1376 00e2 D2B1     		cbz	r2, .L240
 1377 00e4 3246     		mov	r2, r6
 1378 00e6 2046     		mov	r0, r4
 1379 00e8 2946     		mov	r1, r5
 1380 00ea FFF7FEFF 		bl	I2C_WaitOnTXEFlagUntilTimeout
 1381 00ee 2268     		ldr	r2, [r4]
 1382 00f0 0028     		cmp	r0, #0
 1383 00f2 E4D0     		beq	.L224
 1384 00f4 1368     		ldr	r3, [r2]
 1385 00f6 23F48063 		bic	r3, r3, #1024
 1386 00fa 1360     		str	r3, [r2]
 1387              	.L238:
 1388 00fc 0120     		movs	r0, #1
 1389 00fe 26E0     		b	.L218
 1390              	.L239:
 1391 0100 0028     		cmp	r0, #0
 1392 0102 EDD0     		beq	.L223
 1393 0104 5878     		ldrb	r0, [r3, #1]	@ zero_extendqisi2
 1394 0106 0233     		adds	r3, r3, #2
 1395 0108 1061     		str	r0, [r2, #16]
 1396 010a 6362     		str	r3, [r4, #36]
 1397 010c 638D     		ldrh	r3, [r4, #42]
ARM GAS  /tmp/ccCGIf4Q.s 			page 25


 1398 010e 0239     		subs	r1, r1, #2
 1399 0110 013B     		subs	r3, r3, #1
 1400 0112 9BB2     		uxth	r3, r3
 1401 0114 6385     		strh	r3, [r4, #42]	@ movhi
 1402 0116 2185     		strh	r1, [r4, #40]	@ movhi
 1403 0118 E2E7     		b	.L223
 1404              	.L240:
 1405 011a 0096     		str	r6, [sp]
 1406 011c 2046     		mov	r0, r4
 1407 011e 4FF48231 		mov	r1, #66560
 1408 0122 2B46     		mov	r3, r5
 1409 0124 FFF7FEFF 		bl	I2C_WaitOnFlagUntilTimeout
 1410 0128 0028     		cmp	r0, #0
 1411 012a E7D1     		bne	.L238
 1412 012c 2368     		ldr	r3, [r4]
 1413 012e 6FF48062 		mvn	r2, #1024
 1414 0132 5A61     		str	r2, [r3, #20]
 1415 0134 1A68     		ldr	r2, [r3]
 1416 0136 22F48062 		bic	r2, r2, #1024
 1417 013a 1A60     		str	r2, [r3]
 1418 013c 2023     		movs	r3, #32
 1419 013e 84F83D30 		strb	r3, [r4, #61]
 1420 0142 84F83C00 		strb	r0, [r4, #60]
 1421 0146 84F83E00 		strb	r0, [r4, #62]
 1422 014a 00E0     		b	.L218
 1423              	.L228:
 1424 014c 0220     		movs	r0, #2
 1425              	.L218:
 1426 014e 04B0     		add	sp, sp, #16
 1427              		@ sp needed
 1428 0150 BDE8F081 		pop	{r4, r5, r6, r7, r8, pc}
 1429              	.L242:
 1430              		.align	2
 1431              	.L241:
 1432 0154 0000FFFF 		.word	-65536
 1433 0158 02000100 		.word	65538
 1435              		.section	.text.HAL_I2C_Slave_Receive,"ax",%progbits
 1436              		.align	1
 1437              		.global	HAL_I2C_Slave_Receive
 1438              		.thumb
 1439              		.thumb_func
 1441              	HAL_I2C_Slave_Receive:
 1442              		@ args = 0, pretend = 0, frame = 8
 1443              		@ frame_needed = 0, uses_anonymous_args = 0
 1444 0000 2DE9FF41 		push	{r0, r1, r2, r3, r4, r5, r6, r7, r8, lr}
 1445 0004 0446     		mov	r4, r0
 1446 0006 1E46     		mov	r6, r3
 1447 0008 0D46     		mov	r5, r1
 1448 000a 9046     		mov	r8, r2
 1449 000c FFF7FEFF 		bl	HAL_GetTick
 1450 0010 94F83D30 		ldrb	r3, [r4, #61]	@ zero_extendqisi2
 1451 0014 0746     		mov	r7, r0
 1452 0016 202B     		cmp	r3, #32
 1453 0018 40F08D80 		bne	.L258
 1454 001c 002D     		cmp	r5, #0
 1455 001e 5CD0     		beq	.L271
 1456 0020 B8F1000F 		cmp	r8, #0
ARM GAS  /tmp/ccCGIf4Q.s 			page 26


 1457 0024 59D0     		beq	.L271
 1458 0026 94F83C30 		ldrb	r3, [r4, #60]	@ zero_extendqisi2
 1459 002a 012B     		cmp	r3, #1
 1460 002c 00F08380 		beq	.L258
 1461 0030 0123     		movs	r3, #1
 1462 0032 84F83C30 		strb	r3, [r4, #60]
 1463 0036 2368     		ldr	r3, [r4]
 1464 0038 1A68     		ldr	r2, [r3]
 1465 003a D207     		lsls	r2, r2, #31
 1466 003c 58BF     		it	pl
 1467 003e 1868     		ldrpl	r0, [r3]
 1468 0040 4FF02202 		mov	r2, #34
 1469 0044 5CBF     		itt	pl
 1470 0046 40F00100 		orrpl	r0, r0, #1
 1471 004a 1860     		strpl	r0, [r3]
 1472 004c 1868     		ldr	r0, [r3]
 1473 004e 20F40060 		bic	r0, r0, #2048
 1474 0052 1860     		str	r0, [r3]
 1475 0054 84F83D20 		strb	r2, [r4, #61]
 1476 0058 2022     		movs	r2, #32
 1477 005a 84F83E20 		strb	r2, [r4, #62]
 1478 005e 0022     		movs	r2, #0
 1479 0060 2264     		str	r2, [r4, #64]
 1480 0062 A4F82A80 		strh	r8, [r4, #42]	@ movhi
 1481 0066 618D     		ldrh	r1, [r4, #42]
 1482 0068 6562     		str	r5, [r4, #36]
 1483 006a 2185     		strh	r1, [r4, #40]	@ movhi
 1484 006c 4249     		ldr	r1, .L274
 1485 006e 2046     		mov	r0, r4
 1486 0070 E162     		str	r1, [r4, #44]
 1487 0072 1968     		ldr	r1, [r3]
 1488 0074 41F48061 		orr	r1, r1, #1024
 1489 0078 1960     		str	r1, [r3]
 1490 007a 0097     		str	r7, [sp]
 1491 007c 3F49     		ldr	r1, .L274+4
 1492 007e 3346     		mov	r3, r6
 1493 0080 FFF7FEFF 		bl	I2C_WaitOnFlagUntilTimeout
 1494 0084 0546     		mov	r5, r0
 1495 0086 0028     		cmp	r0, #0
 1496 0088 27D1     		bne	.L271
 1497 008a 2368     		ldr	r3, [r4]
 1498 008c 0290     		str	r0, [sp, #8]
 1499 008e 5A69     		ldr	r2, [r3, #20]
 1500 0090 0292     		str	r2, [sp, #8]
 1501 0092 9B69     		ldr	r3, [r3, #24]
 1502 0094 0293     		str	r3, [sp, #8]
 1503 0096 029B     		ldr	r3, [sp, #8]
 1504 0098 11E0     		b	.L248
 1505              	.L249:
 1506 009a 1B69     		ldr	r3, [r3, #16]
 1507 009c 626A     		ldr	r2, [r4, #36]
 1508 009e 1370     		strb	r3, [r2]
 1509 00a0 628D     		ldrh	r2, [r4, #42]
 1510 00a2 616A     		ldr	r1, [r4, #36]
 1511 00a4 013A     		subs	r2, r2, #1
 1512 00a6 92B2     		uxth	r2, r2
 1513 00a8 4B1C     		adds	r3, r1, #1
ARM GAS  /tmp/ccCGIf4Q.s 			page 27


 1514 00aa 6285     		strh	r2, [r4, #42]	@ movhi
 1515 00ac 2268     		ldr	r2, [r4]
 1516 00ae 6362     		str	r3, [r4, #36]
 1517 00b0 238D     		ldrh	r3, [r4, #40]
 1518 00b2 5069     		ldr	r0, [r2, #20]
 1519 00b4 013B     		subs	r3, r3, #1
 1520 00b6 9BB2     		uxth	r3, r3
 1521 00b8 4007     		lsls	r0, r0, #29
 1522 00ba 2385     		strh	r3, [r4, #40]	@ movhi
 1523 00bc 0FD4     		bmi	.L272
 1524              	.L248:
 1525 00be 238D     		ldrh	r3, [r4, #40]
 1526 00c0 33B3     		cbz	r3, .L252
 1527 00c2 2046     		mov	r0, r4
 1528 00c4 3146     		mov	r1, r6
 1529 00c6 3A46     		mov	r2, r7
 1530 00c8 FFF7FEFF 		bl	I2C_WaitOnRXNEFlagUntilTimeout
 1531 00cc 2368     		ldr	r3, [r4]
 1532 00ce 0028     		cmp	r0, #0
 1533 00d0 E3D0     		beq	.L249
 1534 00d2 1A68     		ldr	r2, [r3]
 1535 00d4 22F48062 		bic	r2, r2, #1024
 1536 00d8 1A60     		str	r2, [r3]
 1537              	.L271:
 1538 00da 0125     		movs	r5, #1
 1539 00dc 47E0     		b	.L269
 1540              	.L272:
 1541 00de 002B     		cmp	r3, #0
 1542 00e0 EDD0     		beq	.L248
 1543 00e2 1369     		ldr	r3, [r2, #16]
 1544 00e4 4B70     		strb	r3, [r1, #1]
 1545 00e6 636A     		ldr	r3, [r4, #36]
 1546 00e8 0133     		adds	r3, r3, #1
 1547 00ea 6362     		str	r3, [r4, #36]
 1548 00ec 238D     		ldrh	r3, [r4, #40]
 1549 00ee 013B     		subs	r3, r3, #1
 1550 00f0 2385     		strh	r3, [r4, #40]	@ movhi
 1551 00f2 638D     		ldrh	r3, [r4, #42]
 1552 00f4 013B     		subs	r3, r3, #1
 1553 00f6 9BB2     		uxth	r3, r3
 1554 00f8 6385     		strh	r3, [r4, #42]	@ movhi
 1555 00fa E0E7     		b	.L248
 1556              	.L255:
 1557 00fc 2046     		mov	r0, r4
 1558 00fe FFF7FEFF 		bl	I2C_IsAcknowledgeFailed
 1559 0102 D0B9     		cbnz	r0, .L253
 1560 0104 FFF7FEFF 		bl	HAL_GetTick
 1561 0108 C01B     		subs	r0, r0, r7
 1562 010a B042     		cmp	r0, r6
 1563 010c 05D8     		bhi	.L254
 1564 010e 26B1     		cbz	r6, .L254
 1565              	.L252:
 1566 0110 2368     		ldr	r3, [r4]
 1567 0112 5A69     		ldr	r2, [r3, #20]
 1568 0114 D206     		lsls	r2, r2, #27
 1569 0116 F1D5     		bpl	.L255
 1570 0118 15E0     		b	.L273
ARM GAS  /tmp/ccCGIf4Q.s 			page 28


 1571              	.L254:
 1572 011a 0023     		movs	r3, #0
 1573 011c 2022     		movs	r2, #32
 1574 011e 2363     		str	r3, [r4, #48]
 1575 0120 84F83D20 		strb	r2, [r4, #61]
 1576 0124 84F83E30 		strb	r3, [r4, #62]
 1577 0128 226C     		ldr	r2, [r4, #64]
 1578 012a 84F83C30 		strb	r3, [r4, #60]
 1579 012e 42F02002 		orr	r2, r2, #32
 1580 0132 2264     		str	r2, [r4, #64]
 1581 0134 01E0     		b	.L253
 1582              	.L258:
 1583 0136 0225     		movs	r5, #2
 1584 0138 19E0     		b	.L269
 1585              	.L253:
 1586 013a 2268     		ldr	r2, [r4]
 1587 013c 1368     		ldr	r3, [r2]
 1588 013e 23F48063 		bic	r3, r3, #1024
 1589 0142 1360     		str	r3, [r2]
 1590 0144 C9E7     		b	.L271
 1591              	.L273:
 1592 0146 0022     		movs	r2, #0
 1593 0148 0392     		str	r2, [sp, #12]
 1594 014a 5969     		ldr	r1, [r3, #20]
 1595 014c 0391     		str	r1, [sp, #12]
 1596 014e 1968     		ldr	r1, [r3]
 1597 0150 41F00101 		orr	r1, r1, #1
 1598 0154 1960     		str	r1, [r3]
 1599 0156 0399     		ldr	r1, [sp, #12]
 1600 0158 1968     		ldr	r1, [r3]
 1601 015a 21F48061 		bic	r1, r1, #1024
 1602 015e 1960     		str	r1, [r3]
 1603 0160 2023     		movs	r3, #32
 1604 0162 84F83D30 		strb	r3, [r4, #61]
 1605 0166 84F83C20 		strb	r2, [r4, #60]
 1606 016a 84F83E20 		strb	r2, [r4, #62]
 1607              	.L269:
 1608 016e 2846     		mov	r0, r5
 1609 0170 04B0     		add	sp, sp, #16
 1610              		@ sp needed
 1611 0172 BDE8F081 		pop	{r4, r5, r6, r7, r8, pc}
 1612              	.L275:
 1613 0176 00BF     		.align	2
 1614              	.L274:
 1615 0178 0000FFFF 		.word	-65536
 1616 017c 02000100 		.word	65538
 1618              		.section	.text.HAL_I2C_Master_Transmit_IT,"ax",%progbits
 1619              		.align	1
 1620              		.global	HAL_I2C_Master_Transmit_IT
 1621              		.thumb
 1622              		.thumb_func
 1624              	HAL_I2C_Master_Transmit_IT:
 1625              		@ args = 0, pretend = 0, frame = 8
 1626              		@ frame_needed = 0, uses_anonymous_args = 0
 1627 0000 37B5     		push	{r0, r1, r2, r4, r5, lr}
 1628 0002 0024     		movs	r4, #0
 1629 0004 0194     		str	r4, [sp, #4]
ARM GAS  /tmp/ccCGIf4Q.s 			page 29


 1630 0006 90F83D40 		ldrb	r4, [r0, #61]	@ zero_extendqisi2
 1631 000a 202C     		cmp	r4, #32
 1632 000c 01D0     		beq	.L277
 1633              	.L281:
 1634 000e 0220     		movs	r0, #2
 1635 0010 4BE0     		b	.L278
 1636              	.L277:
 1637 0012 46F2A815 		movw	r5, #25000
 1638 0016 264C     		ldr	r4, .L287
 1639 0018 2468     		ldr	r4, [r4]
 1640 001a B4FBF5F5 		udiv	r5, r4, r5
 1641 001e 1924     		movs	r4, #25
 1642 0020 6C43     		muls	r4, r5, r4
 1643 0022 0194     		str	r4, [sp, #4]
 1644              	.L280:
 1645 0024 019C     		ldr	r4, [sp, #4]
 1646 0026 013C     		subs	r4, r4, #1
 1647 0028 0194     		str	r4, [sp, #4]
 1648 002a 019C     		ldr	r4, [sp, #4]
 1649 002c 6CB9     		cbnz	r4, .L279
 1650 002e 2023     		movs	r3, #32
 1651 0030 0463     		str	r4, [r0, #48]
 1652 0032 80F83D30 		strb	r3, [r0, #61]
 1653 0036 80F83E40 		strb	r4, [r0, #62]
 1654 003a 036C     		ldr	r3, [r0, #64]
 1655 003c 80F83C40 		strb	r4, [r0, #60]
 1656 0040 43F02003 		orr	r3, r3, #32
 1657 0044 0364     		str	r3, [r0, #64]
 1658 0046 0120     		movs	r0, #1
 1659 0048 2FE0     		b	.L278
 1660              	.L279:
 1661 004a 0468     		ldr	r4, [r0]
 1662 004c A569     		ldr	r5, [r4, #24]
 1663 004e AD07     		lsls	r5, r5, #30
 1664 0050 E8D4     		bmi	.L280
 1665 0052 90F83C50 		ldrb	r5, [r0, #60]	@ zero_extendqisi2
 1666 0056 012D     		cmp	r5, #1
 1667 0058 D9D0     		beq	.L281
 1668 005a 0125     		movs	r5, #1
 1669 005c 80F83C50 		strb	r5, [r0, #60]
 1670 0060 2568     		ldr	r5, [r4]
 1671 0062 ED07     		lsls	r5, r5, #31
 1672 0064 5EBF     		ittt	pl
 1673 0066 2568     		ldrpl	r5, [r4]
 1674 0068 45F00105 		orrpl	r5, r5, #1
 1675 006c 2560     		strpl	r5, [r4]
 1676 006e 2568     		ldr	r5, [r4]
 1677 0070 25F40065 		bic	r5, r5, #2048
 1678 0074 2560     		str	r5, [r4]
 1679 0076 2125     		movs	r5, #33
 1680 0078 80F83D50 		strb	r5, [r0, #61]
 1681 007c 1025     		movs	r5, #16
 1682 007e 80F83E50 		strb	r5, [r0, #62]
 1683 0082 0025     		movs	r5, #0
 1684 0084 0564     		str	r5, [r0, #64]
 1685 0086 4385     		strh	r3, [r0, #42]	@ movhi
 1686 0088 438D     		ldrh	r3, [r0, #42]
ARM GAS  /tmp/ccCGIf4Q.s 			page 30


 1687 008a 4262     		str	r2, [r0, #36]
 1688 008c 0385     		strh	r3, [r0, #40]	@ movhi
 1689 008e 094B     		ldr	r3, .L287+4
 1690 0090 C362     		str	r3, [r0, #44]
 1691 0092 4164     		str	r1, [r0, #68]
 1692 0094 2368     		ldr	r3, [r4]
 1693 0096 43F48073 		orr	r3, r3, #256
 1694 009a 2360     		str	r3, [r4]
 1695 009c 80F83C50 		strb	r5, [r0, #60]
 1696 00a0 2846     		mov	r0, r5
 1697 00a2 6368     		ldr	r3, [r4, #4]
 1698 00a4 43F4E063 		orr	r3, r3, #1792
 1699 00a8 6360     		str	r3, [r4, #4]
 1700              	.L278:
 1701 00aa 03B0     		add	sp, sp, #12
 1702              		@ sp needed
 1703 00ac 30BD     		pop	{r4, r5, pc}
 1704              	.L288:
 1705 00ae 00BF     		.align	2
 1706              	.L287:
 1707 00b0 00000000 		.word	SystemCoreClock
 1708 00b4 0000FFFF 		.word	-65536
 1710              		.section	.text.HAL_I2C_Master_Receive_IT,"ax",%progbits
 1711              		.align	1
 1712              		.global	HAL_I2C_Master_Receive_IT
 1713              		.thumb
 1714              		.thumb_func
 1716              	HAL_I2C_Master_Receive_IT:
 1717              		@ args = 0, pretend = 0, frame = 8
 1718              		@ frame_needed = 0, uses_anonymous_args = 0
 1719 0000 37B5     		push	{r0, r1, r2, r4, r5, lr}
 1720 0002 0024     		movs	r4, #0
 1721 0004 0194     		str	r4, [sp, #4]
 1722 0006 90F83D40 		ldrb	r4, [r0, #61]	@ zero_extendqisi2
 1723 000a 202C     		cmp	r4, #32
 1724 000c 01D0     		beq	.L290
 1725              	.L294:
 1726 000e 0220     		movs	r0, #2
 1727 0010 4FE0     		b	.L291
 1728              	.L290:
 1729 0012 46F2A815 		movw	r5, #25000
 1730 0016 284C     		ldr	r4, .L300
 1731 0018 2468     		ldr	r4, [r4]
 1732 001a B4FBF5F5 		udiv	r5, r4, r5
 1733 001e 1924     		movs	r4, #25
 1734 0020 6C43     		muls	r4, r5, r4
 1735 0022 0194     		str	r4, [sp, #4]
 1736              	.L293:
 1737 0024 019C     		ldr	r4, [sp, #4]
 1738 0026 013C     		subs	r4, r4, #1
 1739 0028 0194     		str	r4, [sp, #4]
 1740 002a 019C     		ldr	r4, [sp, #4]
 1741 002c 6CB9     		cbnz	r4, .L292
 1742 002e 2023     		movs	r3, #32
 1743 0030 0463     		str	r4, [r0, #48]
 1744 0032 80F83D30 		strb	r3, [r0, #61]
 1745 0036 80F83E40 		strb	r4, [r0, #62]
ARM GAS  /tmp/ccCGIf4Q.s 			page 31


 1746 003a 036C     		ldr	r3, [r0, #64]
 1747 003c 80F83C40 		strb	r4, [r0, #60]
 1748 0040 43F02003 		orr	r3, r3, #32
 1749 0044 0364     		str	r3, [r0, #64]
 1750 0046 0120     		movs	r0, #1
 1751 0048 33E0     		b	.L291
 1752              	.L292:
 1753 004a 0468     		ldr	r4, [r0]
 1754 004c A569     		ldr	r5, [r4, #24]
 1755 004e AD07     		lsls	r5, r5, #30
 1756 0050 E8D4     		bmi	.L293
 1757 0052 90F83C50 		ldrb	r5, [r0, #60]	@ zero_extendqisi2
 1758 0056 012D     		cmp	r5, #1
 1759 0058 D9D0     		beq	.L294
 1760 005a 0125     		movs	r5, #1
 1761 005c 80F83C50 		strb	r5, [r0, #60]
 1762 0060 2568     		ldr	r5, [r4]
 1763 0062 ED07     		lsls	r5, r5, #31
 1764 0064 5EBF     		ittt	pl
 1765 0066 2568     		ldrpl	r5, [r4]
 1766 0068 45F00105 		orrpl	r5, r5, #1
 1767 006c 2560     		strpl	r5, [r4]
 1768 006e 2568     		ldr	r5, [r4]
 1769 0070 25F40065 		bic	r5, r5, #2048
 1770 0074 2560     		str	r5, [r4]
 1771 0076 2225     		movs	r5, #34
 1772 0078 80F83D50 		strb	r5, [r0, #61]
 1773 007c 1025     		movs	r5, #16
 1774 007e 80F83E50 		strb	r5, [r0, #62]
 1775 0082 0025     		movs	r5, #0
 1776 0084 0564     		str	r5, [r0, #64]
 1777 0086 4385     		strh	r3, [r0, #42]	@ movhi
 1778 0088 438D     		ldrh	r3, [r0, #42]
 1779 008a 4262     		str	r2, [r0, #36]
 1780 008c 0385     		strh	r3, [r0, #40]	@ movhi
 1781 008e 0B4B     		ldr	r3, .L300+4
 1782 0090 C362     		str	r3, [r0, #44]
 1783 0092 4164     		str	r1, [r0, #68]
 1784 0094 2368     		ldr	r3, [r4]
 1785 0096 43F48063 		orr	r3, r3, #1024
 1786 009a 2360     		str	r3, [r4]
 1787 009c 2368     		ldr	r3, [r4]
 1788 009e 43F48073 		orr	r3, r3, #256
 1789 00a2 2360     		str	r3, [r4]
 1790 00a4 80F83C50 		strb	r5, [r0, #60]
 1791 00a8 2846     		mov	r0, r5
 1792 00aa 6368     		ldr	r3, [r4, #4]
 1793 00ac 43F4E063 		orr	r3, r3, #1792
 1794 00b0 6360     		str	r3, [r4, #4]
 1795              	.L291:
 1796 00b2 03B0     		add	sp, sp, #12
 1797              		@ sp needed
 1798 00b4 30BD     		pop	{r4, r5, pc}
 1799              	.L301:
 1800 00b6 00BF     		.align	2
 1801              	.L300:
 1802 00b8 00000000 		.word	SystemCoreClock
ARM GAS  /tmp/ccCGIf4Q.s 			page 32


 1803 00bc 0000FFFF 		.word	-65536
 1805              		.section	.text.HAL_I2C_Slave_Transmit_IT,"ax",%progbits
 1806              		.align	1
 1807              		.global	HAL_I2C_Slave_Transmit_IT
 1808              		.thumb
 1809              		.thumb_func
 1811              	HAL_I2C_Slave_Transmit_IT:
 1812              		@ args = 0, pretend = 0, frame = 0
 1813              		@ frame_needed = 0, uses_anonymous_args = 0
 1814 0000 90F83D30 		ldrb	r3, [r0, #61]	@ zero_extendqisi2
 1815 0004 10B5     		push	{r4, lr}
 1816 0006 202B     		cmp	r3, #32
 1817 0008 32D1     		bne	.L308
 1818 000a 0029     		cmp	r1, #0
 1819 000c 2ED0     		beq	.L307
 1820 000e 002A     		cmp	r2, #0
 1821 0010 2CD0     		beq	.L307
 1822 0012 90F83C30 		ldrb	r3, [r0, #60]	@ zero_extendqisi2
 1823 0016 012B     		cmp	r3, #1
 1824 0018 2AD0     		beq	.L308
 1825 001a 0468     		ldr	r4, [r0]
 1826 001c 0123     		movs	r3, #1
 1827 001e 80F83C30 		strb	r3, [r0, #60]
 1828 0022 2368     		ldr	r3, [r4]
 1829 0024 DB07     		lsls	r3, r3, #31
 1830 0026 5EBF     		ittt	pl
 1831 0028 2368     		ldrpl	r3, [r4]
 1832 002a 43F00103 		orrpl	r3, r3, #1
 1833 002e 2360     		strpl	r3, [r4]
 1834 0030 2368     		ldr	r3, [r4]
 1835 0032 23F40063 		bic	r3, r3, #2048
 1836 0036 2360     		str	r3, [r4]
 1837 0038 2123     		movs	r3, #33
 1838 003a 80F83D30 		strb	r3, [r0, #61]
 1839 003e 2023     		movs	r3, #32
 1840 0040 80F83E30 		strb	r3, [r0, #62]
 1841 0044 0023     		movs	r3, #0
 1842 0046 0364     		str	r3, [r0, #64]
 1843 0048 4285     		strh	r2, [r0, #42]	@ movhi
 1844 004a 428D     		ldrh	r2, [r0, #42]
 1845 004c 4162     		str	r1, [r0, #36]
 1846 004e 0285     		strh	r2, [r0, #40]	@ movhi
 1847 0050 084A     		ldr	r2, .L309
 1848 0052 C262     		str	r2, [r0, #44]
 1849 0054 2268     		ldr	r2, [r4]
 1850 0056 42F48062 		orr	r2, r2, #1024
 1851 005a 2260     		str	r2, [r4]
 1852 005c 6268     		ldr	r2, [r4, #4]
 1853 005e 80F83C30 		strb	r3, [r0, #60]
 1854 0062 42F4E062 		orr	r2, r2, #1792
 1855 0066 6260     		str	r2, [r4, #4]
 1856 0068 1846     		mov	r0, r3
 1857 006a 10BD     		pop	{r4, pc}
 1858              	.L307:
 1859 006c 0120     		movs	r0, #1
 1860 006e 10BD     		pop	{r4, pc}
 1861              	.L308:
ARM GAS  /tmp/ccCGIf4Q.s 			page 33


 1862 0070 0220     		movs	r0, #2
 1863 0072 10BD     		pop	{r4, pc}
 1864              	.L310:
 1865              		.align	2
 1866              	.L309:
 1867 0074 0000FFFF 		.word	-65536
 1869              		.section	.text.HAL_I2C_Slave_Receive_IT,"ax",%progbits
 1870              		.align	1
 1871              		.global	HAL_I2C_Slave_Receive_IT
 1872              		.thumb
 1873              		.thumb_func
 1875              	HAL_I2C_Slave_Receive_IT:
 1876              		@ args = 0, pretend = 0, frame = 0
 1877              		@ frame_needed = 0, uses_anonymous_args = 0
 1878 0000 90F83D30 		ldrb	r3, [r0, #61]	@ zero_extendqisi2
 1879 0004 10B5     		push	{r4, lr}
 1880 0006 202B     		cmp	r3, #32
 1881 0008 32D1     		bne	.L317
 1882 000a 0029     		cmp	r1, #0
 1883 000c 2ED0     		beq	.L316
 1884 000e 002A     		cmp	r2, #0
 1885 0010 2CD0     		beq	.L316
 1886 0012 90F83C30 		ldrb	r3, [r0, #60]	@ zero_extendqisi2
 1887 0016 012B     		cmp	r3, #1
 1888 0018 2AD0     		beq	.L317
 1889 001a 0468     		ldr	r4, [r0]
 1890 001c 0123     		movs	r3, #1
 1891 001e 80F83C30 		strb	r3, [r0, #60]
 1892 0022 2368     		ldr	r3, [r4]
 1893 0024 DB07     		lsls	r3, r3, #31
 1894 0026 5EBF     		ittt	pl
 1895 0028 2368     		ldrpl	r3, [r4]
 1896 002a 43F00103 		orrpl	r3, r3, #1
 1897 002e 2360     		strpl	r3, [r4]
 1898 0030 2368     		ldr	r3, [r4]
 1899 0032 23F40063 		bic	r3, r3, #2048
 1900 0036 2360     		str	r3, [r4]
 1901 0038 2223     		movs	r3, #34
 1902 003a 80F83D30 		strb	r3, [r0, #61]
 1903 003e 2023     		movs	r3, #32
 1904 0040 80F83E30 		strb	r3, [r0, #62]
 1905 0044 0023     		movs	r3, #0
 1906 0046 0364     		str	r3, [r0, #64]
 1907 0048 4285     		strh	r2, [r0, #42]	@ movhi
 1908 004a 428D     		ldrh	r2, [r0, #42]
 1909 004c 4162     		str	r1, [r0, #36]
 1910 004e 0285     		strh	r2, [r0, #40]	@ movhi
 1911 0050 084A     		ldr	r2, .L318
 1912 0052 C262     		str	r2, [r0, #44]
 1913 0054 2268     		ldr	r2, [r4]
 1914 0056 42F48062 		orr	r2, r2, #1024
 1915 005a 2260     		str	r2, [r4]
 1916 005c 6268     		ldr	r2, [r4, #4]
 1917 005e 80F83C30 		strb	r3, [r0, #60]
 1918 0062 42F4E062 		orr	r2, r2, #1792
 1919 0066 6260     		str	r2, [r4, #4]
 1920 0068 1846     		mov	r0, r3
ARM GAS  /tmp/ccCGIf4Q.s 			page 34


 1921 006a 10BD     		pop	{r4, pc}
 1922              	.L316:
 1923 006c 0120     		movs	r0, #1
 1924 006e 10BD     		pop	{r4, pc}
 1925              	.L317:
 1926 0070 0220     		movs	r0, #2
 1927 0072 10BD     		pop	{r4, pc}
 1928              	.L319:
 1929              		.align	2
 1930              	.L318:
 1931 0074 0000FFFF 		.word	-65536
 1933              		.section	.text.HAL_I2C_Master_Transmit_DMA,"ax",%progbits
 1934              		.align	1
 1935              		.global	HAL_I2C_Master_Transmit_DMA
 1936              		.thumb
 1937              		.thumb_func
 1939              	HAL_I2C_Master_Transmit_DMA:
 1940              		@ args = 0, pretend = 0, frame = 8
 1941              		@ frame_needed = 0, uses_anonymous_args = 0
 1942 0000 73B5     		push	{r0, r1, r4, r5, r6, lr}
 1943 0002 0446     		mov	r4, r0
 1944 0004 0020     		movs	r0, #0
 1945 0006 0190     		str	r0, [sp, #4]
 1946 0008 94F83D00 		ldrb	r0, [r4, #61]	@ zero_extendqisi2
 1947 000c 2028     		cmp	r0, #32
 1948 000e 01D0     		beq	.L321
 1949              	.L325:
 1950 0010 0220     		movs	r0, #2
 1951 0012 7EE0     		b	.L322
 1952              	.L321:
 1953 0014 46F2A815 		movw	r5, #25000
 1954 0018 3F48     		ldr	r0, .L334
 1955 001a 0068     		ldr	r0, [r0]
 1956 001c B0FBF5F5 		udiv	r5, r0, r5
 1957 0020 1920     		movs	r0, #25
 1958 0022 6843     		muls	r0, r5, r0
 1959 0024 0190     		str	r0, [sp, #4]
 1960              	.L324:
 1961 0026 0198     		ldr	r0, [sp, #4]
 1962 0028 0138     		subs	r0, r0, #1
 1963 002a 0190     		str	r0, [sp, #4]
 1964 002c 0198     		ldr	r0, [sp, #4]
 1965 002e 60B9     		cbnz	r0, .L323
 1966 0030 2023     		movs	r3, #32
 1967 0032 2063     		str	r0, [r4, #48]
 1968 0034 84F83D30 		strb	r3, [r4, #61]
 1969 0038 84F83E00 		strb	r0, [r4, #62]
 1970 003c 236C     		ldr	r3, [r4, #64]
 1971 003e 84F83C00 		strb	r0, [r4, #60]
 1972 0042 43F02003 		orr	r3, r3, #32
 1973 0046 2364     		str	r3, [r4, #64]
 1974 0048 53E0     		b	.L333
 1975              	.L323:
 1976 004a 2568     		ldr	r5, [r4]
 1977 004c A869     		ldr	r0, [r5, #24]
 1978 004e 8607     		lsls	r6, r0, #30
 1979 0050 E9D4     		bmi	.L324
ARM GAS  /tmp/ccCGIf4Q.s 			page 35


 1980 0052 94F83C00 		ldrb	r0, [r4, #60]	@ zero_extendqisi2
 1981 0056 0128     		cmp	r0, #1
 1982 0058 DAD0     		beq	.L325
 1983 005a 0120     		movs	r0, #1
 1984 005c 84F83C00 		strb	r0, [r4, #60]
 1985 0060 2868     		ldr	r0, [r5]
 1986 0062 0026     		movs	r6, #0
 1987 0064 C007     		lsls	r0, r0, #31
 1988 0066 5EBF     		ittt	pl
 1989 0068 2868     		ldrpl	r0, [r5]
 1990 006a 40F00100 		orrpl	r0, r0, #1
 1991 006e 2860     		strpl	r0, [r5]
 1992 0070 2868     		ldr	r0, [r5]
 1993 0072 20F40060 		bic	r0, r0, #2048
 1994 0076 2860     		str	r0, [r5]
 1995 0078 2120     		movs	r0, #33
 1996 007a 84F83D00 		strb	r0, [r4, #61]
 1997 007e 1020     		movs	r0, #16
 1998 0080 84F83E00 		strb	r0, [r4, #62]
 1999 0084 2664     		str	r6, [r4, #64]
 2000 0086 6385     		strh	r3, [r4, #42]	@ movhi
 2001 0088 608D     		ldrh	r0, [r4, #42]
 2002 008a 244B     		ldr	r3, .L334+4
 2003 008c 80B2     		uxth	r0, r0
 2004 008e E362     		str	r3, [r4, #44]
 2005 0090 6262     		str	r2, [r4, #36]
 2006 0092 2085     		strh	r0, [r4, #40]	@ movhi
 2007 0094 6164     		str	r1, [r4, #68]
 2008 0096 0346     		mov	r3, r0
 2009 0098 68B3     		cbz	r0, .L327
 2010 009a 606B     		ldr	r0, [r4, #52]
 2011 009c 2049     		ldr	r1, .L334+8
 2012 009e C662     		str	r6, [r0, #44]
 2013 00a0 8162     		str	r1, [r0, #40]
 2014 00a2 2049     		ldr	r1, .L334+12
 2015 00a4 4663     		str	r6, [r0, #52]
 2016 00a6 0163     		str	r1, [r0, #48]
 2017 00a8 1146     		mov	r1, r2
 2018 00aa 05F11002 		add	r2, r5, #16
 2019 00ae FFF7FEFF 		bl	HAL_DMA_Start_IT
 2020 00b2 98B9     		cbnz	r0, .L328
 2021 00b4 2368     		ldr	r3, [r4]
 2022 00b6 1A68     		ldr	r2, [r3]
 2023 00b8 42F48062 		orr	r2, r2, #1024
 2024 00bc 1A60     		str	r2, [r3]
 2025 00be 1A68     		ldr	r2, [r3]
 2026 00c0 42F48072 		orr	r2, r2, #256
 2027 00c4 1A60     		str	r2, [r3]
 2028 00c6 5A68     		ldr	r2, [r3, #4]
 2029 00c8 84F83C00 		strb	r0, [r4, #60]
 2030 00cc 42F44072 		orr	r2, r2, #768
 2031 00d0 5A60     		str	r2, [r3, #4]
 2032 00d2 5A68     		ldr	r2, [r3, #4]
 2033 00d4 42F40062 		orr	r2, r2, #2048
 2034 00d8 5A60     		str	r2, [r3, #4]
 2035 00da 1AE0     		b	.L322
 2036              	.L328:
ARM GAS  /tmp/ccCGIf4Q.s 			page 36


 2037 00dc 2023     		movs	r3, #32
 2038 00de 84F83D30 		strb	r3, [r4, #61]
 2039 00e2 84F83E60 		strb	r6, [r4, #62]
 2040 00e6 236C     		ldr	r3, [r4, #64]
 2041 00e8 84F83C60 		strb	r6, [r4, #60]
 2042 00ec 43F01003 		orr	r3, r3, #16
 2043 00f0 2364     		str	r3, [r4, #64]
 2044              	.L333:
 2045 00f2 0120     		movs	r0, #1
 2046 00f4 0DE0     		b	.L322
 2047              	.L327:
 2048 00f6 2A68     		ldr	r2, [r5]
 2049 00f8 42F48062 		orr	r2, r2, #1024
 2050 00fc 2A60     		str	r2, [r5]
 2051 00fe 2A68     		ldr	r2, [r5]
 2052 0100 42F48072 		orr	r2, r2, #256
 2053 0104 2A60     		str	r2, [r5]
 2054 0106 6A68     		ldr	r2, [r5, #4]
 2055 0108 84F83C00 		strb	r0, [r4, #60]
 2056 010c 42F4E062 		orr	r2, r2, #1792
 2057 0110 6A60     		str	r2, [r5, #4]
 2058              	.L322:
 2059 0112 02B0     		add	sp, sp, #8
 2060              		@ sp needed
 2061 0114 70BD     		pop	{r4, r5, r6, pc}
 2062              	.L335:
 2063 0116 00BF     		.align	2
 2064              	.L334:
 2065 0118 00000000 		.word	SystemCoreClock
 2066 011c 0000FFFF 		.word	-65536
 2067 0120 00000000 		.word	I2C_DMAXferCplt
 2068 0124 00000000 		.word	I2C_DMAError
 2070              		.section	.text.HAL_I2C_Master_Receive_DMA,"ax",%progbits
 2071              		.align	1
 2072              		.global	HAL_I2C_Master_Receive_DMA
 2073              		.thumb
 2074              		.thumb_func
 2076              	HAL_I2C_Master_Receive_DMA:
 2077              		@ args = 0, pretend = 0, frame = 8
 2078              		@ frame_needed = 0, uses_anonymous_args = 0
 2079 0000 73B5     		push	{r0, r1, r4, r5, r6, lr}
 2080 0002 0446     		mov	r4, r0
 2081 0004 0020     		movs	r0, #0
 2082 0006 0190     		str	r0, [sp, #4]
 2083 0008 94F83D00 		ldrb	r0, [r4, #61]	@ zero_extendqisi2
 2084 000c 2028     		cmp	r0, #32
 2085 000e 01D0     		beq	.L337
 2086              	.L341:
 2087 0010 0220     		movs	r0, #2
 2088 0012 7DE0     		b	.L338
 2089              	.L337:
 2090 0014 46F2A815 		movw	r5, #25000
 2091 0018 3E48     		ldr	r0, .L350
 2092 001a 0068     		ldr	r0, [r0]
 2093 001c B0FBF5F5 		udiv	r5, r0, r5
 2094 0020 1920     		movs	r0, #25
 2095 0022 6843     		muls	r0, r5, r0
ARM GAS  /tmp/ccCGIf4Q.s 			page 37


 2096 0024 0190     		str	r0, [sp, #4]
 2097              	.L340:
 2098 0026 0198     		ldr	r0, [sp, #4]
 2099 0028 0138     		subs	r0, r0, #1
 2100 002a 0190     		str	r0, [sp, #4]
 2101 002c 0198     		ldr	r0, [sp, #4]
 2102 002e 60B9     		cbnz	r0, .L339
 2103 0030 2023     		movs	r3, #32
 2104 0032 2063     		str	r0, [r4, #48]
 2105 0034 84F83D30 		strb	r3, [r4, #61]
 2106 0038 84F83E00 		strb	r0, [r4, #62]
 2107 003c 236C     		ldr	r3, [r4, #64]
 2108 003e 84F83C00 		strb	r0, [r4, #60]
 2109 0042 43F02003 		orr	r3, r3, #32
 2110 0046 2364     		str	r3, [r4, #64]
 2111 0048 52E0     		b	.L349
 2112              	.L339:
 2113 004a 2568     		ldr	r5, [r4]
 2114 004c A869     		ldr	r0, [r5, #24]
 2115 004e 8607     		lsls	r6, r0, #30
 2116 0050 E9D4     		bmi	.L340
 2117 0052 94F83C00 		ldrb	r0, [r4, #60]	@ zero_extendqisi2
 2118 0056 0128     		cmp	r0, #1
 2119 0058 DAD0     		beq	.L341
 2120 005a 0120     		movs	r0, #1
 2121 005c 84F83C00 		strb	r0, [r4, #60]
 2122 0060 2868     		ldr	r0, [r5]
 2123 0062 0026     		movs	r6, #0
 2124 0064 C007     		lsls	r0, r0, #31
 2125 0066 5EBF     		ittt	pl
 2126 0068 2868     		ldrpl	r0, [r5]
 2127 006a 40F00100 		orrpl	r0, r0, #1
 2128 006e 2860     		strpl	r0, [r5]
 2129 0070 2868     		ldr	r0, [r5]
 2130 0072 20F40060 		bic	r0, r0, #2048
 2131 0076 2860     		str	r0, [r5]
 2132 0078 2220     		movs	r0, #34
 2133 007a 84F83D00 		strb	r0, [r4, #61]
 2134 007e 1020     		movs	r0, #16
 2135 0080 84F83E00 		strb	r0, [r4, #62]
 2136 0084 2664     		str	r6, [r4, #64]
 2137 0086 6385     		strh	r3, [r4, #42]	@ movhi
 2138 0088 608D     		ldrh	r0, [r4, #42]
 2139 008a 234B     		ldr	r3, .L350+4
 2140 008c 80B2     		uxth	r0, r0
 2141 008e E362     		str	r3, [r4, #44]
 2142 0090 6262     		str	r2, [r4, #36]
 2143 0092 2085     		strh	r0, [r4, #40]	@ movhi
 2144 0094 6164     		str	r1, [r4, #68]
 2145 0096 0346     		mov	r3, r0
 2146 0098 60B3     		cbz	r0, .L343
 2147 009a A06B     		ldr	r0, [r4, #56]
 2148 009c 1F49     		ldr	r1, .L350+8
 2149 009e C662     		str	r6, [r0, #44]
 2150 00a0 8162     		str	r1, [r0, #40]
 2151 00a2 1F49     		ldr	r1, .L350+12
 2152 00a4 4663     		str	r6, [r0, #52]
ARM GAS  /tmp/ccCGIf4Q.s 			page 38


 2153 00a6 0163     		str	r1, [r0, #48]
 2154 00a8 05F11001 		add	r1, r5, #16
 2155 00ac FFF7FEFF 		bl	HAL_DMA_Start_IT
 2156 00b0 98B9     		cbnz	r0, .L344
 2157 00b2 2368     		ldr	r3, [r4]
 2158 00b4 1A68     		ldr	r2, [r3]
 2159 00b6 42F48062 		orr	r2, r2, #1024
 2160 00ba 1A60     		str	r2, [r3]
 2161 00bc 1A68     		ldr	r2, [r3]
 2162 00be 42F48072 		orr	r2, r2, #256
 2163 00c2 1A60     		str	r2, [r3]
 2164 00c4 5A68     		ldr	r2, [r3, #4]
 2165 00c6 84F83C00 		strb	r0, [r4, #60]
 2166 00ca 42F44072 		orr	r2, r2, #768
 2167 00ce 5A60     		str	r2, [r3, #4]
 2168 00d0 5A68     		ldr	r2, [r3, #4]
 2169 00d2 42F40062 		orr	r2, r2, #2048
 2170 00d6 5A60     		str	r2, [r3, #4]
 2171 00d8 1AE0     		b	.L338
 2172              	.L344:
 2173 00da 2023     		movs	r3, #32
 2174 00dc 84F83D30 		strb	r3, [r4, #61]
 2175 00e0 84F83E60 		strb	r6, [r4, #62]
 2176 00e4 236C     		ldr	r3, [r4, #64]
 2177 00e6 84F83C60 		strb	r6, [r4, #60]
 2178 00ea 43F01003 		orr	r3, r3, #16
 2179 00ee 2364     		str	r3, [r4, #64]
 2180              	.L349:
 2181 00f0 0120     		movs	r0, #1
 2182 00f2 0DE0     		b	.L338
 2183              	.L343:
 2184 00f4 2A68     		ldr	r2, [r5]
 2185 00f6 42F48062 		orr	r2, r2, #1024
 2186 00fa 2A60     		str	r2, [r5]
 2187 00fc 2A68     		ldr	r2, [r5]
 2188 00fe 42F48072 		orr	r2, r2, #256
 2189 0102 2A60     		str	r2, [r5]
 2190 0104 6A68     		ldr	r2, [r5, #4]
 2191 0106 84F83C00 		strb	r0, [r4, #60]
 2192 010a 42F4E062 		orr	r2, r2, #1792
 2193 010e 6A60     		str	r2, [r5, #4]
 2194              	.L338:
 2195 0110 02B0     		add	sp, sp, #8
 2196              		@ sp needed
 2197 0112 70BD     		pop	{r4, r5, r6, pc}
 2198              	.L351:
 2199              		.align	2
 2200              	.L350:
 2201 0114 00000000 		.word	SystemCoreClock
 2202 0118 0000FFFF 		.word	-65536
 2203 011c 00000000 		.word	I2C_DMAXferCplt
 2204 0120 00000000 		.word	I2C_DMAError
 2206              		.section	.text.HAL_I2C_Slave_Transmit_DMA,"ax",%progbits
 2207              		.align	1
 2208              		.global	HAL_I2C_Slave_Transmit_DMA
 2209              		.thumb
 2210              		.thumb_func
ARM GAS  /tmp/ccCGIf4Q.s 			page 39


 2212              	HAL_I2C_Slave_Transmit_DMA:
 2213              		@ args = 0, pretend = 0, frame = 0
 2214              		@ frame_needed = 0, uses_anonymous_args = 0
 2215 0000 F8B5     		push	{r3, r4, r5, r6, r7, lr}
 2216 0002 90F83D30 		ldrb	r3, [r0, #61]	@ zero_extendqisi2
 2217 0006 0446     		mov	r4, r0
 2218 0008 202B     		cmp	r3, #32
 2219 000a 1746     		mov	r7, r2
 2220 000c 4DD1     		bne	.L359
 2221 000e 0029     		cmp	r1, #0
 2222 0010 49D0     		beq	.L358
 2223 0012 002A     		cmp	r2, #0
 2224 0014 47D0     		beq	.L358
 2225 0016 90F83C30 		ldrb	r3, [r0, #60]	@ zero_extendqisi2
 2226 001a 012B     		cmp	r3, #1
 2227 001c 45D0     		beq	.L359
 2228 001e 0123     		movs	r3, #1
 2229 0020 80F83C30 		strb	r3, [r0, #60]
 2230 0024 0368     		ldr	r3, [r0]
 2231 0026 0025     		movs	r5, #0
 2232 0028 1A68     		ldr	r2, [r3]
 2233 002a 2026     		movs	r6, #32
 2234 002c D207     		lsls	r2, r2, #31
 2235 002e 1A46     		mov	r2, r3
 2236 0030 5EBF     		ittt	pl
 2237 0032 1868     		ldrpl	r0, [r3]
 2238 0034 40F00100 		orrpl	r0, r0, #1
 2239 0038 1860     		strpl	r0, [r3]
 2240 003a 1868     		ldr	r0, [r3]
 2241 003c 2123     		movs	r3, #33
 2242 003e 20F40060 		bic	r0, r0, #2048
 2243 0042 42F8100B 		str	r0, [r2], #16
 2244 0046 84F83D30 		strb	r3, [r4, #61]
 2245 004a 1948     		ldr	r0, .L360
 2246 004c 84F83E60 		strb	r6, [r4, #62]
 2247 0050 2564     		str	r5, [r4, #64]
 2248 0052 6785     		strh	r7, [r4, #42]	@ movhi
 2249 0054 638D     		ldrh	r3, [r4, #42]
 2250 0056 174F     		ldr	r7, .L360+4
 2251 0058 E062     		str	r0, [r4, #44]
 2252 005a 606B     		ldr	r0, [r4, #52]
 2253 005c 9BB2     		uxth	r3, r3
 2254 005e 6162     		str	r1, [r4, #36]
 2255 0060 2385     		strh	r3, [r4, #40]	@ movhi
 2256 0062 8762     		str	r7, [r0, #40]
 2257 0064 144F     		ldr	r7, .L360+8
 2258 0066 C562     		str	r5, [r0, #44]
 2259 0068 0763     		str	r7, [r0, #48]
 2260 006a 4563     		str	r5, [r0, #52]
 2261 006c FFF7FEFF 		bl	HAL_DMA_Start_IT
 2262 0070 78B9     		cbnz	r0, .L355
 2263 0072 2368     		ldr	r3, [r4]
 2264 0074 1A68     		ldr	r2, [r3]
 2265 0076 42F48062 		orr	r2, r2, #1024
 2266 007a 1A60     		str	r2, [r3]
 2267 007c 5A68     		ldr	r2, [r3, #4]
 2268 007e 84F83C00 		strb	r0, [r4, #60]
ARM GAS  /tmp/ccCGIf4Q.s 			page 40


 2269 0082 42F44072 		orr	r2, r2, #768
 2270 0086 5A60     		str	r2, [r3, #4]
 2271 0088 5A68     		ldr	r2, [r3, #4]
 2272 008a 42F40062 		orr	r2, r2, #2048
 2273 008e 5A60     		str	r2, [r3, #4]
 2274 0090 F8BD     		pop	{r3, r4, r5, r6, r7, pc}
 2275              	.L355:
 2276 0092 84F83D60 		strb	r6, [r4, #61]
 2277 0096 84F83E50 		strb	r5, [r4, #62]
 2278 009a 236C     		ldr	r3, [r4, #64]
 2279 009c 84F83C50 		strb	r5, [r4, #60]
 2280 00a0 43F01003 		orr	r3, r3, #16
 2281 00a4 2364     		str	r3, [r4, #64]
 2282              	.L358:
 2283 00a6 0120     		movs	r0, #1
 2284 00a8 F8BD     		pop	{r3, r4, r5, r6, r7, pc}
 2285              	.L359:
 2286 00aa 0220     		movs	r0, #2
 2287 00ac F8BD     		pop	{r3, r4, r5, r6, r7, pc}
 2288              	.L361:
 2289 00ae 00BF     		.align	2
 2290              	.L360:
 2291 00b0 0000FFFF 		.word	-65536
 2292 00b4 00000000 		.word	I2C_DMAXferCplt
 2293 00b8 00000000 		.word	I2C_DMAError
 2295              		.section	.text.HAL_I2C_Slave_Receive_DMA,"ax",%progbits
 2296              		.align	1
 2297              		.global	HAL_I2C_Slave_Receive_DMA
 2298              		.thumb
 2299              		.thumb_func
 2301              	HAL_I2C_Slave_Receive_DMA:
 2302              		@ args = 0, pretend = 0, frame = 0
 2303              		@ frame_needed = 0, uses_anonymous_args = 0
 2304 0000 F8B5     		push	{r3, r4, r5, r6, r7, lr}
 2305 0002 90F83D30 		ldrb	r3, [r0, #61]	@ zero_extendqisi2
 2306 0006 0446     		mov	r4, r0
 2307 0008 202B     		cmp	r3, #32
 2308 000a 0E46     		mov	r6, r1
 2309 000c 4FD1     		bne	.L369
 2310 000e 0029     		cmp	r1, #0
 2311 0010 4BD0     		beq	.L368
 2312 0012 002A     		cmp	r2, #0
 2313 0014 49D0     		beq	.L368
 2314 0016 90F83C30 		ldrb	r3, [r0, #60]	@ zero_extendqisi2
 2315 001a 012B     		cmp	r3, #1
 2316 001c 47D0     		beq	.L369
 2317 001e 0168     		ldr	r1, [r0]
 2318 0020 0123     		movs	r3, #1
 2319 0022 80F83C30 		strb	r3, [r0, #60]
 2320 0026 0B68     		ldr	r3, [r1]
 2321 0028 0025     		movs	r5, #0
 2322 002a DB07     		lsls	r3, r3, #31
 2323 002c 58BF     		it	pl
 2324 002e 0B68     		ldrpl	r3, [r1]
 2325 0030 4FF02007 		mov	r7, #32
 2326 0034 5CBF     		itt	pl
 2327 0036 43F00103 		orrpl	r3, r3, #1
ARM GAS  /tmp/ccCGIf4Q.s 			page 41


 2328 003a 0B60     		strpl	r3, [r1]
 2329 003c 0B68     		ldr	r3, [r1]
 2330 003e 23F40063 		bic	r3, r3, #2048
 2331 0042 41F8103B 		str	r3, [r1], #16
 2332 0046 2223     		movs	r3, #34
 2333 0048 80F83D30 		strb	r3, [r0, #61]
 2334 004c 80F83E70 		strb	r7, [r0, #62]
 2335 0050 0564     		str	r5, [r0, #64]
 2336 0052 4285     		strh	r2, [r0, #42]	@ movhi
 2337 0054 438D     		ldrh	r3, [r0, #42]
 2338 0056 174A     		ldr	r2, .L370
 2339 0058 9BB2     		uxth	r3, r3
 2340 005a C262     		str	r2, [r0, #44]
 2341 005c 0385     		strh	r3, [r0, #40]	@ movhi
 2342 005e 164A     		ldr	r2, .L370+4
 2343 0060 4662     		str	r6, [r0, #36]
 2344 0062 806B     		ldr	r0, [r0, #56]
 2345 0064 8262     		str	r2, [r0, #40]
 2346 0066 154A     		ldr	r2, .L370+8
 2347 0068 C562     		str	r5, [r0, #44]
 2348 006a 0263     		str	r2, [r0, #48]
 2349 006c 4563     		str	r5, [r0, #52]
 2350 006e 3246     		mov	r2, r6
 2351 0070 FFF7FEFF 		bl	HAL_DMA_Start_IT
 2352 0074 78B9     		cbnz	r0, .L365
 2353 0076 2368     		ldr	r3, [r4]
 2354 0078 1A68     		ldr	r2, [r3]
 2355 007a 42F48062 		orr	r2, r2, #1024
 2356 007e 1A60     		str	r2, [r3]
 2357 0080 5A68     		ldr	r2, [r3, #4]
 2358 0082 84F83C00 		strb	r0, [r4, #60]
 2359 0086 42F44072 		orr	r2, r2, #768
 2360 008a 5A60     		str	r2, [r3, #4]
 2361 008c 5A68     		ldr	r2, [r3, #4]
 2362 008e 42F40062 		orr	r2, r2, #2048
 2363 0092 5A60     		str	r2, [r3, #4]
 2364 0094 F8BD     		pop	{r3, r4, r5, r6, r7, pc}
 2365              	.L365:
 2366 0096 84F83D70 		strb	r7, [r4, #61]
 2367 009a 84F83E50 		strb	r5, [r4, #62]
 2368 009e 236C     		ldr	r3, [r4, #64]
 2369 00a0 84F83C50 		strb	r5, [r4, #60]
 2370 00a4 43F01003 		orr	r3, r3, #16
 2371 00a8 2364     		str	r3, [r4, #64]
 2372              	.L368:
 2373 00aa 0120     		movs	r0, #1
 2374 00ac F8BD     		pop	{r3, r4, r5, r6, r7, pc}
 2375              	.L369:
 2376 00ae 0220     		movs	r0, #2
 2377 00b0 F8BD     		pop	{r3, r4, r5, r6, r7, pc}
 2378              	.L371:
 2379 00b2 00BF     		.align	2
 2380              	.L370:
 2381 00b4 0000FFFF 		.word	-65536
 2382 00b8 00000000 		.word	I2C_DMAXferCplt
 2383 00bc 00000000 		.word	I2C_DMAError
 2385              		.section	.text.HAL_I2C_Mem_Write,"ax",%progbits
ARM GAS  /tmp/ccCGIf4Q.s 			page 42


 2386              		.align	1
 2387              		.global	HAL_I2C_Mem_Write
 2388              		.thumb
 2389              		.thumb_func
 2391              	HAL_I2C_Mem_Write:
 2392              		@ args = 12, pretend = 0, frame = 0
 2393              		@ frame_needed = 0, uses_anonymous_args = 0
 2394 0000 2DE9F743 		push	{r0, r1, r2, r4, r5, r6, r7, r8, r9, lr}
 2395 0004 0446     		mov	r4, r0
 2396 0006 1F46     		mov	r7, r3
 2397 0008 8946     		mov	r9, r1
 2398 000a 9046     		mov	r8, r2
 2399 000c 0C9E     		ldr	r6, [sp, #48]
 2400 000e FFF7FEFF 		bl	HAL_GetTick
 2401 0012 94F83D30 		ldrb	r3, [r4, #61]	@ zero_extendqisi2
 2402 0016 0546     		mov	r5, r0
 2403 0018 202B     		cmp	r3, #32
 2404 001a 01D0     		beq	.L373
 2405              	.L375:
 2406 001c 0220     		movs	r0, #2
 2407 001e 77E0     		b	.L374
 2408              	.L373:
 2409 0020 0090     		str	r0, [sp]
 2410 0022 3D49     		ldr	r1, .L399
 2411 0024 2046     		mov	r0, r4
 2412 0026 0122     		movs	r2, #1
 2413 0028 1923     		movs	r3, #25
 2414 002a FFF7FEFF 		bl	I2C_WaitOnFlagUntilTimeout
 2415 002e 0028     		cmp	r0, #0
 2416 0030 F4D1     		bne	.L375
 2417 0032 94F83C30 		ldrb	r3, [r4, #60]	@ zero_extendqisi2
 2418 0036 012B     		cmp	r3, #1
 2419 0038 F0D0     		beq	.L375
 2420 003a 0123     		movs	r3, #1
 2421 003c 84F83C30 		strb	r3, [r4, #60]
 2422 0040 2368     		ldr	r3, [r4]
 2423 0042 2046     		mov	r0, r4
 2424 0044 1A68     		ldr	r2, [r3]
 2425 0046 D107     		lsls	r1, r2, #31
 2426 0048 58BF     		it	pl
 2427 004a 1A68     		ldrpl	r2, [r3]
 2428 004c 4946     		mov	r1, r9
 2429 004e 5CBF     		itt	pl
 2430 0050 42F00102 		orrpl	r2, r2, #1
 2431 0054 1A60     		strpl	r2, [r3]
 2432 0056 1A68     		ldr	r2, [r3]
 2433 0058 22F40062 		bic	r2, r2, #2048
 2434 005c 1A60     		str	r2, [r3]
 2435 005e 2123     		movs	r3, #33
 2436 0060 84F83D30 		strb	r3, [r4, #61]
 2437 0064 4023     		movs	r3, #64
 2438 0066 84F83E30 		strb	r3, [r4, #62]
 2439 006a 0023     		movs	r3, #0
 2440 006c 2364     		str	r3, [r4, #64]
 2441 006e 0A9B     		ldr	r3, [sp, #40]
 2442 0070 0096     		str	r6, [sp]
 2443 0072 6362     		str	r3, [r4, #36]
ARM GAS  /tmp/ccCGIf4Q.s 			page 43


 2444 0074 BDF82C30 		ldrh	r3, [sp, #44]
 2445 0078 0195     		str	r5, [sp, #4]
 2446 007a 6385     		strh	r3, [r4, #42]	@ movhi
 2447 007c 638D     		ldrh	r3, [r4, #42]
 2448 007e 4246     		mov	r2, r8
 2449 0080 2385     		strh	r3, [r4, #40]	@ movhi
 2450 0082 264B     		ldr	r3, .L399+4
 2451 0084 E362     		str	r3, [r4, #44]
 2452 0086 3B46     		mov	r3, r7
 2453 0088 FFF7FEFF 		bl	I2C_RequestMemoryWrite
 2454 008c 0028     		cmp	r0, #0
 2455 008e 31D1     		bne	.L395
 2456              	.L377:
 2457 0090 238D     		ldrh	r3, [r4, #40]
 2458 0092 2046     		mov	r0, r4
 2459 0094 3146     		mov	r1, r6
 2460 0096 2A46     		mov	r2, r5
 2461 0098 0BB3     		cbz	r3, .L398
 2462 009a FFF7FEFF 		bl	I2C_WaitOnTXEFlagUntilTimeout
 2463 009e 08BB     		cbnz	r0, .L397
 2464 00a0 636A     		ldr	r3, [r4, #36]
 2465 00a2 2768     		ldr	r7, [r4]
 2466 00a4 1A46     		mov	r2, r3
 2467 00a6 12F8011B 		ldrb	r1, [r2], #1	@ zero_extendqisi2
 2468 00aa 3961     		str	r1, [r7, #16]
 2469 00ac 6262     		str	r2, [r4, #36]
 2470 00ae 628D     		ldrh	r2, [r4, #42]
 2471 00b0 218D     		ldrh	r1, [r4, #40]
 2472 00b2 013A     		subs	r2, r2, #1
 2473 00b4 92B2     		uxth	r2, r2
 2474 00b6 6285     		strh	r2, [r4, #42]	@ movhi
 2475 00b8 7A69     		ldr	r2, [r7, #20]
 2476 00ba 481E     		subs	r0, r1, #1
 2477 00bc 80B2     		uxth	r0, r0
 2478 00be 5207     		lsls	r2, r2, #29
 2479 00c0 2085     		strh	r0, [r4, #40]	@ movhi
 2480 00c2 E5D5     		bpl	.L377
 2481 00c4 0028     		cmp	r0, #0
 2482 00c6 E3D0     		beq	.L377
 2483 00c8 5A78     		ldrb	r2, [r3, #1]	@ zero_extendqisi2
 2484 00ca 0233     		adds	r3, r3, #2
 2485 00cc 3A61     		str	r2, [r7, #16]
 2486 00ce 6362     		str	r3, [r4, #36]
 2487 00d0 638D     		ldrh	r3, [r4, #42]
 2488 00d2 0239     		subs	r1, r1, #2
 2489 00d4 013B     		subs	r3, r3, #1
 2490 00d6 9BB2     		uxth	r3, r3
 2491 00d8 2185     		strh	r1, [r4, #40]	@ movhi
 2492 00da 6385     		strh	r3, [r4, #42]	@ movhi
 2493 00dc D8E7     		b	.L377
 2494              	.L398:
 2495 00de FFF7FEFF 		bl	I2C_WaitOnBTFFlagUntilTimeout
 2496 00e2 48B1     		cbz	r0, .L382
 2497              	.L397:
 2498 00e4 236C     		ldr	r3, [r4, #64]
 2499 00e6 042B     		cmp	r3, #4
 2500 00e8 01BF     		itttt	eq
ARM GAS  /tmp/ccCGIf4Q.s 			page 44


 2501 00ea 2268     		ldreq	r2, [r4]
 2502 00ec 1368     		ldreq	r3, [r2]
 2503 00ee 43F40073 		orreq	r3, r3, #512
 2504 00f2 1360     		streq	r3, [r2]
 2505              	.L395:
 2506 00f4 0120     		movs	r0, #1
 2507 00f6 0BE0     		b	.L374
 2508              	.L382:
 2509 00f8 2268     		ldr	r2, [r4]
 2510 00fa 1368     		ldr	r3, [r2]
 2511 00fc 43F40073 		orr	r3, r3, #512
 2512 0100 1360     		str	r3, [r2]
 2513 0102 2023     		movs	r3, #32
 2514 0104 84F83D30 		strb	r3, [r4, #61]
 2515 0108 84F83C00 		strb	r0, [r4, #60]
 2516 010c 84F83E00 		strb	r0, [r4, #62]
 2517              	.L374:
 2518 0110 03B0     		add	sp, sp, #12
 2519              		@ sp needed
 2520 0112 BDE8F083 		pop	{r4, r5, r6, r7, r8, r9, pc}
 2521              	.L400:
 2522 0116 00BF     		.align	2
 2523              	.L399:
 2524 0118 02001000 		.word	1048578
 2525 011c 0000FFFF 		.word	-65536
 2527              		.section	.text.HAL_I2C_Mem_Read,"ax",%progbits
 2528              		.align	1
 2529              		.global	HAL_I2C_Mem_Read
 2530              		.thumb
 2531              		.thumb_func
 2533              	HAL_I2C_Mem_Read:
 2534              		@ args = 12, pretend = 0, frame = 16
 2535              		@ frame_needed = 0, uses_anonymous_args = 0
 2536 0000 2DE9F043 		push	{r4, r5, r6, r7, r8, r9, lr}
 2537 0004 0446     		mov	r4, r0
 2538 0006 87B0     		sub	sp, sp, #28
 2539 0008 1D46     		mov	r5, r3
 2540 000a 8946     		mov	r9, r1
 2541 000c 9046     		mov	r8, r2
 2542 000e 109F     		ldr	r7, [sp, #64]
 2543 0010 FFF7FEFF 		bl	HAL_GetTick
 2544 0014 94F83D30 		ldrb	r3, [r4, #61]	@ zero_extendqisi2
 2545 0018 0646     		mov	r6, r0
 2546 001a 202B     		cmp	r3, #32
 2547 001c 01D0     		beq	.L402
 2548              	.L404:
 2549 001e 0225     		movs	r5, #2
 2550 0020 FCE0     		b	.L403
 2551              	.L402:
 2552 0022 0090     		str	r0, [sp]
 2553 0024 7F49     		ldr	r1, .L429
 2554 0026 2046     		mov	r0, r4
 2555 0028 0122     		movs	r2, #1
 2556 002a 1923     		movs	r3, #25
 2557 002c FFF7FEFF 		bl	I2C_WaitOnFlagUntilTimeout
 2558 0030 0028     		cmp	r0, #0
 2559 0032 F4D1     		bne	.L404
ARM GAS  /tmp/ccCGIf4Q.s 			page 45


 2560 0034 94F83C30 		ldrb	r3, [r4, #60]	@ zero_extendqisi2
 2561 0038 012B     		cmp	r3, #1
 2562 003a F0D0     		beq	.L404
 2563 003c 0123     		movs	r3, #1
 2564 003e 84F83C30 		strb	r3, [r4, #60]
 2565 0042 2368     		ldr	r3, [r4]
 2566 0044 4946     		mov	r1, r9
 2567 0046 1A68     		ldr	r2, [r3]
 2568 0048 D007     		lsls	r0, r2, #31
 2569 004a 58BF     		it	pl
 2570 004c 1A68     		ldrpl	r2, [r3]
 2571 004e 2046     		mov	r0, r4
 2572 0050 5CBF     		itt	pl
 2573 0052 42F00102 		orrpl	r2, r2, #1
 2574 0056 1A60     		strpl	r2, [r3]
 2575 0058 1A68     		ldr	r2, [r3]
 2576 005a 22F40062 		bic	r2, r2, #2048
 2577 005e 1A60     		str	r2, [r3]
 2578 0060 2223     		movs	r3, #34
 2579 0062 84F83D30 		strb	r3, [r4, #61]
 2580 0066 4023     		movs	r3, #64
 2581 0068 84F83E30 		strb	r3, [r4, #62]
 2582 006c 0023     		movs	r3, #0
 2583 006e 2364     		str	r3, [r4, #64]
 2584 0070 0E9B     		ldr	r3, [sp, #56]
 2585 0072 0097     		str	r7, [sp]
 2586 0074 6362     		str	r3, [r4, #36]
 2587 0076 BDF83C30 		ldrh	r3, [sp, #60]
 2588 007a 0196     		str	r6, [sp, #4]
 2589 007c 6385     		strh	r3, [r4, #42]	@ movhi
 2590 007e 638D     		ldrh	r3, [r4, #42]
 2591 0080 4246     		mov	r2, r8
 2592 0082 2385     		strh	r3, [r4, #40]	@ movhi
 2593 0084 684B     		ldr	r3, .L429+4
 2594 0086 E362     		str	r3, [r4, #44]
 2595 0088 2B46     		mov	r3, r5
 2596 008a FFF7FEFF 		bl	I2C_RequestMemoryRead
 2597 008e 0546     		mov	r5, r0
 2598 0090 08B1     		cbz	r0, .L406
 2599              	.L414:
 2600 0092 0125     		movs	r5, #1
 2601 0094 C2E0     		b	.L403
 2602              	.L406:
 2603 0096 228D     		ldrh	r2, [r4, #40]
 2604 0098 2368     		ldr	r3, [r4]
 2605 009a 52B9     		cbnz	r2, .L407
 2606 009c 0290     		str	r0, [sp, #8]
 2607 009e 5A69     		ldr	r2, [r3, #20]
 2608 00a0 0292     		str	r2, [sp, #8]
 2609 00a2 9A69     		ldr	r2, [r3, #24]
 2610 00a4 0292     		str	r2, [sp, #8]
 2611 00a6 029A     		ldr	r2, [sp, #8]
 2612 00a8 1A68     		ldr	r2, [r3]
 2613 00aa 42F40072 		orr	r2, r2, #512
 2614 00ae 1A60     		str	r2, [r3]
 2615 00b0 48E0     		b	.L411
 2616              	.L407:
ARM GAS  /tmp/ccCGIf4Q.s 			page 46


 2617 00b2 012A     		cmp	r2, #1
 2618 00b4 0FD1     		bne	.L409
 2619 00b6 1A68     		ldr	r2, [r3]
 2620 00b8 22F48062 		bic	r2, r2, #1024
 2621 00bc 1A60     		str	r2, [r3]
 2622              	@ 142 "../cmsiscore/inc/cmsis_gcc.h" 1
 2623 00be 72B6     		cpsid i
 2624              	@ 0 "" 2
 2625              		.thumb
 2626 00c0 2368     		ldr	r3, [r4]
 2627 00c2 0390     		str	r0, [sp, #12]
 2628 00c4 5A69     		ldr	r2, [r3, #20]
 2629 00c6 0392     		str	r2, [sp, #12]
 2630 00c8 9A69     		ldr	r2, [r3, #24]
 2631 00ca 0392     		str	r2, [sp, #12]
 2632 00cc 039A     		ldr	r2, [sp, #12]
 2633 00ce 1A68     		ldr	r2, [r3]
 2634 00d0 42F40072 		orr	r2, r2, #512
 2635 00d4 10E0     		b	.L424
 2636              	.L409:
 2637 00d6 022A     		cmp	r2, #2
 2638 00d8 1A68     		ldr	r2, [r3]
 2639 00da 10D1     		bne	.L410
 2640 00dc 42F40062 		orr	r2, r2, #2048
 2641 00e0 1A60     		str	r2, [r3]
 2642              	@ 142 "../cmsiscore/inc/cmsis_gcc.h" 1
 2643 00e2 72B6     		cpsid i
 2644              	@ 0 "" 2
 2645              		.thumb
 2646 00e4 2368     		ldr	r3, [r4]
 2647 00e6 0490     		str	r0, [sp, #16]
 2648 00e8 5A69     		ldr	r2, [r3, #20]
 2649 00ea 0492     		str	r2, [sp, #16]
 2650 00ec 9A69     		ldr	r2, [r3, #24]
 2651 00ee 0492     		str	r2, [sp, #16]
 2652 00f0 049A     		ldr	r2, [sp, #16]
 2653 00f2 1A68     		ldr	r2, [r3]
 2654 00f4 22F48062 		bic	r2, r2, #1024
 2655              	.L424:
 2656 00f8 1A60     		str	r2, [r3]
 2657              	@ 131 "../cmsiscore/inc/cmsis_gcc.h" 1
 2658 00fa 62B6     		cpsie i
 2659              	@ 0 "" 2
 2660              		.thumb
 2661 00fc 22E0     		b	.L411
 2662              	.L410:
 2663 00fe 42F48062 		orr	r2, r2, #1024
 2664 0102 1A60     		str	r2, [r3]
 2665 0104 0590     		str	r0, [sp, #20]
 2666 0106 5A69     		ldr	r2, [r3, #20]
 2667 0108 0592     		str	r2, [sp, #20]
 2668 010a 9B69     		ldr	r3, [r3, #24]
 2669 010c 0593     		str	r3, [sp, #20]
 2670 010e 059B     		ldr	r3, [sp, #20]
 2671 0110 18E0     		b	.L411
 2672              	.L417:
 2673 0112 032B     		cmp	r3, #3
ARM GAS  /tmp/ccCGIf4Q.s 			page 47


 2674 0114 5ED8     		bhi	.L412
 2675 0116 012B     		cmp	r3, #1
 2676 0118 18D1     		bne	.L413
 2677 011a 2046     		mov	r0, r4
 2678 011c 3946     		mov	r1, r7
 2679 011e 3246     		mov	r2, r6
 2680 0120 FFF7FEFF 		bl	I2C_WaitOnRXNEFlagUntilTimeout
 2681 0124 0028     		cmp	r0, #0
 2682 0126 B4D1     		bne	.L414
 2683              	.L427:
 2684 0128 2268     		ldr	r2, [r4]
 2685 012a 636A     		ldr	r3, [r4, #36]
 2686 012c 1269     		ldr	r2, [r2, #16]
 2687 012e 1A70     		strb	r2, [r3]
 2688              	.L425:
 2689 0130 636A     		ldr	r3, [r4, #36]
 2690 0132 0133     		adds	r3, r3, #1
 2691 0134 6362     		str	r3, [r4, #36]
 2692 0136 238D     		ldrh	r3, [r4, #40]
 2693 0138 013B     		subs	r3, r3, #1
 2694 013a 2385     		strh	r3, [r4, #40]	@ movhi
 2695 013c 638D     		ldrh	r3, [r4, #42]
 2696 013e 013B     		subs	r3, r3, #1
 2697 0140 9BB2     		uxth	r3, r3
 2698 0142 6385     		strh	r3, [r4, #42]	@ movhi
 2699              	.L411:
 2700 0144 238D     		ldrh	r3, [r4, #40]
 2701 0146 002B     		cmp	r3, #0
 2702 0148 E3D1     		bne	.L417
 2703 014a 60E0     		b	.L428
 2704              	.L413:
 2705 014c 022B     		cmp	r3, #2
 2706 014e 0096     		str	r6, [sp]
 2707 0150 2046     		mov	r0, r4
 2708 0152 3649     		ldr	r1, .L429+8
 2709 0154 4FF00002 		mov	r2, #0
 2710 0158 3B46     		mov	r3, r7
 2711 015a 05D1     		bne	.L416
 2712 015c FFF7FEFF 		bl	I2C_WaitOnFlagUntilTimeout
 2713 0160 0028     		cmp	r0, #0
 2714 0162 96D1     		bne	.L414
 2715              	@ 142 "../cmsiscore/inc/cmsis_gcc.h" 1
 2716 0164 72B6     		cpsid i
 2717              	@ 0 "" 2
 2718              		.thumb
 2719 0166 21E0     		b	.L426
 2720              	.L416:
 2721 0168 FFF7FEFF 		bl	I2C_WaitOnFlagUntilTimeout
 2722 016c 0246     		mov	r2, r0
 2723 016e 0028     		cmp	r0, #0
 2724 0170 8FD1     		bne	.L414
 2725 0172 2168     		ldr	r1, [r4]
 2726 0174 0B68     		ldr	r3, [r1]
 2727 0176 23F48063 		bic	r3, r3, #1024
 2728 017a 0B60     		str	r3, [r1]
 2729              	@ 142 "../cmsiscore/inc/cmsis_gcc.h" 1
 2730 017c 72B6     		cpsid i
ARM GAS  /tmp/ccCGIf4Q.s 			page 48


 2731              	@ 0 "" 2
 2732              		.thumb
 2733 017e 2168     		ldr	r1, [r4]
 2734 0180 636A     		ldr	r3, [r4, #36]
 2735 0182 0969     		ldr	r1, [r1, #16]
 2736 0184 2046     		mov	r0, r4
 2737 0186 1970     		strb	r1, [r3]
 2738 0188 636A     		ldr	r3, [r4, #36]
 2739 018a 0096     		str	r6, [sp]
 2740 018c 0133     		adds	r3, r3, #1
 2741 018e 6362     		str	r3, [r4, #36]
 2742 0190 238D     		ldrh	r3, [r4, #40]
 2743 0192 2649     		ldr	r1, .L429+8
 2744 0194 013B     		subs	r3, r3, #1
 2745 0196 2385     		strh	r3, [r4, #40]	@ movhi
 2746 0198 638D     		ldrh	r3, [r4, #42]
 2747 019a 013B     		subs	r3, r3, #1
 2748 019c 9BB2     		uxth	r3, r3
 2749 019e 6385     		strh	r3, [r4, #42]	@ movhi
 2750 01a0 3B46     		mov	r3, r7
 2751 01a2 FFF7FEFF 		bl	I2C_WaitOnFlagUntilTimeout
 2752 01a6 0028     		cmp	r0, #0
 2753 01a8 7FF473AF 		bne	.L414
 2754              	.L426:
 2755 01ac 2368     		ldr	r3, [r4]
 2756 01ae 1A68     		ldr	r2, [r3]
 2757 01b0 42F40072 		orr	r2, r2, #512
 2758 01b4 1A60     		str	r2, [r3]
 2759 01b6 1B69     		ldr	r3, [r3, #16]
 2760 01b8 626A     		ldr	r2, [r4, #36]
 2761 01ba 1370     		strb	r3, [r2]
 2762 01bc 636A     		ldr	r3, [r4, #36]
 2763 01be 0133     		adds	r3, r3, #1
 2764 01c0 6362     		str	r3, [r4, #36]
 2765 01c2 238D     		ldrh	r3, [r4, #40]
 2766 01c4 013B     		subs	r3, r3, #1
 2767 01c6 2385     		strh	r3, [r4, #40]	@ movhi
 2768 01c8 638D     		ldrh	r3, [r4, #42]
 2769 01ca 013B     		subs	r3, r3, #1
 2770 01cc 9BB2     		uxth	r3, r3
 2771 01ce 6385     		strh	r3, [r4, #42]	@ movhi
 2772              	@ 131 "../cmsiscore/inc/cmsis_gcc.h" 1
 2773 01d0 62B6     		cpsie i
 2774              	@ 0 "" 2
 2775              		.thumb
 2776 01d2 A9E7     		b	.L427
 2777              	.L412:
 2778 01d4 2046     		mov	r0, r4
 2779 01d6 3946     		mov	r1, r7
 2780 01d8 3246     		mov	r2, r6
 2781 01da FFF7FEFF 		bl	I2C_WaitOnRXNEFlagUntilTimeout
 2782 01de 0028     		cmp	r0, #0
 2783 01e0 7FF457AF 		bne	.L414
 2784 01e4 2268     		ldr	r2, [r4]
 2785 01e6 636A     		ldr	r3, [r4, #36]
 2786 01e8 1269     		ldr	r2, [r2, #16]
 2787 01ea 1A70     		strb	r2, [r3]
ARM GAS  /tmp/ccCGIf4Q.s 			page 49


 2788 01ec 626A     		ldr	r2, [r4, #36]
 2789 01ee 531C     		adds	r3, r2, #1
 2790 01f0 6362     		str	r3, [r4, #36]
 2791 01f2 238D     		ldrh	r3, [r4, #40]
 2792 01f4 013B     		subs	r3, r3, #1
 2793 01f6 2385     		strh	r3, [r4, #40]	@ movhi
 2794 01f8 638D     		ldrh	r3, [r4, #42]
 2795 01fa 013B     		subs	r3, r3, #1
 2796 01fc 9BB2     		uxth	r3, r3
 2797 01fe 6385     		strh	r3, [r4, #42]	@ movhi
 2798 0200 2368     		ldr	r3, [r4]
 2799 0202 5969     		ldr	r1, [r3, #20]
 2800 0204 4907     		lsls	r1, r1, #29
 2801 0206 9DD5     		bpl	.L411
 2802 0208 1B69     		ldr	r3, [r3, #16]
 2803 020a 5370     		strb	r3, [r2, #1]
 2804 020c 90E7     		b	.L425
 2805              	.L428:
 2806 020e 2022     		movs	r2, #32
 2807 0210 84F83D20 		strb	r2, [r4, #61]
 2808 0214 84F83C30 		strb	r3, [r4, #60]
 2809 0218 84F83E30 		strb	r3, [r4, #62]
 2810              	.L403:
 2811 021c 2846     		mov	r0, r5
 2812 021e 07B0     		add	sp, sp, #28
 2813              		@ sp needed
 2814 0220 BDE8F083 		pop	{r4, r5, r6, r7, r8, r9, pc}
 2815              	.L430:
 2816              		.align	2
 2817              	.L429:
 2818 0224 02001000 		.word	1048578
 2819 0228 0000FFFF 		.word	-65536
 2820 022c 04000100 		.word	65540
 2822              		.section	.text.HAL_I2C_Mem_Write_IT,"ax",%progbits
 2823              		.align	1
 2824              		.global	HAL_I2C_Mem_Write_IT
 2825              		.thumb
 2826              		.thumb_func
 2828              	HAL_I2C_Mem_Write_IT:
 2829              		@ args = 8, pretend = 0, frame = 8
 2830              		@ frame_needed = 0, uses_anonymous_args = 0
 2831 0000 73B5     		push	{r0, r1, r4, r5, r6, lr}
 2832 0002 0024     		movs	r4, #0
 2833 0004 0194     		str	r4, [sp, #4]
 2834 0006 90F83D40 		ldrb	r4, [r0, #61]	@ zero_extendqisi2
 2835 000a 202C     		cmp	r4, #32
 2836 000c 01D0     		beq	.L432
 2837              	.L436:
 2838 000e 0220     		movs	r0, #2
 2839 0010 51E0     		b	.L433
 2840              	.L432:
 2841 0012 46F2A815 		movw	r5, #25000
 2842 0016 294C     		ldr	r4, .L442
 2843 0018 2468     		ldr	r4, [r4]
 2844 001a B4FBF5F5 		udiv	r5, r4, r5
 2845 001e 1924     		movs	r4, #25
 2846 0020 6C43     		muls	r4, r5, r4
ARM GAS  /tmp/ccCGIf4Q.s 			page 50


 2847 0022 0194     		str	r4, [sp, #4]
 2848              	.L435:
 2849 0024 019C     		ldr	r4, [sp, #4]
 2850 0026 013C     		subs	r4, r4, #1
 2851 0028 0194     		str	r4, [sp, #4]
 2852 002a 019C     		ldr	r4, [sp, #4]
 2853 002c 6CB9     		cbnz	r4, .L434
 2854 002e 2023     		movs	r3, #32
 2855 0030 0463     		str	r4, [r0, #48]
 2856 0032 80F83D30 		strb	r3, [r0, #61]
 2857 0036 80F83E40 		strb	r4, [r0, #62]
 2858 003a 036C     		ldr	r3, [r0, #64]
 2859 003c 80F83C40 		strb	r4, [r0, #60]
 2860 0040 43F02003 		orr	r3, r3, #32
 2861 0044 0364     		str	r3, [r0, #64]
 2862 0046 0120     		movs	r0, #1
 2863 0048 35E0     		b	.L433
 2864              	.L434:
 2865 004a 0468     		ldr	r4, [r0]
 2866 004c A569     		ldr	r5, [r4, #24]
 2867 004e AE07     		lsls	r6, r5, #30
 2868 0050 E8D4     		bmi	.L435
 2869 0052 90F83C50 		ldrb	r5, [r0, #60]	@ zero_extendqisi2
 2870 0056 012D     		cmp	r5, #1
 2871 0058 D9D0     		beq	.L436
 2872 005a 0125     		movs	r5, #1
 2873 005c 80F83C50 		strb	r5, [r0, #60]
 2874 0060 2568     		ldr	r5, [r4]
 2875 0062 069E     		ldr	r6, [sp, #24]
 2876 0064 ED07     		lsls	r5, r5, #31
 2877 0066 5EBF     		ittt	pl
 2878 0068 2568     		ldrpl	r5, [r4]
 2879 006a 45F00105 		orrpl	r5, r5, #1
 2880 006e 2560     		strpl	r5, [r4]
 2881 0070 2568     		ldr	r5, [r4]
 2882 0072 25F40065 		bic	r5, r5, #2048
 2883 0076 2560     		str	r5, [r4]
 2884 0078 2125     		movs	r5, #33
 2885 007a 80F83D50 		strb	r5, [r0, #61]
 2886 007e 4662     		str	r6, [r0, #36]
 2887 0080 4025     		movs	r5, #64
 2888 0082 BDF81C60 		ldrh	r6, [sp, #28]
 2889 0086 80F83E50 		strb	r5, [r0, #62]
 2890 008a 0025     		movs	r5, #0
 2891 008c 0564     		str	r5, [r0, #64]
 2892 008e 4685     		strh	r6, [r0, #42]	@ movhi
 2893 0090 468D     		ldrh	r6, [r0, #42]
 2894 0092 0685     		strh	r6, [r0, #40]	@ movhi
 2895 0094 0A4E     		ldr	r6, .L442+4
 2896 0096 C662     		str	r6, [r0, #44]
 2897 0098 4164     		str	r1, [r0, #68]
 2898 009a 8264     		str	r2, [r0, #72]
 2899 009c C364     		str	r3, [r0, #76]
 2900 009e 0565     		str	r5, [r0, #80]
 2901 00a0 2368     		ldr	r3, [r4]
 2902 00a2 43F48073 		orr	r3, r3, #256
 2903 00a6 2360     		str	r3, [r4]
ARM GAS  /tmp/ccCGIf4Q.s 			page 51


 2904 00a8 80F83C50 		strb	r5, [r0, #60]
 2905 00ac 2846     		mov	r0, r5
 2906 00ae 6368     		ldr	r3, [r4, #4]
 2907 00b0 43F4E063 		orr	r3, r3, #1792
 2908 00b4 6360     		str	r3, [r4, #4]
 2909              	.L433:
 2910 00b6 02B0     		add	sp, sp, #8
 2911              		@ sp needed
 2912 00b8 70BD     		pop	{r4, r5, r6, pc}
 2913              	.L443:
 2914 00ba 00BF     		.align	2
 2915              	.L442:
 2916 00bc 00000000 		.word	SystemCoreClock
 2917 00c0 0000FFFF 		.word	-65536
 2919              		.section	.text.HAL_I2C_Mem_Read_IT,"ax",%progbits
 2920              		.align	1
 2921              		.global	HAL_I2C_Mem_Read_IT
 2922              		.thumb
 2923              		.thumb_func
 2925              	HAL_I2C_Mem_Read_IT:
 2926              		@ args = 8, pretend = 0, frame = 8
 2927              		@ frame_needed = 0, uses_anonymous_args = 0
 2928 0000 73B5     		push	{r0, r1, r4, r5, r6, lr}
 2929 0002 0024     		movs	r4, #0
 2930 0004 0194     		str	r4, [sp, #4]
 2931 0006 90F83D40 		ldrb	r4, [r0, #61]	@ zero_extendqisi2
 2932 000a 202C     		cmp	r4, #32
 2933 000c 01D0     		beq	.L445
 2934              	.L449:
 2935 000e 0220     		movs	r0, #2
 2936 0010 59E0     		b	.L446
 2937              	.L445:
 2938 0012 46F2A815 		movw	r5, #25000
 2939 0016 2D4C     		ldr	r4, .L456
 2940 0018 2468     		ldr	r4, [r4]
 2941 001a B4FBF5F5 		udiv	r5, r4, r5
 2942 001e 1924     		movs	r4, #25
 2943 0020 6C43     		muls	r4, r5, r4
 2944 0022 0194     		str	r4, [sp, #4]
 2945              	.L448:
 2946 0024 019C     		ldr	r4, [sp, #4]
 2947 0026 013C     		subs	r4, r4, #1
 2948 0028 0194     		str	r4, [sp, #4]
 2949 002a 019C     		ldr	r4, [sp, #4]
 2950 002c 6CB9     		cbnz	r4, .L447
 2951 002e 2023     		movs	r3, #32
 2952 0030 0463     		str	r4, [r0, #48]
 2953 0032 80F83D30 		strb	r3, [r0, #61]
 2954 0036 80F83E40 		strb	r4, [r0, #62]
 2955 003a 036C     		ldr	r3, [r0, #64]
 2956 003c 80F83C40 		strb	r4, [r0, #60]
 2957 0040 43F02003 		orr	r3, r3, #32
 2958 0044 0364     		str	r3, [r0, #64]
 2959 0046 0120     		movs	r0, #1
 2960 0048 3DE0     		b	.L446
 2961              	.L447:
 2962 004a 0468     		ldr	r4, [r0]
ARM GAS  /tmp/ccCGIf4Q.s 			page 52


 2963 004c A569     		ldr	r5, [r4, #24]
 2964 004e AE07     		lsls	r6, r5, #30
 2965 0050 E8D4     		bmi	.L448
 2966 0052 90F83C50 		ldrb	r5, [r0, #60]	@ zero_extendqisi2
 2967 0056 012D     		cmp	r5, #1
 2968 0058 D9D0     		beq	.L449
 2969 005a 0125     		movs	r5, #1
 2970 005c 80F83C50 		strb	r5, [r0, #60]
 2971 0060 2568     		ldr	r5, [r4]
 2972 0062 069E     		ldr	r6, [sp, #24]
 2973 0064 ED07     		lsls	r5, r5, #31
 2974 0066 5EBF     		ittt	pl
 2975 0068 2568     		ldrpl	r5, [r4]
 2976 006a 45F00105 		orrpl	r5, r5, #1
 2977 006e 2560     		strpl	r5, [r4]
 2978 0070 2568     		ldr	r5, [r4]
 2979 0072 25F40065 		bic	r5, r5, #2048
 2980 0076 2560     		str	r5, [r4]
 2981 0078 2225     		movs	r5, #34
 2982 007a 80F83D50 		strb	r5, [r0, #61]
 2983 007e 4662     		str	r6, [r0, #36]
 2984 0080 4025     		movs	r5, #64
 2985 0082 BDF81C60 		ldrh	r6, [sp, #28]
 2986 0086 80F83E50 		strb	r5, [r0, #62]
 2987 008a 0025     		movs	r5, #0
 2988 008c 0564     		str	r5, [r0, #64]
 2989 008e 4685     		strh	r6, [r0, #42]	@ movhi
 2990 0090 468D     		ldrh	r6, [r0, #42]
 2991 0092 0685     		strh	r6, [r0, #40]	@ movhi
 2992 0094 0E4E     		ldr	r6, .L456+4
 2993 0096 C662     		str	r6, [r0, #44]
 2994 0098 4164     		str	r1, [r0, #68]
 2995 009a 8264     		str	r2, [r0, #72]
 2996 009c C364     		str	r3, [r0, #76]
 2997 009e 0565     		str	r5, [r0, #80]
 2998 00a0 2368     		ldr	r3, [r4]
 2999 00a2 43F48063 		orr	r3, r3, #1024
 3000 00a6 2360     		str	r3, [r4]
 3001 00a8 2368     		ldr	r3, [r4]
 3002 00aa 43F48073 		orr	r3, r3, #256
 3003 00ae 2360     		str	r3, [r4]
 3004 00b0 038D     		ldrh	r3, [r0, #40]
 3005 00b2 80F83C50 		strb	r5, [r0, #60]
 3006 00b6 2BB1     		cbz	r3, .L451
 3007 00b8 6368     		ldr	r3, [r4, #4]
 3008 00ba 2846     		mov	r0, r5
 3009 00bc 43F4E063 		orr	r3, r3, #1792
 3010 00c0 6360     		str	r3, [r4, #4]
 3011 00c2 00E0     		b	.L446
 3012              	.L451:
 3013 00c4 1846     		mov	r0, r3
 3014              	.L446:
 3015 00c6 02B0     		add	sp, sp, #8
 3016              		@ sp needed
 3017 00c8 70BD     		pop	{r4, r5, r6, pc}
 3018              	.L457:
 3019 00ca 00BF     		.align	2
ARM GAS  /tmp/ccCGIf4Q.s 			page 53


 3020              	.L456:
 3021 00cc 00000000 		.word	SystemCoreClock
 3022 00d0 0000FFFF 		.word	-65536
 3024              		.section	.text.HAL_I2C_Mem_Write_DMA,"ax",%progbits
 3025              		.align	1
 3026              		.global	HAL_I2C_Mem_Write_DMA
 3027              		.thumb
 3028              		.thumb_func
 3030              	HAL_I2C_Mem_Write_DMA:
 3031              		@ args = 8, pretend = 0, frame = 8
 3032              		@ frame_needed = 0, uses_anonymous_args = 0
 3033 0000 2DE9FF47 		push	{r0, r1, r2, r3, r4, r5, r6, r7, r8, r9, r10, lr}
 3034 0004 0446     		mov	r4, r0
 3035 0006 1E46     		mov	r6, r3
 3036 0008 0023     		movs	r3, #0
 3037 000a 0293     		str	r3, [sp, #8]
 3038 000c 8846     		mov	r8, r1
 3039 000e 1746     		mov	r7, r2
 3040 0010 0C9D     		ldr	r5, [sp, #48]
 3041 0012 FFF7FEFF 		bl	HAL_GetTick
 3042 0016 94F83D30 		ldrb	r3, [r4, #61]	@ zero_extendqisi2
 3043 001a 8146     		mov	r9, r0
 3044 001c 202B     		cmp	r3, #32
 3045 001e 01D0     		beq	.L459
 3046              	.L463:
 3047 0020 0220     		movs	r0, #2
 3048 0022 85E0     		b	.L460
 3049              	.L459:
 3050 0024 46F2A812 		movw	r2, #25000
 3051 0028 434B     		ldr	r3, .L473
 3052 002a 1B68     		ldr	r3, [r3]
 3053 002c B3FBF2F2 		udiv	r2, r3, r2
 3054 0030 1923     		movs	r3, #25
 3055 0032 5343     		muls	r3, r2, r3
 3056 0034 0293     		str	r3, [sp, #8]
 3057              	.L462:
 3058 0036 029B     		ldr	r3, [sp, #8]
 3059 0038 013B     		subs	r3, r3, #1
 3060 003a 0293     		str	r3, [sp, #8]
 3061 003c 029B     		ldr	r3, [sp, #8]
 3062 003e 4BB9     		cbnz	r3, .L461
 3063 0040 2022     		movs	r2, #32
 3064 0042 2363     		str	r3, [r4, #48]
 3065 0044 84F83D20 		strb	r2, [r4, #61]
 3066 0048 84F83E30 		strb	r3, [r4, #62]
 3067 004c 226C     		ldr	r2, [r4, #64]
 3068 004e 42F02002 		orr	r2, r2, #32
 3069 0052 69E0     		b	.L472
 3070              	.L461:
 3071 0054 2268     		ldr	r2, [r4]
 3072 0056 9369     		ldr	r3, [r2, #24]
 3073 0058 9907     		lsls	r1, r3, #30
 3074 005a ECD4     		bmi	.L462
 3075 005c 94F83C30 		ldrb	r3, [r4, #60]	@ zero_extendqisi2
 3076 0060 012B     		cmp	r3, #1
 3077 0062 DDD0     		beq	.L463
 3078 0064 0123     		movs	r3, #1
ARM GAS  /tmp/ccCGIf4Q.s 			page 54


 3079 0066 84F83C30 		strb	r3, [r4, #60]
 3080 006a 1368     		ldr	r3, [r2]
 3081 006c 4FF0000A 		mov	r10, #0
 3082 0070 DB07     		lsls	r3, r3, #31
 3083 0072 58BF     		it	pl
 3084 0074 1368     		ldrpl	r3, [r2]
 3085 0076 3149     		ldr	r1, .L473+4
 3086 0078 5CBF     		itt	pl
 3087 007a 43F00103 		orrpl	r3, r3, #1
 3088 007e 1360     		strpl	r3, [r2]
 3089 0080 1368     		ldr	r3, [r2]
 3090 0082 23F40063 		bic	r3, r3, #2048
 3091 0086 1360     		str	r3, [r2]
 3092 0088 2123     		movs	r3, #33
 3093 008a 84F83D30 		strb	r3, [r4, #61]
 3094 008e 4023     		movs	r3, #64
 3095 0090 84F83E30 		strb	r3, [r4, #62]
 3096 0094 BDF83430 		ldrh	r3, [sp, #52]
 3097 0098 C4F840A0 		str	r10, [r4, #64]
 3098 009c 6385     		strh	r3, [r4, #42]	@ movhi
 3099 009e 638D     		ldrh	r3, [r4, #42]
 3100 00a0 6562     		str	r5, [r4, #36]
 3101 00a2 9BB2     		uxth	r3, r3
 3102 00a4 2385     		strh	r3, [r4, #40]	@ movhi
 3103 00a6 E162     		str	r1, [r4, #44]
 3104 00a8 002B     		cmp	r3, #0
 3105 00aa 35D0     		beq	.L465
 3106 00ac 606B     		ldr	r0, [r4, #52]
 3107 00ae 2449     		ldr	r1, .L473+8
 3108 00b0 C0F82CA0 		str	r10, [r0, #44]
 3109 00b4 8162     		str	r1, [r0, #40]
 3110 00b6 2349     		ldr	r1, .L473+12
 3111 00b8 C0F834A0 		str	r10, [r0, #52]
 3112 00bc 0163     		str	r1, [r0, #48]
 3113 00be 1032     		adds	r2, r2, #16
 3114 00c0 2946     		mov	r1, r5
 3115 00c2 FFF7FEFF 		bl	HAL_DMA_Start_IT
 3116 00c6 D8B9     		cbnz	r0, .L466
 3117 00c8 2323     		movs	r3, #35
 3118 00ca 8DE80802 		stmia	sp, {r3, r9}
 3119 00ce 2046     		mov	r0, r4
 3120 00d0 4146     		mov	r1, r8
 3121 00d2 3A46     		mov	r2, r7
 3122 00d4 3346     		mov	r3, r6
 3123 00d6 FFF7FEFF 		bl	I2C_RequestMemoryWrite
 3124 00da 40BB     		cbnz	r0, .L467
 3125 00dc 2368     		ldr	r3, [r4]
 3126 00de 0390     		str	r0, [sp, #12]
 3127 00e0 5A69     		ldr	r2, [r3, #20]
 3128 00e2 0392     		str	r2, [sp, #12]
 3129 00e4 9A69     		ldr	r2, [r3, #24]
 3130 00e6 84F83C00 		strb	r0, [r4, #60]
 3131 00ea 0392     		str	r2, [sp, #12]
 3132 00ec 039A     		ldr	r2, [sp, #12]
 3133 00ee 5A68     		ldr	r2, [r3, #4]
 3134 00f0 42F48072 		orr	r2, r2, #256
 3135 00f4 5A60     		str	r2, [r3, #4]
ARM GAS  /tmp/ccCGIf4Q.s 			page 55


 3136 00f6 5A68     		ldr	r2, [r3, #4]
 3137 00f8 42F40062 		orr	r2, r2, #2048
 3138 00fc 5A60     		str	r2, [r3, #4]
 3139 00fe 17E0     		b	.L460
 3140              	.L466:
 3141 0100 2023     		movs	r3, #32
 3142 0102 84F83D30 		strb	r3, [r4, #61]
 3143 0106 84F83EA0 		strb	r10, [r4, #62]
 3144 010a 236C     		ldr	r3, [r4, #64]
 3145 010c 84F83CA0 		strb	r10, [r4, #60]
 3146 0110 43F01003 		orr	r3, r3, #16
 3147 0114 2364     		str	r3, [r4, #64]
 3148 0116 0AE0     		b	.L467
 3149              	.L465:
 3150 0118 2022     		movs	r2, #32
 3151 011a 84F83D20 		strb	r2, [r4, #61]
 3152 011e 84F83E30 		strb	r3, [r4, #62]
 3153 0122 226C     		ldr	r2, [r4, #64]
 3154 0124 42F04002 		orr	r2, r2, #64
 3155              	.L472:
 3156 0128 2264     		str	r2, [r4, #64]
 3157 012a 84F83C30 		strb	r3, [r4, #60]
 3158              	.L467:
 3159 012e 0120     		movs	r0, #1
 3160              	.L460:
 3161 0130 04B0     		add	sp, sp, #16
 3162              		@ sp needed
 3163 0132 BDE8F087 		pop	{r4, r5, r6, r7, r8, r9, r10, pc}
 3164              	.L474:
 3165 0136 00BF     		.align	2
 3166              	.L473:
 3167 0138 00000000 		.word	SystemCoreClock
 3168 013c 0000FFFF 		.word	-65536
 3169 0140 00000000 		.word	I2C_DMAXferCplt
 3170 0144 00000000 		.word	I2C_DMAError
 3172              		.section	.text.HAL_I2C_Mem_Read_DMA,"ax",%progbits
 3173              		.align	1
 3174              		.global	HAL_I2C_Mem_Read_DMA
 3175              		.thumb
 3176              		.thumb_func
 3178              	HAL_I2C_Mem_Read_DMA:
 3179              		@ args = 8, pretend = 0, frame = 16
 3180              		@ frame_needed = 0, uses_anonymous_args = 0
 3181 0000 2DE9F047 		push	{r4, r5, r6, r7, r8, r9, r10, lr}
 3182 0004 0446     		mov	r4, r0
 3183 0006 86B0     		sub	sp, sp, #24
 3184 0008 1E46     		mov	r6, r3
 3185 000a 8846     		mov	r8, r1
 3186 000c 1746     		mov	r7, r2
 3187 000e DDF83890 		ldr	r9, [sp, #56]
 3188 0012 FFF7FEFF 		bl	HAL_GetTick
 3189 0016 0023     		movs	r3, #0
 3190 0018 0393     		str	r3, [sp, #12]
 3191 001a 94F83D30 		ldrb	r3, [r4, #61]	@ zero_extendqisi2
 3192 001e 8246     		mov	r10, r0
 3193 0020 202B     		cmp	r3, #32
 3194 0022 01D0     		beq	.L476
ARM GAS  /tmp/ccCGIf4Q.s 			page 56


 3195              	.L480:
 3196 0024 0220     		movs	r0, #2
 3197 0026 A2E0     		b	.L477
 3198              	.L476:
 3199 0028 46F2A812 		movw	r2, #25000
 3200 002c 514B     		ldr	r3, .L493
 3201 002e 1B68     		ldr	r3, [r3]
 3202 0030 B3FBF2F2 		udiv	r2, r3, r2
 3203 0034 1923     		movs	r3, #25
 3204 0036 5343     		muls	r3, r2, r3
 3205 0038 0393     		str	r3, [sp, #12]
 3206              	.L479:
 3207 003a 039B     		ldr	r3, [sp, #12]
 3208 003c 013B     		subs	r3, r3, #1
 3209 003e 0393     		str	r3, [sp, #12]
 3210 0040 039B     		ldr	r3, [sp, #12]
 3211 0042 63B9     		cbnz	r3, .L478
 3212 0044 2022     		movs	r2, #32
 3213 0046 2363     		str	r3, [r4, #48]
 3214 0048 84F83D20 		strb	r2, [r4, #61]
 3215 004c 84F83E30 		strb	r3, [r4, #62]
 3216 0050 226C     		ldr	r2, [r4, #64]
 3217 0052 84F83C30 		strb	r3, [r4, #60]
 3218 0056 42F02002 		orr	r2, r2, #32
 3219 005a 2264     		str	r2, [r4, #64]
 3220 005c 6AE0     		b	.L492
 3221              	.L478:
 3222 005e 2168     		ldr	r1, [r4]
 3223 0060 8B69     		ldr	r3, [r1, #24]
 3224 0062 9A07     		lsls	r2, r3, #30
 3225 0064 E9D4     		bmi	.L479
 3226 0066 94F83C30 		ldrb	r3, [r4, #60]	@ zero_extendqisi2
 3227 006a 012B     		cmp	r3, #1
 3228 006c DAD0     		beq	.L480
 3229 006e 0123     		movs	r3, #1
 3230 0070 84F83C30 		strb	r3, [r4, #60]
 3231 0074 0B68     		ldr	r3, [r1]
 3232 0076 0025     		movs	r5, #0
 3233 0078 DB07     		lsls	r3, r3, #31
 3234 007a 58BF     		it	pl
 3235 007c 0B68     		ldrpl	r3, [r1]
 3236 007e 3E4A     		ldr	r2, .L493+4
 3237 0080 5CBF     		itt	pl
 3238 0082 43F00103 		orrpl	r3, r3, #1
 3239 0086 0B60     		strpl	r3, [r1]
 3240 0088 0B68     		ldr	r3, [r1]
 3241 008a 23F40063 		bic	r3, r3, #2048
 3242 008e 0B60     		str	r3, [r1]
 3243 0090 2223     		movs	r3, #34
 3244 0092 84F83D30 		strb	r3, [r4, #61]
 3245 0096 4023     		movs	r3, #64
 3246 0098 84F83E30 		strb	r3, [r4, #62]
 3247 009c BDF83C30 		ldrh	r3, [sp, #60]
 3248 00a0 2564     		str	r5, [r4, #64]
 3249 00a2 6385     		strh	r3, [r4, #42]	@ movhi
 3250 00a4 638D     		ldrh	r3, [r4, #42]
 3251 00a6 C4F82490 		str	r9, [r4, #36]
ARM GAS  /tmp/ccCGIf4Q.s 			page 57


 3252 00aa 9BB2     		uxth	r3, r3
 3253 00ac 2385     		strh	r3, [r4, #40]	@ movhi
 3254 00ae E262     		str	r2, [r4, #44]
 3255 00b0 002B     		cmp	r3, #0
 3256 00b2 41D0     		beq	.L482
 3257 00b4 A06B     		ldr	r0, [r4, #56]
 3258 00b6 314A     		ldr	r2, .L493+8
 3259 00b8 C562     		str	r5, [r0, #44]
 3260 00ba 8262     		str	r2, [r0, #40]
 3261 00bc 304A     		ldr	r2, .L493+12
 3262 00be 4563     		str	r5, [r0, #52]
 3263 00c0 0263     		str	r2, [r0, #48]
 3264 00c2 1031     		adds	r1, r1, #16
 3265 00c4 4A46     		mov	r2, r9
 3266 00c6 FFF7FEFF 		bl	HAL_DMA_Start_IT
 3267 00ca 40BB     		cbnz	r0, .L483
 3268 00cc 2323     		movs	r3, #35
 3269 00ce 8DE80804 		stmia	sp, {r3, r10}
 3270 00d2 2046     		mov	r0, r4
 3271 00d4 4146     		mov	r1, r8
 3272 00d6 3A46     		mov	r2, r7
 3273 00d8 3346     		mov	r3, r6
 3274 00da FFF7FEFF 		bl	I2C_RequestMemoryRead
 3275 00de 48BB     		cbnz	r0, .L492
 3276 00e0 238D     		ldrh	r3, [r4, #40]
 3277 00e2 012B     		cmp	r3, #1
 3278 00e4 2368     		ldr	r3, [r4]
 3279 00e6 0BBF     		itete	eq
 3280 00e8 1A68     		ldreq	r2, [r3]
 3281 00ea 5A68     		ldrne	r2, [r3, #4]
 3282 00ec 22F48062 		biceq	r2, r2, #1024
 3283 00f0 42F48052 		orrne	r2, r2, #4096
 3284 00f4 0CBF     		ite	eq
 3285 00f6 1A60     		streq	r2, [r3]
 3286 00f8 5A60     		strne	r2, [r3, #4]
 3287 00fa 0022     		movs	r2, #0
 3288 00fc 0492     		str	r2, [sp, #16]
 3289 00fe 5969     		ldr	r1, [r3, #20]
 3290 0100 0491     		str	r1, [sp, #16]
 3291 0102 9969     		ldr	r1, [r3, #24]
 3292 0104 84F83C20 		strb	r2, [r4, #60]
 3293 0108 0491     		str	r1, [sp, #16]
 3294 010a 0499     		ldr	r1, [sp, #16]
 3295 010c 5A68     		ldr	r2, [r3, #4]
 3296 010e 42F48072 		orr	r2, r2, #256
 3297 0112 5A60     		str	r2, [r3, #4]
 3298 0114 5A68     		ldr	r2, [r3, #4]
 3299 0116 42F40062 		orr	r2, r2, #2048
 3300 011a 5A60     		str	r2, [r3, #4]
 3301 011c 27E0     		b	.L477
 3302              	.L483:
 3303 011e 2023     		movs	r3, #32
 3304 0120 84F83D30 		strb	r3, [r4, #61]
 3305 0124 84F83E50 		strb	r5, [r4, #62]
 3306 0128 236C     		ldr	r3, [r4, #64]
 3307 012a 84F83C50 		strb	r5, [r4, #60]
 3308 012e 43F01003 		orr	r3, r3, #16
ARM GAS  /tmp/ccCGIf4Q.s 			page 58


 3309 0132 2364     		str	r3, [r4, #64]
 3310              	.L492:
 3311 0134 0120     		movs	r0, #1
 3312 0136 1AE0     		b	.L477
 3313              	.L482:
 3314 0138 2323     		movs	r3, #35
 3315 013a 8DE80804 		stmia	sp, {r3, r10}
 3316 013e 2046     		mov	r0, r4
 3317 0140 4146     		mov	r1, r8
 3318 0142 3A46     		mov	r2, r7
 3319 0144 3346     		mov	r3, r6
 3320 0146 FFF7FEFF 		bl	I2C_RequestMemoryRead
 3321 014a 0028     		cmp	r0, #0
 3322 014c F2D1     		bne	.L492
 3323 014e 2368     		ldr	r3, [r4]
 3324 0150 0590     		str	r0, [sp, #20]
 3325 0152 5A69     		ldr	r2, [r3, #20]
 3326 0154 0592     		str	r2, [sp, #20]
 3327 0156 9A69     		ldr	r2, [r3, #24]
 3328 0158 0592     		str	r2, [sp, #20]
 3329 015a 059A     		ldr	r2, [sp, #20]
 3330 015c 1A68     		ldr	r2, [r3]
 3331 015e 42F40072 		orr	r2, r2, #512
 3332 0162 1A60     		str	r2, [r3]
 3333 0164 2023     		movs	r3, #32
 3334 0166 84F83D30 		strb	r3, [r4, #61]
 3335 016a 84F83C00 		strb	r0, [r4, #60]
 3336              	.L477:
 3337 016e 06B0     		add	sp, sp, #24
 3338              		@ sp needed
 3339 0170 BDE8F087 		pop	{r4, r5, r6, r7, r8, r9, r10, pc}
 3340              	.L494:
 3341              		.align	2
 3342              	.L493:
 3343 0174 00000000 		.word	SystemCoreClock
 3344 0178 0000FFFF 		.word	-65536
 3345 017c 00000000 		.word	I2C_DMAXferCplt
 3346 0180 00000000 		.word	I2C_DMAError
 3348              		.section	.text.HAL_I2C_IsDeviceReady,"ax",%progbits
 3349              		.align	1
 3350              		.global	HAL_I2C_IsDeviceReady
 3351              		.thumb
 3352              		.thumb_func
 3354              	HAL_I2C_IsDeviceReady:
 3355              		@ args = 0, pretend = 0, frame = 8
 3356              		@ frame_needed = 0, uses_anonymous_args = 0
 3357 0000 2DE9FF47 		push	{r0, r1, r2, r3, r4, r5, r6, r7, r8, r9, r10, lr}
 3358 0004 0446     		mov	r4, r0
 3359 0006 1F46     		mov	r7, r3
 3360 0008 8946     		mov	r9, r1
 3361 000a 9046     		mov	r8, r2
 3362 000c FFF7FEFF 		bl	HAL_GetTick
 3363 0010 94F83D30 		ldrb	r3, [r4, #61]	@ zero_extendqisi2
 3364 0014 0546     		mov	r5, r0
 3365 0016 202B     		cmp	r3, #32
 3366 0018 01D0     		beq	.L496
 3367              	.L498:
ARM GAS  /tmp/ccCGIf4Q.s 			page 59


 3368 001a 0220     		movs	r0, #2
 3369 001c 86E0     		b	.L497
 3370              	.L496:
 3371 001e 0090     		str	r0, [sp]
 3372 0020 4449     		ldr	r1, .L517
 3373 0022 2046     		mov	r0, r4
 3374 0024 0122     		movs	r2, #1
 3375 0026 1923     		movs	r3, #25
 3376 0028 FFF7FEFF 		bl	I2C_WaitOnFlagUntilTimeout
 3377 002c 0028     		cmp	r0, #0
 3378 002e F4D1     		bne	.L498
 3379 0030 94F83C30 		ldrb	r3, [r4, #60]	@ zero_extendqisi2
 3380 0034 012B     		cmp	r3, #1
 3381 0036 F0D0     		beq	.L498
 3382 0038 0123     		movs	r3, #1
 3383 003a 84F83C30 		strb	r3, [r4, #60]
 3384 003e 2368     		ldr	r3, [r4]
 3385 0040 0126     		movs	r6, #1
 3386 0042 1A68     		ldr	r2, [r3]
 3387 0044 D207     		lsls	r2, r2, #31
 3388 0046 5EBF     		ittt	pl
 3389 0048 1A68     		ldrpl	r2, [r3]
 3390 004a 42F00102 		orrpl	r2, r2, #1
 3391 004e 1A60     		strpl	r2, [r3]
 3392 0050 1A68     		ldr	r2, [r3]
 3393 0052 22F40062 		bic	r2, r2, #2048
 3394 0056 1A60     		str	r2, [r3]
 3395 0058 2423     		movs	r3, #36
 3396 005a 84F83D30 		strb	r3, [r4, #61]
 3397 005e 0023     		movs	r3, #0
 3398 0060 2364     		str	r3, [r4, #64]
 3399 0062 A3F58033 		sub	r3, r3, #65536
 3400 0066 E362     		str	r3, [r4, #44]
 3401              	.L508:
 3402 0068 2268     		ldr	r2, [r4]
 3403 006a 2046     		mov	r0, r4
 3404 006c 1368     		ldr	r3, [r2]
 3405 006e 4FF00111 		mov	r1, #65537
 3406 0072 43F48073 		orr	r3, r3, #256
 3407 0076 1360     		str	r3, [r2]
 3408 0078 0095     		str	r5, [sp]
 3409 007a 0022     		movs	r2, #0
 3410 007c 3B46     		mov	r3, r7
 3411 007e FFF7FEFF 		bl	I2C_WaitOnFlagUntilTimeout
 3412 0082 0028     		cmp	r0, #0
 3413 0084 51D1     		bne	.L516
 3414 0086 2368     		ldr	r3, [r4]
 3415 0088 09F0FE02 		and	r2, r9, #254
 3416 008c 1A61     		str	r2, [r3, #16]
 3417 008e FFF7FEFF 		bl	HAL_GetTick
 3418 0092 0546     		mov	r5, r0
 3419              	.L503:
 3420 0094 2368     		ldr	r3, [r4]
 3421 0096 5A69     		ldr	r2, [r3, #20]
 3422 0098 5B69     		ldr	r3, [r3, #20]
 3423 009a 94F83D10 		ldrb	r1, [r4, #61]	@ zero_extendqisi2
 3424 009e C2F34002 		ubfx	r2, r2, #1, #1
ARM GAS  /tmp/ccCGIf4Q.s 			page 60


 3425 00a2 A029     		cmp	r1, #160
 3426 00a4 C3F38023 		ubfx	r3, r3, #10, #1
 3427 00a8 0CD0     		beq	.L504
 3428 00aa 5AB9     		cbnz	r2, .L504
 3429 00ac 53B9     		cbnz	r3, .L504
 3430 00ae FFF7FEFF 		bl	HAL_GetTick
 3431 00b2 401B     		subs	r0, r0, r5
 3432 00b4 B842     		cmp	r0, r7
 3433 00b6 01D8     		bhi	.L502
 3434 00b8 002F     		cmp	r7, #0
 3435 00ba EBD1     		bne	.L503
 3436              	.L502:
 3437 00bc A023     		movs	r3, #160
 3438 00be 84F83D30 		strb	r3, [r4, #61]
 3439 00c2 E7E7     		b	.L503
 3440              	.L504:
 3441 00c4 2368     		ldr	r3, [r4]
 3442 00c6 4FF0200A 		mov	r10, #32
 3443 00ca 84F83DA0 		strb	r10, [r4, #61]
 3444 00ce 5A69     		ldr	r2, [r3, #20]
 3445 00d0 12F0020F 		tst	r2, #2
 3446 00d4 1A68     		ldr	r2, [r3]
 3447 00d6 42F40072 		orr	r2, r2, #512
 3448 00da 1A60     		str	r2, [r3]
 3449 00dc 13D0     		beq	.L506
 3450 00de 0022     		movs	r2, #0
 3451 00e0 0392     		str	r2, [sp, #12]
 3452 00e2 5A69     		ldr	r2, [r3, #20]
 3453 00e4 2046     		mov	r0, r4
 3454 00e6 0392     		str	r2, [sp, #12]
 3455 00e8 9B69     		ldr	r3, [r3, #24]
 3456 00ea 1249     		ldr	r1, .L517
 3457 00ec 0393     		str	r3, [sp, #12]
 3458 00ee 039B     		ldr	r3, [sp, #12]
 3459 00f0 0095     		str	r5, [sp]
 3460 00f2 0122     		movs	r2, #1
 3461 00f4 1923     		movs	r3, #25
 3462 00f6 FFF7FEFF 		bl	I2C_WaitOnFlagUntilTimeout
 3463 00fa B0B9     		cbnz	r0, .L516
 3464 00fc 84F83DA0 		strb	r10, [r4, #61]
 3465 0100 84F83C00 		strb	r0, [r4, #60]
 3466 0104 12E0     		b	.L497
 3467              	.L506:
 3468 0106 6FF48062 		mvn	r2, #1024
 3469 010a 5A61     		str	r2, [r3, #20]
 3470 010c 2046     		mov	r0, r4
 3471 010e 0095     		str	r5, [sp]
 3472 0110 0849     		ldr	r1, .L517
 3473 0112 0122     		movs	r2, #1
 3474 0114 1923     		movs	r3, #25
 3475 0116 FFF7FEFF 		bl	I2C_WaitOnFlagUntilTimeout
 3476 011a 30B9     		cbnz	r0, .L516
 3477 011c 0136     		adds	r6, r6, #1
 3478 011e 4645     		cmp	r6, r8
 3479 0120 A2D3     		bcc	.L508
 3480 0122 84F83DA0 		strb	r10, [r4, #61]
 3481 0126 84F83C00 		strb	r0, [r4, #60]
ARM GAS  /tmp/ccCGIf4Q.s 			page 61


 3482              	.L516:
 3483 012a 0120     		movs	r0, #1
 3484              	.L497:
 3485 012c 04B0     		add	sp, sp, #16
 3486              		@ sp needed
 3487 012e BDE8F087 		pop	{r4, r5, r6, r7, r8, r9, r10, pc}
 3488              	.L518:
 3489 0132 00BF     		.align	2
 3490              	.L517:
 3491 0134 02001000 		.word	1048578
 3493              		.section	.text.HAL_I2C_Master_Seq_Transmit_IT,"ax",%progbits
 3494              		.align	1
 3495              		.global	HAL_I2C_Master_Seq_Transmit_IT
 3496              		.thumb
 3497              		.thumb_func
 3499              	HAL_I2C_Master_Seq_Transmit_IT:
 3500              		@ args = 4, pretend = 0, frame = 8
 3501              		@ frame_needed = 0, uses_anonymous_args = 0
 3502 0000 73B5     		push	{r0, r1, r4, r5, r6, lr}
 3503 0002 0024     		movs	r4, #0
 3504 0004 0094     		str	r4, [sp]
 3505 0006 0194     		str	r4, [sp, #4]
 3506 0008 90F83D40 		ldrb	r4, [r0, #61]	@ zero_extendqisi2
 3507 000c 069D     		ldr	r5, [sp, #24]
 3508 000e 202C     		cmp	r4, #32
 3509 0010 01D0     		beq	.L520
 3510              	.L523:
 3511 0012 0220     		movs	r0, #2
 3512 0014 5DE0     		b	.L521
 3513              	.L520:
 3514 0016 082D     		cmp	r5, #8
 3515 0018 06D0     		beq	.L522
 3516 001a 012D     		cmp	r5, #1
 3517 001c 04D0     		beq	.L522
 3518              	.L527:
 3519 001e 90F83C40 		ldrb	r4, [r0, #60]	@ zero_extendqisi2
 3520 0022 012C     		cmp	r4, #1
 3521 0024 21D1     		bne	.L544
 3522 0026 F4E7     		b	.L523
 3523              	.L522:
 3524 0028 46F2A816 		movw	r6, #25000
 3525 002c 2A4C     		ldr	r4, .L545
 3526 002e 2468     		ldr	r4, [r4]
 3527 0030 B4FBF6F6 		udiv	r6, r4, r6
 3528 0034 1924     		movs	r4, #25
 3529 0036 7443     		muls	r4, r6, r4
 3530 0038 0194     		str	r4, [sp, #4]
 3531              	.L526:
 3532 003a 019C     		ldr	r4, [sp, #4]
 3533 003c 013C     		subs	r4, r4, #1
 3534 003e 0194     		str	r4, [sp, #4]
 3535 0040 019C     		ldr	r4, [sp, #4]
 3536 0042 6CB9     		cbnz	r4, .L525
 3537 0044 2023     		movs	r3, #32
 3538 0046 0463     		str	r4, [r0, #48]
 3539 0048 80F83D30 		strb	r3, [r0, #61]
 3540 004c 80F83E40 		strb	r4, [r0, #62]
ARM GAS  /tmp/ccCGIf4Q.s 			page 62


 3541 0050 036C     		ldr	r3, [r0, #64]
 3542 0052 80F83C40 		strb	r4, [r0, #60]
 3543 0056 43F02003 		orr	r3, r3, #32
 3544 005a 0364     		str	r3, [r0, #64]
 3545 005c 0120     		movs	r0, #1
 3546 005e 38E0     		b	.L521
 3547              	.L525:
 3548 0060 0468     		ldr	r4, [r0]
 3549 0062 A469     		ldr	r4, [r4, #24]
 3550 0064 A407     		lsls	r4, r4, #30
 3551 0066 E8D4     		bmi	.L526
 3552 0068 D9E7     		b	.L527
 3553              	.L544:
 3554 006a 0124     		movs	r4, #1
 3555 006c 80F83C40 		strb	r4, [r0, #60]
 3556 0070 0468     		ldr	r4, [r0]
 3557 0072 2668     		ldr	r6, [r4]
 3558 0074 F607     		lsls	r6, r6, #31
 3559 0076 5EBF     		ittt	pl
 3560 0078 2668     		ldrpl	r6, [r4]
 3561 007a 46F00106 		orrpl	r6, r6, #1
 3562 007e 2660     		strpl	r6, [r4]
 3563 0080 2668     		ldr	r6, [r4]
 3564 0082 26F40066 		bic	r6, r6, #2048
 3565 0086 2660     		str	r6, [r4]
 3566 0088 2126     		movs	r6, #33
 3567 008a 80F83D60 		strb	r6, [r0, #61]
 3568 008e 1026     		movs	r6, #16
 3569 0090 80F83E60 		strb	r6, [r0, #62]
 3570 0094 0026     		movs	r6, #0
 3571 0096 0664     		str	r6, [r0, #64]
 3572 0098 4385     		strh	r3, [r0, #42]	@ movhi
 3573 009a 438D     		ldrh	r3, [r0, #42]
 3574 009c C562     		str	r5, [r0, #44]
 3575 009e 4164     		str	r1, [r0, #68]
 3576 00a0 0385     		strh	r3, [r0, #40]	@ movhi
 3577 00a2 036B     		ldr	r3, [r0, #48]
 3578 00a4 4262     		str	r2, [r0, #36]
 3579 00a6 0093     		str	r3, [sp]
 3580 00a8 009B     		ldr	r3, [sp]
 3581 00aa 112B     		cmp	r3, #17
 3582 00ac 05D1     		bne	.L529
 3583 00ae B5F52A0F 		cmp	r5, #11141120
 3584 00b2 02D0     		beq	.L529
 3585 00b4 B5F12A4F 		cmp	r5, #-1442840576
 3586 00b8 03D1     		bne	.L530
 3587              	.L529:
 3588 00ba 2368     		ldr	r3, [r4]
 3589 00bc 43F48073 		orr	r3, r3, #256
 3590 00c0 2360     		str	r3, [r4]
 3591              	.L530:
 3592 00c2 0023     		movs	r3, #0
 3593 00c4 80F83C30 		strb	r3, [r0, #60]
 3594 00c8 1846     		mov	r0, r3
 3595 00ca 6268     		ldr	r2, [r4, #4]
 3596 00cc 42F4E062 		orr	r2, r2, #1792
 3597 00d0 6260     		str	r2, [r4, #4]
ARM GAS  /tmp/ccCGIf4Q.s 			page 63


 3598              	.L521:
 3599 00d2 02B0     		add	sp, sp, #8
 3600              		@ sp needed
 3601 00d4 70BD     		pop	{r4, r5, r6, pc}
 3602              	.L546:
 3603 00d6 00BF     		.align	2
 3604              	.L545:
 3605 00d8 00000000 		.word	SystemCoreClock
 3607              		.section	.text.HAL_I2C_Master_Seq_Transmit_DMA,"ax",%progbits
 3608              		.align	1
 3609              		.global	HAL_I2C_Master_Seq_Transmit_DMA
 3610              		.thumb
 3611              		.thumb_func
 3613              	HAL_I2C_Master_Seq_Transmit_DMA:
 3614              		@ args = 4, pretend = 0, frame = 8
 3615              		@ frame_needed = 0, uses_anonymous_args = 0
 3616 0000 F7B5     		push	{r0, r1, r2, r4, r5, r6, r7, lr}
 3617 0002 0446     		mov	r4, r0
 3618 0004 0020     		movs	r0, #0
 3619 0006 0090     		str	r0, [sp]
 3620 0008 0190     		str	r0, [sp, #4]
 3621 000a 94F83D00 		ldrb	r0, [r4, #61]	@ zero_extendqisi2
 3622 000e 089E     		ldr	r6, [sp, #32]
 3623 0010 2028     		cmp	r0, #32
 3624 0012 01D0     		beq	.L548
 3625              	.L551:
 3626 0014 0220     		movs	r0, #2
 3627 0016 A1E0     		b	.L549
 3628              	.L548:
 3629 0018 082E     		cmp	r6, #8
 3630 001a 06D0     		beq	.L550
 3631 001c 012E     		cmp	r6, #1
 3632 001e 04D0     		beq	.L550
 3633              	.L555:
 3634 0020 94F83C00 		ldrb	r0, [r4, #60]	@ zero_extendqisi2
 3635 0024 0128     		cmp	r0, #1
 3636 0026 20D1     		bne	.L587
 3637 0028 F4E7     		b	.L551
 3638              	.L550:
 3639 002a 46F2A815 		movw	r5, #25000
 3640 002e 4C48     		ldr	r0, .L589
 3641 0030 0068     		ldr	r0, [r0]
 3642 0032 B0FBF5F5 		udiv	r5, r0, r5
 3643 0036 1920     		movs	r0, #25
 3644 0038 6843     		muls	r0, r5, r0
 3645 003a 0190     		str	r0, [sp, #4]
 3646              	.L554:
 3647 003c 0198     		ldr	r0, [sp, #4]
 3648 003e 0138     		subs	r0, r0, #1
 3649 0040 0190     		str	r0, [sp, #4]
 3650 0042 0198     		ldr	r0, [sp, #4]
 3651 0044 60B9     		cbnz	r0, .L553
 3652 0046 2023     		movs	r3, #32
 3653 0048 2063     		str	r0, [r4, #48]
 3654 004a 84F83D30 		strb	r3, [r4, #61]
 3655 004e 84F83E00 		strb	r0, [r4, #62]
 3656 0052 236C     		ldr	r3, [r4, #64]
ARM GAS  /tmp/ccCGIf4Q.s 			page 64


 3657 0054 84F83C00 		strb	r0, [r4, #60]
 3658 0058 43F02003 		orr	r3, r3, #32
 3659 005c 2364     		str	r3, [r4, #64]
 3660 005e 63E0     		b	.L588
 3661              	.L553:
 3662 0060 2068     		ldr	r0, [r4]
 3663 0062 8069     		ldr	r0, [r0, #24]
 3664 0064 8507     		lsls	r5, r0, #30
 3665 0066 E9D4     		bmi	.L554
 3666 0068 DAE7     		b	.L555
 3667              	.L587:
 3668 006a 2568     		ldr	r5, [r4]
 3669 006c 0120     		movs	r0, #1
 3670 006e 84F83C00 		strb	r0, [r4, #60]
 3671 0072 2868     		ldr	r0, [r5]
 3672 0074 0027     		movs	r7, #0
 3673 0076 C007     		lsls	r0, r0, #31
 3674 0078 5EBF     		ittt	pl
 3675 007a 2868     		ldrpl	r0, [r5]
 3676 007c 40F00100 		orrpl	r0, r0, #1
 3677 0080 2860     		strpl	r0, [r5]
 3678 0082 2868     		ldr	r0, [r5]
 3679 0084 20F40060 		bic	r0, r0, #2048
 3680 0088 2860     		str	r0, [r5]
 3681 008a 2120     		movs	r0, #33
 3682 008c 84F83D00 		strb	r0, [r4, #61]
 3683 0090 1020     		movs	r0, #16
 3684 0092 84F83E00 		strb	r0, [r4, #62]
 3685 0096 2764     		str	r7, [r4, #64]
 3686 0098 6385     		strh	r3, [r4, #42]	@ movhi
 3687 009a 638D     		ldrh	r3, [r4, #42]
 3688 009c E662     		str	r6, [r4, #44]
 3689 009e 6164     		str	r1, [r4, #68]
 3690 00a0 2385     		strh	r3, [r4, #40]	@ movhi
 3691 00a2 236B     		ldr	r3, [r4, #48]
 3692 00a4 6262     		str	r2, [r4, #36]
 3693 00a6 0093     		str	r3, [sp]
 3694 00a8 238D     		ldrh	r3, [r4, #40]
 3695 00aa 002B     		cmp	r3, #0
 3696 00ac 3ED0     		beq	.L557
 3697 00ae 606B     		ldr	r0, [r4, #52]
 3698 00b0 2C49     		ldr	r1, .L589+4
 3699 00b2 C762     		str	r7, [r0, #44]
 3700 00b4 8162     		str	r1, [r0, #40]
 3701 00b6 2C49     		ldr	r1, .L589+8
 3702 00b8 4763     		str	r7, [r0, #52]
 3703 00ba 0163     		str	r1, [r0, #48]
 3704 00bc 1146     		mov	r1, r2
 3705 00be 05F11002 		add	r2, r5, #16
 3706 00c2 FFF7FEFF 		bl	HAL_DMA_Start_IT
 3707 00c6 20BB     		cbnz	r0, .L558
 3708 00c8 2368     		ldr	r3, [r4]
 3709 00ca 1A68     		ldr	r2, [r3]
 3710 00cc 42F48062 		orr	r2, r2, #1024
 3711 00d0 1A60     		str	r2, [r3]
 3712 00d2 009A     		ldr	r2, [sp]
 3713 00d4 112A     		cmp	r2, #17
ARM GAS  /tmp/ccCGIf4Q.s 			page 65


 3714 00d6 05D1     		bne	.L559
 3715 00d8 B6F52A0F 		cmp	r6, #11141120
 3716 00dc 02D0     		beq	.L559
 3717 00de B6F12A4F 		cmp	r6, #-1442840576
 3718 00e2 03D1     		bne	.L560
 3719              	.L559:
 3720 00e4 1A68     		ldr	r2, [r3]
 3721 00e6 42F48072 		orr	r2, r2, #256
 3722 00ea 1A60     		str	r2, [r3]
 3723              	.L560:
 3724 00ec 0022     		movs	r2, #0
 3725 00ee 042E     		cmp	r6, #4
 3726 00f0 84F83C20 		strb	r2, [r4, #60]
 3727 00f4 03D0     		beq	.L561
 3728 00f6 202E     		cmp	r6, #32
 3729 00f8 01D0     		beq	.L561
 3730 00fa 102E     		cmp	r6, #16
 3731 00fc 03D1     		bne	.L562
 3732              	.L561:
 3733 00fe 5A68     		ldr	r2, [r3, #4]
 3734 0100 42F40062 		orr	r2, r2, #2048
 3735 0104 5A60     		str	r2, [r3, #4]
 3736              	.L562:
 3737 0106 5A68     		ldr	r2, [r3, #4]
 3738 0108 0020     		movs	r0, #0
 3739 010a 42F44072 		orr	r2, r2, #768
 3740 010e 5A60     		str	r2, [r3, #4]
 3741 0110 24E0     		b	.L549
 3742              	.L558:
 3743 0112 2023     		movs	r3, #32
 3744 0114 84F83D30 		strb	r3, [r4, #61]
 3745 0118 84F83E70 		strb	r7, [r4, #62]
 3746 011c 236C     		ldr	r3, [r4, #64]
 3747 011e 84F83C70 		strb	r7, [r4, #60]
 3748 0122 43F01003 		orr	r3, r3, #16
 3749 0126 2364     		str	r3, [r4, #64]
 3750              	.L588:
 3751 0128 0120     		movs	r0, #1
 3752 012a 17E0     		b	.L549
 3753              	.L557:
 3754 012c 2B68     		ldr	r3, [r5]
 3755 012e 43F48063 		orr	r3, r3, #1024
 3756 0132 2B60     		str	r3, [r5]
 3757 0134 009B     		ldr	r3, [sp]
 3758 0136 112B     		cmp	r3, #17
 3759 0138 05D1     		bne	.L563
 3760 013a B6F52A0F 		cmp	r6, #11141120
 3761 013e 02D0     		beq	.L563
 3762 0140 B6F12A4F 		cmp	r6, #-1442840576
 3763 0144 03D1     		bne	.L564
 3764              	.L563:
 3765 0146 2B68     		ldr	r3, [r5]
 3766 0148 43F48073 		orr	r3, r3, #256
 3767 014c 2B60     		str	r3, [r5]
 3768              	.L564:
 3769 014e 6B68     		ldr	r3, [r5, #4]
 3770 0150 0020     		movs	r0, #0
ARM GAS  /tmp/ccCGIf4Q.s 			page 66


 3771 0152 43F4E063 		orr	r3, r3, #1792
 3772 0156 84F83C00 		strb	r0, [r4, #60]
 3773 015a 6B60     		str	r3, [r5, #4]
 3774              	.L549:
 3775 015c 03B0     		add	sp, sp, #12
 3776              		@ sp needed
 3777 015e F0BD     		pop	{r4, r5, r6, r7, pc}
 3778              	.L590:
 3779              		.align	2
 3780              	.L589:
 3781 0160 00000000 		.word	SystemCoreClock
 3782 0164 00000000 		.word	I2C_DMAXferCplt
 3783 0168 00000000 		.word	I2C_DMAError
 3785              		.section	.text.HAL_I2C_Master_Seq_Receive_IT,"ax",%progbits
 3786              		.align	1
 3787              		.global	HAL_I2C_Master_Seq_Receive_IT
 3788              		.thumb
 3789              		.thumb_func
 3791              	HAL_I2C_Master_Seq_Receive_IT:
 3792              		@ args = 4, pretend = 0, frame = 8
 3793              		@ frame_needed = 0, uses_anonymous_args = 0
 3794 0000 73B5     		push	{r0, r1, r4, r5, r6, lr}
 3795 0002 0024     		movs	r4, #0
 3796 0004 0094     		str	r4, [sp]
 3797 0006 0194     		str	r4, [sp, #4]
 3798 0008 90F83D40 		ldrb	r4, [r0, #61]	@ zero_extendqisi2
 3799 000c 069D     		ldr	r5, [sp, #24]
 3800 000e 202C     		cmp	r4, #32
 3801 0010 01D0     		beq	.L592
 3802              	.L595:
 3803 0012 0220     		movs	r0, #2
 3804 0014 78E0     		b	.L593
 3805              	.L592:
 3806 0016 082D     		cmp	r5, #8
 3807 0018 06D0     		beq	.L594
 3808 001a 012D     		cmp	r5, #1
 3809 001c 04D0     		beq	.L594
 3810              	.L599:
 3811 001e 90F83C40 		ldrb	r4, [r0, #60]	@ zero_extendqisi2
 3812 0022 012C     		cmp	r4, #1
 3813 0024 21D1     		bne	.L623
 3814 0026 F4E7     		b	.L595
 3815              	.L594:
 3816 0028 46F2A816 		movw	r6, #25000
 3817 002c 374C     		ldr	r4, .L625
 3818 002e 2468     		ldr	r4, [r4]
 3819 0030 B4FBF6F6 		udiv	r6, r4, r6
 3820 0034 1924     		movs	r4, #25
 3821 0036 7443     		muls	r4, r6, r4
 3822 0038 0194     		str	r4, [sp, #4]
 3823              	.L598:
 3824 003a 019C     		ldr	r4, [sp, #4]
 3825 003c 013C     		subs	r4, r4, #1
 3826 003e 0194     		str	r4, [sp, #4]
 3827 0040 019C     		ldr	r4, [sp, #4]
 3828 0042 6CB9     		cbnz	r4, .L597
 3829 0044 2023     		movs	r3, #32
ARM GAS  /tmp/ccCGIf4Q.s 			page 67


 3830 0046 0463     		str	r4, [r0, #48]
 3831 0048 80F83D30 		strb	r3, [r0, #61]
 3832 004c 80F83E40 		strb	r4, [r0, #62]
 3833 0050 036C     		ldr	r3, [r0, #64]
 3834 0052 80F83C40 		strb	r4, [r0, #60]
 3835 0056 43F02003 		orr	r3, r3, #32
 3836 005a 0364     		str	r3, [r0, #64]
 3837 005c 0120     		movs	r0, #1
 3838 005e 53E0     		b	.L593
 3839              	.L597:
 3840 0060 0468     		ldr	r4, [r0]
 3841 0062 A469     		ldr	r4, [r4, #24]
 3842 0064 A407     		lsls	r4, r4, #30
 3843 0066 E8D4     		bmi	.L598
 3844 0068 D9E7     		b	.L599
 3845              	.L623:
 3846 006a 0124     		movs	r4, #1
 3847 006c 80F83C40 		strb	r4, [r0, #60]
 3848 0070 0468     		ldr	r4, [r0]
 3849 0072 2668     		ldr	r6, [r4]
 3850 0074 F607     		lsls	r6, r6, #31
 3851 0076 5EBF     		ittt	pl
 3852 0078 2668     		ldrpl	r6, [r4]
 3853 007a 46F00106 		orrpl	r6, r6, #1
 3854 007e 2660     		strpl	r6, [r4]
 3855 0080 2668     		ldr	r6, [r4]
 3856 0082 26F40066 		bic	r6, r6, #2048
 3857 0086 2660     		str	r6, [r4]
 3858 0088 2226     		movs	r6, #34
 3859 008a 80F83D60 		strb	r6, [r0, #61]
 3860 008e 1026     		movs	r6, #16
 3861 0090 80F83E60 		strb	r6, [r0, #62]
 3862 0094 0026     		movs	r6, #0
 3863 0096 0664     		str	r6, [r0, #64]
 3864 0098 4385     		strh	r3, [r0, #42]	@ movhi
 3865 009a 438D     		ldrh	r3, [r0, #42]
 3866 009c C562     		str	r5, [r0, #44]
 3867 009e 4164     		str	r1, [r0, #68]
 3868 00a0 0385     		strh	r3, [r0, #40]	@ movhi
 3869 00a2 036B     		ldr	r3, [r0, #48]
 3870 00a4 4262     		str	r2, [r0, #36]
 3871 00a6 0093     		str	r3, [sp]
 3872 00a8 438D     		ldrh	r3, [r0, #42]
 3873 00aa 9BB2     		uxth	r3, r3
 3874 00ac 022B     		cmp	r3, #2
 3875 00ae 11D1     		bne	.L601
 3876 00b0 202D     		cmp	r5, #32
 3877 00b2 01D0     		beq	.L602
 3878 00b4 102D     		cmp	r5, #16
 3879 00b6 0DD1     		bne	.L601
 3880              	.L602:
 3881 00b8 009B     		ldr	r3, [sp]
 3882 00ba 122B     		cmp	r3, #18
 3883 00bc 2368     		ldr	r3, [r4]
 3884 00be 0AD1     		bne	.L624
 3885 00c0 23F48063 		bic	r3, r3, #1024
 3886 00c4 2360     		str	r3, [r4]
ARM GAS  /tmp/ccCGIf4Q.s 			page 68


 3887 00c6 2368     		ldr	r3, [r4]
 3888 00c8 4FF44071 		mov	r1, #768
 3889 00cc 43F40063 		orr	r3, r3, #2048
 3890 00d0 2360     		str	r3, [r4]
 3891 00d2 05E0     		b	.L604
 3892              	.L601:
 3893 00d4 2368     		ldr	r3, [r4]
 3894              	.L624:
 3895 00d6 43F48063 		orr	r3, r3, #1024
 3896 00da 2360     		str	r3, [r4]
 3897 00dc 4FF4E061 		mov	r1, #1792
 3898              	.L604:
 3899 00e0 009B     		ldr	r3, [sp]
 3900 00e2 122B     		cmp	r3, #18
 3901 00e4 05D1     		bne	.L605
 3902 00e6 B5F52A0F 		cmp	r5, #11141120
 3903 00ea 02D0     		beq	.L605
 3904 00ec B5F12A4F 		cmp	r5, #-1442840576
 3905 00f0 03D1     		bne	.L606
 3906              	.L605:
 3907 00f2 2368     		ldr	r3, [r4]
 3908 00f4 43F48073 		orr	r3, r3, #256
 3909 00f8 2360     		str	r3, [r4]
 3910              	.L606:
 3911 00fa 0023     		movs	r3, #0
 3912 00fc 80F83C30 		strb	r3, [r0, #60]
 3913 0100 1846     		mov	r0, r3
 3914 0102 6268     		ldr	r2, [r4, #4]
 3915 0104 0A43     		orrs	r2, r2, r1
 3916 0106 6260     		str	r2, [r4, #4]
 3917              	.L593:
 3918 0108 02B0     		add	sp, sp, #8
 3919              		@ sp needed
 3920 010a 70BD     		pop	{r4, r5, r6, pc}
 3921              	.L626:
 3922              		.align	2
 3923              	.L625:
 3924 010c 00000000 		.word	SystemCoreClock
 3926              		.section	.text.HAL_I2C_Master_Seq_Receive_DMA,"ax",%progbits
 3927              		.align	1
 3928              		.global	HAL_I2C_Master_Seq_Receive_DMA
 3929              		.thumb
 3930              		.thumb_func
 3932              	HAL_I2C_Master_Seq_Receive_DMA:
 3933              		@ args = 4, pretend = 0, frame = 8
 3934              		@ frame_needed = 0, uses_anonymous_args = 0
 3935 0000 F7B5     		push	{r0, r1, r2, r4, r5, r6, r7, lr}
 3936 0002 0446     		mov	r4, r0
 3937 0004 0020     		movs	r0, #0
 3938 0006 0090     		str	r0, [sp]
 3939 0008 0190     		str	r0, [sp, #4]
 3940 000a 94F83D00 		ldrb	r0, [r4, #61]	@ zero_extendqisi2
 3941 000e 089E     		ldr	r6, [sp, #32]
 3942 0010 2028     		cmp	r0, #32
 3943 0012 01D0     		beq	.L628
 3944              	.L631:
 3945 0014 0220     		movs	r0, #2
ARM GAS  /tmp/ccCGIf4Q.s 			page 69


 3946 0016 CCE0     		b	.L629
 3947              	.L628:
 3948 0018 082E     		cmp	r6, #8
 3949 001a 06D0     		beq	.L630
 3950 001c 012E     		cmp	r6, #1
 3951 001e 04D0     		beq	.L630
 3952              	.L635:
 3953 0020 94F83C00 		ldrb	r0, [r4, #60]	@ zero_extendqisi2
 3954 0024 0128     		cmp	r0, #1
 3955 0026 20D1     		bne	.L682
 3956 0028 F4E7     		b	.L631
 3957              	.L630:
 3958 002a 46F2A815 		movw	r5, #25000
 3959 002e 6248     		ldr	r0, .L684
 3960 0030 0068     		ldr	r0, [r0]
 3961 0032 B0FBF5F5 		udiv	r5, r0, r5
 3962 0036 1920     		movs	r0, #25
 3963 0038 6843     		muls	r0, r5, r0
 3964 003a 0190     		str	r0, [sp, #4]
 3965              	.L634:
 3966 003c 0198     		ldr	r0, [sp, #4]
 3967 003e 0138     		subs	r0, r0, #1
 3968 0040 0190     		str	r0, [sp, #4]
 3969 0042 0198     		ldr	r0, [sp, #4]
 3970 0044 60B9     		cbnz	r0, .L633
 3971 0046 2023     		movs	r3, #32
 3972 0048 2063     		str	r0, [r4, #48]
 3973 004a 84F83D30 		strb	r3, [r4, #61]
 3974 004e 84F83E00 		strb	r0, [r4, #62]
 3975 0052 236C     		ldr	r3, [r4, #64]
 3976 0054 84F83C00 		strb	r0, [r4, #60]
 3977 0058 43F02003 		orr	r3, r3, #32
 3978 005c 2364     		str	r3, [r4, #64]
 3979 005e 8EE0     		b	.L683
 3980              	.L633:
 3981 0060 2068     		ldr	r0, [r4]
 3982 0062 8069     		ldr	r0, [r0, #24]
 3983 0064 8507     		lsls	r5, r0, #30
 3984 0066 E9D4     		bmi	.L634
 3985 0068 DAE7     		b	.L635
 3986              	.L682:
 3987 006a 2568     		ldr	r5, [r4]
 3988 006c 0120     		movs	r0, #1
 3989 006e 84F83C00 		strb	r0, [r4, #60]
 3990 0072 2868     		ldr	r0, [r5]
 3991 0074 C007     		lsls	r0, r0, #31
 3992 0076 5EBF     		ittt	pl
 3993 0078 2868     		ldrpl	r0, [r5]
 3994 007a 40F00100 		orrpl	r0, r0, #1
 3995 007e 2860     		strpl	r0, [r5]
 3996 0080 2868     		ldr	r0, [r5]
 3997 0082 20F40060 		bic	r0, r0, #2048
 3998 0086 2860     		str	r0, [r5]
 3999 0088 6868     		ldr	r0, [r5, #4]
 4000 008a 20F48050 		bic	r0, r0, #4096
 4001 008e 6860     		str	r0, [r5, #4]
 4002 0090 2220     		movs	r0, #34
ARM GAS  /tmp/ccCGIf4Q.s 			page 70


 4003 0092 84F83D00 		strb	r0, [r4, #61]
 4004 0096 1020     		movs	r0, #16
 4005 0098 84F83E00 		strb	r0, [r4, #62]
 4006 009c 0020     		movs	r0, #0
 4007 009e 2064     		str	r0, [r4, #64]
 4008 00a0 6385     		strh	r3, [r4, #42]	@ movhi
 4009 00a2 638D     		ldrh	r3, [r4, #42]
 4010 00a4 E662     		str	r6, [r4, #44]
 4011 00a6 6164     		str	r1, [r4, #68]
 4012 00a8 2385     		strh	r3, [r4, #40]	@ movhi
 4013 00aa 236B     		ldr	r3, [r4, #48]
 4014 00ac 6262     		str	r2, [r4, #36]
 4015 00ae 0093     		str	r3, [sp]
 4016 00b0 238D     		ldrh	r3, [r4, #40]
 4017 00b2 002B     		cmp	r3, #0
 4018 00b4 65D0     		beq	.L637
 4019 00b6 618D     		ldrh	r1, [r4, #42]
 4020 00b8 89B2     		uxth	r1, r1
 4021 00ba 0229     		cmp	r1, #2
 4022 00bc 13D1     		bne	.L638
 4023 00be 202E     		cmp	r6, #32
 4024 00c0 01D0     		beq	.L639
 4025 00c2 102E     		cmp	r6, #16
 4026 00c4 0FD1     		bne	.L638
 4027              	.L639:
 4028 00c6 0099     		ldr	r1, [sp]
 4029 00c8 1229     		cmp	r1, #18
 4030 00ca 2968     		ldr	r1, [r5]
 4031 00cc 07D1     		bne	.L640
 4032 00ce 21F48061 		bic	r1, r1, #1024
 4033 00d2 2960     		str	r1, [r5]
 4034 00d4 2968     		ldr	r1, [r5]
 4035 00d6 41F40061 		orr	r1, r1, #2048
 4036 00da 2960     		str	r1, [r5]
 4037 00dc 0EE0     		b	.L642
 4038              	.L640:
 4039 00de 41F48061 		orr	r1, r1, #1024
 4040 00e2 2960     		str	r1, [r5]
 4041 00e4 0EE0     		b	.L641
 4042              	.L638:
 4043 00e6 2968     		ldr	r1, [r5]
 4044 00e8 202E     		cmp	r6, #32
 4045 00ea 41F48061 		orr	r1, r1, #1024
 4046 00ee 2960     		str	r1, [r5]
 4047 00f0 04D0     		beq	.L642
 4048 00f2 B6F12A4F 		cmp	r6, #-1442840576
 4049 00f6 01D0     		beq	.L642
 4050 00f8 102E     		cmp	r6, #16
 4051 00fa 03D1     		bne	.L641
 4052              	.L642:
 4053 00fc 6968     		ldr	r1, [r5, #4]
 4054 00fe 41F48051 		orr	r1, r1, #4096
 4055 0102 6960     		str	r1, [r5, #4]
 4056              	.L641:
 4057 0104 A06B     		ldr	r0, [r4, #56]
 4058 0106 2D49     		ldr	r1, .L684+4
 4059 0108 0027     		movs	r7, #0
ARM GAS  /tmp/ccCGIf4Q.s 			page 71


 4060 010a 8162     		str	r1, [r0, #40]
 4061 010c 2C49     		ldr	r1, .L684+8
 4062 010e C762     		str	r7, [r0, #44]
 4063 0110 0163     		str	r1, [r0, #48]
 4064 0112 4763     		str	r7, [r0, #52]
 4065 0114 05F11001 		add	r1, r5, #16
 4066 0118 FFF7FEFF 		bl	HAL_DMA_Start_IT
 4067 011c 20BB     		cbnz	r0, .L643
 4068 011e 009B     		ldr	r3, [sp]
 4069 0120 122B     		cmp	r3, #18
 4070 0122 2368     		ldr	r3, [r4]
 4071 0124 05D1     		bne	.L644
 4072 0126 B6F52A0F 		cmp	r6, #11141120
 4073 012a 02D0     		beq	.L644
 4074 012c B6F12A4F 		cmp	r6, #-1442840576
 4075 0130 06D1     		bne	.L650
 4076              	.L644:
 4077 0132 1A68     		ldr	r2, [r3]
 4078 0134 4FF44070 		mov	r0, #768
 4079 0138 42F48072 		orr	r2, r2, #256
 4080 013c 1A60     		str	r2, [r3]
 4081 013e 01E0     		b	.L645
 4082              	.L650:
 4083 0140 4FF48070 		mov	r0, #256
 4084              	.L645:
 4085 0144 0022     		movs	r2, #0
 4086 0146 042E     		cmp	r6, #4
 4087 0148 84F83C20 		strb	r2, [r4, #60]
 4088 014c 03D0     		beq	.L646
 4089 014e 202E     		cmp	r6, #32
 4090 0150 01D0     		beq	.L646
 4091 0152 102E     		cmp	r6, #16
 4092 0154 03D1     		bne	.L647
 4093              	.L646:
 4094 0156 5968     		ldr	r1, [r3, #4]
 4095 0158 41F40061 		orr	r1, r1, #2048
 4096 015c 5960     		str	r1, [r3, #4]
 4097              	.L647:
 4098 015e 5A68     		ldr	r2, [r3, #4]
 4099 0160 0243     		orrs	r2, r2, r0
 4100 0162 5A60     		str	r2, [r3, #4]
 4101 0164 0020     		movs	r0, #0
 4102 0166 24E0     		b	.L629
 4103              	.L643:
 4104 0168 2023     		movs	r3, #32
 4105 016a 84F83D30 		strb	r3, [r4, #61]
 4106 016e 84F83E70 		strb	r7, [r4, #62]
 4107 0172 236C     		ldr	r3, [r4, #64]
 4108 0174 84F83C70 		strb	r7, [r4, #60]
 4109 0178 43F01003 		orr	r3, r3, #16
 4110 017c 2364     		str	r3, [r4, #64]
 4111              	.L683:
 4112 017e 0120     		movs	r0, #1
 4113 0180 17E0     		b	.L629
 4114              	.L637:
 4115 0182 2B68     		ldr	r3, [r5]
 4116 0184 43F48063 		orr	r3, r3, #1024
ARM GAS  /tmp/ccCGIf4Q.s 			page 72


 4117 0188 2B60     		str	r3, [r5]
 4118 018a 009B     		ldr	r3, [sp]
 4119 018c 122B     		cmp	r3, #18
 4120 018e 05D1     		bne	.L648
 4121 0190 B6F52A0F 		cmp	r6, #11141120
 4122 0194 02D0     		beq	.L648
 4123 0196 B6F12A4F 		cmp	r6, #-1442840576
 4124 019a 03D1     		bne	.L649
 4125              	.L648:
 4126 019c 2B68     		ldr	r3, [r5]
 4127 019e 43F48073 		orr	r3, r3, #256
 4128 01a2 2B60     		str	r3, [r5]
 4129              	.L649:
 4130 01a4 6B68     		ldr	r3, [r5, #4]
 4131 01a6 0020     		movs	r0, #0
 4132 01a8 43F4E063 		orr	r3, r3, #1792
 4133 01ac 84F83C00 		strb	r0, [r4, #60]
 4134 01b0 6B60     		str	r3, [r5, #4]
 4135              	.L629:
 4136 01b2 03B0     		add	sp, sp, #12
 4137              		@ sp needed
 4138 01b4 F0BD     		pop	{r4, r5, r6, r7, pc}
 4139              	.L685:
 4140 01b6 00BF     		.align	2
 4141              	.L684:
 4142 01b8 00000000 		.word	SystemCoreClock
 4143 01bc 00000000 		.word	I2C_DMAXferCplt
 4144 01c0 00000000 		.word	I2C_DMAError
 4146              		.section	.text.HAL_I2C_Slave_Seq_Transmit_IT,"ax",%progbits
 4147              		.align	1
 4148              		.global	HAL_I2C_Slave_Seq_Transmit_IT
 4149              		.thumb
 4150              		.thumb_func
 4152              	HAL_I2C_Slave_Seq_Transmit_IT:
 4153              		@ args = 0, pretend = 0, frame = 8
 4154              		@ frame_needed = 0, uses_anonymous_args = 0
 4155 0000 37B5     		push	{r0, r1, r2, r4, r5, lr}
 4156 0002 90F83D40 		ldrb	r4, [r0, #61]	@ zero_extendqisi2
 4157 0006 04F02804 		and	r4, r4, #40
 4158 000a 282C     		cmp	r4, #40
 4159 000c 33D1     		bne	.L692
 4160 000e 0029     		cmp	r1, #0
 4161 0010 2FD0     		beq	.L691
 4162 0012 002A     		cmp	r2, #0
 4163 0014 2DD0     		beq	.L691
 4164 0016 90F83C40 		ldrb	r4, [r0, #60]	@ zero_extendqisi2
 4165 001a 012C     		cmp	r4, #1
 4166 001c 2BD0     		beq	.L692
 4167 001e 0568     		ldr	r5, [r0]
 4168 0020 0124     		movs	r4, #1
 4169 0022 80F83C40 		strb	r4, [r0, #60]
 4170 0026 2C68     		ldr	r4, [r5]
 4171 0028 E407     		lsls	r4, r4, #31
 4172 002a 5EBF     		ittt	pl
 4173 002c 2C68     		ldrpl	r4, [r5]
 4174 002e 44F00104 		orrpl	r4, r4, #1
 4175 0032 2C60     		strpl	r4, [r5]
ARM GAS  /tmp/ccCGIf4Q.s 			page 73


 4176 0034 2C68     		ldr	r4, [r5]
 4177 0036 24F40064 		bic	r4, r4, #2048
 4178 003a 2C60     		str	r4, [r5]
 4179 003c 2924     		movs	r4, #41
 4180 003e 80F83D40 		strb	r4, [r0, #61]
 4181 0042 2024     		movs	r4, #32
 4182 0044 80F83E40 		strb	r4, [r0, #62]
 4183 0048 0024     		movs	r4, #0
 4184 004a 0464     		str	r4, [r0, #64]
 4185 004c 4285     		strh	r2, [r0, #42]	@ movhi
 4186 004e 428D     		ldrh	r2, [r0, #42]
 4187 0050 C362     		str	r3, [r0, #44]
 4188 0052 0194     		str	r4, [sp, #4]
 4189 0054 6B69     		ldr	r3, [r5, #20]
 4190 0056 4162     		str	r1, [r0, #36]
 4191 0058 0193     		str	r3, [sp, #4]
 4192 005a AB69     		ldr	r3, [r5, #24]
 4193 005c 0285     		strh	r2, [r0, #40]	@ movhi
 4194 005e 0193     		str	r3, [sp, #4]
 4195 0060 019B     		ldr	r3, [sp, #4]
 4196 0062 6B68     		ldr	r3, [r5, #4]
 4197 0064 80F83C40 		strb	r4, [r0, #60]
 4198 0068 43F4E063 		orr	r3, r3, #1792
 4199 006c 6B60     		str	r3, [r5, #4]
 4200 006e 2046     		mov	r0, r4
 4201 0070 02E0     		b	.L687
 4202              	.L691:
 4203 0072 0120     		movs	r0, #1
 4204 0074 00E0     		b	.L687
 4205              	.L692:
 4206 0076 0220     		movs	r0, #2
 4207              	.L687:
 4208 0078 03B0     		add	sp, sp, #12
 4209              		@ sp needed
 4210 007a 30BD     		pop	{r4, r5, pc}
 4212              		.section	.text.HAL_I2C_Slave_Seq_Transmit_DMA,"ax",%progbits
 4213              		.align	1
 4214              		.global	HAL_I2C_Slave_Seq_Transmit_DMA
 4215              		.thumb
 4216              		.thumb_func
 4218              	HAL_I2C_Slave_Seq_Transmit_DMA:
 4219              		@ args = 0, pretend = 0, frame = 8
 4220              		@ frame_needed = 0, uses_anonymous_args = 0
 4221 0000 2DE9F743 		push	{r0, r1, r2, r4, r5, r6, r7, r8, r9, lr}
 4222 0004 9846     		mov	r8, r3
 4223 0006 90F83D30 		ldrb	r3, [r0, #61]	@ zero_extendqisi2
 4224 000a 0446     		mov	r4, r0
 4225 000c 03F02803 		and	r3, r3, #40
 4226 0010 282B     		cmp	r3, #40
 4227 0012 0E46     		mov	r6, r1
 4228 0014 1746     		mov	r7, r2
 4229 0016 40F08480 		bne	.L704
 4230 001a 0029     		cmp	r1, #0
 4231 001c 7FD0     		beq	.L703
 4232 001e 002A     		cmp	r2, #0
 4233 0020 7DD0     		beq	.L703
 4234 0022 90F83C30 		ldrb	r3, [r0, #60]	@ zero_extendqisi2
ARM GAS  /tmp/ccCGIf4Q.s 			page 74


 4235 0026 012B     		cmp	r3, #1
 4236 0028 7BD0     		beq	.L704
 4237 002a 0123     		movs	r3, #1
 4238 002c 80F83C30 		strb	r3, [r0, #60]
 4239 0030 0368     		ldr	r3, [r0]
 4240 0032 5A68     		ldr	r2, [r3, #4]
 4241 0034 22F44072 		bic	r2, r2, #768
 4242 0038 5A60     		str	r2, [r3, #4]
 4243 003a 90F83D20 		ldrb	r2, [r0, #61]	@ zero_extendqisi2
 4244 003e 2A2A     		cmp	r2, #42
 4245 0040 0FD1     		bne	.L695
 4246 0042 5A68     		ldr	r2, [r3, #4]
 4247 0044 1105     		lsls	r1, r2, #20
 4248 0046 21D5     		bpl	.L697
 4249 0048 806B     		ldr	r0, [r0, #56]
 4250 004a F8B1     		cbz	r0, .L697
 4251 004c 5A68     		ldr	r2, [r3, #4]
 4252 004e 22F40062 		bic	r2, r2, #2048
 4253 0052 5A60     		str	r2, [r3, #4]
 4254 0054 354B     		ldr	r3, .L721
 4255 0056 4363     		str	r3, [r0, #52]
 4256 0058 FFF7FEFF 		bl	HAL_DMA_Abort_IT
 4257 005c B0B1     		cbz	r0, .L697
 4258 005e A06B     		ldr	r0, [r4, #56]
 4259 0060 12E0     		b	.L720
 4260              	.L695:
 4261 0062 90F83D20 		ldrb	r2, [r0, #61]	@ zero_extendqisi2
 4262 0066 292A     		cmp	r2, #41
 4263 0068 10D1     		bne	.L697
 4264 006a 5A68     		ldr	r2, [r3, #4]
 4265 006c 1205     		lsls	r2, r2, #20
 4266 006e 0DD5     		bpl	.L697
 4267 0070 5A68     		ldr	r2, [r3, #4]
 4268 0072 406B     		ldr	r0, [r0, #52]
 4269 0074 22F40062 		bic	r2, r2, #2048
 4270 0078 5A60     		str	r2, [r3, #4]
 4271 007a 38B1     		cbz	r0, .L697
 4272 007c 2B4B     		ldr	r3, .L721
 4273 007e 4363     		str	r3, [r0, #52]
 4274 0080 FFF7FEFF 		bl	HAL_DMA_Abort_IT
 4275 0084 10B1     		cbz	r0, .L697
 4276 0086 606B     		ldr	r0, [r4, #52]
 4277              	.L720:
 4278 0088 436B     		ldr	r3, [r0, #52]
 4279 008a 9847     		blx	r3
 4280              	.L697:
 4281 008c 2268     		ldr	r2, [r4]
 4282 008e 0025     		movs	r5, #0
 4283 0090 1368     		ldr	r3, [r2]
 4284 0092 4FF02009 		mov	r9, #32
 4285 0096 DB07     		lsls	r3, r3, #31
 4286 0098 58BF     		it	pl
 4287 009a 1368     		ldrpl	r3, [r2]
 4288 009c 606B     		ldr	r0, [r4, #52]
 4289 009e 5CBF     		itt	pl
 4290 00a0 43F00103 		orrpl	r3, r3, #1
 4291 00a4 1360     		strpl	r3, [r2]
ARM GAS  /tmp/ccCGIf4Q.s 			page 75


 4292 00a6 1368     		ldr	r3, [r2]
 4293 00a8 2149     		ldr	r1, .L721+4
 4294 00aa 23F40063 		bic	r3, r3, #2048
 4295 00ae 42F8103B 		str	r3, [r2], #16
 4296 00b2 2923     		movs	r3, #41
 4297 00b4 84F83D30 		strb	r3, [r4, #61]
 4298 00b8 84F83E90 		strb	r9, [r4, #62]
 4299 00bc 2564     		str	r5, [r4, #64]
 4300 00be 6785     		strh	r7, [r4, #42]	@ movhi
 4301 00c0 638D     		ldrh	r3, [r4, #42]
 4302 00c2 6662     		str	r6, [r4, #36]
 4303 00c4 9BB2     		uxth	r3, r3
 4304 00c6 2385     		strh	r3, [r4, #40]	@ movhi
 4305 00c8 C4F82C80 		str	r8, [r4, #44]
 4306 00cc 8162     		str	r1, [r0, #40]
 4307 00ce 1949     		ldr	r1, .L721+8
 4308 00d0 C562     		str	r5, [r0, #44]
 4309 00d2 0163     		str	r1, [r0, #48]
 4310 00d4 4563     		str	r5, [r0, #52]
 4311 00d6 3146     		mov	r1, r6
 4312 00d8 FFF7FEFF 		bl	HAL_DMA_Start_IT
 4313 00dc A8B9     		cbnz	r0, .L700
 4314 00de 2368     		ldr	r3, [r4]
 4315 00e0 1A68     		ldr	r2, [r3]
 4316 00e2 42F48062 		orr	r2, r2, #1024
 4317 00e6 1A60     		str	r2, [r3]
 4318 00e8 0190     		str	r0, [sp, #4]
 4319 00ea 5A69     		ldr	r2, [r3, #20]
 4320 00ec 0192     		str	r2, [sp, #4]
 4321 00ee 9A69     		ldr	r2, [r3, #24]
 4322 00f0 84F83C00 		strb	r0, [r4, #60]
 4323 00f4 0192     		str	r2, [sp, #4]
 4324 00f6 019A     		ldr	r2, [sp, #4]
 4325 00f8 5A68     		ldr	r2, [r3, #4]
 4326 00fa 42F44072 		orr	r2, r2, #768
 4327 00fe 5A60     		str	r2, [r3, #4]
 4328 0100 5A68     		ldr	r2, [r3, #4]
 4329 0102 42F40062 		orr	r2, r2, #2048
 4330 0106 5A60     		str	r2, [r3, #4]
 4331 0108 0CE0     		b	.L694
 4332              	.L700:
 4333 010a 84F83D90 		strb	r9, [r4, #61]
 4334 010e 84F83E50 		strb	r5, [r4, #62]
 4335 0112 236C     		ldr	r3, [r4, #64]
 4336 0114 84F83C50 		strb	r5, [r4, #60]
 4337 0118 43F01003 		orr	r3, r3, #16
 4338 011c 2364     		str	r3, [r4, #64]
 4339              	.L703:
 4340 011e 0120     		movs	r0, #1
 4341 0120 00E0     		b	.L694
 4342              	.L704:
 4343 0122 0220     		movs	r0, #2
 4344              	.L694:
 4345 0124 03B0     		add	sp, sp, #12
 4346              		@ sp needed
 4347 0126 BDE8F083 		pop	{r4, r5, r6, r7, r8, r9, pc}
 4348              	.L722:
ARM GAS  /tmp/ccCGIf4Q.s 			page 76


 4349 012a 00BF     		.align	2
 4350              	.L721:
 4351 012c 00000000 		.word	I2C_DMAAbort
 4352 0130 00000000 		.word	I2C_DMAXferCplt
 4353 0134 00000000 		.word	I2C_DMAError
 4355              		.section	.text.HAL_I2C_Slave_Seq_Receive_IT,"ax",%progbits
 4356              		.align	1
 4357              		.global	HAL_I2C_Slave_Seq_Receive_IT
 4358              		.thumb
 4359              		.thumb_func
 4361              	HAL_I2C_Slave_Seq_Receive_IT:
 4362              		@ args = 0, pretend = 0, frame = 8
 4363              		@ frame_needed = 0, uses_anonymous_args = 0
 4364 0000 37B5     		push	{r0, r1, r2, r4, r5, lr}
 4365 0002 90F83D40 		ldrb	r4, [r0, #61]	@ zero_extendqisi2
 4366 0006 04F02804 		and	r4, r4, #40
 4367 000a 282C     		cmp	r4, #40
 4368 000c 33D1     		bne	.L729
 4369 000e 0029     		cmp	r1, #0
 4370 0010 2FD0     		beq	.L728
 4371 0012 002A     		cmp	r2, #0
 4372 0014 2DD0     		beq	.L728
 4373 0016 90F83C40 		ldrb	r4, [r0, #60]	@ zero_extendqisi2
 4374 001a 012C     		cmp	r4, #1
 4375 001c 2BD0     		beq	.L729
 4376 001e 0568     		ldr	r5, [r0]
 4377 0020 0124     		movs	r4, #1
 4378 0022 80F83C40 		strb	r4, [r0, #60]
 4379 0026 2C68     		ldr	r4, [r5]
 4380 0028 E407     		lsls	r4, r4, #31
 4381 002a 5EBF     		ittt	pl
 4382 002c 2C68     		ldrpl	r4, [r5]
 4383 002e 44F00104 		orrpl	r4, r4, #1
 4384 0032 2C60     		strpl	r4, [r5]
 4385 0034 2C68     		ldr	r4, [r5]
 4386 0036 24F40064 		bic	r4, r4, #2048
 4387 003a 2C60     		str	r4, [r5]
 4388 003c 2A24     		movs	r4, #42
 4389 003e 80F83D40 		strb	r4, [r0, #61]
 4390 0042 2024     		movs	r4, #32
 4391 0044 80F83E40 		strb	r4, [r0, #62]
 4392 0048 0024     		movs	r4, #0
 4393 004a 0464     		str	r4, [r0, #64]
 4394 004c 4285     		strh	r2, [r0, #42]	@ movhi
 4395 004e 428D     		ldrh	r2, [r0, #42]
 4396 0050 C362     		str	r3, [r0, #44]
 4397 0052 0194     		str	r4, [sp, #4]
 4398 0054 6B69     		ldr	r3, [r5, #20]
 4399 0056 4162     		str	r1, [r0, #36]
 4400 0058 0193     		str	r3, [sp, #4]
 4401 005a AB69     		ldr	r3, [r5, #24]
 4402 005c 0285     		strh	r2, [r0, #40]	@ movhi
 4403 005e 0193     		str	r3, [sp, #4]
 4404 0060 019B     		ldr	r3, [sp, #4]
 4405 0062 6B68     		ldr	r3, [r5, #4]
 4406 0064 80F83C40 		strb	r4, [r0, #60]
 4407 0068 43F4E063 		orr	r3, r3, #1792
ARM GAS  /tmp/ccCGIf4Q.s 			page 77


 4408 006c 6B60     		str	r3, [r5, #4]
 4409 006e 2046     		mov	r0, r4
 4410 0070 02E0     		b	.L724
 4411              	.L728:
 4412 0072 0120     		movs	r0, #1
 4413 0074 00E0     		b	.L724
 4414              	.L729:
 4415 0076 0220     		movs	r0, #2
 4416              	.L724:
 4417 0078 03B0     		add	sp, sp, #12
 4418              		@ sp needed
 4419 007a 30BD     		pop	{r4, r5, pc}
 4421              		.section	.text.HAL_I2C_Slave_Seq_Receive_DMA,"ax",%progbits
 4422              		.align	1
 4423              		.global	HAL_I2C_Slave_Seq_Receive_DMA
 4424              		.thumb
 4425              		.thumb_func
 4427              	HAL_I2C_Slave_Seq_Receive_DMA:
 4428              		@ args = 0, pretend = 0, frame = 8
 4429              		@ frame_needed = 0, uses_anonymous_args = 0
 4430 0000 2DE9F743 		push	{r0, r1, r2, r4, r5, r6, r7, r8, r9, lr}
 4431 0004 9846     		mov	r8, r3
 4432 0006 90F83D30 		ldrb	r3, [r0, #61]	@ zero_extendqisi2
 4433 000a 0446     		mov	r4, r0
 4434 000c 03F02803 		and	r3, r3, #40
 4435 0010 282B     		cmp	r3, #40
 4436 0012 0E46     		mov	r6, r1
 4437 0014 1746     		mov	r7, r2
 4438 0016 40F08480 		bne	.L741
 4439 001a 0029     		cmp	r1, #0
 4440 001c 7FD0     		beq	.L740
 4441 001e 002A     		cmp	r2, #0
 4442 0020 7DD0     		beq	.L740
 4443 0022 90F83C30 		ldrb	r3, [r0, #60]	@ zero_extendqisi2
 4444 0026 012B     		cmp	r3, #1
 4445 0028 7BD0     		beq	.L741
 4446 002a 0123     		movs	r3, #1
 4447 002c 80F83C30 		strb	r3, [r0, #60]
 4448 0030 0368     		ldr	r3, [r0]
 4449 0032 5A68     		ldr	r2, [r3, #4]
 4450 0034 22F44072 		bic	r2, r2, #768
 4451 0038 5A60     		str	r2, [r3, #4]
 4452 003a 90F83D20 		ldrb	r2, [r0, #61]	@ zero_extendqisi2
 4453 003e 2A2A     		cmp	r2, #42
 4454 0040 0FD1     		bne	.L732
 4455 0042 5A68     		ldr	r2, [r3, #4]
 4456 0044 1105     		lsls	r1, r2, #20
 4457 0046 21D5     		bpl	.L734
 4458 0048 806B     		ldr	r0, [r0, #56]
 4459 004a F8B1     		cbz	r0, .L734
 4460 004c 5A68     		ldr	r2, [r3, #4]
 4461 004e 22F40062 		bic	r2, r2, #2048
 4462 0052 5A60     		str	r2, [r3, #4]
 4463 0054 354B     		ldr	r3, .L758
 4464 0056 4363     		str	r3, [r0, #52]
 4465 0058 FFF7FEFF 		bl	HAL_DMA_Abort_IT
 4466 005c B0B1     		cbz	r0, .L734
ARM GAS  /tmp/ccCGIf4Q.s 			page 78


 4467 005e A06B     		ldr	r0, [r4, #56]
 4468 0060 12E0     		b	.L757
 4469              	.L732:
 4470 0062 90F83D20 		ldrb	r2, [r0, #61]	@ zero_extendqisi2
 4471 0066 292A     		cmp	r2, #41
 4472 0068 10D1     		bne	.L734
 4473 006a 5A68     		ldr	r2, [r3, #4]
 4474 006c 1205     		lsls	r2, r2, #20
 4475 006e 0DD5     		bpl	.L734
 4476 0070 5A68     		ldr	r2, [r3, #4]
 4477 0072 406B     		ldr	r0, [r0, #52]
 4478 0074 22F40062 		bic	r2, r2, #2048
 4479 0078 5A60     		str	r2, [r3, #4]
 4480 007a 38B1     		cbz	r0, .L734
 4481 007c 2B4B     		ldr	r3, .L758
 4482 007e 4363     		str	r3, [r0, #52]
 4483 0080 FFF7FEFF 		bl	HAL_DMA_Abort_IT
 4484 0084 10B1     		cbz	r0, .L734
 4485 0086 606B     		ldr	r0, [r4, #52]
 4486              	.L757:
 4487 0088 436B     		ldr	r3, [r0, #52]
 4488 008a 9847     		blx	r3
 4489              	.L734:
 4490 008c 2168     		ldr	r1, [r4]
 4491 008e 0025     		movs	r5, #0
 4492 0090 0B68     		ldr	r3, [r1]
 4493 0092 4FF02009 		mov	r9, #32
 4494 0096 DB07     		lsls	r3, r3, #31
 4495 0098 58BF     		it	pl
 4496 009a 0B68     		ldrpl	r3, [r1]
 4497 009c A06B     		ldr	r0, [r4, #56]
 4498 009e 5CBF     		itt	pl
 4499 00a0 43F00103 		orrpl	r3, r3, #1
 4500 00a4 0B60     		strpl	r3, [r1]
 4501 00a6 0B68     		ldr	r3, [r1]
 4502 00a8 214A     		ldr	r2, .L758+4
 4503 00aa 23F40063 		bic	r3, r3, #2048
 4504 00ae 41F8103B 		str	r3, [r1], #16
 4505 00b2 2A23     		movs	r3, #42
 4506 00b4 84F83D30 		strb	r3, [r4, #61]
 4507 00b8 84F83E90 		strb	r9, [r4, #62]
 4508 00bc 2564     		str	r5, [r4, #64]
 4509 00be 6785     		strh	r7, [r4, #42]	@ movhi
 4510 00c0 638D     		ldrh	r3, [r4, #42]
 4511 00c2 6662     		str	r6, [r4, #36]
 4512 00c4 9BB2     		uxth	r3, r3
 4513 00c6 2385     		strh	r3, [r4, #40]	@ movhi
 4514 00c8 C4F82C80 		str	r8, [r4, #44]
 4515 00cc 8262     		str	r2, [r0, #40]
 4516 00ce 194A     		ldr	r2, .L758+8
 4517 00d0 C562     		str	r5, [r0, #44]
 4518 00d2 0263     		str	r2, [r0, #48]
 4519 00d4 4563     		str	r5, [r0, #52]
 4520 00d6 3246     		mov	r2, r6
 4521 00d8 FFF7FEFF 		bl	HAL_DMA_Start_IT
 4522 00dc A8B9     		cbnz	r0, .L737
 4523 00de 2368     		ldr	r3, [r4]
ARM GAS  /tmp/ccCGIf4Q.s 			page 79


 4524 00e0 1A68     		ldr	r2, [r3]
 4525 00e2 42F48062 		orr	r2, r2, #1024
 4526 00e6 1A60     		str	r2, [r3]
 4527 00e8 0190     		str	r0, [sp, #4]
 4528 00ea 5A69     		ldr	r2, [r3, #20]
 4529 00ec 0192     		str	r2, [sp, #4]
 4530 00ee 9A69     		ldr	r2, [r3, #24]
 4531 00f0 84F83C00 		strb	r0, [r4, #60]
 4532 00f4 0192     		str	r2, [sp, #4]
 4533 00f6 019A     		ldr	r2, [sp, #4]
 4534 00f8 5A68     		ldr	r2, [r3, #4]
 4535 00fa 42F40062 		orr	r2, r2, #2048
 4536 00fe 5A60     		str	r2, [r3, #4]
 4537 0100 5A68     		ldr	r2, [r3, #4]
 4538 0102 42F44072 		orr	r2, r2, #768
 4539 0106 5A60     		str	r2, [r3, #4]
 4540 0108 0CE0     		b	.L731
 4541              	.L737:
 4542 010a 84F83D90 		strb	r9, [r4, #61]
 4543 010e 84F83E50 		strb	r5, [r4, #62]
 4544 0112 236C     		ldr	r3, [r4, #64]
 4545 0114 84F83C50 		strb	r5, [r4, #60]
 4546 0118 43F01003 		orr	r3, r3, #16
 4547 011c 2364     		str	r3, [r4, #64]
 4548              	.L740:
 4549 011e 0120     		movs	r0, #1
 4550 0120 00E0     		b	.L731
 4551              	.L741:
 4552 0122 0220     		movs	r0, #2
 4553              	.L731:
 4554 0124 03B0     		add	sp, sp, #12
 4555              		@ sp needed
 4556 0126 BDE8F083 		pop	{r4, r5, r6, r7, r8, r9, pc}
 4557              	.L759:
 4558 012a 00BF     		.align	2
 4559              	.L758:
 4560 012c 00000000 		.word	I2C_DMAAbort
 4561 0130 00000000 		.word	I2C_DMAXferCplt
 4562 0134 00000000 		.word	I2C_DMAError
 4564              		.section	.text.HAL_I2C_EnableListen_IT,"ax",%progbits
 4565              		.align	1
 4566              		.global	HAL_I2C_EnableListen_IT
 4567              		.thumb
 4568              		.thumb_func
 4570              	HAL_I2C_EnableListen_IT:
 4571              		@ args = 0, pretend = 0, frame = 0
 4572              		@ frame_needed = 0, uses_anonymous_args = 0
 4573              		@ link register save eliminated.
 4574 0000 90F83D30 		ldrb	r3, [r0, #61]	@ zero_extendqisi2
 4575 0004 202B     		cmp	r3, #32
 4576 0006 14D1     		bne	.L763
 4577 0008 2823     		movs	r3, #40
 4578 000a 80F83D30 		strb	r3, [r0, #61]
 4579 000e 0368     		ldr	r3, [r0]
 4580 0010 0020     		movs	r0, #0
 4581 0012 1A68     		ldr	r2, [r3]
 4582 0014 D207     		lsls	r2, r2, #31
ARM GAS  /tmp/ccCGIf4Q.s 			page 80


 4583 0016 5EBF     		ittt	pl
 4584 0018 1A68     		ldrpl	r2, [r3]
 4585 001a 42F00102 		orrpl	r2, r2, #1
 4586 001e 1A60     		strpl	r2, [r3]
 4587 0020 1A68     		ldr	r2, [r3]
 4588 0022 42F48062 		orr	r2, r2, #1024
 4589 0026 1A60     		str	r2, [r3]
 4590 0028 5A68     		ldr	r2, [r3, #4]
 4591 002a 42F44072 		orr	r2, r2, #768
 4592 002e 5A60     		str	r2, [r3, #4]
 4593 0030 7047     		bx	lr
 4594              	.L763:
 4595 0032 0220     		movs	r0, #2
 4596 0034 7047     		bx	lr
 4598              		.section	.text.HAL_I2C_DisableListen_IT,"ax",%progbits
 4599              		.align	1
 4600              		.global	HAL_I2C_DisableListen_IT
 4601              		.thumb
 4602              		.thumb_func
 4604              	HAL_I2C_DisableListen_IT:
 4605              		@ args = 0, pretend = 0, frame = 0
 4606              		@ frame_needed = 0, uses_anonymous_args = 0
 4607              		@ link register save eliminated.
 4608 0000 90F83D30 		ldrb	r3, [r0, #61]	@ zero_extendqisi2
 4609 0004 282B     		cmp	r3, #40
 4610 0006 18D1     		bne	.L766
 4611 0008 90F83D30 		ldrb	r3, [r0, #61]	@ zero_extendqisi2
 4612 000c 90F83E20 		ldrb	r2, [r0, #62]	@ zero_extendqisi2
 4613 0010 03F00303 		and	r3, r3, #3
 4614 0014 1343     		orrs	r3, r3, r2
 4615 0016 0363     		str	r3, [r0, #48]
 4616 0018 2023     		movs	r3, #32
 4617 001a 80F83D30 		strb	r3, [r0, #61]
 4618 001e 0268     		ldr	r2, [r0]
 4619 0020 0023     		movs	r3, #0
 4620 0022 80F83E30 		strb	r3, [r0, #62]
 4621 0026 1168     		ldr	r1, [r2]
 4622 0028 1846     		mov	r0, r3
 4623 002a 21F48061 		bic	r1, r1, #1024
 4624 002e 1160     		str	r1, [r2]
 4625 0030 5168     		ldr	r1, [r2, #4]
 4626 0032 21F44071 		bic	r1, r1, #768
 4627 0036 5160     		str	r1, [r2, #4]
 4628 0038 7047     		bx	lr
 4629              	.L766:
 4630 003a 0220     		movs	r0, #2
 4631 003c 7047     		bx	lr
 4633              		.section	.text.HAL_I2C_MasterTxCpltCallback,"ax",%progbits
 4634              		.align	1
 4635              		.weak	HAL_I2C_MasterTxCpltCallback
 4636              		.thumb
 4637              		.thumb_func
 4639              	HAL_I2C_MasterTxCpltCallback:
 4640              		@ args = 0, pretend = 0, frame = 0
 4641              		@ frame_needed = 0, uses_anonymous_args = 0
 4642              		@ link register save eliminated.
 4643 0000 7047     		bx	lr
ARM GAS  /tmp/ccCGIf4Q.s 			page 81


 4645              		.section	.text.HAL_I2C_MasterRxCpltCallback,"ax",%progbits
 4646              		.align	1
 4647              		.weak	HAL_I2C_MasterRxCpltCallback
 4648              		.thumb
 4649              		.thumb_func
 4651              	HAL_I2C_MasterRxCpltCallback:
 4652              		@ args = 0, pretend = 0, frame = 0
 4653              		@ frame_needed = 0, uses_anonymous_args = 0
 4654              		@ link register save eliminated.
 4655 0000 7047     		bx	lr
 4657              		.section	.text.HAL_I2C_SlaveTxCpltCallback,"ax",%progbits
 4658              		.align	1
 4659              		.weak	HAL_I2C_SlaveTxCpltCallback
 4660              		.thumb
 4661              		.thumb_func
 4663              	HAL_I2C_SlaveTxCpltCallback:
 4664              		@ args = 0, pretend = 0, frame = 0
 4665              		@ frame_needed = 0, uses_anonymous_args = 0
 4666              		@ link register save eliminated.
 4667 0000 7047     		bx	lr
 4669              		.section	.text.HAL_I2C_SlaveRxCpltCallback,"ax",%progbits
 4670              		.align	1
 4671              		.weak	HAL_I2C_SlaveRxCpltCallback
 4672              		.thumb
 4673              		.thumb_func
 4675              	HAL_I2C_SlaveRxCpltCallback:
 4676              		@ args = 0, pretend = 0, frame = 0
 4677              		@ frame_needed = 0, uses_anonymous_args = 0
 4678              		@ link register save eliminated.
 4679 0000 7047     		bx	lr
 4681              		.section	.text.HAL_I2C_AddrCallback,"ax",%progbits
 4682              		.align	1
 4683              		.weak	HAL_I2C_AddrCallback
 4684              		.thumb
 4685              		.thumb_func
 4687              	HAL_I2C_AddrCallback:
 4688              		@ args = 0, pretend = 0, frame = 0
 4689              		@ frame_needed = 0, uses_anonymous_args = 0
 4690              		@ link register save eliminated.
 4691 0000 7047     		bx	lr
 4693              		.section	.text.HAL_I2C_ListenCpltCallback,"ax",%progbits
 4694              		.align	1
 4695              		.weak	HAL_I2C_ListenCpltCallback
 4696              		.thumb
 4697              		.thumb_func
 4699              	HAL_I2C_ListenCpltCallback:
 4700              		@ args = 0, pretend = 0, frame = 0
 4701              		@ frame_needed = 0, uses_anonymous_args = 0
 4702              		@ link register save eliminated.
 4703 0000 7047     		bx	lr
 4705              		.section	.text.HAL_I2C_MemTxCpltCallback,"ax",%progbits
 4706              		.align	1
 4707              		.weak	HAL_I2C_MemTxCpltCallback
 4708              		.thumb
 4709              		.thumb_func
 4711              	HAL_I2C_MemTxCpltCallback:
 4712              		@ args = 0, pretend = 0, frame = 0
ARM GAS  /tmp/ccCGIf4Q.s 			page 82


 4713              		@ frame_needed = 0, uses_anonymous_args = 0
 4714              		@ link register save eliminated.
 4715 0000 7047     		bx	lr
 4717              		.section	.text.HAL_I2C_MemRxCpltCallback,"ax",%progbits
 4718              		.align	1
 4719              		.weak	HAL_I2C_MemRxCpltCallback
 4720              		.thumb
 4721              		.thumb_func
 4723              	HAL_I2C_MemRxCpltCallback:
 4724              		@ args = 0, pretend = 0, frame = 0
 4725              		@ frame_needed = 0, uses_anonymous_args = 0
 4726              		@ link register save eliminated.
 4727 0000 7047     		bx	lr
 4729              		.section	.text.HAL_I2C_ErrorCallback,"ax",%progbits
 4730              		.align	1
 4731              		.weak	HAL_I2C_ErrorCallback
 4732              		.thumb
 4733              		.thumb_func
 4735              	HAL_I2C_ErrorCallback:
 4736              		@ args = 0, pretend = 0, frame = 0
 4737              		@ frame_needed = 0, uses_anonymous_args = 0
 4738              		@ link register save eliminated.
 4739 0000 7047     		bx	lr
 4741              		.section	.text.I2C_DMAError,"ax",%progbits
 4742              		.align	1
 4743              		.thumb
 4744              		.thumb_func
 4746              	I2C_DMAError:
 4747              		@ args = 0, pretend = 0, frame = 0
 4748              		@ frame_needed = 0, uses_anonymous_args = 0
 4749 0000 406A     		ldr	r0, [r0, #36]
 4750 0002 08B5     		push	{r3, lr}
 4751 0004 426B     		ldr	r2, [r0, #52]
 4752 0006 0023     		movs	r3, #0
 4753 0008 9362     		str	r3, [r2, #40]
 4754 000a 0168     		ldr	r1, [r0]
 4755 000c 826B     		ldr	r2, [r0, #56]
 4756 000e 9362     		str	r3, [r2, #40]
 4757 0010 0A68     		ldr	r2, [r1]
 4758 0012 22F48062 		bic	r2, r2, #1024
 4759 0016 0A60     		str	r2, [r1]
 4760 0018 2022     		movs	r2, #32
 4761 001a 4385     		strh	r3, [r0, #42]	@ movhi
 4762 001c 80F83D20 		strb	r2, [r0, #61]
 4763 0020 80F83E30 		strb	r3, [r0, #62]
 4764 0024 036C     		ldr	r3, [r0, #64]
 4765 0026 43F01003 		orr	r3, r3, #16
 4766 002a 0364     		str	r3, [r0, #64]
 4767 002c FFF7FEFF 		bl	HAL_I2C_ErrorCallback
 4768 0030 08BD     		pop	{r3, pc}
 4770              		.section	.text.I2C_DMAXferCplt,"ax",%progbits
 4771              		.align	1
 4772              		.thumb
 4773              		.thumb_func
 4775              	I2C_DMAXferCplt:
 4776              		@ args = 0, pretend = 0, frame = 0
 4777              		@ frame_needed = 0, uses_anonymous_args = 0
ARM GAS  /tmp/ccCGIf4Q.s 			page 83


 4778 0000 70B5     		push	{r4, r5, r6, lr}
 4779 0002 446A     		ldr	r4, [r0, #36]
 4780 0004 2368     		ldr	r3, [r4]
 4781 0006 94F83D20 		ldrb	r2, [r4, #61]	@ zero_extendqisi2
 4782 000a 94F83E00 		ldrb	r0, [r4, #62]	@ zero_extendqisi2
 4783 000e E16A     		ldr	r1, [r4, #44]
 4784 0010 5D68     		ldr	r5, [r3, #4]
 4785 0012 666B     		ldr	r6, [r4, #52]
 4786 0014 25F44075 		bic	r5, r5, #768
 4787 0018 5D60     		str	r5, [r3, #4]
 4788 001a 0025     		movs	r5, #0
 4789 001c B562     		str	r5, [r6, #40]
 4790 001e A66B     		ldr	r6, [r4, #56]
 4791 0020 D2B2     		uxtb	r2, r2
 4792 0022 B562     		str	r5, [r6, #40]
 4793 0024 02F02105 		and	r5, r2, #33
 4794 0028 212D     		cmp	r5, #33
 4795 002a C0B2     		uxtb	r0, r0
 4796 002c 05D0     		beq	.L778
 4797 002e 02F02205 		and	r5, r2, #34
 4798 0032 222D     		cmp	r5, #34
 4799 0034 23D1     		bne	.L779
 4800 0036 2028     		cmp	r0, #32
 4801 0038 21D1     		bne	.L779
 4802              	.L778:
 4803 003a 5968     		ldr	r1, [r3, #4]
 4804 003c 292A     		cmp	r2, #41
 4805 003e 21F40061 		bic	r1, r1, #2048
 4806 0042 5960     		str	r1, [r3, #4]
 4807 0044 4FF00003 		mov	r3, #0
 4808 0048 6385     		strh	r3, [r4, #42]	@ movhi
 4809 004a 08D1     		bne	.L780
 4810 004c 2123     		movs	r3, #33
 4811 004e 2363     		str	r3, [r4, #48]
 4812 0050 2823     		movs	r3, #40
 4813 0052 84F83D30 		strb	r3, [r4, #61]
 4814 0056 2046     		mov	r0, r4
 4815 0058 FFF7FEFF 		bl	HAL_I2C_SlaveTxCpltCallback
 4816 005c 09E0     		b	.L781
 4817              	.L780:
 4818 005e 2A2A     		cmp	r2, #42
 4819 0060 07D1     		bne	.L781
 4820 0062 2223     		movs	r3, #34
 4821 0064 2363     		str	r3, [r4, #48]
 4822 0066 2823     		movs	r3, #40
 4823 0068 84F83D30 		strb	r3, [r4, #61]
 4824 006c 2046     		mov	r0, r4
 4825 006e FFF7FEFF 		bl	HAL_I2C_SlaveRxCpltCallback
 4826              	.L781:
 4827 0072 2268     		ldr	r2, [r4]
 4828 0074 5368     		ldr	r3, [r2, #4]
 4829 0076 43F44073 		orr	r3, r3, #768
 4830 007a 5360     		str	r3, [r2, #4]
 4831 007c 70BD     		pop	{r4, r5, r6, pc}
 4832              	.L779:
 4833 007e 94F83E20 		ldrb	r2, [r4, #62]	@ zero_extendqisi2
 4834 0082 002A     		cmp	r2, #0
ARM GAS  /tmp/ccCGIf4Q.s 			page 84


 4835 0084 3CD0     		beq	.L777
 4836 0086 628D     		ldrh	r2, [r4, #42]
 4837 0088 92B2     		uxth	r2, r2
 4838 008a 012A     		cmp	r2, #1
 4839 008c 02BF     		ittt	eq
 4840 008e 1A68     		ldreq	r2, [r3]
 4841 0090 22F48062 		biceq	r2, r2, #1024
 4842 0094 1A60     		streq	r2, [r3]
 4843 0096 5A68     		ldr	r2, [r3, #4]
 4844 0098 11F5803F 		cmn	r1, #65536
 4845 009c 22F44072 		bic	r2, r2, #768
 4846 00a0 5A60     		str	r2, [r3, #4]
 4847 00a2 06D0     		beq	.L784
 4848 00a4 0829     		cmp	r1, #8
 4849 00a6 04D0     		beq	.L784
 4850 00a8 B1F12A4F 		cmp	r1, #-1442840576
 4851 00ac 01D0     		beq	.L784
 4852 00ae 2029     		cmp	r1, #32
 4853 00b0 03D1     		bne	.L785
 4854              	.L784:
 4855 00b2 1A68     		ldr	r2, [r3]
 4856 00b4 42F40072 		orr	r2, r2, #512
 4857 00b8 1A60     		str	r2, [r3]
 4858              	.L785:
 4859 00ba 5A68     		ldr	r2, [r3, #4]
 4860 00bc 22F48052 		bic	r2, r2, #4096
 4861 00c0 5A60     		str	r2, [r3, #4]
 4862 00c2 5A68     		ldr	r2, [r3, #4]
 4863 00c4 22F40062 		bic	r2, r2, #2048
 4864 00c8 5A60     		str	r2, [r3, #4]
 4865 00ca 0023     		movs	r3, #0
 4866 00cc 6385     		strh	r3, [r4, #42]	@ movhi
 4867 00ce 236C     		ldr	r3, [r4, #64]
 4868 00d0 1BB1     		cbz	r3, .L786
 4869 00d2 2046     		mov	r0, r4
 4870 00d4 FFF7FEFF 		bl	HAL_I2C_ErrorCallback
 4871 00d8 70BD     		pop	{r4, r5, r6, pc}
 4872              	.L786:
 4873 00da 2022     		movs	r2, #32
 4874 00dc 84F83D20 		strb	r2, [r4, #61]
 4875 00e0 94F83E20 		ldrb	r2, [r4, #62]	@ zero_extendqisi2
 4876 00e4 84F83E30 		strb	r3, [r4, #62]
 4877 00e8 402A     		cmp	r2, #64
 4878 00ea 04D1     		bne	.L787
 4879 00ec 2363     		str	r3, [r4, #48]
 4880 00ee 2046     		mov	r0, r4
 4881 00f0 FFF7FEFF 		bl	HAL_I2C_MemRxCpltCallback
 4882 00f4 70BD     		pop	{r4, r5, r6, pc}
 4883              	.L787:
 4884 00f6 1223     		movs	r3, #18
 4885 00f8 2363     		str	r3, [r4, #48]
 4886 00fa 2046     		mov	r0, r4
 4887 00fc FFF7FEFF 		bl	HAL_I2C_MasterRxCpltCallback
 4888              	.L777:
 4889 0100 70BD     		pop	{r4, r5, r6, pc}
 4891              		.section	.text.HAL_I2C_AbortCpltCallback,"ax",%progbits
 4892              		.align	1
ARM GAS  /tmp/ccCGIf4Q.s 			page 85


 4893              		.weak	HAL_I2C_AbortCpltCallback
 4894              		.thumb
 4895              		.thumb_func
 4897              	HAL_I2C_AbortCpltCallback:
 4898              		@ args = 0, pretend = 0, frame = 0
 4899              		@ frame_needed = 0, uses_anonymous_args = 0
 4900              		@ link register save eliminated.
 4901 0000 7047     		bx	lr
 4903              		.section	.text.I2C_DMAAbort,"ax",%progbits
 4904              		.align	1
 4905              		.thumb
 4906              		.thumb_func
 4908              	I2C_DMAAbort:
 4909              		@ args = 0, pretend = 0, frame = 0
 4910              		@ frame_needed = 0, uses_anonymous_args = 0
 4911 0000 406A     		ldr	r0, [r0, #36]
 4912 0002 70B5     		push	{r4, r5, r6, lr}
 4913 0004 0268     		ldr	r2, [r0]
 4914 0006 90F83D10 		ldrb	r1, [r0, #61]	@ zero_extendqisi2
 4915 000a 1468     		ldr	r4, [r2]
 4916 000c 466B     		ldr	r6, [r0, #52]
 4917 000e 856B     		ldr	r5, [r0, #56]
 4918 0010 0023     		movs	r3, #0
 4919 0012 24F48064 		bic	r4, r4, #1024
 4920 0016 B362     		str	r3, [r6, #40]
 4921 0018 AB62     		str	r3, [r5, #40]
 4922 001a 1460     		str	r4, [r2]
 4923 001c 4385     		strh	r3, [r0, #42]	@ movhi
 4924 001e 1468     		ldr	r4, [r2]
 4925 0020 7363     		str	r3, [r6, #52]
 4926 0022 24F00104 		bic	r4, r4, #1
 4927 0026 6B63     		str	r3, [r5, #52]
 4928 0028 1460     		str	r4, [r2]
 4929 002a 90F83D40 		ldrb	r4, [r0, #61]	@ zero_extendqisi2
 4930 002e C9B2     		uxtb	r1, r1
 4931 0030 602C     		cmp	r4, #96
 4932 0032 08D1     		bne	.L805
 4933 0034 2022     		movs	r2, #32
 4934 0036 80F83D20 		strb	r2, [r0, #61]
 4935 003a 80F83E30 		strb	r3, [r0, #62]
 4936 003e 0364     		str	r3, [r0, #64]
 4937 0040 FFF7FEFF 		bl	HAL_I2C_AbortCpltCallback
 4938 0044 70BD     		pop	{r4, r5, r6, pc}
 4939              	.L805:
 4940 0046 01F02801 		and	r1, r1, #40
 4941 004a 2829     		cmp	r1, #40
 4942 004c 09BF     		itett	eq
 4943 004e 1468     		ldreq	r4, [r2]
 4944 0050 2022     		movne	r2, #32
 4945 0052 44F00104 		orreq	r4, r4, #1
 4946 0056 1460     		streq	r4, [r2]
 4947 0058 09BF     		itett	eq
 4948 005a 1468     		ldreq	r4, [r2]
 4949 005c 80F83D20 		strbne	r2, [r0, #61]
 4950 0060 44F48064 		orreq	r4, r4, #1024
 4951 0064 1460     		streq	r4, [r2]
 4952 0066 12BF     		itee	ne
ARM GAS  /tmp/ccCGIf4Q.s 			page 86


 4953 0068 80F83E30 		strbne	r3, [r0, #62]
 4954 006c 0363     		streq	r3, [r0, #48]
 4955 006e 80F83D10 		strbeq	r1, [r0, #61]
 4956 0072 FFF7FEFF 		bl	HAL_I2C_ErrorCallback
 4957 0076 70BD     		pop	{r4, r5, r6, pc}
 4959              		.section	.text.I2C_ITError,"ax",%progbits
 4960              		.align	1
 4961              		.thumb
 4962              		.thumb_func
 4964              	I2C_ITError:
 4965              		@ args = 0, pretend = 0, frame = 0
 4966              		@ frame_needed = 0, uses_anonymous_args = 0
 4967 0000 90F83D20 		ldrb	r2, [r0, #61]	@ zero_extendqisi2
 4968 0004 90F83E30 		ldrb	r3, [r0, #62]	@ zero_extendqisi2
 4969 0008 10B5     		push	{r4, lr}
 4970 000a 102B     		cmp	r3, #16
 4971 000c 0446     		mov	r4, r0
 4972 000e D2B2     		uxtb	r2, r2
 4973 0010 0368     		ldr	r3, [r0]
 4974 0012 05D1     		bne	.L810
 4975 0014 222A     		cmp	r2, #34
 4976 0016 02BF     		ittt	eq
 4977 0018 1968     		ldreq	r1, [r3]
 4978 001a 21F40061 		biceq	r1, r1, #2048
 4979 001e 1960     		streq	r1, [r3]
 4980              	.L810:
 4981 0020 02F02801 		and	r1, r2, #40
 4982 0024 2829     		cmp	r1, #40
 4983 0026 04D1     		bne	.L811
 4984 0028 0022     		movs	r2, #0
 4985 002a 2263     		str	r2, [r4, #48]
 4986 002c 84F83D10 		strb	r1, [r4, #61]
 4987 0030 0BE0     		b	.L812
 4988              	.L811:
 4989 0032 5968     		ldr	r1, [r3, #4]
 4990 0034 0905     		lsls	r1, r1, #20
 4991 0036 04D4     		bmi	.L813
 4992 0038 602A     		cmp	r2, #96
 4993 003a 1CBF     		itt	ne
 4994 003c 2022     		movne	r2, #32
 4995 003e 84F83D20 		strbne	r2, [r4, #61]
 4996              	.L813:
 4997 0042 0022     		movs	r2, #0
 4998 0044 2263     		str	r2, [r4, #48]
 4999 0046 84F83E20 		strb	r2, [r4, #62]
 5000              	.L812:
 5001 004a 5A68     		ldr	r2, [r3, #4]
 5002 004c 12F40062 		ands	r2, r2, #2048
 5003 0050 35D0     		beq	.L814
 5004 0052 5A68     		ldr	r2, [r3, #4]
 5005 0054 606B     		ldr	r0, [r4, #52]
 5006 0056 22F40062 		bic	r2, r2, #2048
 5007 005a 5A60     		str	r2, [r3, #4]
 5008 005c 90F82130 		ldrb	r3, [r0, #33]	@ zero_extendqisi2
 5009 0060 012B     		cmp	r3, #1
 5010 0062 384B     		ldr	r3, .L843
 5011 0064 0ED0     		beq	.L815
ARM GAS  /tmp/ccCGIf4Q.s 			page 87


 5012 0066 4363     		str	r3, [r0, #52]
 5013 0068 FFF7FEFF 		bl	HAL_DMA_Abort_IT
 5014 006c 0028     		cmp	r0, #0
 5015 006e 4FD0     		beq	.L817
 5016 0070 2268     		ldr	r2, [r4]
 5017 0072 606B     		ldr	r0, [r4, #52]
 5018 0074 1368     		ldr	r3, [r2]
 5019 0076 23F00103 		bic	r3, r3, #1
 5020 007a 1360     		str	r3, [r2]
 5021 007c 2023     		movs	r3, #32
 5022 007e 84F83D30 		strb	r3, [r4, #61]
 5023 0082 19E0     		b	.L842
 5024              	.L815:
 5025 0084 A06B     		ldr	r0, [r4, #56]
 5026 0086 4363     		str	r3, [r0, #52]
 5027 0088 FFF7FEFF 		bl	HAL_DMA_Abort_IT
 5028 008c 0028     		cmp	r0, #0
 5029 008e 3FD0     		beq	.L817
 5030 0090 2368     		ldr	r3, [r4]
 5031 0092 5A69     		ldr	r2, [r3, #20]
 5032 0094 5206     		lsls	r2, r2, #25
 5033 0096 41BF     		itttt	mi
 5034 0098 1B69     		ldrmi	r3, [r3, #16]
 5035 009a 626A     		ldrmi	r2, [r4, #36]
 5036 009c 1370     		strbmi	r3, [r2]
 5037 009e 636A     		ldrmi	r3, [r4, #36]
 5038 00a0 2268     		ldr	r2, [r4]
 5039 00a2 44BF     		itt	mi
 5040 00a4 0133     		addmi	r3, r3, #1
 5041 00a6 6362     		strmi	r3, [r4, #36]
 5042 00a8 1368     		ldr	r3, [r2]
 5043 00aa A06B     		ldr	r0, [r4, #56]
 5044 00ac 23F00103 		bic	r3, r3, #1
 5045 00b0 1360     		str	r3, [r2]
 5046 00b2 2023     		movs	r3, #32
 5047 00b4 84F83D30 		strb	r3, [r4, #61]
 5048              	.L842:
 5049 00b8 436B     		ldr	r3, [r0, #52]
 5050 00ba 9847     		blx	r3
 5051 00bc 28E0     		b	.L817
 5052              	.L814:
 5053 00be 94F83D10 		ldrb	r1, [r4, #61]	@ zero_extendqisi2
 5054 00c2 6029     		cmp	r1, #96
 5055 00c4 17D1     		bne	.L820
 5056 00c6 2021     		movs	r1, #32
 5057 00c8 84F83D10 		strb	r1, [r4, #61]
 5058 00cc 2264     		str	r2, [r4, #64]
 5059 00ce 5A69     		ldr	r2, [r3, #20]
 5060 00d0 5006     		lsls	r0, r2, #25
 5061 00d2 44BF     		itt	mi
 5062 00d4 1B69     		ldrmi	r3, [r3, #16]
 5063 00d6 626A     		ldrmi	r2, [r4, #36]
 5064 00d8 2046     		mov	r0, r4
 5065 00da 44BF     		itt	mi
 5066 00dc 1370     		strbmi	r3, [r2]
 5067 00de 636A     		ldrmi	r3, [r4, #36]
 5068 00e0 2268     		ldr	r2, [r4]
ARM GAS  /tmp/ccCGIf4Q.s 			page 88


 5069 00e2 44BF     		itt	mi
 5070 00e4 0133     		addmi	r3, r3, #1
 5071 00e6 6362     		strmi	r3, [r4, #36]
 5072 00e8 1368     		ldr	r3, [r2]
 5073 00ea 23F00103 		bic	r3, r3, #1
 5074 00ee 1360     		str	r3, [r2]
 5075 00f0 FFF7FEFF 		bl	HAL_I2C_AbortCpltCallback
 5076 00f4 0CE0     		b	.L817
 5077              	.L820:
 5078 00f6 5A69     		ldr	r2, [r3, #20]
 5079 00f8 2046     		mov	r0, r4
 5080 00fa 5106     		lsls	r1, r2, #25
 5081 00fc 41BF     		itttt	mi
 5082 00fe 1B69     		ldrmi	r3, [r3, #16]
 5083 0100 626A     		ldrmi	r2, [r4, #36]
 5084 0102 1370     		strbmi	r3, [r2]
 5085 0104 636A     		ldrmi	r3, [r4, #36]
 5086 0106 44BF     		itt	mi
 5087 0108 0133     		addmi	r3, r3, #1
 5088 010a 6362     		strmi	r3, [r4, #36]
 5089 010c FFF7FEFF 		bl	HAL_I2C_ErrorCallback
 5090              	.L817:
 5091 0110 94F83D30 		ldrb	r3, [r4, #61]	@ zero_extendqisi2
 5092 0114 226C     		ldr	r2, [r4, #64]
 5093 0116 DBB2     		uxtb	r3, r3
 5094 0118 5207     		lsls	r2, r2, #29
 5095 011a 12D5     		bpl	.L809
 5096 011c 282B     		cmp	r3, #40
 5097 011e 10D1     		bne	.L809
 5098 0120 2268     		ldr	r2, [r4]
 5099 0122 2046     		mov	r0, r4
 5100 0124 5368     		ldr	r3, [r2, #4]
 5101 0126 23F4E063 		bic	r3, r3, #1792
 5102 012a 5360     		str	r3, [r2, #4]
 5103 012c 064B     		ldr	r3, .L843+4
 5104 012e 2022     		movs	r2, #32
 5105 0130 E362     		str	r3, [r4, #44]
 5106 0132 0023     		movs	r3, #0
 5107 0134 2363     		str	r3, [r4, #48]
 5108 0136 84F83D20 		strb	r2, [r4, #61]
 5109 013a 84F83E30 		strb	r3, [r4, #62]
 5110 013e FFF7FEFF 		bl	HAL_I2C_ListenCpltCallback
 5111              	.L809:
 5112 0142 10BD     		pop	{r4, pc}
 5113              	.L844:
 5114              		.align	2
 5115              	.L843:
 5116 0144 00000000 		.word	I2C_DMAAbort
 5117 0148 0000FFFF 		.word	-65536
 5119              		.section	.text.HAL_I2C_Master_Abort_IT,"ax",%progbits
 5120              		.align	1
 5121              		.global	HAL_I2C_Master_Abort_IT
 5122              		.thumb
 5123              		.thumb_func
 5125              	HAL_I2C_Master_Abort_IT:
 5126              		@ args = 0, pretend = 0, frame = 0
 5127              		@ frame_needed = 0, uses_anonymous_args = 0
ARM GAS  /tmp/ccCGIf4Q.s 			page 89


 5128 0000 90F83E20 		ldrb	r2, [r0, #62]	@ zero_extendqisi2
 5129 0004 10B5     		push	{r4, lr}
 5130 0006 102A     		cmp	r2, #16
 5131 0008 1CD1     		bne	.L847
 5132 000a 90F83C20 		ldrb	r2, [r0, #60]	@ zero_extendqisi2
 5133 000e 012A     		cmp	r2, #1
 5134 0010 1AD0     		beq	.L848
 5135 0012 0024     		movs	r4, #0
 5136 0014 6022     		movs	r2, #96
 5137 0016 0463     		str	r4, [r0, #48]
 5138 0018 80F83D20 		strb	r2, [r0, #61]
 5139 001c 0268     		ldr	r2, [r0]
 5140 001e 1168     		ldr	r1, [r2]
 5141 0020 21F48061 		bic	r1, r1, #1024
 5142 0024 1160     		str	r1, [r2]
 5143 0026 1168     		ldr	r1, [r2]
 5144 0028 41F40071 		orr	r1, r1, #512
 5145 002c 1160     		str	r1, [r2]
 5146 002e 4485     		strh	r4, [r0, #42]	@ movhi
 5147 0030 5168     		ldr	r1, [r2, #4]
 5148 0032 21F4E061 		bic	r1, r1, #1792
 5149 0036 5160     		str	r1, [r2, #4]
 5150 0038 80F83C40 		strb	r4, [r0, #60]
 5151 003c FFF7FEFF 		bl	I2C_ITError
 5152 0040 2046     		mov	r0, r4
 5153 0042 10BD     		pop	{r4, pc}
 5154              	.L847:
 5155 0044 0120     		movs	r0, #1
 5156 0046 10BD     		pop	{r4, pc}
 5157              	.L848:
 5158 0048 0220     		movs	r0, #2
 5159 004a 10BD     		pop	{r4, pc}
 5161              		.section	.text.HAL_I2C_EV_IRQHandler,"ax",%progbits
 5162              		.align	1
 5163              		.global	HAL_I2C_EV_IRQHandler
 5164              		.thumb
 5165              		.thumb_func
 5167              	HAL_I2C_EV_IRQHandler:
 5168              		@ args = 0, pretend = 0, frame = 48
 5169              		@ frame_needed = 0, uses_anonymous_args = 0
 5170 0000 0368     		ldr	r3, [r0]
 5171 0002 30B5     		push	{r4, r5, lr}
 5172 0004 5A68     		ldr	r2, [r3, #4]
 5173 0006 C56A     		ldr	r5, [r0, #44]
 5174 0008 90F83E10 		ldrb	r1, [r0, #62]	@ zero_extendqisi2
 5175 000c 0446     		mov	r4, r0
 5176 000e C9B2     		uxtb	r1, r1
 5177 0010 90F83D00 		ldrb	r0, [r0, #61]	@ zero_extendqisi2
 5178 0014 1029     		cmp	r1, #16
 5179 0016 8DB0     		sub	sp, sp, #52
 5180 0018 C0B2     		uxtb	r0, r0
 5181 001a 02D0     		beq	.L850
 5182 001c 4029     		cmp	r1, #64
 5183 001e 40F0B182 		bne	.L851
 5184              	.L850:
 5185 0022 9869     		ldr	r0, [r3, #24]
 5186 0024 5969     		ldr	r1, [r3, #20]
ARM GAS  /tmp/ccCGIf4Q.s 			page 90


 5187 0026 11F0010F 		tst	r1, #1
 5188 002a 07D1     		bne	.L852
 5189 002c B5F52A0F 		cmp	r5, #11141120
 5190 0030 00F0FA83 		beq	.L849
 5191 0034 B5F12A4F 		cmp	r5, #-1442840576
 5192 0038 45D1     		bne	.L856
 5193 003a F5E3     		b	.L849
 5194              	.L852:
 5195 003c 9505     		lsls	r5, r2, #22
 5196 003e 42D5     		bpl	.L856
 5197 0040 E26A     		ldr	r2, [r4, #44]
 5198 0042 B2F52A0F 		cmp	r2, #11141120
 5199 0046 01D1     		bne	.L857
 5200 0048 0122     		movs	r2, #1
 5201 004a 04E0     		b	.L1176
 5202              	.L857:
 5203 004c E26A     		ldr	r2, [r4, #44]
 5204 004e B2F12A4F 		cmp	r2, #-1442840576
 5205 0052 01D1     		bne	.L858
 5206 0054 0822     		movs	r2, #8
 5207              	.L1176:
 5208 0056 E262     		str	r2, [r4, #44]
 5209              	.L858:
 5210 0058 94F83E20 		ldrb	r2, [r4, #62]	@ zero_extendqisi2
 5211 005c 402A     		cmp	r2, #64
 5212 005e 0BD1     		bne	.L859
 5213 0060 226D     		ldr	r2, [r4, #80]
 5214 0062 1AB9     		cbnz	r2, .L860
 5215 0064 626C     		ldr	r2, [r4, #68]
 5216 0066 02F0FE02 		and	r2, r2, #254
 5217 006a 03E0     		b	.L1182
 5218              	.L860:
 5219 006c 626C     		ldr	r2, [r4, #68]
 5220 006e 42F00102 		orr	r2, r2, #1
 5221 0072 D2B2     		uxtb	r2, r2
 5222              	.L1182:
 5223 0074 1A61     		str	r2, [r3, #16]
 5224 0076 D7E3     		b	.L849
 5225              	.L859:
 5226 0078 2269     		ldr	r2, [r4, #16]
 5227 007a B2F5804F 		cmp	r2, #16384
 5228 007e 0ED1     		bne	.L861
 5229 0080 94F83D20 		ldrb	r2, [r4, #61]	@ zero_extendqisi2
 5230 0084 212A     		cmp	r2, #33
 5231 0086 626C     		ldr	r2, [r4, #68]
 5232 0088 02D1     		bne	.L862
 5233 008a 02F0FE02 		and	r2, r2, #254
 5234 008e 02E0     		b	.L1177
 5235              	.L862:
 5236 0090 42F00102 		orr	r2, r2, #1
 5237              	.L1200:
 5238 0094 D2B2     		uxtb	r2, r2
 5239              	.L1177:
 5240 0096 1A61     		str	r2, [r3, #16]
 5241 0098 626B     		ldr	r2, [r4, #52]
 5242 009a F2B9     		cbnz	r2, .L868
 5243 009c 19E0     		b	.L1201
ARM GAS  /tmp/ccCGIf4Q.s 			page 91


 5244              	.L861:
 5245 009e 226D     		ldr	r2, [r4, #80]
 5246 00a0 32B9     		cbnz	r2, .L866
 5247 00a2 626C     		ldr	r2, [r4, #68]
 5248 00a4 02F44072 		and	r2, r2, #768
 5249 00a8 D211     		asrs	r2, r2, #7
 5250 00aa 42F0F002 		orr	r2, r2, #240
 5251 00ae E1E7     		b	.L1182
 5252              	.L866:
 5253 00b0 226D     		ldr	r2, [r4, #80]
 5254 00b2 012A     		cmp	r2, #1
 5255 00b4 40F0B883 		bne	.L849
 5256 00b8 626C     		ldr	r2, [r4, #68]
 5257 00ba 02F44072 		and	r2, r2, #768
 5258 00be D211     		asrs	r2, r2, #7
 5259 00c0 42F0F102 		orr	r2, r2, #241
 5260 00c4 D6E7     		b	.L1182
 5261              	.L856:
 5262 00c6 0D07     		lsls	r5, r1, #28
 5263 00c8 12D5     		bpl	.L867
 5264 00ca 9505     		lsls	r5, r2, #22
 5265 00cc 10D5     		bpl	.L867
 5266 00ce 626C     		ldr	r2, [r4, #68]
 5267 00d0 E0E7     		b	.L1200
 5268              	.L1201:
 5269 00d2 A16B     		ldr	r1, [r4, #56]
 5270 00d4 0029     		cmp	r1, #0
 5271 00d6 00F0A783 		beq	.L849
 5272              	.L868:
 5273 00da 926A     		ldr	r2, [r2, #40]
 5274 00dc 22B9     		cbnz	r2, .L869
 5275 00de A26B     		ldr	r2, [r4, #56]
 5276 00e0 926A     		ldr	r2, [r2, #40]
 5277 00e2 002A     		cmp	r2, #0
 5278 00e4 00F0A083 		beq	.L849
 5279              	.L869:
 5280 00e8 5A68     		ldr	r2, [r3, #4]
 5281 00ea 42F40062 		orr	r2, r2, #2048
 5282 00ee 21E1     		b	.L1184
 5283              	.L867:
 5284 00f0 8D07     		lsls	r5, r1, #30
 5285 00f2 40F1E480 		bpl	.L870
 5286 00f6 9505     		lsls	r5, r2, #22
 5287 00f8 40F1E180 		bpl	.L870
 5288 00fc 94F83E10 		ldrb	r1, [r4, #62]	@ zero_extendqisi2
 5289 0100 E26A     		ldr	r2, [r4, #44]
 5290 0102 256B     		ldr	r5, [r4, #48]
 5291 0104 94F83D00 		ldrb	r0, [r4, #61]	@ zero_extendqisi2
 5292 0108 C9B2     		uxtb	r1, r1
 5293 010a 2228     		cmp	r0, #34
 5294 010c 40F0CF80 		bne	.L871
 5295 0110 206D     		ldr	r0, [r4, #80]
 5296 0112 40B9     		cbnz	r0, .L872
 5297 0114 4029     		cmp	r1, #64
 5298 0116 06D1     		bne	.L872
 5299 0118 0090     		str	r0, [sp]
 5300 011a 5A69     		ldr	r2, [r3, #20]
ARM GAS  /tmp/ccCGIf4Q.s 			page 92


 5301 011c 0092     		str	r2, [sp]
 5302 011e 9B69     		ldr	r3, [r3, #24]
 5303 0120 0093     		str	r3, [sp]
 5304 0122 009B     		ldr	r3, [sp]
 5305 0124 80E3     		b	.L849
 5306              	.L872:
 5307 0126 216D     		ldr	r1, [r4, #80]
 5308 0128 71B9     		cbnz	r1, .L873
 5309 012a 2069     		ldr	r0, [r4, #16]
 5310 012c B0F5404F 		cmp	r0, #49152
 5311 0130 0AD1     		bne	.L873
 5312 0132 0191     		str	r1, [sp, #4]
 5313 0134 5A69     		ldr	r2, [r3, #20]
 5314 0136 0192     		str	r2, [sp, #4]
 5315 0138 9A69     		ldr	r2, [r3, #24]
 5316 013a 0192     		str	r2, [sp, #4]
 5317 013c 019A     		ldr	r2, [sp, #4]
 5318 013e 1A68     		ldr	r2, [r3]
 5319 0140 42F48072 		orr	r2, r2, #256
 5320 0144 1A60     		str	r2, [r3]
 5321 0146 0AE1     		b	.L1193
 5322              	.L873:
 5323 0148 618D     		ldrh	r1, [r4, #42]
 5324 014a 89B2     		uxth	r1, r1
 5325 014c 31B9     		cbnz	r1, .L874
 5326 014e 0291     		str	r1, [sp, #8]
 5327 0150 5A69     		ldr	r2, [r3, #20]
 5328 0152 0292     		str	r2, [sp, #8]
 5329 0154 9A69     		ldr	r2, [r3, #24]
 5330 0156 0292     		str	r2, [sp, #8]
 5331 0158 029A     		ldr	r2, [sp, #8]
 5332 015a 20E0     		b	.L1179
 5333              	.L874:
 5334 015c 618D     		ldrh	r1, [r4, #42]
 5335 015e 89B2     		uxth	r1, r1
 5336 0160 0129     		cmp	r1, #1
 5337 0162 4CD1     		bne	.L876
 5338 0164 12F5803F 		cmn	r2, #65536
 5339 0168 1ED1     		bne	.L877
 5340 016a 1A68     		ldr	r2, [r3]
 5341 016c 22F48062 		bic	r2, r2, #1024
 5342 0170 1A60     		str	r2, [r3]
 5343 0172 5A68     		ldr	r2, [r3, #4]
 5344 0174 12F40062 		ands	r2, r2, #2048
 5345 0178 0BD0     		beq	.L878
 5346 017a 1A68     		ldr	r2, [r3]
 5347 017c 22F48062 		bic	r2, r2, #1024
 5348 0180 1A60     		str	r2, [r3]
 5349 0182 0022     		movs	r2, #0
 5350 0184 0392     		str	r2, [sp, #12]
 5351 0186 5A69     		ldr	r2, [r3, #20]
 5352 0188 0392     		str	r2, [sp, #12]
 5353 018a 9B69     		ldr	r3, [r3, #24]
 5354 018c 0393     		str	r3, [sp, #12]
 5355 018e 039B     		ldr	r3, [sp, #12]
 5356 0190 8AE0     		b	.L875
 5357              	.L878:
ARM GAS  /tmp/ccCGIf4Q.s 			page 93


 5358 0192 0492     		str	r2, [sp, #16]
 5359 0194 5A69     		ldr	r2, [r3, #20]
 5360 0196 0492     		str	r2, [sp, #16]
 5361 0198 9A69     		ldr	r2, [r3, #24]
 5362 019a 0492     		str	r2, [sp, #16]
 5363 019c 049A     		ldr	r2, [sp, #16]
 5364              	.L1179:
 5365 019e 1A68     		ldr	r2, [r3]
 5366 01a0 42F40072 		orr	r2, r2, #512
 5367 01a4 1A60     		str	r2, [r3]
 5368 01a6 7FE0     		b	.L875
 5369              	.L877:
 5370 01a8 082A     		cmp	r2, #8
 5371 01aa 1CD0     		beq	.L879
 5372 01ac 202A     		cmp	r2, #32
 5373 01ae 1AD0     		beq	.L879
 5374 01b0 122D     		cmp	r5, #18
 5375 01b2 02D1     		bne	.L880
 5376 01b4 012A     		cmp	r2, #1
 5377 01b6 16D1     		bne	.L879
 5378 01b8 05E0     		b	.L881
 5379              	.L880:
 5380 01ba 042A     		cmp	r2, #4
 5381 01bc 07D0     		beq	.L882
 5382 01be 022A     		cmp	r2, #2
 5383 01c0 05D0     		beq	.L882
 5384 01c2 102A     		cmp	r2, #16
 5385 01c4 03D0     		beq	.L882
 5386              	.L881:
 5387 01c6 1A68     		ldr	r2, [r3]
 5388 01c8 22F48062 		bic	r2, r2, #1024
 5389 01cc 02E0     		b	.L1178
 5390              	.L882:
 5391 01ce 1A68     		ldr	r2, [r3]
 5392 01d0 42F48062 		orr	r2, r2, #1024
 5393              	.L1178:
 5394 01d4 1A60     		str	r2, [r3]
 5395 01d6 0022     		movs	r2, #0
 5396 01d8 0592     		str	r2, [sp, #20]
 5397 01da 5A69     		ldr	r2, [r3, #20]
 5398 01dc 0592     		str	r2, [sp, #20]
 5399 01de 9B69     		ldr	r3, [r3, #24]
 5400 01e0 0593     		str	r3, [sp, #20]
 5401 01e2 059B     		ldr	r3, [sp, #20]
 5402 01e4 60E0     		b	.L875
 5403              	.L879:
 5404 01e6 1A68     		ldr	r2, [r3]
 5405 01e8 22F48062 		bic	r2, r2, #1024
 5406 01ec 1A60     		str	r2, [r3]
 5407 01ee 0022     		movs	r2, #0
 5408 01f0 0692     		str	r2, [sp, #24]
 5409 01f2 5A69     		ldr	r2, [r3, #20]
 5410 01f4 0692     		str	r2, [sp, #24]
 5411 01f6 9A69     		ldr	r2, [r3, #24]
 5412 01f8 0692     		str	r2, [sp, #24]
 5413 01fa 069A     		ldr	r2, [sp, #24]
 5414 01fc CFE7     		b	.L1179
ARM GAS  /tmp/ccCGIf4Q.s 			page 94


 5415              	.L876:
 5416 01fe 618D     		ldrh	r1, [r4, #42]
 5417 0200 89B2     		uxth	r1, r1
 5418 0202 0229     		cmp	r1, #2
 5419 0204 33D1     		bne	.L884
 5420 0206 042A     		cmp	r2, #4
 5421 0208 13D0     		beq	.L885
 5422 020a 022A     		cmp	r2, #2
 5423 020c 11D0     		beq	.L885
 5424 020e 102A     		cmp	r2, #16
 5425 0210 0FD0     		beq	.L885
 5426 0212 1968     		ldr	r1, [r3]
 5427 0214 41F40061 		orr	r1, r1, #2048
 5428 0218 1960     		str	r1, [r3]
 5429 021a 0021     		movs	r1, #0
 5430 021c 0791     		str	r1, [sp, #28]
 5431 021e 5969     		ldr	r1, [r3, #20]
 5432 0220 0791     		str	r1, [sp, #28]
 5433 0222 9969     		ldr	r1, [r3, #24]
 5434 0224 0791     		str	r1, [sp, #28]
 5435 0226 0799     		ldr	r1, [sp, #28]
 5436 0228 1968     		ldr	r1, [r3]
 5437 022a 21F48061 		bic	r1, r1, #1024
 5438 022e 1960     		str	r1, [r3]
 5439 0230 0AE0     		b	.L886
 5440              	.L885:
 5441 0232 1968     		ldr	r1, [r3]
 5442 0234 41F48061 		orr	r1, r1, #1024
 5443 0238 1960     		str	r1, [r3]
 5444 023a 0021     		movs	r1, #0
 5445 023c 0891     		str	r1, [sp, #32]
 5446 023e 5969     		ldr	r1, [r3, #20]
 5447 0240 0891     		str	r1, [sp, #32]
 5448 0242 9969     		ldr	r1, [r3, #24]
 5449 0244 0891     		str	r1, [sp, #32]
 5450 0246 0899     		ldr	r1, [sp, #32]
 5451              	.L886:
 5452 0248 5968     		ldr	r1, [r3, #4]
 5453 024a 0805     		lsls	r0, r1, #20
 5454 024c 2CD5     		bpl	.L875
 5455 024e 12F5803F 		cmn	r2, #65536
 5456 0252 07D0     		beq	.L887
 5457 0254 012A     		cmp	r2, #1
 5458 0256 05D0     		beq	.L887
 5459 0258 082A     		cmp	r2, #8
 5460 025a 03D0     		beq	.L887
 5461 025c 102A     		cmp	r2, #16
 5462 025e 01D0     		beq	.L887
 5463 0260 202A     		cmp	r2, #32
 5464 0262 21D1     		bne	.L875
 5465              	.L887:
 5466 0264 5A68     		ldr	r2, [r3, #4]
 5467 0266 42F48052 		orr	r2, r2, #4096
 5468 026a 5A60     		str	r2, [r3, #4]
 5469 026c 1CE0     		b	.L875
 5470              	.L884:
 5471 026e 1968     		ldr	r1, [r3]
ARM GAS  /tmp/ccCGIf4Q.s 			page 95


 5472 0270 41F48061 		orr	r1, r1, #1024
 5473 0274 1960     		str	r1, [r3]
 5474 0276 5968     		ldr	r1, [r3, #4]
 5475 0278 0905     		lsls	r1, r1, #20
 5476 027a 0ED5     		bpl	.L888
 5477 027c 12F5803F 		cmn	r2, #65536
 5478 0280 07D0     		beq	.L889
 5479 0282 012A     		cmp	r2, #1
 5480 0284 05D0     		beq	.L889
 5481 0286 082A     		cmp	r2, #8
 5482 0288 03D0     		beq	.L889
 5483 028a 102A     		cmp	r2, #16
 5484 028c 01D0     		beq	.L889
 5485 028e 202A     		cmp	r2, #32
 5486 0290 03D1     		bne	.L888
 5487              	.L889:
 5488 0292 5A68     		ldr	r2, [r3, #4]
 5489 0294 42F48052 		orr	r2, r2, #4096
 5490 0298 5A60     		str	r2, [r3, #4]
 5491              	.L888:
 5492 029a 0022     		movs	r2, #0
 5493 029c 0992     		str	r2, [sp, #36]
 5494 029e 5A69     		ldr	r2, [r3, #20]
 5495 02a0 0992     		str	r2, [sp, #36]
 5496 02a2 9B69     		ldr	r3, [r3, #24]
 5497 02a4 0993     		str	r3, [sp, #36]
 5498 02a6 099B     		ldr	r3, [sp, #36]
 5499              	.L875:
 5500 02a8 0023     		movs	r3, #0
 5501              	.L1185:
 5502 02aa 2365     		str	r3, [r4, #80]
 5503 02ac BCE2     		b	.L849
 5504              	.L871:
 5505 02ae 0022     		movs	r2, #0
 5506 02b0 0A92     		str	r2, [sp, #40]
 5507 02b2 5A69     		ldr	r2, [r3, #20]
 5508 02b4 0A92     		str	r2, [sp, #40]
 5509 02b6 9B69     		ldr	r3, [r3, #24]
 5510 02b8 0A93     		str	r3, [sp, #40]
 5511 02ba 0A9B     		ldr	r3, [sp, #40]
 5512 02bc B4E2     		b	.L849
 5513              	.L870:
 5514 02be 10F0040F 		tst	r0, #4
 5515 02c2 5868     		ldr	r0, [r3, #4]
 5516 02c4 00F0A580 		beq	.L890
 5517 02c8 0505     		lsls	r5, r0, #20
 5518 02ca 00F1AD82 		bmi	.L849
 5519 02ce 11F0800F 		tst	r1, #128
 5520 02d2 01F00401 		and	r1, r1, #4
 5521 02d6 5ED0     		beq	.L891
 5522 02d8 5005     		lsls	r0, r2, #21
 5523 02da 5CD5     		bpl	.L891
 5524 02dc 0029     		cmp	r1, #0
 5525 02de 5AD1     		bne	.L891
 5526 02e0 94F83D20 		ldrb	r2, [r4, #61]	@ zero_extendqisi2
 5527 02e4 258D     		ldrh	r5, [r4, #40]
 5528 02e6 94F83E10 		ldrb	r1, [r4, #62]	@ zero_extendqisi2
ARM GAS  /tmp/ccCGIf4Q.s 			page 96


 5529 02ea D2B2     		uxtb	r2, r2
 5530 02ec C9B2     		uxtb	r1, r1
 5531 02ee E06A     		ldr	r0, [r4, #44]
 5532 02f0 95B9     		cbnz	r5, .L892
 5533 02f2 212A     		cmp	r2, #33
 5534 02f4 12D1     		bne	.L893
 5535 02f6 0828     		cmp	r0, #8
 5536 02f8 74D0     		beq	.L904
 5537 02fa 2028     		cmp	r0, #32
 5538 02fc 72D0     		beq	.L904
 5539 02fe 10F5803F 		cmn	r0, #65536
 5540 0302 6FD0     		beq	.L904
 5541 0304 5A68     		ldr	r2, [r3, #4]
 5542 0306 22F4E062 		bic	r2, r2, #1792
 5543 030a 5A60     		str	r2, [r3, #4]
 5544 030c 1123     		movs	r3, #17
 5545 030e 2363     		str	r3, [r4, #48]
 5546 0310 0023     		movs	r3, #0
 5547 0312 84F83E30 		strb	r3, [r4, #62]
 5548 0316 5EE0     		b	.L1195
 5549              	.L892:
 5550 0318 212A     		cmp	r2, #33
 5551 031a 05D0     		beq	.L896
 5552              	.L893:
 5553 031c 4029     		cmp	r1, #64
 5554 031e 40F08382 		bne	.L849
 5555 0322 222A     		cmp	r2, #34
 5556 0324 40F08082 		bne	.L849
 5557              	.L896:
 5558 0328 628D     		ldrh	r2, [r4, #42]
 5559 032a 92B2     		uxth	r2, r2
 5560 032c 22B9     		cbnz	r2, .L897
 5561 032e 5A68     		ldr	r2, [r3, #4]
 5562 0330 22F48062 		bic	r2, r2, #1024
 5563              	.L1184:
 5564 0334 5A60     		str	r2, [r3, #4]
 5565 0336 77E2     		b	.L849
 5566              	.L897:
 5567 0338 94F83E20 		ldrb	r2, [r4, #62]	@ zero_extendqisi2
 5568 033c 402A     		cmp	r2, #64
 5569 033e 40F03482 		bne	.L1197
 5570 0342 226D     		ldr	r2, [r4, #80]
 5571 0344 72B9     		cbnz	r2, .L899
 5572 0346 E26C     		ldr	r2, [r4, #76]
 5573 0348 012A     		cmp	r2, #1
 5574 034a A26C     		ldr	r2, [r4, #72]
 5575 034c 04D1     		bne	.L900
 5576 034e D2B2     		uxtb	r2, r2
 5577 0350 1A61     		str	r2, [r3, #16]
 5578 0352 236D     		ldr	r3, [r4, #80]
 5579 0354 0233     		adds	r3, r3, #2
 5580 0356 A8E7     		b	.L1185
 5581              	.L900:
 5582 0358 C2F30722 		ubfx	r2, r2, #8, #8
 5583              	.L1194:
 5584 035c 1A61     		str	r2, [r3, #16]
 5585              	.L1193:
ARM GAS  /tmp/ccCGIf4Q.s 			page 97


 5586 035e 236D     		ldr	r3, [r4, #80]
 5587 0360 0133     		adds	r3, r3, #1
 5588 0362 A2E7     		b	.L1185
 5589              	.L899:
 5590 0364 226D     		ldr	r2, [r4, #80]
 5591 0366 012A     		cmp	r2, #1
 5592 0368 02D1     		bne	.L901
 5593 036a A26C     		ldr	r2, [r4, #72]
 5594 036c D2B2     		uxtb	r2, r2
 5595 036e F5E7     		b	.L1194
 5596              	.L901:
 5597 0370 226D     		ldr	r2, [r4, #80]
 5598 0372 022A     		cmp	r2, #2
 5599 0374 40F05882 		bne	.L849
 5600 0378 94F83D20 		ldrb	r2, [r4, #61]	@ zero_extendqisi2
 5601 037c 222A     		cmp	r2, #34
 5602 037e 04D1     		bne	.L902
 5603 0380 1A68     		ldr	r2, [r3]
 5604 0382 42F48072 		orr	r2, r2, #256
 5605 0386 1A60     		str	r2, [r3]
 5606 0388 4EE2     		b	.L849
 5607              	.L902:
 5608 038a 94F83D20 		ldrb	r2, [r4, #61]	@ zero_extendqisi2
 5609 038e 212A     		cmp	r2, #33
 5610 0390 40F04A82 		bne	.L849
 5611 0394 09E2     		b	.L1197
 5612              	.L891:
 5613 0396 0029     		cmp	r1, #0
 5614 0398 00F04682 		beq	.L849
 5615 039c 9205     		lsls	r2, r2, #22
 5616 039e 40F14382 		bpl	.L849
 5617 03a2 E16A     		ldr	r1, [r4, #44]
 5618 03a4 94F83D20 		ldrb	r2, [r4, #61]	@ zero_extendqisi2
 5619 03a8 212A     		cmp	r2, #33
 5620 03aa 40F03D82 		bne	.L849
 5621 03ae 628D     		ldrh	r2, [r4, #42]
 5622 03b0 92B2     		uxth	r2, r2
 5623 03b2 002A     		cmp	r2, #0
 5624 03b4 40F0F981 		bne	.L1197
 5625 03b8 0829     		cmp	r1, #8
 5626 03ba 13D0     		beq	.L904
 5627 03bc 2029     		cmp	r1, #32
 5628 03be 11D0     		beq	.L904
 5629 03c0 11F5803F 		cmn	r1, #65536
 5630 03c4 0ED0     		beq	.L904
 5631 03c6 5968     		ldr	r1, [r3, #4]
 5632 03c8 21F4E061 		bic	r1, r1, #1792
 5633 03cc 5960     		str	r1, [r3, #4]
 5634 03ce 1123     		movs	r3, #17
 5635 03d0 2363     		str	r3, [r4, #48]
 5636 03d2 84F83E20 		strb	r2, [r4, #62]
 5637              	.L1195:
 5638 03d6 2046     		mov	r0, r4
 5639 03d8 2023     		movs	r3, #32
 5640 03da 84F83D30 		strb	r3, [r4, #61]
 5641              	.L1187:
 5642 03de FFF7FEFF 		bl	HAL_I2C_MasterTxCpltCallback
ARM GAS  /tmp/ccCGIf4Q.s 			page 98


 5643 03e2 21E2     		b	.L849
 5644              	.L904:
 5645 03e4 5A68     		ldr	r2, [r3, #4]
 5646 03e6 2046     		mov	r0, r4
 5647 03e8 22F4E062 		bic	r2, r2, #1792
 5648 03ec 5A60     		str	r2, [r3, #4]
 5649 03ee 1A68     		ldr	r2, [r3]
 5650 03f0 42F40072 		orr	r2, r2, #512
 5651 03f4 1A60     		str	r2, [r3]
 5652 03f6 0023     		movs	r3, #0
 5653 03f8 2022     		movs	r2, #32
 5654 03fa 2363     		str	r3, [r4, #48]
 5655 03fc 84F83D20 		strb	r2, [r4, #61]
 5656 0400 94F83E20 		ldrb	r2, [r4, #62]	@ zero_extendqisi2
 5657 0404 84F83E30 		strb	r3, [r4, #62]
 5658 0408 402A     		cmp	r2, #64
 5659 040a E8D1     		bne	.L1187
 5660 040c FFF7FEFF 		bl	HAL_I2C_MemTxCpltCallback
 5661 0410 0AE2     		b	.L849
 5662              	.L890:
 5663 0412 0505     		lsls	r5, r0, #20
 5664 0414 00F10882 		bmi	.L849
 5665 0418 11F0400F 		tst	r1, #64
 5666 041c 01F00401 		and	r1, r1, #4
 5667 0420 45D0     		beq	.L906
 5668 0422 5005     		lsls	r0, r2, #21
 5669 0424 43D5     		bpl	.L906
 5670 0426 0029     		cmp	r1, #0
 5671 0428 41D1     		bne	.L906
 5672 042a 94F83D20 		ldrb	r2, [r4, #61]	@ zero_extendqisi2
 5673 042e 222A     		cmp	r2, #34
 5674 0430 40F0FA81 		bne	.L849
 5675 0434 628D     		ldrh	r2, [r4, #42]
 5676 0436 92B2     		uxth	r2, r2
 5677 0438 032A     		cmp	r2, #3
 5678 043a 14D9     		bls	.L907
 5679 043c 1B69     		ldr	r3, [r3, #16]
 5680 043e 626A     		ldr	r2, [r4, #36]
 5681 0440 1370     		strb	r3, [r2]
 5682 0442 636A     		ldr	r3, [r4, #36]
 5683 0444 0133     		adds	r3, r3, #1
 5684 0446 6362     		str	r3, [r4, #36]
 5685 0448 638D     		ldrh	r3, [r4, #42]
 5686 044a 013B     		subs	r3, r3, #1
 5687 044c 9BB2     		uxth	r3, r3
 5688 044e 6385     		strh	r3, [r4, #42]	@ movhi
 5689 0450 638D     		ldrh	r3, [r4, #42]
 5690 0452 9BB2     		uxth	r3, r3
 5691 0454 032B     		cmp	r3, #3
 5692 0456 40F0E781 		bne	.L849
 5693 045a 2268     		ldr	r2, [r4]
 5694 045c 5368     		ldr	r3, [r2, #4]
 5695 045e 23F48063 		bic	r3, r3, #1024
 5696 0462 5360     		str	r3, [r2, #4]
 5697 0464 E0E1     		b	.L849
 5698              	.L907:
 5699 0466 E06A     		ldr	r0, [r4, #44]
ARM GAS  /tmp/ccCGIf4Q.s 			page 99


 5700 0468 0228     		cmp	r0, #2
 5701 046a 00F0DD81 		beq	.L849
 5702 046e 012A     		cmp	r2, #1
 5703 0470 00F2DA81 		bhi	.L849
 5704 0474 1A68     		ldr	r2, [r3]
 5705 0476 22F48062 		bic	r2, r2, #1024
 5706 047a 1A60     		str	r2, [r3]
 5707 047c 5A68     		ldr	r2, [r3, #4]
 5708 047e 22F4E062 		bic	r2, r2, #1792
 5709 0482 5A60     		str	r2, [r3, #4]
 5710 0484 1B69     		ldr	r3, [r3, #16]
 5711 0486 626A     		ldr	r2, [r4, #36]
 5712 0488 1370     		strb	r3, [r2]
 5713 048a 636A     		ldr	r3, [r4, #36]
 5714 048c 0133     		adds	r3, r3, #1
 5715 048e 6362     		str	r3, [r4, #36]
 5716 0490 638D     		ldrh	r3, [r4, #42]
 5717 0492 013B     		subs	r3, r3, #1
 5718 0494 9BB2     		uxth	r3, r3
 5719 0496 6385     		strh	r3, [r4, #42]	@ movhi
 5720 0498 2023     		movs	r3, #32
 5721 049a 84F83D30 		strb	r3, [r4, #61]
 5722 049e 94F83E30 		ldrb	r3, [r4, #62]	@ zero_extendqisi2
 5723 04a2 84F83E10 		strb	r1, [r4, #62]
 5724 04a6 402B     		cmp	r3, #64
 5725 04a8 63D1     		bne	.L918
 5726 04aa 2163     		str	r1, [r4, #48]
 5727 04ac 5DE0     		b	.L1189
 5728              	.L906:
 5729 04ae 0029     		cmp	r1, #0
 5730 04b0 00F0BA81 		beq	.L849
 5731 04b4 9205     		lsls	r2, r2, #22
 5732 04b6 40F1B781 		bpl	.L849
 5733 04ba E26A     		ldr	r2, [r4, #44]
 5734 04bc 618D     		ldrh	r1, [r4, #42]
 5735 04be 89B2     		uxth	r1, r1
 5736 04c0 0429     		cmp	r1, #4
 5737 04c2 616A     		ldr	r1, [r4, #36]
 5738 04c4 04D1     		bne	.L909
 5739 04c6 5A68     		ldr	r2, [r3, #4]
 5740 04c8 22F48062 		bic	r2, r2, #1024
 5741 04cc 5A60     		str	r2, [r3, #4]
 5742 04ce 56E0     		b	.L912
 5743              	.L909:
 5744 04d0 608D     		ldrh	r0, [r4, #42]
 5745 04d2 80B2     		uxth	r0, r0
 5746 04d4 0328     		cmp	r0, #3
 5747 04d6 0CD1     		bne	.L910
 5748 04d8 5868     		ldr	r0, [r3, #4]
 5749 04da 042A     		cmp	r2, #4
 5750 04dc 20F48060 		bic	r0, r0, #1024
 5751 04e0 5860     		str	r0, [r3, #4]
 5752 04e2 4CD0     		beq	.L912
 5753 04e4 022A     		cmp	r2, #2
 5754 04e6 4AD0     		beq	.L912
 5755 04e8 1A68     		ldr	r2, [r3]
 5756 04ea 22F48062 		bic	r2, r2, #1024
ARM GAS  /tmp/ccCGIf4Q.s 			page 100


 5757 04ee 1A60     		str	r2, [r3]
 5758 04f0 45E0     		b	.L912
 5759              	.L910:
 5760 04f2 608D     		ldrh	r0, [r4, #42]
 5761 04f4 80B2     		uxth	r0, r0
 5762 04f6 0228     		cmp	r0, #2
 5763 04f8 41D1     		bne	.L912
 5764 04fa 012A     		cmp	r2, #1
 5765 04fc 01D0     		beq	.L913
 5766 04fe 102A     		cmp	r2, #16
 5767 0500 03D1     		bne	.L914
 5768              	.L913:
 5769 0502 1A68     		ldr	r2, [r3]
 5770 0504 22F48062 		bic	r2, r2, #1024
 5771 0508 0AE0     		b	.L1180
 5772              	.L914:
 5773 050a 042A     		cmp	r2, #4
 5774 050c 01D0     		beq	.L916
 5775 050e 022A     		cmp	r2, #2
 5776 0510 03D1     		bne	.L917
 5777              	.L916:
 5778 0512 1A68     		ldr	r2, [r3]
 5779 0514 42F48062 		orr	r2, r2, #1024
 5780 0518 02E0     		b	.L1180
 5781              	.L917:
 5782 051a 1A68     		ldr	r2, [r3]
 5783 051c 42F40072 		orr	r2, r2, #512
 5784              	.L1180:
 5785 0520 1A60     		str	r2, [r3]
 5786 0522 1B69     		ldr	r3, [r3, #16]
 5787 0524 0B70     		strb	r3, [r1]
 5788 0526 626A     		ldr	r2, [r4, #36]
 5789 0528 531C     		adds	r3, r2, #1
 5790 052a 6362     		str	r3, [r4, #36]
 5791 052c 638D     		ldrh	r3, [r4, #42]
 5792 052e 013B     		subs	r3, r3, #1
 5793 0530 9BB2     		uxth	r3, r3
 5794 0532 6385     		strh	r3, [r4, #42]	@ movhi
 5795 0534 2368     		ldr	r3, [r4]
 5796 0536 1B69     		ldr	r3, [r3, #16]
 5797 0538 5370     		strb	r3, [r2, #1]
 5798 053a 636A     		ldr	r3, [r4, #36]
 5799 053c 2268     		ldr	r2, [r4]
 5800 053e 0133     		adds	r3, r3, #1
 5801 0540 6362     		str	r3, [r4, #36]
 5802 0542 638D     		ldrh	r3, [r4, #42]
 5803 0544 013B     		subs	r3, r3, #1
 5804 0546 9BB2     		uxth	r3, r3
 5805 0548 6385     		strh	r3, [r4, #42]	@ movhi
 5806 054a 5368     		ldr	r3, [r2, #4]
 5807 054c 23F44073 		bic	r3, r3, #768
 5808 0550 5360     		str	r3, [r2, #4]
 5809 0552 2023     		movs	r3, #32
 5810 0554 84F83D30 		strb	r3, [r4, #61]
 5811 0558 94F83E30 		ldrb	r3, [r4, #62]	@ zero_extendqisi2
 5812 055c 402B     		cmp	r3, #64
 5813 055e 4FF00003 		mov	r3, #0
ARM GAS  /tmp/ccCGIf4Q.s 			page 101


 5814 0562 84F83E30 		strb	r3, [r4, #62]
 5815 0566 04D1     		bne	.L918
 5816 0568 2363     		str	r3, [r4, #48]
 5817              	.L1189:
 5818 056a 2046     		mov	r0, r4
 5819 056c FFF7FEFF 		bl	HAL_I2C_MemRxCpltCallback
 5820 0570 5AE1     		b	.L849
 5821              	.L918:
 5822 0572 1223     		movs	r3, #18
 5823 0574 2363     		str	r3, [r4, #48]
 5824 0576 2046     		mov	r0, r4
 5825 0578 FFF7FEFF 		bl	HAL_I2C_MasterRxCpltCallback
 5826 057c 54E1     		b	.L849
 5827              	.L912:
 5828 057e 1B69     		ldr	r3, [r3, #16]
 5829 0580 0B70     		strb	r3, [r1]
 5830 0582 4AE1     		b	.L1190
 5831              	.L851:
 5832 0584 216C     		ldr	r1, [r4, #64]
 5833 0586 11B1     		cbz	r1, .L919
 5834 0588 5969     		ldr	r1, [r3, #20]
 5835 058a 0025     		movs	r5, #0
 5836 058c 01E0     		b	.L920
 5837              	.L919:
 5838 058e 9D69     		ldr	r5, [r3, #24]
 5839 0590 5969     		ldr	r1, [r3, #20]
 5840              	.L920:
 5841 0592 11F0020F 		tst	r1, #2
 5842 0596 26D0     		beq	.L921
 5843 0598 12F4007F 		tst	r2, #512
 5844 059c 23D0     		beq	.L921
 5845 059e 226C     		ldr	r2, [r4, #64]
 5846 05a0 02B1     		cbz	r2, .L922
 5847 05a2 9D69     		ldr	r5, [r3, #24]
 5848              	.L922:
 5849 05a4 94F83D20 		ldrb	r2, [r4, #61]	@ zero_extendqisi2
 5850 05a8 02F02802 		and	r2, r2, #40
 5851 05ac 282A     		cmp	r2, #40
 5852 05ae 13D1     		bne	.L923
 5853 05b0 5A68     		ldr	r2, [r3, #4]
 5854 05b2 85F00401 		eor	r1, r5, #4
 5855 05b6 22F48062 		bic	r2, r2, #1024
 5856 05ba 5A60     		str	r2, [r3, #4]
 5857 05bc 2B06     		lsls	r3, r5, #24
 5858 05be 4FF00003 		mov	r3, #0
 5859 05c2 C1F38001 		ubfx	r1, r1, #2, #1
 5860 05c6 54BF     		ite	pl
 5861 05c8 A289     		ldrhpl	r2, [r4, #12]
 5862 05ca 228B     		ldrhmi	r2, [r4, #24]
 5863 05cc 84F83C30 		strb	r3, [r4, #60]
 5864 05d0 2046     		mov	r0, r4
 5865 05d2 FFF7FEFF 		bl	HAL_I2C_AddrCallback
 5866 05d6 27E1     		b	.L849
 5867              	.L923:
 5868 05d8 6FF00202 		mvn	r2, #2
 5869 05dc 5A61     		str	r2, [r3, #20]
 5870 05de 0023     		movs	r3, #0
ARM GAS  /tmp/ccCGIf4Q.s 			page 102


 5871 05e0 84F83C30 		strb	r3, [r4, #60]
 5872 05e4 20E1     		b	.L849
 5873              	.L921:
 5874 05e6 CD06     		lsls	r5, r1, #27
 5875 05e8 40F1AA80 		bpl	.L926
 5876 05ec 9505     		lsls	r5, r2, #22
 5877 05ee 40F1A780 		bpl	.L926
 5878 05f2 94F83D50 		ldrb	r5, [r4, #61]	@ zero_extendqisi2
 5879 05f6 5A68     		ldr	r2, [r3, #4]
 5880 05f8 EDB2     		uxtb	r5, r5
 5881 05fa 22F4E062 		bic	r2, r2, #1792
 5882 05fe 5A60     		str	r2, [r3, #4]
 5883 0600 0022     		movs	r2, #0
 5884 0602 0B92     		str	r2, [sp, #44]
 5885 0604 5A69     		ldr	r2, [r3, #20]
 5886 0606 0B92     		str	r2, [sp, #44]
 5887 0608 1A68     		ldr	r2, [r3]
 5888 060a 42F00102 		orr	r2, r2, #1
 5889 060e 1A60     		str	r2, [r3]
 5890 0610 0B9A     		ldr	r2, [sp, #44]
 5891 0612 1A68     		ldr	r2, [r3]
 5892 0614 22F48062 		bic	r2, r2, #1024
 5893 0618 1A60     		str	r2, [r3]
 5894 061a 5A68     		ldr	r2, [r3, #4]
 5895 061c 1105     		lsls	r1, r2, #20
 5896 061e 3CD5     		bpl	.L928
 5897 0620 05F0F702 		and	r2, r5, #247
 5898 0624 222A     		cmp	r2, #34
 5899 0626 1BD1     		bne	.L929
 5900 0628 A06B     		ldr	r0, [r4, #56]
 5901 062a 0268     		ldr	r2, [r0]
 5902 062c 5268     		ldr	r2, [r2, #4]
 5903 062e 92B2     		uxth	r2, r2
 5904 0630 6285     		strh	r2, [r4, #42]	@ movhi
 5905 0632 628D     		ldrh	r2, [r4, #42]
 5906 0634 92B2     		uxth	r2, r2
 5907 0636 1AB1     		cbz	r2, .L930
 5908 0638 226C     		ldr	r2, [r4, #64]
 5909 063a 42F00402 		orr	r2, r2, #4
 5910 063e 2264     		str	r2, [r4, #64]
 5911              	.L930:
 5912 0640 5A68     		ldr	r2, [r3, #4]
 5913 0642 22F40062 		bic	r2, r2, #2048
 5914 0646 5A60     		str	r2, [r3, #4]
 5915 0648 FFF7FEFF 		bl	HAL_DMA_GetState
 5916 064c 0128     		cmp	r0, #1
 5917 064e 24D0     		beq	.L928
 5918 0650 A06B     		ldr	r0, [r4, #56]
 5919 0652 764B     		ldr	r3, .L1202
 5920 0654 4363     		str	r3, [r0, #52]
 5921 0656 FFF7FEFF 		bl	HAL_DMA_Abort_IT
 5922 065a F0B1     		cbz	r0, .L928
 5923 065c A06B     		ldr	r0, [r4, #56]
 5924 065e 1AE0     		b	.L1181
 5925              	.L929:
 5926 0660 606B     		ldr	r0, [r4, #52]
 5927 0662 0268     		ldr	r2, [r0]
ARM GAS  /tmp/ccCGIf4Q.s 			page 103


 5928 0664 5268     		ldr	r2, [r2, #4]
 5929 0666 92B2     		uxth	r2, r2
 5930 0668 6285     		strh	r2, [r4, #42]	@ movhi
 5931 066a 628D     		ldrh	r2, [r4, #42]
 5932 066c 92B2     		uxth	r2, r2
 5933 066e 1AB1     		cbz	r2, .L932
 5934 0670 226C     		ldr	r2, [r4, #64]
 5935 0672 42F00402 		orr	r2, r2, #4
 5936 0676 2264     		str	r2, [r4, #64]
 5937              	.L932:
 5938 0678 5A68     		ldr	r2, [r3, #4]
 5939 067a 22F40062 		bic	r2, r2, #2048
 5940 067e 5A60     		str	r2, [r3, #4]
 5941 0680 FFF7FEFF 		bl	HAL_DMA_GetState
 5942 0684 0128     		cmp	r0, #1
 5943 0686 08D0     		beq	.L928
 5944 0688 606B     		ldr	r0, [r4, #52]
 5945 068a 684B     		ldr	r3, .L1202
 5946 068c 4363     		str	r3, [r0, #52]
 5947 068e FFF7FEFF 		bl	HAL_DMA_Abort_IT
 5948 0692 10B1     		cbz	r0, .L928
 5949 0694 606B     		ldr	r0, [r4, #52]
 5950              	.L1181:
 5951 0696 436B     		ldr	r3, [r0, #52]
 5952 0698 9847     		blx	r3
 5953              	.L928:
 5954 069a 638D     		ldrh	r3, [r4, #42]
 5955 069c 9BB2     		uxth	r3, r3
 5956 069e 13B3     		cbz	r3, .L934
 5957 06a0 2368     		ldr	r3, [r4]
 5958 06a2 5A69     		ldr	r2, [r3, #20]
 5959 06a4 5207     		lsls	r2, r2, #29
 5960 06a6 09D5     		bpl	.L935
 5961 06a8 1B69     		ldr	r3, [r3, #16]
 5962 06aa 626A     		ldr	r2, [r4, #36]
 5963 06ac 1370     		strb	r3, [r2]
 5964 06ae 636A     		ldr	r3, [r4, #36]
 5965 06b0 0133     		adds	r3, r3, #1
 5966 06b2 6362     		str	r3, [r4, #36]
 5967 06b4 638D     		ldrh	r3, [r4, #42]
 5968 06b6 013B     		subs	r3, r3, #1
 5969 06b8 9BB2     		uxth	r3, r3
 5970 06ba 6385     		strh	r3, [r4, #42]	@ movhi
 5971              	.L935:
 5972 06bc 2368     		ldr	r3, [r4]
 5973 06be 5A69     		ldr	r2, [r3, #20]
 5974 06c0 5006     		lsls	r0, r2, #25
 5975 06c2 09D5     		bpl	.L936
 5976 06c4 1B69     		ldr	r3, [r3, #16]
 5977 06c6 626A     		ldr	r2, [r4, #36]
 5978 06c8 1370     		strb	r3, [r2]
 5979 06ca 636A     		ldr	r3, [r4, #36]
 5980 06cc 0133     		adds	r3, r3, #1
 5981 06ce 6362     		str	r3, [r4, #36]
 5982 06d0 638D     		ldrh	r3, [r4, #42]
 5983 06d2 013B     		subs	r3, r3, #1
 5984 06d4 9BB2     		uxth	r3, r3
ARM GAS  /tmp/ccCGIf4Q.s 			page 104


 5985 06d6 6385     		strh	r3, [r4, #42]	@ movhi
 5986              	.L936:
 5987 06d8 638D     		ldrh	r3, [r4, #42]
 5988 06da 9BB2     		uxth	r3, r3
 5989 06dc 1BB1     		cbz	r3, .L934
 5990 06de 236C     		ldr	r3, [r4, #64]
 5991 06e0 43F00403 		orr	r3, r3, #4
 5992 06e4 2364     		str	r3, [r4, #64]
 5993              	.L934:
 5994 06e6 236C     		ldr	r3, [r4, #64]
 5995 06e8 1BB1     		cbz	r3, .L938
 5996 06ea 2046     		mov	r0, r4
 5997 06ec FFF7FEFF 		bl	I2C_ITError
 5998 06f0 9AE0     		b	.L849
 5999              	.L938:
 6000 06f2 2A2D     		cmp	r5, #42
 6001 06f4 06D1     		bne	.L939
 6002 06f6 2363     		str	r3, [r4, #48]
 6003 06f8 2823     		movs	r3, #40
 6004 06fa 84F83D30 		strb	r3, [r4, #61]
 6005 06fe 2046     		mov	r0, r4
 6006 0700 FFF7FEFF 		bl	HAL_I2C_SlaveRxCpltCallback
 6007              	.L939:
 6008 0704 94F83D30 		ldrb	r3, [r4, #61]	@ zero_extendqisi2
 6009 0708 282B     		cmp	r3, #40
 6010 070a 0CD1     		bne	.L940
 6011 070c 484B     		ldr	r3, .L1202+4
 6012 070e 2022     		movs	r2, #32
 6013 0710 E362     		str	r3, [r4, #44]
 6014 0712 0023     		movs	r3, #0
 6015 0714 2363     		str	r3, [r4, #48]
 6016 0716 2046     		mov	r0, r4
 6017 0718 84F83D20 		strb	r2, [r4, #61]
 6018 071c 84F83E30 		strb	r3, [r4, #62]
 6019 0720 FFF7FEFF 		bl	HAL_I2C_ListenCpltCallback
 6020 0724 80E0     		b	.L849
 6021              	.L940:
 6022 0726 236B     		ldr	r3, [r4, #48]
 6023 0728 222B     		cmp	r3, #34
 6024 072a 01D0     		beq	.L941
 6025 072c 222D     		cmp	r5, #34
 6026 072e 7BD1     		bne	.L849
 6027              	.L941:
 6028 0730 0023     		movs	r3, #0
 6029 0732 2022     		movs	r2, #32
 6030 0734 2363     		str	r3, [r4, #48]
 6031 0736 84F83D20 		strb	r2, [r4, #61]
 6032 073a 84F83E30 		strb	r3, [r4, #62]
 6033 073e 5FE0     		b	.L1188
 6034              	.L926:
 6035 0740 00F0F700 		and	r0, r0, #247
 6036 0744 2128     		cmp	r0, #33
 6037 0746 01F00405 		and	r5, r1, #4
 6038 074a 34D1     		bne	.L942
 6039 074c 0906     		lsls	r1, r1, #24
 6040 074e 24D5     		bpl	.L943
 6041 0750 5105     		lsls	r1, r2, #21
ARM GAS  /tmp/ccCGIf4Q.s 			page 105


 6042 0752 22D5     		bpl	.L943
 6043 0754 0DBB     		cbnz	r5, .L943
 6044 0756 94F83D10 		ldrb	r1, [r4, #61]	@ zero_extendqisi2
 6045 075a 628D     		ldrh	r2, [r4, #42]
 6046 075c C9B2     		uxtb	r1, r1
 6047 075e 92B2     		uxth	r2, r2
 6048 0760 002A     		cmp	r2, #0
 6049 0762 61D0     		beq	.L849
 6050 0764 626A     		ldr	r2, [r4, #36]
 6051 0766 12F8015B 		ldrb	r5, [r2], #1	@ zero_extendqisi2
 6052 076a 1D61     		str	r5, [r3, #16]
 6053 076c 6262     		str	r2, [r4, #36]
 6054 076e 628D     		ldrh	r2, [r4, #42]
 6055 0770 013A     		subs	r2, r2, #1
 6056 0772 92B2     		uxth	r2, r2
 6057 0774 6285     		strh	r2, [r4, #42]	@ movhi
 6058 0776 628D     		ldrh	r2, [r4, #42]
 6059 0778 92B2     		uxth	r2, r2
 6060 077a 002A     		cmp	r2, #0
 6061 077c 54D1     		bne	.L849
 6062 077e 2929     		cmp	r1, #41
 6063 0780 52D1     		bne	.L849
 6064 0782 5A68     		ldr	r2, [r3, #4]
 6065 0784 22F48062 		bic	r2, r2, #1024
 6066 0788 5A60     		str	r2, [r3, #4]
 6067 078a 2823     		movs	r3, #40
 6068 078c 2063     		str	r0, [r4, #48]
 6069 078e 84F83D30 		strb	r3, [r4, #61]
 6070 0792 2046     		mov	r0, r4
 6071 0794 FFF7FEFF 		bl	HAL_I2C_SlaveTxCpltCallback
 6072 0798 46E0     		b	.L849
 6073              	.L943:
 6074 079a 002D     		cmp	r5, #0
 6075 079c 44D0     		beq	.L849
 6076 079e 9505     		lsls	r5, r2, #22
 6077 07a0 42D5     		bpl	.L849
 6078 07a2 628D     		ldrh	r2, [r4, #42]
 6079 07a4 92B2     		uxth	r2, r2
 6080 07a6 002A     		cmp	r2, #0
 6081 07a8 3ED0     		beq	.L849
 6082              	.L1197:
 6083 07aa 626A     		ldr	r2, [r4, #36]
 6084 07ac 12F8011B 		ldrb	r1, [r2], #1	@ zero_extendqisi2
 6085 07b0 1961     		str	r1, [r3, #16]
 6086 07b2 6262     		str	r2, [r4, #36]
 6087 07b4 34E0     		b	.L1183
 6088              	.L942:
 6089 07b6 4806     		lsls	r0, r1, #25
 6090 07b8 26D5     		bpl	.L944
 6091 07ba 5105     		lsls	r1, r2, #21
 6092 07bc 24D5     		bpl	.L944
 6093 07be 1DBB     		cbnz	r5, .L944
 6094 07c0 94F83D20 		ldrb	r2, [r4, #61]	@ zero_extendqisi2
 6095 07c4 618D     		ldrh	r1, [r4, #42]
 6096 07c6 D2B2     		uxtb	r2, r2
 6097 07c8 89B2     		uxth	r1, r1
 6098 07ca 0029     		cmp	r1, #0
ARM GAS  /tmp/ccCGIf4Q.s 			page 106


 6099 07cc 2CD0     		beq	.L849
 6100 07ce 1B69     		ldr	r3, [r3, #16]
 6101 07d0 616A     		ldr	r1, [r4, #36]
 6102 07d2 0B70     		strb	r3, [r1]
 6103 07d4 636A     		ldr	r3, [r4, #36]
 6104 07d6 0133     		adds	r3, r3, #1
 6105 07d8 6362     		str	r3, [r4, #36]
 6106 07da 638D     		ldrh	r3, [r4, #42]
 6107 07dc 013B     		subs	r3, r3, #1
 6108 07de 9BB2     		uxth	r3, r3
 6109 07e0 6385     		strh	r3, [r4, #42]	@ movhi
 6110 07e2 638D     		ldrh	r3, [r4, #42]
 6111 07e4 9BB2     		uxth	r3, r3
 6112 07e6 FBB9     		cbnz	r3, .L849
 6113 07e8 2A2A     		cmp	r2, #42
 6114 07ea 1DD1     		bne	.L849
 6115 07ec 2268     		ldr	r2, [r4]
 6116 07ee 5368     		ldr	r3, [r2, #4]
 6117 07f0 23F48063 		bic	r3, r3, #1024
 6118 07f4 5360     		str	r3, [r2, #4]
 6119 07f6 2223     		movs	r3, #34
 6120 07f8 2363     		str	r3, [r4, #48]
 6121 07fa 2823     		movs	r3, #40
 6122 07fc 84F83D30 		strb	r3, [r4, #61]
 6123              	.L1188:
 6124 0800 2046     		mov	r0, r4
 6125 0802 FFF7FEFF 		bl	HAL_I2C_SlaveRxCpltCallback
 6126 0806 0FE0     		b	.L849
 6127              	.L944:
 6128 0808 75B1     		cbz	r5, .L849
 6129 080a 9205     		lsls	r2, r2, #22
 6130 080c 0CD5     		bpl	.L849
 6131 080e 628D     		ldrh	r2, [r4, #42]
 6132 0810 92B2     		uxth	r2, r2
 6133 0812 4AB1     		cbz	r2, .L849
 6134 0814 626A     		ldr	r2, [r4, #36]
 6135 0816 1B69     		ldr	r3, [r3, #16]
 6136 0818 1370     		strb	r3, [r2]
 6137              	.L1190:
 6138 081a 636A     		ldr	r3, [r4, #36]
 6139 081c 0133     		adds	r3, r3, #1
 6140 081e 6362     		str	r3, [r4, #36]
 6141              	.L1183:
 6142 0820 638D     		ldrh	r3, [r4, #42]
 6143 0822 013B     		subs	r3, r3, #1
 6144 0824 9BB2     		uxth	r3, r3
 6145 0826 6385     		strh	r3, [r4, #42]	@ movhi
 6146              	.L849:
 6147 0828 0DB0     		add	sp, sp, #52
 6148              		@ sp needed
 6149 082a 30BD     		pop	{r4, r5, pc}
 6150              	.L1203:
 6151              		.align	2
 6152              	.L1202:
 6153 082c 00000000 		.word	I2C_DMAAbort
 6154 0830 0000FFFF 		.word	-65536
 6156              		.section	.text.HAL_I2C_ER_IRQHandler,"ax",%progbits
ARM GAS  /tmp/ccCGIf4Q.s 			page 107


 6157              		.align	1
 6158              		.global	HAL_I2C_ER_IRQHandler
 6159              		.thumb
 6160              		.thumb_func
 6162              	HAL_I2C_ER_IRQHandler:
 6163              		@ args = 0, pretend = 0, frame = 0
 6164              		@ frame_needed = 0, uses_anonymous_args = 0
 6165 0000 F8B5     		push	{r3, r4, r5, r6, r7, lr}
 6166 0002 0368     		ldr	r3, [r0]
 6167 0004 0446     		mov	r4, r0
 6168 0006 5F69     		ldr	r7, [r3, #20]
 6169 0008 5E68     		ldr	r6, [r3, #4]
 6170 000a 17F48075 		ands	r5, r7, #256
 6171 000e 0BD0     		beq	.L1205
 6172 0010 16F48075 		ands	r5, r6, #256
 6173 0014 1FBF     		itttt	ne
 6174 0016 6FF48072 		mvnne	r2, #256
 6175 001a 5A61     		strne	r2, [r3, #20]
 6176 001c 1A68     		ldrne	r2, [r3]
 6177 001e 0125     		movne	r5, #1
 6178 0020 1CBF     		itt	ne
 6179 0022 42F40042 		orrne	r2, r2, #32768
 6180 0026 1A60     		strne	r2, [r3]
 6181              	.L1205:
 6182 0028 B905     		lsls	r1, r7, #22
 6183 002a 06D5     		bpl	.L1206
 6184 002c F205     		lsls	r2, r6, #23
 6185 002e 42BF     		ittt	mi
 6186 0030 6FF40072 		mvnmi	r2, #512
 6187 0034 45F00205 		orrmi	r5, r5, #2
 6188 0038 5A61     		strmi	r2, [r3, #20]
 6189              	.L1206:
 6190 003a 7805     		lsls	r0, r7, #21
 6191 003c 63D5     		bpl	.L1207
 6192 003e F105     		lsls	r1, r6, #23
 6193 0040 61D5     		bpl	.L1207
 6194 0042 94F83EE0 		ldrb	lr, [r4, #62]	@ zero_extendqisi2
 6195 0046 618D     		ldrh	r1, [r4, #42]
 6196 0048 94F83D20 		ldrb	r2, [r4, #61]	@ zero_extendqisi2
 6197 004c BEF1200F 		cmp	lr, #32
 6198 0050 89B2     		uxth	r1, r1
 6199 0052 D2B2     		uxtb	r2, r2
 6200 0054 206B     		ldr	r0, [r4, #48]
 6201 0056 49D1     		bne	.L1208
 6202 0058 0029     		cmp	r1, #0
 6203 005a 47D1     		bne	.L1208
 6204 005c 02F0F701 		and	r1, r2, #247
 6205 0060 2129     		cmp	r1, #33
 6206 0062 03D0     		beq	.L1209
 6207 0064 282A     		cmp	r2, #40
 6208 0066 41D1     		bne	.L1208
 6209 0068 2128     		cmp	r0, #33
 6210 006a 3FD1     		bne	.L1208
 6211              	.L1209:
 6212 006c 94F83D20 		ldrb	r2, [r4, #61]	@ zero_extendqisi2
 6213 0070 E16A     		ldr	r1, [r4, #44]
 6214 0072 D2B2     		uxtb	r2, r2
ARM GAS  /tmp/ccCGIf4Q.s 			page 108


 6215 0074 0829     		cmp	r1, #8
 6216 0076 01D0     		beq	.L1210
 6217 0078 2029     		cmp	r1, #32
 6218 007a 19D1     		bne	.L1211
 6219              	.L1210:
 6220 007c 282A     		cmp	r2, #40
 6221 007e 17D1     		bne	.L1211
 6222 0080 2B4A     		ldr	r2, .L1242
 6223 0082 2046     		mov	r0, r4
 6224 0084 E262     		str	r2, [r4, #44]
 6225 0086 5A68     		ldr	r2, [r3, #4]
 6226 0088 22F4E062 		bic	r2, r2, #1792
 6227 008c 5A60     		str	r2, [r3, #4]
 6228 008e 6FF48062 		mvn	r2, #1024
 6229 0092 5A61     		str	r2, [r3, #20]
 6230 0094 1A68     		ldr	r2, [r3]
 6231 0096 22F48062 		bic	r2, r2, #1024
 6232 009a 1A60     		str	r2, [r3]
 6233 009c 0023     		movs	r3, #0
 6234 009e 2022     		movs	r2, #32
 6235 00a0 2363     		str	r3, [r4, #48]
 6236 00a2 84F83D20 		strb	r2, [r4, #61]
 6237 00a6 84F83E30 		strb	r3, [r4, #62]
 6238 00aa FFF7FEFF 		bl	HAL_I2C_ListenCpltCallback
 6239 00ae 2AE0     		b	.L1207
 6240              	.L1211:
 6241 00b0 212A     		cmp	r2, #33
 6242 00b2 17D1     		bne	.L1212
 6243 00b4 1E49     		ldr	r1, .L1242
 6244 00b6 2046     		mov	r0, r4
 6245 00b8 E162     		str	r1, [r4, #44]
 6246 00ba 2263     		str	r2, [r4, #48]
 6247 00bc 2022     		movs	r2, #32
 6248 00be 84F83D20 		strb	r2, [r4, #61]
 6249 00c2 0022     		movs	r2, #0
 6250 00c4 84F83E20 		strb	r2, [r4, #62]
 6251 00c8 5A68     		ldr	r2, [r3, #4]
 6252 00ca 22F4E062 		bic	r2, r2, #1792
 6253 00ce 5A60     		str	r2, [r3, #4]
 6254 00d0 6FF48062 		mvn	r2, #1024
 6255 00d4 5A61     		str	r2, [r3, #20]
 6256 00d6 1A68     		ldr	r2, [r3]
 6257 00d8 22F48062 		bic	r2, r2, #1024
 6258 00dc 1A60     		str	r2, [r3]
 6259 00de FFF7FEFF 		bl	HAL_I2C_SlaveTxCpltCallback
 6260 00e2 10E0     		b	.L1207
 6261              	.L1212:
 6262 00e4 6FF48062 		mvn	r2, #1024
 6263 00e8 5A61     		str	r2, [r3, #20]
 6264 00ea 0CE0     		b	.L1207
 6265              	.L1208:
 6266 00ec 6FF48062 		mvn	r2, #1024
 6267 00f0 5A61     		str	r2, [r3, #20]
 6268 00f2 94F83E20 		ldrb	r2, [r4, #62]	@ zero_extendqisi2
 6269 00f6 45F00405 		orr	r5, r5, #4
 6270 00fa 102A     		cmp	r2, #16
 6271 00fc 02BF     		ittt	eq
ARM GAS  /tmp/ccCGIf4Q.s 			page 109


 6272 00fe 1A68     		ldreq	r2, [r3]
 6273 0100 42F40072 		orreq	r2, r2, #512
 6274 0104 1A60     		streq	r2, [r3]
 6275              	.L1207:
 6276 0106 3A05     		lsls	r2, r7, #20
 6277 0108 08D5     		bpl	.L1213
 6278 010a F305     		lsls	r3, r6, #23
 6279 010c 06D5     		bpl	.L1213
 6280 010e 2368     		ldr	r3, [r4]
 6281 0110 6FF40062 		mvn	r2, #2048
 6282 0114 45F00805 		orr	r5, r5, #8
 6283 0118 5A61     		str	r2, [r3, #20]
 6284 011a 00E0     		b	.L1214
 6285              	.L1213:
 6286 011c 3DB1     		cbz	r5, .L1204
 6287              	.L1214:
 6288 011e 236C     		ldr	r3, [r4, #64]
 6289 0120 2046     		mov	r0, r4
 6290 0122 1D43     		orrs	r5, r5, r3
 6291 0124 2564     		str	r5, [r4, #64]
 6292 0126 BDE8F840 		pop	{r3, r4, r5, r6, r7, lr}
 6293 012a FFF7FEBF 		b	I2C_ITError
 6294              	.L1204:
 6295 012e F8BD     		pop	{r3, r4, r5, r6, r7, pc}
 6296              	.L1243:
 6297              		.align	2
 6298              	.L1242:
 6299 0130 0000FFFF 		.word	-65536
 6301              		.section	.text.HAL_I2C_GetState,"ax",%progbits
 6302              		.align	1
 6303              		.global	HAL_I2C_GetState
 6304              		.thumb
 6305              		.thumb_func
 6307              	HAL_I2C_GetState:
 6308              		@ args = 0, pretend = 0, frame = 0
 6309              		@ frame_needed = 0, uses_anonymous_args = 0
 6310              		@ link register save eliminated.
 6311 0000 90F83D00 		ldrb	r0, [r0, #61]	@ zero_extendqisi2
 6312 0004 7047     		bx	lr
 6314              		.section	.text.HAL_I2C_GetMode,"ax",%progbits
 6315              		.align	1
 6316              		.global	HAL_I2C_GetMode
 6317              		.thumb
 6318              		.thumb_func
 6320              	HAL_I2C_GetMode:
 6321              		@ args = 0, pretend = 0, frame = 0
 6322              		@ frame_needed = 0, uses_anonymous_args = 0
 6323              		@ link register save eliminated.
 6324 0000 90F83E00 		ldrb	r0, [r0, #62]	@ zero_extendqisi2
 6325 0004 7047     		bx	lr
 6327              		.section	.text.HAL_I2C_GetError,"ax",%progbits
 6328              		.align	1
 6329              		.global	HAL_I2C_GetError
 6330              		.thumb
 6331              		.thumb_func
 6333              	HAL_I2C_GetError:
 6334              		@ args = 0, pretend = 0, frame = 0
ARM GAS  /tmp/ccCGIf4Q.s 			page 110


 6335              		@ frame_needed = 0, uses_anonymous_args = 0
 6336              		@ link register save eliminated.
 6337 0000 006C     		ldr	r0, [r0, #64]
 6338 0002 7047     		bx	lr
 6340              		.ident	"GCC: (15:4.9.3+svn231177-1) 4.9.3 20150529 (prerelease)"
ARM GAS  /tmp/ccCGIf4Q.s 			page 111

