ARM GAS  /tmp/ccFI1Ohb.s 			page 1


   1              		.syntax unified
   2              		.cpu cortex-m3
   3              		.fpu softvfp
   4              		.eabi_attribute 20, 1
   5              		.eabi_attribute 21, 1
   6              		.eabi_attribute 23, 3
   7              		.eabi_attribute 24, 1
   8              		.eabi_attribute 25, 1
   9              		.eabi_attribute 26, 1
  10              		.eabi_attribute 30, 1
  11              		.eabi_attribute 34, 1
  12              		.eabi_attribute 18, 4
  13              		.thumb
  14              		.file	"stm32f1xx_hal_timebase_tim_template.c"
  15              		.section	.text.HAL_InitTick,"ax",%progbits
  16              		.align	2
  17              		.global	HAL_InitTick
  18              		.thumb
  19              		.thumb_func
  21              	HAL_InitTick:
  22              		@ args = 0, pretend = 0, frame = 32
  23              		@ frame_needed = 0, uses_anonymous_args = 0
  24 0000 00B5     		push	{lr}
  25 0002 89B0     		sub	sp, sp, #36
  26 0004 0146     		mov	r1, r0
  27 0006 1C20     		movs	r0, #28
  28 0008 0022     		movs	r2, #0
  29 000a FFF7FEFF 		bl	HAL_NVIC_SetPriority
  30 000e 1C20     		movs	r0, #28
  31 0010 FFF7FEFF 		bl	HAL_NVIC_EnableIRQ
  32 0014 184B     		ldr	r3, .L7
  33 0016 DA69     		ldr	r2, [r3, #28]
  34 0018 42F00102 		orr	r2, r2, #1
  35 001c DA61     		str	r2, [r3, #28]
  36 001e DB69     		ldr	r3, [r3, #28]
  37 0020 03F00103 		and	r3, r3, #1
  38 0024 0193     		str	r3, [sp, #4]
  39 0026 019B     		ldr	r3, [sp, #4]
  40 0028 03A8     		add	r0, sp, #12
  41 002a 02A9     		add	r1, sp, #8
  42 002c FFF7FEFF 		bl	HAL_RCC_GetClockConfig
  43 0030 069B     		ldr	r3, [sp, #24]
  44 0032 13B9     		cbnz	r3, .L2
  45 0034 FFF7FEFF 		bl	HAL_RCC_GetPCLK1Freq
  46 0038 02E0     		b	.L3
  47              	.L2:
  48 003a FFF7FEFF 		bl	HAL_RCC_GetPCLK1Freq
  49 003e 4000     		lsls	r0, r0, #1
  50              	.L3:
  51 0040 0E4B     		ldr	r3, .L7+4
  52 0042 A3FB0023 		umull	r2, r3, r3, r0
  53 0046 9B0C     		lsrs	r3, r3, #18
  54 0048 013B     		subs	r3, r3, #1
  55 004a 0D48     		ldr	r0, .L7+8
  56 004c 4FF08042 		mov	r2, #1073741824
  57 0050 0260     		str	r2, [r0]
  58 0052 40F2E732 		movw	r2, #999
ARM GAS  /tmp/ccFI1Ohb.s 			page 2


  59 0056 C260     		str	r2, [r0, #12]
  60 0058 4360     		str	r3, [r0, #4]
  61 005a 0023     		movs	r3, #0
  62 005c 0361     		str	r3, [r0, #16]
  63 005e 8360     		str	r3, [r0, #8]
  64 0060 8361     		str	r3, [r0, #24]
  65 0062 FFF7FEFF 		bl	HAL_TIM_Base_Init
  66 0066 18B9     		cbnz	r0, .L5
  67 0068 0548     		ldr	r0, .L7+8
  68 006a FFF7FEFF 		bl	HAL_TIM_Base_Start_IT
  69 006e 00E0     		b	.L4
  70              	.L5:
  71 0070 0120     		movs	r0, #1
  72              	.L4:
  73 0072 09B0     		add	sp, sp, #36
  74              		@ sp needed
  75 0074 5DF804FB 		ldr	pc, [sp], #4
  76              	.L8:
  77              		.align	2
  78              	.L7:
  79 0078 00100240 		.word	1073876992
  80 007c 83DE1B43 		.word	1125899907
  81 0080 00000000 		.word	TimHandle
  83              		.section	.text.HAL_SuspendTick,"ax",%progbits
  84              		.align	2
  85              		.global	HAL_SuspendTick
  86              		.thumb
  87              		.thumb_func
  89              	HAL_SuspendTick:
  90              		@ args = 0, pretend = 0, frame = 0
  91              		@ frame_needed = 0, uses_anonymous_args = 0
  92              		@ link register save eliminated.
  93 0000 034B     		ldr	r3, .L10
  94 0002 1A68     		ldr	r2, [r3]
  95 0004 D368     		ldr	r3, [r2, #12]
  96 0006 23F00103 		bic	r3, r3, #1
  97 000a D360     		str	r3, [r2, #12]
  98 000c 7047     		bx	lr
  99              	.L11:
 100 000e 00BF     		.align	2
 101              	.L10:
 102 0010 00000000 		.word	TimHandle
 104              		.section	.text.HAL_ResumeTick,"ax",%progbits
 105              		.align	2
 106              		.global	HAL_ResumeTick
 107              		.thumb
 108              		.thumb_func
 110              	HAL_ResumeTick:
 111              		@ args = 0, pretend = 0, frame = 0
 112              		@ frame_needed = 0, uses_anonymous_args = 0
 113              		@ link register save eliminated.
 114 0000 034B     		ldr	r3, .L13
 115 0002 1A68     		ldr	r2, [r3]
 116 0004 D368     		ldr	r3, [r2, #12]
 117 0006 43F00103 		orr	r3, r3, #1
 118 000a D360     		str	r3, [r2, #12]
 119 000c 7047     		bx	lr
ARM GAS  /tmp/ccFI1Ohb.s 			page 3


 120              	.L14:
 121 000e 00BF     		.align	2
 122              	.L13:
 123 0010 00000000 		.word	TimHandle
 125              		.section	.text.HAL_TIM_PeriodElapsedCallback,"ax",%progbits
 126              		.align	2
 127              		.global	HAL_TIM_PeriodElapsedCallback
 128              		.thumb
 129              		.thumb_func
 131              	HAL_TIM_PeriodElapsedCallback:
 132              		@ args = 0, pretend = 0, frame = 0
 133              		@ frame_needed = 0, uses_anonymous_args = 0
 134 0000 08B5     		push	{r3, lr}
 135 0002 FFF7FEFF 		bl	HAL_IncTick
 136 0006 08BD     		pop	{r3, pc}
 138              		.section	.text.TIM2_IRQHandler,"ax",%progbits
 139              		.align	2
 140              		.global	TIM2_IRQHandler
 141              		.thumb
 142              		.thumb_func
 144              	TIM2_IRQHandler:
 145              		@ args = 0, pretend = 0, frame = 0
 146              		@ frame_needed = 0, uses_anonymous_args = 0
 147 0000 08B5     		push	{r3, lr}
 148 0002 0248     		ldr	r0, .L19
 149 0004 FFF7FEFF 		bl	HAL_TIM_IRQHandler
 150 0008 08BD     		pop	{r3, pc}
 151              	.L20:
 152 000a 00BF     		.align	2
 153              	.L19:
 154 000c 00000000 		.word	TimHandle
 156              		.comm	TimHandle,64,4
 157              		.ident	"GCC: (15:4.9.3+svn231177-1) 4.9.3 20150529 (prerelease)"
ARM GAS  /tmp/ccFI1Ohb.s 			page 4


DEFINED SYMBOLS
                            *ABS*:0000000000000000 stm32f1xx_hal_timebase_tim_template.c
     /tmp/ccFI1Ohb.s:16     .text.HAL_InitTick:0000000000000000 $t
     /tmp/ccFI1Ohb.s:21     .text.HAL_InitTick:0000000000000000 HAL_InitTick
     /tmp/ccFI1Ohb.s:79     .text.HAL_InitTick:0000000000000078 $d
                            *COM*:0000000000000040 TimHandle
     /tmp/ccFI1Ohb.s:84     .text.HAL_SuspendTick:0000000000000000 $t
     /tmp/ccFI1Ohb.s:89     .text.HAL_SuspendTick:0000000000000000 HAL_SuspendTick
     /tmp/ccFI1Ohb.s:102    .text.HAL_SuspendTick:0000000000000010 $d
     /tmp/ccFI1Ohb.s:105    .text.HAL_ResumeTick:0000000000000000 $t
     /tmp/ccFI1Ohb.s:110    .text.HAL_ResumeTick:0000000000000000 HAL_ResumeTick
     /tmp/ccFI1Ohb.s:123    .text.HAL_ResumeTick:0000000000000010 $d
     /tmp/ccFI1Ohb.s:126    .text.HAL_TIM_PeriodElapsedCallback:0000000000000000 $t
     /tmp/ccFI1Ohb.s:131    .text.HAL_TIM_PeriodElapsedCallback:0000000000000000 HAL_TIM_PeriodElapsedCallback
     /tmp/ccFI1Ohb.s:139    .text.TIM2_IRQHandler:0000000000000000 $t
     /tmp/ccFI1Ohb.s:144    .text.TIM2_IRQHandler:0000000000000000 TIM2_IRQHandler
     /tmp/ccFI1Ohb.s:154    .text.TIM2_IRQHandler:000000000000000c $d

UNDEFINED SYMBOLS
HAL_NVIC_SetPriority
HAL_NVIC_EnableIRQ
HAL_RCC_GetClockConfig
HAL_RCC_GetPCLK1Freq
HAL_TIM_Base_Init
HAL_TIM_Base_Start_IT
HAL_IncTick
HAL_TIM_IRQHandler
