ARM GAS  /tmp/ccDtm2ZA.s 			page 1


   1              		.syntax unified
   2              		.cpu cortex-m3
   3              		.fpu softvfp
   4              		.eabi_attribute 20, 1
   5              		.eabi_attribute 21, 1
   6              		.eabi_attribute 23, 3
   7              		.eabi_attribute 24, 1
   8              		.eabi_attribute 25, 1
   9              		.eabi_attribute 26, 1
  10              		.eabi_attribute 30, 4
  11              		.eabi_attribute 34, 1
  12              		.eabi_attribute 18, 4
  13              		.thumb
  14              		.file	"stm32f1xx_hal_adc.c"
  15              		.section	.text.HAL_ADC_MspInit,"ax",%progbits
  16              		.align	1
  17              		.weak	HAL_ADC_MspInit
  18              		.thumb
  19              		.thumb_func
  21              	HAL_ADC_MspInit:
  22              		@ args = 0, pretend = 0, frame = 0
  23              		@ frame_needed = 0, uses_anonymous_args = 0
  24              		@ link register save eliminated.
  25 0000 7047     		bx	lr
  27              		.section	.text.HAL_ADC_MspDeInit,"ax",%progbits
  28              		.align	1
  29              		.weak	HAL_ADC_MspDeInit
  30              		.thumb
  31              		.thumb_func
  33              	HAL_ADC_MspDeInit:
  34              		@ args = 0, pretend = 0, frame = 0
  35              		@ frame_needed = 0, uses_anonymous_args = 0
  36              		@ link register save eliminated.
  37 0000 7047     		bx	lr
  39              		.section	.text.HAL_ADC_PollForConversion,"ax",%progbits
  40              		.align	1
  41              		.global	HAL_ADC_PollForConversion
  42              		.thumb
  43              		.thumb_func
  45              	HAL_ADC_PollForConversion:
  46              		@ args = 0, pretend = 0, frame = 8
  47              		@ frame_needed = 0, uses_anonymous_args = 0
  48 0000 F7B5     		push	{r0, r1, r2, r4, r5, r6, r7, lr}
  49 0002 0446     		mov	r4, r0
  50 0004 0026     		movs	r6, #0
  51 0006 0D46     		mov	r5, r1
  52 0008 0196     		str	r6, [sp, #4]
  53 000a FFF7FEFF 		bl	HAL_GetTick
  54 000e 2368     		ldr	r3, [r4]
  55 0010 0746     		mov	r7, r0
  56 0012 9A68     		ldr	r2, [r3, #8]
  57 0014 D205     		lsls	r2, r2, #23
  58 0016 07D5     		bpl	.L4
  59 0018 A36A     		ldr	r3, [r4, #40]
  60 001a 84F82460 		strb	r6, [r4, #36]
  61 001e 43F02003 		orr	r3, r3, #32
  62 0022 A362     		str	r3, [r4, #40]
ARM GAS  /tmp/ccDtm2ZA.s 			page 2


  63 0024 0120     		movs	r0, #1
  64 0026 83E0     		b	.L5
  65              	.L4:
  66 0028 5A68     		ldr	r2, [r3, #4]
  67 002a D605     		lsls	r6, r2, #23
  68 002c 11D4     		bmi	.L6
  69 002e DB6A     		ldr	r3, [r3, #44]
  70 0030 13F4700F 		tst	r3, #15728640
  71 0034 0DD1     		bne	.L6
  72              	.L7:
  73 0036 2268     		ldr	r2, [r4]
  74              	.L8:
  75 0038 1368     		ldr	r3, [r2]
  76 003a 9907     		lsls	r1, r3, #30
  77 003c 2AD4     		bmi	.L22
  78 003e 681C     		adds	r0, r5, #1
  79 0040 FAD0     		beq	.L8
  80 0042 002D     		cmp	r5, #0
  81 0044 52D0     		beq	.L20
  82 0046 FFF7FEFF 		bl	HAL_GetTick
  83 004a C01B     		subs	r0, r0, r7
  84 004c A842     		cmp	r0, r5
  85 004e F2D9     		bls	.L7
  86 0050 4CE0     		b	.L20
  87              	.L6:
  88 0052 384B     		ldr	r3, .L39
  89 0054 0220     		movs	r0, #2
  90 0056 1E68     		ldr	r6, [r3]
  91 0058 FFF7FEFF 		bl	HAL_RCCEx_GetPeriphCLKFreq
  92 005c 2368     		ldr	r3, [r4]
  93 005e 364A     		ldr	r2, .L39+4
  94 0060 1969     		ldr	r1, [r3, #16]
  95 0062 B6FBF0F0 		udiv	r0, r6, r0
  96 0066 0A40     		ands	r2, r2, r1
  97 0068 1ABB     		cbnz	r2, .L14
  98 006a D968     		ldr	r1, [r3, #12]
  99 006c 334A     		ldr	r2, .L39+8
 100 006e 0A40     		ands	r2, r2, r1
 101 0070 FAB9     		cbnz	r2, .L14
 102 0072 1969     		ldr	r1, [r3, #16]
 103 0074 324A     		ldr	r2, .L39+12
 104 0076 0A40     		ands	r2, r2, r1
 105 0078 002A     		cmp	r2, #0
 106 007a 2ED1     		bne	.L23
 107 007c DA68     		ldr	r2, [r3, #12]
 108 007e 314B     		ldr	r3, .L39+16
 109 0080 1340     		ands	r3, r3, r2
 110 0082 002B     		cmp	r3, #0
 111 0084 14BF     		ite	ne
 112 0086 2923     		movne	r3, #41
 113 0088 1423     		moveq	r3, #20
 114              	.L15:
 115 008a 00FB03F6 		mul	r6, r0, r3
 116              	.L17:
 117 008e 019B     		ldr	r3, [sp, #4]
 118 0090 B342     		cmp	r3, r6
 119 0092 28D3     		bcc	.L21
ARM GAS  /tmp/ccDtm2ZA.s 			page 3


 120              	.L22:
 121 0094 2268     		ldr	r2, [r4]
 122 0096 6FF01203 		mvn	r3, #18
 123 009a 1360     		str	r3, [r2]
 124 009c A36A     		ldr	r3, [r4, #40]
 125 009e 43F40073 		orr	r3, r3, #512
 126 00a2 A362     		str	r3, [r4, #40]
 127 00a4 9368     		ldr	r3, [r2, #8]
 128 00a6 03F46023 		and	r3, r3, #917504
 129 00aa B3F5602F 		cmp	r3, #917504
 130 00ae 31D1     		bne	.L13
 131 00b0 2EE0     		b	.L37
 132              	.L14:
 133 00b2 1969     		ldr	r1, [r3, #16]
 134 00b4 224A     		ldr	r2, .L39+12
 135 00b6 0A40     		ands	r2, r2, r1
 136 00b8 1AB9     		cbnz	r2, .L16
 137 00ba D968     		ldr	r1, [r3, #12]
 138 00bc 214A     		ldr	r2, .L39+16
 139 00be 0A40     		ands	r2, r2, r1
 140 00c0 6AB1     		cbz	r2, .L25
 141              	.L16:
 142 00c2 1969     		ldr	r1, [r3, #16]
 143 00c4 204A     		ldr	r2, .L39+20
 144 00c6 0A40     		ands	r2, r2, r1
 145 00c8 5AB9     		cbnz	r2, .L26
 146 00ca DA68     		ldr	r2, [r3, #12]
 147 00cc 1E4B     		ldr	r3, .L39+20
 148 00ce 1340     		ands	r3, r3, r2
 149 00d0 002B     		cmp	r3, #0
 150 00d2 14BF     		ite	ne
 151 00d4 FC23     		movne	r3, #252
 152 00d6 5423     		moveq	r3, #84
 153 00d8 D7E7     		b	.L15
 154              	.L23:
 155 00da 2923     		movs	r3, #41
 156 00dc D5E7     		b	.L15
 157              	.L25:
 158 00de 5423     		movs	r3, #84
 159 00e0 D3E7     		b	.L15
 160              	.L26:
 161 00e2 FC23     		movs	r3, #252
 162 00e4 D1E7     		b	.L15
 163              	.L21:
 164 00e6 6B1C     		adds	r3, r5, #1
 165 00e8 0ED0     		beq	.L28
 166 00ea 45B9     		cbnz	r5, .L19
 167              	.L20:
 168 00ec A36A     		ldr	r3, [r4, #40]
 169 00ee 0320     		movs	r0, #3
 170 00f0 43F00403 		orr	r3, r3, #4
 171 00f4 A362     		str	r3, [r4, #40]
 172 00f6 0023     		movs	r3, #0
 173 00f8 84F82430 		strb	r3, [r4, #36]
 174 00fc 18E0     		b	.L5
 175              	.L19:
 176 00fe FFF7FEFF 		bl	HAL_GetTick
ARM GAS  /tmp/ccDtm2ZA.s 			page 4


 177 0102 C01B     		subs	r0, r0, r7
 178 0104 A842     		cmp	r0, r5
 179 0106 F1D8     		bhi	.L20
 180              	.L28:
 181 0108 019B     		ldr	r3, [sp, #4]
 182 010a 0133     		adds	r3, r3, #1
 183 010c 0193     		str	r3, [sp, #4]
 184 010e BEE7     		b	.L17
 185              	.L37:
 186 0110 237B     		ldrb	r3, [r4, #12]	@ zero_extendqisi2
 187 0112 0BB1     		cbz	r3, .L38
 188              	.L13:
 189 0114 0020     		movs	r0, #0
 190 0116 0BE0     		b	.L5
 191              	.L38:
 192 0118 A36A     		ldr	r3, [r4, #40]
 193 011a 23F48073 		bic	r3, r3, #256
 194 011e A362     		str	r3, [r4, #40]
 195 0120 A06A     		ldr	r0, [r4, #40]
 196 0122 10F48050 		ands	r0, r0, #4096
 197 0126 F5D1     		bne	.L13
 198 0128 A36A     		ldr	r3, [r4, #40]
 199 012a 43F00103 		orr	r3, r3, #1
 200 012e A362     		str	r3, [r4, #40]
 201              	.L5:
 202 0130 03B0     		add	sp, sp, #12
 203              		@ sp needed
 204 0132 F0BD     		pop	{r4, r5, r6, r7, pc}
 205              	.L40:
 206              		.align	2
 207              	.L39:
 208 0134 00000000 		.word	SystemCoreClock
 209 0138 24499224 		.word	613566756
 210 013c 24499200 		.word	9586980
 211 0140 92244912 		.word	306783378
 212 0144 92244900 		.word	4793490
 213 0148 49922400 		.word	2396745
 215              		.section	.text.HAL_ADC_PollForEvent,"ax",%progbits
 216              		.align	1
 217              		.global	HAL_ADC_PollForEvent
 218              		.thumb
 219              		.thumb_func
 221              	HAL_ADC_PollForEvent:
 222              		@ args = 0, pretend = 0, frame = 0
 223              		@ frame_needed = 0, uses_anonymous_args = 0
 224 0000 F8B5     		push	{r3, r4, r5, r6, r7, lr}
 225 0002 0446     		mov	r4, r0
 226 0004 0E46     		mov	r6, r1
 227 0006 1546     		mov	r5, r2
 228 0008 FFF7FEFF 		bl	HAL_GetTick
 229 000c 0746     		mov	r7, r0
 230              	.L42:
 231 000e 2268     		ldr	r2, [r4]
 232              	.L43:
 233 0010 1368     		ldr	r3, [r2]
 234 0012 3340     		ands	r3, r3, r6
 235 0014 B342     		cmp	r3, r6
ARM GAS  /tmp/ccDtm2ZA.s 			page 5


 236 0016 11D0     		beq	.L50
 237 0018 6B1C     		adds	r3, r5, #1
 238 001a F9D0     		beq	.L43
 239 001c 45B9     		cbnz	r5, .L44
 240              	.L46:
 241 001e A36A     		ldr	r3, [r4, #40]
 242 0020 0320     		movs	r0, #3
 243 0022 43F00403 		orr	r3, r3, #4
 244 0026 A362     		str	r3, [r4, #40]
 245 0028 0023     		movs	r3, #0
 246 002a 84F82430 		strb	r3, [r4, #36]
 247 002e F8BD     		pop	{r3, r4, r5, r6, r7, pc}
 248              	.L44:
 249 0030 FFF7FEFF 		bl	HAL_GetTick
 250 0034 C01B     		subs	r0, r0, r7
 251 0036 A842     		cmp	r0, r5
 252 0038 E9D9     		bls	.L42
 253 003a F0E7     		b	.L46
 254              	.L50:
 255 003c A36A     		ldr	r3, [r4, #40]
 256 003e 0020     		movs	r0, #0
 257 0040 43F48033 		orr	r3, r3, #65536
 258 0044 A362     		str	r3, [r4, #40]
 259 0046 6FF00103 		mvn	r3, #1
 260 004a 1360     		str	r3, [r2]
 261 004c F8BD     		pop	{r3, r4, r5, r6, r7, pc}
 263              		.section	.text.HAL_ADC_GetValue,"ax",%progbits
 264              		.align	1
 265              		.global	HAL_ADC_GetValue
 266              		.thumb
 267              		.thumb_func
 269              	HAL_ADC_GetValue:
 270              		@ args = 0, pretend = 0, frame = 0
 271              		@ frame_needed = 0, uses_anonymous_args = 0
 272              		@ link register save eliminated.
 273 0000 0368     		ldr	r3, [r0]
 274 0002 D86C     		ldr	r0, [r3, #76]
 275 0004 7047     		bx	lr
 277              		.section	.text.HAL_ADC_ConvCpltCallback,"ax",%progbits
 278              		.align	1
 279              		.weak	HAL_ADC_ConvCpltCallback
 280              		.thumb
 281              		.thumb_func
 283              	HAL_ADC_ConvCpltCallback:
 284              		@ args = 0, pretend = 0, frame = 0
 285              		@ frame_needed = 0, uses_anonymous_args = 0
 286              		@ link register save eliminated.
 287 0000 7047     		bx	lr
 289              		.section	.text.ADC_DMAConvCplt,"ax",%progbits
 290              		.align	1
 291              		.global	ADC_DMAConvCplt
 292              		.thumb
 293              		.thumb_func
 295              	ADC_DMAConvCplt:
 296              		@ args = 0, pretend = 0, frame = 0
 297              		@ frame_needed = 0, uses_anonymous_args = 0
 298 0000 436A     		ldr	r3, [r0, #36]
ARM GAS  /tmp/ccDtm2ZA.s 			page 6


 299 0002 10B5     		push	{r4, lr}
 300 0004 9A6A     		ldr	r2, [r3, #40]
 301 0006 12F0500F 		tst	r2, #80
 302 000a 1BD1     		bne	.L54
 303 000c 9A6A     		ldr	r2, [r3, #40]
 304 000e 42F40072 		orr	r2, r2, #512
 305 0012 9A62     		str	r2, [r3, #40]
 306 0014 1A68     		ldr	r2, [r3]
 307 0016 9268     		ldr	r2, [r2, #8]
 308 0018 02F46022 		and	r2, r2, #917504
 309 001c B2F5602F 		cmp	r2, #917504
 310 0020 0CD1     		bne	.L56
 311 0022 1A7B     		ldrb	r2, [r3, #12]	@ zero_extendqisi2
 312 0024 52B9     		cbnz	r2, .L56
 313 0026 9A6A     		ldr	r2, [r3, #40]
 314 0028 22F48072 		bic	r2, r2, #256
 315 002c 9A62     		str	r2, [r3, #40]
 316 002e 9A6A     		ldr	r2, [r3, #40]
 317 0030 D204     		lsls	r2, r2, #19
 318 0032 5EBF     		ittt	pl
 319 0034 9A6A     		ldrpl	r2, [r3, #40]
 320 0036 42F00102 		orrpl	r2, r2, #1
 321 003a 9A62     		strpl	r2, [r3, #40]
 322              	.L56:
 323 003c 1846     		mov	r0, r3
 324 003e FFF7FEFF 		bl	HAL_ADC_ConvCpltCallback
 325 0042 10BD     		pop	{r4, pc}
 326              	.L54:
 327 0044 1B6A     		ldr	r3, [r3, #32]
 328 0046 BDE81040 		pop	{r4, lr}
 329 004a 1B6B     		ldr	r3, [r3, #48]
 330 004c 1847     		bx	r3	@ indirect register sibling call
 332              		.section	.text.HAL_ADC_ConvHalfCpltCallback,"ax",%progbits
 333              		.align	1
 334              		.weak	HAL_ADC_ConvHalfCpltCallback
 335              		.thumb
 336              		.thumb_func
 338              	HAL_ADC_ConvHalfCpltCallback:
 339              		@ args = 0, pretend = 0, frame = 0
 340              		@ frame_needed = 0, uses_anonymous_args = 0
 341              		@ link register save eliminated.
 342 0000 7047     		bx	lr
 344              		.section	.text.ADC_DMAHalfConvCplt,"ax",%progbits
 345              		.align	1
 346              		.global	ADC_DMAHalfConvCplt
 347              		.thumb
 348              		.thumb_func
 350              	ADC_DMAHalfConvCplt:
 351              		@ args = 0, pretend = 0, frame = 0
 352              		@ frame_needed = 0, uses_anonymous_args = 0
 353 0000 08B5     		push	{r3, lr}
 354 0002 406A     		ldr	r0, [r0, #36]
 355 0004 FFF7FEFF 		bl	HAL_ADC_ConvHalfCpltCallback
 356 0008 08BD     		pop	{r3, pc}
 358              		.section	.text.HAL_ADC_LevelOutOfWindowCallback,"ax",%progbits
 359              		.align	1
 360              		.weak	HAL_ADC_LevelOutOfWindowCallback
ARM GAS  /tmp/ccDtm2ZA.s 			page 7


 361              		.thumb
 362              		.thumb_func
 364              	HAL_ADC_LevelOutOfWindowCallback:
 365              		@ args = 0, pretend = 0, frame = 0
 366              		@ frame_needed = 0, uses_anonymous_args = 0
 367              		@ link register save eliminated.
 368 0000 7047     		bx	lr
 370              		.section	.text.HAL_ADC_IRQHandler,"ax",%progbits
 371              		.align	1
 372              		.global	HAL_ADC_IRQHandler
 373              		.thumb
 374              		.thumb_func
 376              	HAL_ADC_IRQHandler:
 377              		@ args = 0, pretend = 0, frame = 0
 378              		@ frame_needed = 0, uses_anonymous_args = 0
 379 0000 0368     		ldr	r3, [r0]
 380 0002 10B5     		push	{r4, lr}
 381 0004 5A68     		ldr	r2, [r3, #4]
 382 0006 0446     		mov	r4, r0
 383 0008 9006     		lsls	r0, r2, #26
 384 000a 27D5     		bpl	.L64
 385 000c 1A68     		ldr	r2, [r3]
 386 000e 9107     		lsls	r1, r2, #30
 387 0010 24D5     		bpl	.L64
 388 0012 A26A     		ldr	r2, [r4, #40]
 389 0014 D206     		lsls	r2, r2, #27
 390 0016 5EBF     		ittt	pl
 391 0018 A26A     		ldrpl	r2, [r4, #40]
 392 001a 42F40072 		orrpl	r2, r2, #512
 393 001e A262     		strpl	r2, [r4, #40]
 394 0020 9A68     		ldr	r2, [r3, #8]
 395 0022 02F46022 		and	r2, r2, #917504
 396 0026 B2F5602F 		cmp	r2, #917504
 397 002a 10D1     		bne	.L67
 398 002c 227B     		ldrb	r2, [r4, #12]	@ zero_extendqisi2
 399 002e 72B9     		cbnz	r2, .L67
 400 0030 5A68     		ldr	r2, [r3, #4]
 401 0032 22F02002 		bic	r2, r2, #32
 402 0036 5A60     		str	r2, [r3, #4]
 403 0038 A36A     		ldr	r3, [r4, #40]
 404 003a 23F48073 		bic	r3, r3, #256
 405 003e A362     		str	r3, [r4, #40]
 406 0040 A36A     		ldr	r3, [r4, #40]
 407 0042 DB04     		lsls	r3, r3, #19
 408 0044 5EBF     		ittt	pl
 409 0046 A36A     		ldrpl	r3, [r4, #40]
 410 0048 43F00103 		orrpl	r3, r3, #1
 411 004c A362     		strpl	r3, [r4, #40]
 412              	.L67:
 413 004e 2046     		mov	r0, r4
 414 0050 FFF7FEFF 		bl	HAL_ADC_ConvCpltCallback
 415 0054 2368     		ldr	r3, [r4]
 416 0056 6FF01202 		mvn	r2, #18
 417 005a 1A60     		str	r2, [r3]
 418              	.L64:
 419 005c 2368     		ldr	r3, [r4]
 420 005e 5A68     		ldr	r2, [r3, #4]
ARM GAS  /tmp/ccDtm2ZA.s 			page 8


 421 0060 1006     		lsls	r0, r2, #24
 422 0062 30D5     		bpl	.L69
 423 0064 1A68     		ldr	r2, [r3]
 424 0066 5107     		lsls	r1, r2, #29
 425 0068 2DD5     		bpl	.L69
 426 006a A26A     		ldr	r2, [r4, #40]
 427 006c D206     		lsls	r2, r2, #27
 428 006e 5EBF     		ittt	pl
 429 0070 A26A     		ldrpl	r2, [r4, #40]
 430 0072 42F40052 		orrpl	r2, r2, #8192
 431 0076 A262     		strpl	r2, [r4, #40]
 432 0078 9A68     		ldr	r2, [r3, #8]
 433 007a 02F4E042 		and	r2, r2, #28672
 434 007e B2F5E04F 		cmp	r2, #28672
 435 0082 0AD0     		beq	.L71
 436 0084 5A68     		ldr	r2, [r3, #4]
 437 0086 5005     		lsls	r0, r2, #21
 438 0088 16D4     		bmi	.L73
 439 008a 9A68     		ldr	r2, [r3, #8]
 440 008c 02F46022 		and	r2, r2, #917504
 441 0090 B2F5602F 		cmp	r2, #917504
 442 0094 10D1     		bne	.L73
 443 0096 227B     		ldrb	r2, [r4, #12]	@ zero_extendqisi2
 444 0098 72B9     		cbnz	r2, .L73
 445              	.L71:
 446 009a 5A68     		ldr	r2, [r3, #4]
 447 009c 22F08002 		bic	r2, r2, #128
 448 00a0 5A60     		str	r2, [r3, #4]
 449 00a2 A36A     		ldr	r3, [r4, #40]
 450 00a4 23F48053 		bic	r3, r3, #4096
 451 00a8 A362     		str	r3, [r4, #40]
 452 00aa A36A     		ldr	r3, [r4, #40]
 453 00ac D905     		lsls	r1, r3, #23
 454 00ae 5EBF     		ittt	pl
 455 00b0 A36A     		ldrpl	r3, [r4, #40]
 456 00b2 43F00103 		orrpl	r3, r3, #1
 457 00b6 A362     		strpl	r3, [r4, #40]
 458              	.L73:
 459 00b8 2046     		mov	r0, r4
 460 00ba FFF7FEFF 		bl	HAL_ADCEx_InjectedConvCpltCallback
 461 00be 2368     		ldr	r3, [r4]
 462 00c0 6FF00C02 		mvn	r2, #12
 463 00c4 1A60     		str	r2, [r3]
 464              	.L69:
 465 00c6 2368     		ldr	r3, [r4]
 466 00c8 5A68     		ldr	r2, [r3, #4]
 467 00ca 5206     		lsls	r2, r2, #25
 468 00cc 0DD5     		bpl	.L63
 469 00ce 1B68     		ldr	r3, [r3]
 470 00d0 DB07     		lsls	r3, r3, #31
 471 00d2 0AD5     		bpl	.L63
 472 00d4 A36A     		ldr	r3, [r4, #40]
 473 00d6 2046     		mov	r0, r4
 474 00d8 43F48033 		orr	r3, r3, #65536
 475 00dc A362     		str	r3, [r4, #40]
 476 00de FFF7FEFF 		bl	HAL_ADC_LevelOutOfWindowCallback
 477 00e2 2368     		ldr	r3, [r4]
ARM GAS  /tmp/ccDtm2ZA.s 			page 9


 478 00e4 6FF00102 		mvn	r2, #1
 479 00e8 1A60     		str	r2, [r3]
 480              	.L63:
 481 00ea 10BD     		pop	{r4, pc}
 483              		.section	.text.HAL_ADC_ErrorCallback,"ax",%progbits
 484              		.align	1
 485              		.weak	HAL_ADC_ErrorCallback
 486              		.thumb
 487              		.thumb_func
 489              	HAL_ADC_ErrorCallback:
 490              		@ args = 0, pretend = 0, frame = 0
 491              		@ frame_needed = 0, uses_anonymous_args = 0
 492              		@ link register save eliminated.
 493 0000 7047     		bx	lr
 495              		.section	.text.ADC_DMAError,"ax",%progbits
 496              		.align	1
 497              		.global	ADC_DMAError
 498              		.thumb
 499              		.thumb_func
 501              	ADC_DMAError:
 502              		@ args = 0, pretend = 0, frame = 0
 503              		@ frame_needed = 0, uses_anonymous_args = 0
 504 0000 406A     		ldr	r0, [r0, #36]
 505 0002 08B5     		push	{r3, lr}
 506 0004 836A     		ldr	r3, [r0, #40]
 507 0006 43F04003 		orr	r3, r3, #64
 508 000a 8362     		str	r3, [r0, #40]
 509 000c C36A     		ldr	r3, [r0, #44]
 510 000e 43F00403 		orr	r3, r3, #4
 511 0012 C362     		str	r3, [r0, #44]
 512 0014 FFF7FEFF 		bl	HAL_ADC_ErrorCallback
 513 0018 08BD     		pop	{r3, pc}
 515              		.section	.text.HAL_ADC_ConfigChannel,"ax",%progbits
 516              		.align	1
 517              		.global	HAL_ADC_ConfigChannel
 518              		.thumb
 519              		.thumb_func
 521              	HAL_ADC_ConfigChannel:
 522              		@ args = 0, pretend = 0, frame = 8
 523              		@ frame_needed = 0, uses_anonymous_args = 0
 524 0000 73B5     		push	{r0, r1, r4, r5, r6, lr}
 525 0002 0023     		movs	r3, #0
 526 0004 0193     		str	r3, [sp, #4]
 527 0006 90F82430 		ldrb	r3, [r0, #36]	@ zero_extendqisi2
 528 000a 012B     		cmp	r3, #1
 529 000c 71D0     		beq	.L112
 530 000e 0123     		movs	r3, #1
 531 0010 80F82430 		strb	r3, [r0, #36]
 532 0014 4B68     		ldr	r3, [r1, #4]
 533 0016 0268     		ldr	r2, [r0]
 534 0018 062B     		cmp	r3, #6
 535 001a 4FEA8304 		lsl	r4, r3, #2
 536 001e 0D68     		ldr	r5, [r1]
 537 0020 0BD8     		bhi	.L101
 538 0022 2344     		add	r3, r3, r4
 539 0024 566B     		ldr	r6, [r2, #52]
 540 0026 053B     		subs	r3, r3, #5
ARM GAS  /tmp/ccDtm2ZA.s 			page 10


 541 0028 1F24     		movs	r4, #31
 542 002a 9C40     		lsls	r4, r4, r3
 543 002c 26EA0404 		bic	r4, r6, r4
 544 0030 05FA03F3 		lsl	r3, r5, r3
 545 0034 2343     		orrs	r3, r3, r4
 546 0036 5363     		str	r3, [r2, #52]
 547 0038 18E0     		b	.L102
 548              	.L101:
 549 003a 0C2B     		cmp	r3, #12
 550 003c 0BD8     		bhi	.L103
 551 003e 2344     		add	r3, r3, r4
 552 0040 166B     		ldr	r6, [r2, #48]
 553 0042 233B     		subs	r3, r3, #35
 554 0044 1F24     		movs	r4, #31
 555 0046 9C40     		lsls	r4, r4, r3
 556 0048 26EA0404 		bic	r4, r6, r4
 557 004c 05FA03F3 		lsl	r3, r5, r3
 558 0050 2343     		orrs	r3, r3, r4
 559 0052 1363     		str	r3, [r2, #48]
 560 0054 0AE0     		b	.L102
 561              	.L103:
 562 0056 2344     		add	r3, r3, r4
 563 0058 D66A     		ldr	r6, [r2, #44]
 564 005a 413B     		subs	r3, r3, #65
 565 005c 1F24     		movs	r4, #31
 566 005e 9C40     		lsls	r4, r4, r3
 567 0060 26EA0404 		bic	r4, r6, r4
 568 0064 05FA03F3 		lsl	r3, r5, r3
 569 0068 2343     		orrs	r3, r3, r4
 570 006a D362     		str	r3, [r2, #44]
 571              	.L102:
 572 006c 092D     		cmp	r5, #9
 573 006e 4FEA4504 		lsl	r4, r5, #1
 574 0072 8B68     		ldr	r3, [r1, #8]
 575 0074 0AD9     		bls	.L104
 576 0076 6119     		adds	r1, r4, r5
 577 0078 D668     		ldr	r6, [r2, #12]
 578 007a 1E39     		subs	r1, r1, #30
 579 007c 0724     		movs	r4, #7
 580 007e 8C40     		lsls	r4, r4, r1
 581 0080 26EA0404 		bic	r4, r6, r4
 582 0084 8B40     		lsls	r3, r3, r1
 583 0086 2343     		orrs	r3, r3, r4
 584 0088 D360     		str	r3, [r2, #12]
 585 008a 08E0     		b	.L105
 586              	.L104:
 587 008c 6119     		adds	r1, r4, r5
 588 008e 1669     		ldr	r6, [r2, #16]
 589 0090 0724     		movs	r4, #7
 590 0092 8C40     		lsls	r4, r4, r1
 591 0094 26EA0404 		bic	r4, r6, r4
 592 0098 8B40     		lsls	r3, r3, r1
 593 009a 2343     		orrs	r3, r3, r4
 594 009c 1361     		str	r3, [r2, #16]
 595              	.L105:
 596 009e A5F11003 		sub	r3, r5, #16
 597 00a2 012B     		cmp	r3, #1
ARM GAS  /tmp/ccDtm2ZA.s 			page 11


 598 00a4 01D9     		bls	.L106
 599              	.L109:
 600 00a6 0023     		movs	r3, #0
 601 00a8 1EE0     		b	.L107
 602              	.L106:
 603 00aa 134B     		ldr	r3, .L114
 604 00ac 9A42     		cmp	r2, r3
 605 00ae 16D1     		bne	.L108
 606 00b0 9368     		ldr	r3, [r2, #8]
 607 00b2 1B02     		lsls	r3, r3, #8
 608 00b4 F7D4     		bmi	.L109
 609 00b6 9368     		ldr	r3, [r2, #8]
 610 00b8 102D     		cmp	r5, #16
 611 00ba 43F40003 		orr	r3, r3, #8388608
 612 00be 9360     		str	r3, [r2, #8]
 613 00c0 F1D1     		bne	.L109
 614 00c2 0E4B     		ldr	r3, .L114+4
 615 00c4 0E4A     		ldr	r2, .L114+8
 616 00c6 1B68     		ldr	r3, [r3]
 617 00c8 B3FBF2F2 		udiv	r2, r3, r2
 618 00cc 0A23     		movs	r3, #10
 619 00ce 5343     		muls	r3, r2, r3
 620              	.L113:
 621 00d0 0193     		str	r3, [sp, #4]
 622 00d2 019B     		ldr	r3, [sp, #4]
 623 00d4 002B     		cmp	r3, #0
 624 00d6 E6D0     		beq	.L109
 625 00d8 019B     		ldr	r3, [sp, #4]
 626 00da 013B     		subs	r3, r3, #1
 627 00dc F8E7     		b	.L113
 628              	.L108:
 629 00de 836A     		ldr	r3, [r0, #40]
 630 00e0 43F02003 		orr	r3, r3, #32
 631 00e4 8362     		str	r3, [r0, #40]
 632 00e6 0123     		movs	r3, #1
 633              	.L107:
 634 00e8 0022     		movs	r2, #0
 635 00ea 80F82420 		strb	r2, [r0, #36]
 636 00ee 1846     		mov	r0, r3
 637 00f0 00E0     		b	.L100
 638              	.L112:
 639 00f2 0220     		movs	r0, #2
 640              	.L100:
 641 00f4 02B0     		add	sp, sp, #8
 642              		@ sp needed
 643 00f6 70BD     		pop	{r4, r5, r6, pc}
 644              	.L115:
 645              		.align	2
 646              	.L114:
 647 00f8 00240140 		.word	1073816576
 648 00fc 00000000 		.word	SystemCoreClock
 649 0100 40420F00 		.word	1000000
 651              		.section	.text.HAL_ADC_AnalogWDGConfig,"ax",%progbits
 652              		.align	1
 653              		.global	HAL_ADC_AnalogWDGConfig
 654              		.thumb
 655              		.thumb_func
ARM GAS  /tmp/ccDtm2ZA.s 			page 12


 657              	HAL_ADC_AnalogWDGConfig:
 658              		@ args = 0, pretend = 0, frame = 0
 659              		@ frame_needed = 0, uses_anonymous_args = 0
 660 0000 90F82430 		ldrb	r3, [r0, #36]	@ zero_extendqisi2
 661 0004 30B5     		push	{r4, r5, lr}
 662 0006 012B     		cmp	r3, #1
 663 0008 0C68     		ldr	r4, [r1]
 664 000a 1CD0     		beq	.L120
 665 000c 0123     		movs	r3, #1
 666 000e 80F82430 		strb	r3, [r0, #36]
 667 0012 0B7A     		ldrb	r3, [r1, #8]	@ zero_extendqisi2
 668 0014 012B     		cmp	r3, #1
 669 0016 0368     		ldr	r3, [r0]
 670 0018 5D68     		ldr	r5, [r3, #4]
 671 001a 0CBF     		ite	eq
 672 001c 45F04005 		orreq	r5, r5, #64
 673 0020 25F04005 		bicne	r5, r5, #64
 674 0024 5D60     		str	r5, [r3, #4]
 675 0026 4A68     		ldr	r2, [r1, #4]
 676 0028 5D68     		ldr	r5, [r3, #4]
 677 002a 1443     		orrs	r4, r4, r2
 678 002c 074A     		ldr	r2, .L122
 679 002e 2A40     		ands	r2, r2, r5
 680 0030 2243     		orrs	r2, r2, r4
 681 0032 5A60     		str	r2, [r3, #4]
 682 0034 CA68     		ldr	r2, [r1, #12]
 683 0036 5A62     		str	r2, [r3, #36]
 684 0038 0A69     		ldr	r2, [r1, #16]
 685 003a 9A62     		str	r2, [r3, #40]
 686 003c 0023     		movs	r3, #0
 687 003e 80F82430 		strb	r3, [r0, #36]
 688 0042 1846     		mov	r0, r3
 689 0044 30BD     		pop	{r4, r5, pc}
 690              	.L120:
 691 0046 0220     		movs	r0, #2
 692 0048 30BD     		pop	{r4, r5, pc}
 693              	.L123:
 694 004a 00BF     		.align	2
 695              	.L122:
 696 004c E0FD3FFF 		.word	-12583456
 698              		.section	.text.HAL_ADC_GetState,"ax",%progbits
 699              		.align	1
 700              		.global	HAL_ADC_GetState
 701              		.thumb
 702              		.thumb_func
 704              	HAL_ADC_GetState:
 705              		@ args = 0, pretend = 0, frame = 0
 706              		@ frame_needed = 0, uses_anonymous_args = 0
 707              		@ link register save eliminated.
 708 0000 806A     		ldr	r0, [r0, #40]
 709 0002 7047     		bx	lr
 711              		.section	.text.HAL_ADC_GetError,"ax",%progbits
 712              		.align	1
 713              		.global	HAL_ADC_GetError
 714              		.thumb
 715              		.thumb_func
 717              	HAL_ADC_GetError:
ARM GAS  /tmp/ccDtm2ZA.s 			page 13


 718              		@ args = 0, pretend = 0, frame = 0
 719              		@ frame_needed = 0, uses_anonymous_args = 0
 720              		@ link register save eliminated.
 721 0000 C06A     		ldr	r0, [r0, #44]
 722 0002 7047     		bx	lr
 724              		.section	.text.ADC_Enable,"ax",%progbits
 725              		.align	1
 726              		.global	ADC_Enable
 727              		.thumb
 728              		.thumb_func
 730              	ADC_Enable:
 731              		@ args = 0, pretend = 0, frame = 8
 732              		@ frame_needed = 0, uses_anonymous_args = 0
 733 0000 73B5     		push	{r0, r1, r4, r5, r6, lr}
 734 0002 0023     		movs	r3, #0
 735 0004 0193     		str	r3, [sp, #4]
 736 0006 0368     		ldr	r3, [r0]
 737 0008 0446     		mov	r4, r0
 738 000a 9A68     		ldr	r2, [r3, #8]
 739 000c D207     		lsls	r2, r2, #31
 740 000e 01D5     		bpl	.L127
 741              	.L133:
 742 0010 0020     		movs	r0, #0
 743 0012 26E0     		b	.L128
 744              	.L127:
 745 0014 9A68     		ldr	r2, [r3, #8]
 746 0016 42F00102 		orr	r2, r2, #1
 747 001a 9A60     		str	r2, [r3, #8]
 748 001c 124B     		ldr	r3, .L137
 749 001e 134A     		ldr	r2, .L137+4
 750 0020 1B68     		ldr	r3, [r3]
 751 0022 B3FBF2F3 		udiv	r3, r3, r2
 752              	.L135:
 753 0026 0193     		str	r3, [sp, #4]
 754 0028 019B     		ldr	r3, [sp, #4]
 755 002a 13B1     		cbz	r3, .L136
 756 002c 019B     		ldr	r3, [sp, #4]
 757 002e 013B     		subs	r3, r3, #1
 758 0030 F9E7     		b	.L135
 759              	.L136:
 760 0032 FFF7FEFF 		bl	HAL_GetTick
 761 0036 0646     		mov	r6, r0
 762              	.L131:
 763 0038 2368     		ldr	r3, [r4]
 764 003a 9B68     		ldr	r3, [r3, #8]
 765 003c 13F00105 		ands	r5, r3, #1
 766 0040 E6D1     		bne	.L133
 767 0042 FFF7FEFF 		bl	HAL_GetTick
 768 0046 801B     		subs	r0, r0, r6
 769 0048 0228     		cmp	r0, #2
 770 004a F5D9     		bls	.L131
 771 004c A36A     		ldr	r3, [r4, #40]
 772 004e 84F82450 		strb	r5, [r4, #36]
 773 0052 43F01003 		orr	r3, r3, #16
 774 0056 A362     		str	r3, [r4, #40]
 775 0058 E36A     		ldr	r3, [r4, #44]
 776 005a 0120     		movs	r0, #1
ARM GAS  /tmp/ccDtm2ZA.s 			page 14


 777 005c 43F00103 		orr	r3, r3, #1
 778 0060 E362     		str	r3, [r4, #44]
 779              	.L128:
 780 0062 02B0     		add	sp, sp, #8
 781              		@ sp needed
 782 0064 70BD     		pop	{r4, r5, r6, pc}
 783              	.L138:
 784 0066 00BF     		.align	2
 785              	.L137:
 786 0068 00000000 		.word	SystemCoreClock
 787 006c 40420F00 		.word	1000000
 789              		.section	.text.HAL_ADC_Start,"ax",%progbits
 790              		.align	1
 791              		.global	HAL_ADC_Start
 792              		.thumb
 793              		.thumb_func
 795              	HAL_ADC_Start:
 796              		@ args = 0, pretend = 0, frame = 0
 797              		@ frame_needed = 0, uses_anonymous_args = 0
 798 0000 90F82430 		ldrb	r3, [r0, #36]	@ zero_extendqisi2
 799 0004 10B5     		push	{r4, lr}
 800 0006 012B     		cmp	r3, #1
 801 0008 0446     		mov	r4, r0
 802 000a 55D0     		beq	.L151
 803 000c 0123     		movs	r3, #1
 804 000e 80F82430 		strb	r3, [r0, #36]
 805 0012 FFF7FEFF 		bl	ADC_Enable
 806 0016 0028     		cmp	r0, #0
 807 0018 4AD1     		bne	.L141
 808 001a A36A     		ldr	r3, [r4, #40]
 809 001c 274A     		ldr	r2, .L159
 810 001e 23F44073 		bic	r3, r3, #768
 811 0022 23F00103 		bic	r3, r3, #1
 812 0026 43F48073 		orr	r3, r3, #256
 813 002a A362     		str	r3, [r4, #40]
 814 002c 2368     		ldr	r3, [r4]
 815 002e 9342     		cmp	r3, r2
 816 0030 04D1     		bne	.L142
 817 0032 2349     		ldr	r1, .L159+4
 818 0034 4A68     		ldr	r2, [r1, #4]
 819 0036 12F4702F 		tst	r2, #983040
 820 003a 05D1     		bne	.L143
 821              	.L142:
 822 003c A26A     		ldr	r2, [r4, #40]
 823 003e 22F48012 		bic	r2, r2, #1048576
 824 0042 A262     		str	r2, [r4, #40]
 825 0044 5A68     		ldr	r2, [r3, #4]
 826 0046 04E0     		b	.L158
 827              	.L143:
 828 0048 A26A     		ldr	r2, [r4, #40]
 829 004a 42F48012 		orr	r2, r2, #1048576
 830 004e A262     		str	r2, [r4, #40]
 831 0050 4A68     		ldr	r2, [r1, #4]
 832              	.L158:
 833 0052 5205     		lsls	r2, r2, #21
 834 0054 41BF     		itttt	mi
 835 0056 A26A     		ldrmi	r2, [r4, #40]
ARM GAS  /tmp/ccDtm2ZA.s 			page 15


 836 0058 22F44052 		bicmi	r2, r2, #12288
 837 005c 42F48052 		orrmi	r2, r2, #4096
 838 0060 A262     		strmi	r2, [r4, #40]
 839 0062 A26A     		ldr	r2, [r4, #40]
 840 0064 12F48052 		ands	r2, r2, #4096
 841 0068 1CBF     		itt	ne
 842 006a E26A     		ldrne	r2, [r4, #44]
 843 006c 22F00602 		bicne	r2, r2, #6
 844 0070 E262     		str	r2, [r4, #44]
 845 0072 0022     		movs	r2, #0
 846 0074 84F82420 		strb	r2, [r4, #36]
 847 0078 6FF00202 		mvn	r2, #2
 848 007c 1A60     		str	r2, [r3]
 849 007e 9A68     		ldr	r2, [r3, #8]
 850 0080 02F46022 		and	r2, r2, #917504
 851 0084 B2F5602F 		cmp	r2, #917504
 852 0088 0CD1     		bne	.L149
 853 008a 0C4A     		ldr	r2, .L159
 854 008c 9342     		cmp	r3, r2
 855 008e 05D1     		bne	.L150
 856 0090 A2F58062 		sub	r2, r2, #1024
 857 0094 5268     		ldr	r2, [r2, #4]
 858 0096 12F4702F 		tst	r2, #983040
 859 009a 03D1     		bne	.L149
 860              	.L150:
 861 009c 9A68     		ldr	r2, [r3, #8]
 862 009e 42F4A002 		orr	r2, r2, #5242880
 863 00a2 02E0     		b	.L156
 864              	.L149:
 865 00a4 9A68     		ldr	r2, [r3, #8]
 866 00a6 42F48012 		orr	r2, r2, #1048576
 867              	.L156:
 868 00aa 9A60     		str	r2, [r3, #8]
 869 00ac 0020     		movs	r0, #0
 870 00ae 10BD     		pop	{r4, pc}
 871              	.L141:
 872 00b0 0023     		movs	r3, #0
 873 00b2 84F82430 		strb	r3, [r4, #36]
 874 00b6 10BD     		pop	{r4, pc}
 875              	.L151:
 876 00b8 0220     		movs	r0, #2
 877 00ba 10BD     		pop	{r4, pc}
 878              	.L160:
 879              		.align	2
 880              	.L159:
 881 00bc 00280140 		.word	1073817600
 882 00c0 00240140 		.word	1073816576
 884              		.section	.text.HAL_ADC_Start_IT,"ax",%progbits
 885              		.align	1
 886              		.global	HAL_ADC_Start_IT
 887              		.thumb
 888              		.thumb_func
 890              	HAL_ADC_Start_IT:
 891              		@ args = 0, pretend = 0, frame = 0
 892              		@ frame_needed = 0, uses_anonymous_args = 0
 893 0000 90F82430 		ldrb	r3, [r0, #36]	@ zero_extendqisi2
 894 0004 10B5     		push	{r4, lr}
ARM GAS  /tmp/ccDtm2ZA.s 			page 16


 895 0006 012B     		cmp	r3, #1
 896 0008 0446     		mov	r4, r0
 897 000a 59D0     		beq	.L173
 898 000c 0123     		movs	r3, #1
 899 000e 80F82430 		strb	r3, [r0, #36]
 900 0012 FFF7FEFF 		bl	ADC_Enable
 901 0016 0028     		cmp	r0, #0
 902 0018 4ED1     		bne	.L163
 903 001a A36A     		ldr	r3, [r4, #40]
 904 001c 294A     		ldr	r2, .L181
 905 001e 23F47063 		bic	r3, r3, #3840
 906 0022 23F00103 		bic	r3, r3, #1
 907 0026 43F48073 		orr	r3, r3, #256
 908 002a A362     		str	r3, [r4, #40]
 909 002c 2368     		ldr	r3, [r4]
 910 002e 9342     		cmp	r3, r2
 911 0030 04D1     		bne	.L164
 912 0032 2549     		ldr	r1, .L181+4
 913 0034 4A68     		ldr	r2, [r1, #4]
 914 0036 12F4702F 		tst	r2, #983040
 915 003a 05D1     		bne	.L165
 916              	.L164:
 917 003c A26A     		ldr	r2, [r4, #40]
 918 003e 22F48012 		bic	r2, r2, #1048576
 919 0042 A262     		str	r2, [r4, #40]
 920 0044 5A68     		ldr	r2, [r3, #4]
 921 0046 04E0     		b	.L180
 922              	.L165:
 923 0048 A26A     		ldr	r2, [r4, #40]
 924 004a 42F48012 		orr	r2, r2, #1048576
 925 004e A262     		str	r2, [r4, #40]
 926 0050 4A68     		ldr	r2, [r1, #4]
 927              	.L180:
 928 0052 5205     		lsls	r2, r2, #21
 929 0054 41BF     		itttt	mi
 930 0056 A26A     		ldrmi	r2, [r4, #40]
 931 0058 22F44052 		bicmi	r2, r2, #12288
 932 005c 42F48052 		orrmi	r2, r2, #4096
 933 0060 A262     		strmi	r2, [r4, #40]
 934 0062 A26A     		ldr	r2, [r4, #40]
 935 0064 12F48052 		ands	r2, r2, #4096
 936 0068 1CBF     		itt	ne
 937 006a E26A     		ldrne	r2, [r4, #44]
 938 006c 22F00602 		bicne	r2, r2, #6
 939 0070 E262     		str	r2, [r4, #44]
 940 0072 0022     		movs	r2, #0
 941 0074 84F82420 		strb	r2, [r4, #36]
 942 0078 6FF00202 		mvn	r2, #2
 943 007c 1A60     		str	r2, [r3]
 944 007e 5A68     		ldr	r2, [r3, #4]
 945 0080 42F02002 		orr	r2, r2, #32
 946 0084 5A60     		str	r2, [r3, #4]
 947 0086 9A68     		ldr	r2, [r3, #8]
 948 0088 02F46022 		and	r2, r2, #917504
 949 008c B2F5602F 		cmp	r2, #917504
 950 0090 0CD1     		bne	.L171
 951 0092 0C4A     		ldr	r2, .L181
ARM GAS  /tmp/ccDtm2ZA.s 			page 17


 952 0094 9342     		cmp	r3, r2
 953 0096 05D1     		bne	.L172
 954 0098 A2F58062 		sub	r2, r2, #1024
 955 009c 5268     		ldr	r2, [r2, #4]
 956 009e 12F4702F 		tst	r2, #983040
 957 00a2 03D1     		bne	.L171
 958              	.L172:
 959 00a4 9A68     		ldr	r2, [r3, #8]
 960 00a6 42F4A002 		orr	r2, r2, #5242880
 961 00aa 02E0     		b	.L178
 962              	.L171:
 963 00ac 9A68     		ldr	r2, [r3, #8]
 964 00ae 42F48012 		orr	r2, r2, #1048576
 965              	.L178:
 966 00b2 9A60     		str	r2, [r3, #8]
 967 00b4 0020     		movs	r0, #0
 968 00b6 10BD     		pop	{r4, pc}
 969              	.L163:
 970 00b8 0023     		movs	r3, #0
 971 00ba 84F82430 		strb	r3, [r4, #36]
 972 00be 10BD     		pop	{r4, pc}
 973              	.L173:
 974 00c0 0220     		movs	r0, #2
 975 00c2 10BD     		pop	{r4, pc}
 976              	.L182:
 977              		.align	2
 978              	.L181:
 979 00c4 00280140 		.word	1073817600
 980 00c8 00240140 		.word	1073816576
 982              		.section	.text.HAL_ADC_Start_DMA,"ax",%progbits
 983              		.align	1
 984              		.global	HAL_ADC_Start_DMA
 985              		.thumb
 986              		.thumb_func
 988              	HAL_ADC_Start_DMA:
 989              		@ args = 0, pretend = 0, frame = 0
 990              		@ frame_needed = 0, uses_anonymous_args = 0
 991 0000 F8B5     		push	{r3, r4, r5, r6, r7, lr}
 992 0002 1646     		mov	r6, r2
 993 0004 3F4B     		ldr	r3, .L202
 994 0006 0268     		ldr	r2, [r0]
 995 0008 0446     		mov	r4, r0
 996 000a 9A42     		cmp	r2, r3
 997 000c 0F46     		mov	r7, r1
 998 000e 02D0     		beq	.L184
 999 0010 3D49     		ldr	r1, .L202+4
 1000 0012 8A42     		cmp	r2, r1
 1001 0014 03D1     		bne	.L185
 1002              	.L184:
 1003 0016 5B68     		ldr	r3, [r3, #4]
 1004 0018 13F4702F 		tst	r3, #983040
 1005 001c 6DD1     		bne	.L196
 1006              	.L185:
 1007 001e 94F82430 		ldrb	r3, [r4, #36]	@ zero_extendqisi2
 1008 0022 012B     		cmp	r3, #1
 1009 0024 6BD0     		beq	.L197
 1010 0026 0123     		movs	r3, #1
ARM GAS  /tmp/ccDtm2ZA.s 			page 18


 1011 0028 84F82430 		strb	r3, [r4, #36]
 1012 002c 2046     		mov	r0, r4
 1013 002e FFF7FEFF 		bl	ADC_Enable
 1014 0032 0028     		cmp	r0, #0
 1015 0034 5DD1     		bne	.L187
 1016 0036 A26A     		ldr	r2, [r4, #40]
 1017 0038 2168     		ldr	r1, [r4]
 1018 003a 22F47062 		bic	r2, r2, #3840
 1019 003e 324B     		ldr	r3, .L202+4
 1020 0040 22F00102 		bic	r2, r2, #1
 1021 0044 42F48072 		orr	r2, r2, #256
 1022 0048 9942     		cmp	r1, r3
 1023 004a A262     		str	r2, [r4, #40]
 1024 004c 04D1     		bne	.L188
 1025 004e 2D4A     		ldr	r2, .L202
 1026 0050 5368     		ldr	r3, [r2, #4]
 1027 0052 13F4702F 		tst	r3, #983040
 1028 0056 0DD1     		bne	.L189
 1029              	.L188:
 1030 0058 A36A     		ldr	r3, [r4, #40]
 1031 005a 23F48013 		bic	r3, r3, #1048576
 1032 005e A362     		str	r3, [r4, #40]
 1033 0060 4B68     		ldr	r3, [r1, #4]
 1034 0062 5A05     		lsls	r2, r3, #21
 1035 0064 13D5     		bpl	.L191
 1036 0066 A36A     		ldr	r3, [r4, #40]
 1037 0068 23F44053 		bic	r3, r3, #12288
 1038 006c 43F48053 		orr	r3, r3, #4096
 1039 0070 A362     		str	r3, [r4, #40]
 1040 0072 0CE0     		b	.L191
 1041              	.L189:
 1042 0074 A36A     		ldr	r3, [r4, #40]
 1043 0076 43F48013 		orr	r3, r3, #1048576
 1044 007a A362     		str	r3, [r4, #40]
 1045 007c 5368     		ldr	r3, [r2, #4]
 1046 007e 5B05     		lsls	r3, r3, #21
 1047 0080 41BF     		itttt	mi
 1048 0082 A26A     		ldrmi	r2, [r4, #40]
 1049 0084 22F44052 		bicmi	r2, r2, #12288
 1050 0088 42F48052 		orrmi	r2, r2, #4096
 1051 008c A262     		strmi	r2, [r4, #40]
 1052              	.L191:
 1053 008e A36A     		ldr	r3, [r4, #40]
 1054 0090 206A     		ldr	r0, [r4, #32]
 1055 0092 13F48053 		ands	r3, r3, #4096
 1056 0096 18BF     		it	ne
 1057 0098 E36A     		ldrne	r3, [r4, #44]
 1058 009a 4FF00005 		mov	r5, #0
 1059 009e 18BF     		it	ne
 1060 00a0 23F00603 		bicne	r3, r3, #6
 1061 00a4 E362     		str	r3, [r4, #44]
 1062 00a6 194B     		ldr	r3, .L202+8
 1063 00a8 84F82450 		strb	r5, [r4, #36]
 1064 00ac 8362     		str	r3, [r0, #40]
 1065 00ae 184B     		ldr	r3, .L202+12
 1066 00b0 3A46     		mov	r2, r7
 1067 00b2 C362     		str	r3, [r0, #44]
ARM GAS  /tmp/ccDtm2ZA.s 			page 19


 1068 00b4 174B     		ldr	r3, .L202+16
 1069 00b6 4C31     		adds	r1, r1, #76
 1070 00b8 0363     		str	r3, [r0, #48]
 1071 00ba 6FF00203 		mvn	r3, #2
 1072 00be 41F84C3C 		str	r3, [r1, #-76]
 1073 00c2 51F8443C 		ldr	r3, [r1, #-68]
 1074 00c6 43F48073 		orr	r3, r3, #256
 1075 00ca 41F8443C 		str	r3, [r1, #-68]
 1076 00ce 3346     		mov	r3, r6
 1077 00d0 FFF7FEFF 		bl	HAL_DMA_Start_IT
 1078 00d4 2368     		ldr	r3, [r4]
 1079 00d6 2846     		mov	r0, r5
 1080 00d8 9A68     		ldr	r2, [r3, #8]
 1081 00da 02F46022 		and	r2, r2, #917504
 1082 00de B2F5602F 		cmp	r2, #917504
 1083 00e2 9A68     		ldr	r2, [r3, #8]
 1084 00e4 0CBF     		ite	eq
 1085 00e6 42F4A002 		orreq	r2, r2, #5242880
 1086 00ea 42F48012 		orrne	r2, r2, #1048576
 1087 00ee 9A60     		str	r2, [r3, #8]
 1088 00f0 F8BD     		pop	{r3, r4, r5, r6, r7, pc}
 1089              	.L187:
 1090 00f2 0023     		movs	r3, #0
 1091 00f4 84F82430 		strb	r3, [r4, #36]
 1092 00f8 F8BD     		pop	{r3, r4, r5, r6, r7, pc}
 1093              	.L196:
 1094 00fa 0120     		movs	r0, #1
 1095 00fc F8BD     		pop	{r3, r4, r5, r6, r7, pc}
 1096              	.L197:
 1097 00fe 0220     		movs	r0, #2
 1098 0100 F8BD     		pop	{r3, r4, r5, r6, r7, pc}
 1099              	.L203:
 1100 0102 00BF     		.align	2
 1101              	.L202:
 1102 0104 00240140 		.word	1073816576
 1103 0108 00280140 		.word	1073817600
 1104 010c 00000000 		.word	ADC_DMAConvCplt
 1105 0110 00000000 		.word	ADC_DMAHalfConvCplt
 1106 0114 00000000 		.word	ADC_DMAError
 1108              		.section	.text.ADC_ConversionStop_Disable,"ax",%progbits
 1109              		.align	1
 1110              		.global	ADC_ConversionStop_Disable
 1111              		.thumb
 1112              		.thumb_func
 1114              	ADC_ConversionStop_Disable:
 1115              		@ args = 0, pretend = 0, frame = 0
 1116              		@ frame_needed = 0, uses_anonymous_args = 0
 1117 0000 38B5     		push	{r3, r4, r5, lr}
 1118 0002 0368     		ldr	r3, [r0]
 1119 0004 0446     		mov	r4, r0
 1120 0006 9A68     		ldr	r2, [r3, #8]
 1121 0008 D207     		lsls	r2, r2, #31
 1122 000a 01D4     		bmi	.L205
 1123              	.L209:
 1124 000c 0020     		movs	r0, #0
 1125 000e 38BD     		pop	{r3, r4, r5, pc}
 1126              	.L205:
ARM GAS  /tmp/ccDtm2ZA.s 			page 20


 1127 0010 9A68     		ldr	r2, [r3, #8]
 1128 0012 22F00102 		bic	r2, r2, #1
 1129 0016 9A60     		str	r2, [r3, #8]
 1130 0018 FFF7FEFF 		bl	HAL_GetTick
 1131 001c 0546     		mov	r5, r0
 1132              	.L207:
 1133 001e 2368     		ldr	r3, [r4]
 1134 0020 9B68     		ldr	r3, [r3, #8]
 1135 0022 DB07     		lsls	r3, r3, #31
 1136 0024 F2D5     		bpl	.L209
 1137 0026 FFF7FEFF 		bl	HAL_GetTick
 1138 002a 401B     		subs	r0, r0, r5
 1139 002c 0228     		cmp	r0, #2
 1140 002e F6D9     		bls	.L207
 1141 0030 A36A     		ldr	r3, [r4, #40]
 1142 0032 0120     		movs	r0, #1
 1143 0034 43F01003 		orr	r3, r3, #16
 1144 0038 A362     		str	r3, [r4, #40]
 1145 003a E36A     		ldr	r3, [r4, #44]
 1146 003c 43F00103 		orr	r3, r3, #1
 1147 0040 E362     		str	r3, [r4, #44]
 1148 0042 38BD     		pop	{r3, r4, r5, pc}
 1150              		.section	.text.HAL_ADC_Init,"ax",%progbits
 1151              		.align	1
 1152              		.global	HAL_ADC_Init
 1153              		.thumb
 1154              		.thumb_func
 1156              	HAL_ADC_Init:
 1157              		@ args = 0, pretend = 0, frame = 0
 1158              		@ frame_needed = 0, uses_anonymous_args = 0
 1159 0000 38B5     		push	{r3, r4, r5, lr}
 1160 0002 0446     		mov	r4, r0
 1161 0004 0028     		cmp	r0, #0
 1162 0006 74D0     		beq	.L221
 1163 0008 836A     		ldr	r3, [r0, #40]
 1164 000a 23B9     		cbnz	r3, .L213
 1165 000c C362     		str	r3, [r0, #44]
 1166 000e 80F82430 		strb	r3, [r0, #36]
 1167 0012 FFF7FEFF 		bl	HAL_ADC_MspInit
 1168              	.L213:
 1169 0016 2046     		mov	r0, r4
 1170 0018 FFF7FEFF 		bl	ADC_ConversionStop_Disable
 1171 001c A36A     		ldr	r3, [r4, #40]
 1172 001e 13F0100F 		tst	r3, #16
 1173 0022 A36A     		ldr	r3, [r4, #40]
 1174 0024 62D1     		bne	.L214
 1175 0026 0028     		cmp	r0, #0
 1176 0028 60D1     		bne	.L214
 1177 002a 23F48853 		bic	r3, r3, #4352
 1178 002e 23F00203 		bic	r3, r3, #2
 1179 0032 43F00203 		orr	r3, r3, #2
 1180 0036 A362     		str	r3, [r4, #40]
 1181 0038 E269     		ldr	r2, [r4, #28]
 1182 003a 6368     		ldr	r3, [r4, #4]
 1183 003c A168     		ldr	r1, [r4, #8]
 1184 003e 257B     		ldrb	r5, [r4, #12]	@ zero_extendqisi2
 1185 0040 1A43     		orrs	r2, r2, r3
ARM GAS  /tmp/ccDtm2ZA.s 			page 21


 1186 0042 B1F5807F 		cmp	r1, #256
 1187 0046 42EA4502 		orr	r2, r2, r5, lsl #1
 1188 004a 05D0     		beq	.L222
 1189 004c 0129     		cmp	r1, #1
 1190 004e 0CBF     		ite	eq
 1191 0050 4FF48070 		moveq	r0, #256
 1192 0054 0020     		movne	r0, #0
 1193 0056 00E0     		b	.L215
 1194              	.L222:
 1195 0058 0846     		mov	r0, r1
 1196              	.L215:
 1197 005a 237D     		ldrb	r3, [r4, #20]	@ zero_extendqisi2
 1198 005c 012B     		cmp	r3, #1
 1199 005e 0FD1     		bne	.L216
 1200 0060 35B9     		cbnz	r5, .L217
 1201 0062 A369     		ldr	r3, [r4, #24]
 1202 0064 013B     		subs	r3, r3, #1
 1203 0066 40EA4330 		orr	r0, r0, r3, lsl #13
 1204 006a 40F40060 		orr	r0, r0, #2048
 1205 006e 07E0     		b	.L216
 1206              	.L217:
 1207 0070 A36A     		ldr	r3, [r4, #40]
 1208 0072 43F02003 		orr	r3, r3, #32
 1209 0076 A362     		str	r3, [r4, #40]
 1210 0078 E36A     		ldr	r3, [r4, #44]
 1211 007a 43F00103 		orr	r3, r3, #1
 1212 007e E362     		str	r3, [r4, #44]
 1213              	.L216:
 1214 0080 2368     		ldr	r3, [r4]
 1215 0082 B1F5807F 		cmp	r1, #256
 1216 0086 5D68     		ldr	r5, [r3, #4]
 1217 0088 25F46945 		bic	r5, r5, #59648
 1218 008c 40EA0500 		orr	r0, r0, r5
 1219 0090 5860     		str	r0, [r3, #4]
 1220 0092 9D68     		ldr	r5, [r3, #8]
 1221 0094 1848     		ldr	r0, .L228
 1222 0096 00EA0500 		and	r0, r0, r5
 1223 009a 40EA0200 		orr	r0, r0, r2
 1224 009e 9860     		str	r0, [r3, #8]
 1225 00a0 01D0     		beq	.L218
 1226 00a2 0129     		cmp	r1, #1
 1227 00a4 03D1     		bne	.L224
 1228              	.L218:
 1229 00a6 2169     		ldr	r1, [r4, #16]
 1230 00a8 0139     		subs	r1, r1, #1
 1231 00aa 0905     		lsls	r1, r1, #20
 1232 00ac 00E0     		b	.L219
 1233              	.L224:
 1234 00ae 0021     		movs	r1, #0
 1235              	.L219:
 1236 00b0 D86A     		ldr	r0, [r3, #44]
 1237 00b2 20F47000 		bic	r0, r0, #15728640
 1238 00b6 0143     		orrs	r1, r1, r0
 1239 00b8 D962     		str	r1, [r3, #44]
 1240 00ba 9968     		ldr	r1, [r3, #8]
 1241 00bc 0F4B     		ldr	r3, .L228+4
 1242 00be 0B40     		ands	r3, r3, r1
ARM GAS  /tmp/ccDtm2ZA.s 			page 22


 1243 00c0 9342     		cmp	r3, r2
 1244 00c2 08D1     		bne	.L220
 1245 00c4 0020     		movs	r0, #0
 1246 00c6 E062     		str	r0, [r4, #44]
 1247 00c8 A36A     		ldr	r3, [r4, #40]
 1248 00ca 23F00303 		bic	r3, r3, #3
 1249 00ce 43F00103 		orr	r3, r3, #1
 1250 00d2 A362     		str	r3, [r4, #40]
 1251 00d4 38BD     		pop	{r3, r4, r5, pc}
 1252              	.L220:
 1253 00d6 A36A     		ldr	r3, [r4, #40]
 1254 00d8 23F01203 		bic	r3, r3, #18
 1255 00dc 43F01003 		orr	r3, r3, #16
 1256 00e0 A362     		str	r3, [r4, #40]
 1257 00e2 E36A     		ldr	r3, [r4, #44]
 1258 00e4 43F00103 		orr	r3, r3, #1
 1259 00e8 E362     		str	r3, [r4, #44]
 1260 00ea 02E0     		b	.L221
 1261              	.L214:
 1262 00ec 43F01003 		orr	r3, r3, #16
 1263 00f0 A362     		str	r3, [r4, #40]
 1264              	.L221:
 1265 00f2 0120     		movs	r0, #1
 1266 00f4 38BD     		pop	{r3, r4, r5, pc}
 1267              	.L229:
 1268 00f6 00BF     		.align	2
 1269              	.L228:
 1270 00f8 FDF7E1FF 		.word	-1968131
 1271 00fc FE0E1FFF 		.word	-14741762
 1273              		.section	.text.HAL_ADC_DeInit,"ax",%progbits
 1274              		.align	1
 1275              		.global	HAL_ADC_DeInit
 1276              		.thumb
 1277              		.thumb_func
 1279              	HAL_ADC_DeInit:
 1280              		@ args = 0, pretend = 0, frame = 0
 1281              		@ frame_needed = 0, uses_anonymous_args = 0
 1282 0000 38B5     		push	{r3, r4, r5, lr}
 1283 0002 0546     		mov	r5, r0
 1284 0004 0028     		cmp	r0, #0
 1285 0006 62D0     		beq	.L233
 1286 0008 836A     		ldr	r3, [r0, #40]
 1287 000a 43F00203 		orr	r3, r3, #2
 1288 000e 8362     		str	r3, [r0, #40]
 1289 0010 FFF7FEFF 		bl	ADC_ConversionStop_Disable
 1290 0014 0446     		mov	r4, r0
 1291 0016 0028     		cmp	r0, #0
 1292 0018 54D1     		bne	.L232
 1293 001a 2B68     		ldr	r3, [r5]
 1294 001c 6FF01F02 		mvn	r2, #31
 1295 0020 1A60     		str	r2, [r3]
 1296 0022 5968     		ldr	r1, [r3, #4]
 1297 0024 2B4A     		ldr	r2, .L234
 1298 0026 2846     		mov	r0, r5
 1299 0028 0A40     		ands	r2, r2, r1
 1300 002a 5A60     		str	r2, [r3, #4]
 1301 002c 9968     		ldr	r1, [r3, #8]
ARM GAS  /tmp/ccDtm2ZA.s 			page 23


 1302 002e 2A4A     		ldr	r2, .L234+4
 1303 0030 0A40     		ands	r2, r2, r1
 1304 0032 9A60     		str	r2, [r3, #8]
 1305 0034 DA68     		ldr	r2, [r3, #12]
 1306 0036 02F07F42 		and	r2, r2, #-16777216
 1307 003a DA60     		str	r2, [r3, #12]
 1308 003c 1A69     		ldr	r2, [r3, #16]
 1309 003e 02F04042 		and	r2, r2, #-1073741824
 1310 0042 1A61     		str	r2, [r3, #16]
 1311 0044 5A69     		ldr	r2, [r3, #20]
 1312 0046 22F47F62 		bic	r2, r2, #4080
 1313 004a 22F00F02 		bic	r2, r2, #15
 1314 004e 5A61     		str	r2, [r3, #20]
 1315 0050 9A69     		ldr	r2, [r3, #24]
 1316 0052 22F47F62 		bic	r2, r2, #4080
 1317 0056 22F00F02 		bic	r2, r2, #15
 1318 005a 9A61     		str	r2, [r3, #24]
 1319 005c DA69     		ldr	r2, [r3, #28]
 1320 005e 22F47F62 		bic	r2, r2, #4080
 1321 0062 22F00F02 		bic	r2, r2, #15
 1322 0066 DA61     		str	r2, [r3, #28]
 1323 0068 1A6A     		ldr	r2, [r3, #32]
 1324 006a 22F47F62 		bic	r2, r2, #4080
 1325 006e 22F00F02 		bic	r2, r2, #15
 1326 0072 1A62     		str	r2, [r3, #32]
 1327 0074 5A6A     		ldr	r2, [r3, #36]
 1328 0076 22F47F62 		bic	r2, r2, #4080
 1329 007a 22F00F02 		bic	r2, r2, #15
 1330 007e 5A62     		str	r2, [r3, #36]
 1331 0080 9A6A     		ldr	r2, [r3, #40]
 1332 0082 22F47F62 		bic	r2, r2, #4080
 1333 0086 22F00F02 		bic	r2, r2, #15
 1334 008a 9A62     		str	r2, [r3, #40]
 1335 008c DA6A     		ldr	r2, [r3, #44]
 1336 008e 02F07F42 		and	r2, r2, #-16777216
 1337 0092 DA62     		str	r2, [r3, #44]
 1338 0094 DA6A     		ldr	r2, [r3, #44]
 1339 0096 02F07F42 		and	r2, r2, #-16777216
 1340 009a DA62     		str	r2, [r3, #44]
 1341 009c 1A6B     		ldr	r2, [r3, #48]
 1342 009e 02F04042 		and	r2, r2, #-1073741824
 1343 00a2 1A63     		str	r2, [r3, #48]
 1344 00a4 5A6B     		ldr	r2, [r3, #52]
 1345 00a6 02F04042 		and	r2, r2, #-1073741824
 1346 00aa 5A63     		str	r2, [r3, #52]
 1347 00ac 9A6B     		ldr	r2, [r3, #56]
 1348 00ae 920D     		lsrs	r2, r2, #22
 1349 00b0 9205     		lsls	r2, r2, #22
 1350 00b2 9A63     		str	r2, [r3, #56]
 1351 00b4 9A6B     		ldr	r2, [r3, #56]
 1352 00b6 920D     		lsrs	r2, r2, #22
 1353 00b8 9205     		lsls	r2, r2, #22
 1354 00ba 9A63     		str	r2, [r3, #56]
 1355 00bc FFF7FEFF 		bl	HAL_ADC_MspDeInit
 1356 00c0 EC62     		str	r4, [r5, #44]
 1357 00c2 AC62     		str	r4, [r5, #40]
 1358              	.L232:
ARM GAS  /tmp/ccDtm2ZA.s 			page 24


 1359 00c4 0023     		movs	r3, #0
 1360 00c6 85F82430 		strb	r3, [r5, #36]
 1361 00ca 2046     		mov	r0, r4
 1362 00cc 38BD     		pop	{r3, r4, r5, pc}
 1363              	.L233:
 1364 00ce 0120     		movs	r0, #1
 1365 00d0 38BD     		pop	{r3, r4, r5, pc}
 1366              	.L235:
 1367 00d2 00BF     		.align	2
 1368              	.L234:
 1369 00d4 00003FFF 		.word	-12648448
 1370 00d8 F00601FF 		.word	-16709904
 1372              		.section	.text.HAL_ADC_Stop,"ax",%progbits
 1373              		.align	1
 1374              		.global	HAL_ADC_Stop
 1375              		.thumb
 1376              		.thumb_func
 1378              	HAL_ADC_Stop:
 1379              		@ args = 0, pretend = 0, frame = 0
 1380              		@ frame_needed = 0, uses_anonymous_args = 0
 1381 0000 90F82430 		ldrb	r3, [r0, #36]	@ zero_extendqisi2
 1382 0004 10B5     		push	{r4, lr}
 1383 0006 012B     		cmp	r3, #1
 1384 0008 0446     		mov	r4, r0
 1385 000a 11D0     		beq	.L239
 1386 000c 0123     		movs	r3, #1
 1387 000e 80F82430 		strb	r3, [r0, #36]
 1388 0012 FFF7FEFF 		bl	ADC_ConversionStop_Disable
 1389 0016 38B9     		cbnz	r0, .L238
 1390 0018 A36A     		ldr	r3, [r4, #40]
 1391 001a 23F48853 		bic	r3, r3, #4352
 1392 001e 23F00103 		bic	r3, r3, #1
 1393 0022 43F00103 		orr	r3, r3, #1
 1394 0026 A362     		str	r3, [r4, #40]
 1395              	.L238:
 1396 0028 0023     		movs	r3, #0
 1397 002a 84F82430 		strb	r3, [r4, #36]
 1398 002e 10BD     		pop	{r4, pc}
 1399              	.L239:
 1400 0030 0220     		movs	r0, #2
 1401 0032 10BD     		pop	{r4, pc}
 1403              		.section	.text.HAL_ADC_Stop_IT,"ax",%progbits
 1404              		.align	1
 1405              		.global	HAL_ADC_Stop_IT
 1406              		.thumb
 1407              		.thumb_func
 1409              	HAL_ADC_Stop_IT:
 1410              		@ args = 0, pretend = 0, frame = 0
 1411              		@ frame_needed = 0, uses_anonymous_args = 0
 1412 0000 90F82430 		ldrb	r3, [r0, #36]	@ zero_extendqisi2
 1413 0004 10B5     		push	{r4, lr}
 1414 0006 012B     		cmp	r3, #1
 1415 0008 0446     		mov	r4, r0
 1416 000a 16D0     		beq	.L243
 1417 000c 0123     		movs	r3, #1
 1418 000e 80F82430 		strb	r3, [r0, #36]
 1419 0012 FFF7FEFF 		bl	ADC_ConversionStop_Disable
ARM GAS  /tmp/ccDtm2ZA.s 			page 25


 1420 0016 60B9     		cbnz	r0, .L242
 1421 0018 2268     		ldr	r2, [r4]
 1422 001a 5368     		ldr	r3, [r2, #4]
 1423 001c 23F02003 		bic	r3, r3, #32
 1424 0020 5360     		str	r3, [r2, #4]
 1425 0022 A36A     		ldr	r3, [r4, #40]
 1426 0024 23F48853 		bic	r3, r3, #4352
 1427 0028 23F00103 		bic	r3, r3, #1
 1428 002c 43F00103 		orr	r3, r3, #1
 1429 0030 A362     		str	r3, [r4, #40]
 1430              	.L242:
 1431 0032 0023     		movs	r3, #0
 1432 0034 84F82430 		strb	r3, [r4, #36]
 1433 0038 10BD     		pop	{r4, pc}
 1434              	.L243:
 1435 003a 0220     		movs	r0, #2
 1436 003c 10BD     		pop	{r4, pc}
 1438              		.section	.text.HAL_ADC_Stop_DMA,"ax",%progbits
 1439              		.align	1
 1440              		.global	HAL_ADC_Stop_DMA
 1441              		.thumb
 1442              		.thumb_func
 1444              	HAL_ADC_Stop_DMA:
 1445              		@ args = 0, pretend = 0, frame = 0
 1446              		@ frame_needed = 0, uses_anonymous_args = 0
 1447 0000 90F82430 		ldrb	r3, [r0, #36]	@ zero_extendqisi2
 1448 0004 10B5     		push	{r4, lr}
 1449 0006 012B     		cmp	r3, #1
 1450 0008 0446     		mov	r4, r0
 1451 000a 1DD0     		beq	.L248
 1452 000c 0123     		movs	r3, #1
 1453 000e 80F82430 		strb	r3, [r0, #36]
 1454 0012 FFF7FEFF 		bl	ADC_ConversionStop_Disable
 1455 0016 98B9     		cbnz	r0, .L246
 1456 0018 2268     		ldr	r2, [r4]
 1457 001a 206A     		ldr	r0, [r4, #32]
 1458 001c 9368     		ldr	r3, [r2, #8]
 1459 001e 23F48073 		bic	r3, r3, #256
 1460 0022 9360     		str	r3, [r2, #8]
 1461 0024 FFF7FEFF 		bl	HAL_DMA_Abort
 1462 0028 A36A     		ldr	r3, [r4, #40]
 1463 002a 30B9     		cbnz	r0, .L247
 1464 002c 23F48853 		bic	r3, r3, #4352
 1465 0030 23F00103 		bic	r3, r3, #1
 1466 0034 43F00103 		orr	r3, r3, #1
 1467 0038 01E0     		b	.L249
 1468              	.L247:
 1469 003a 43F04003 		orr	r3, r3, #64
 1470              	.L249:
 1471 003e A362     		str	r3, [r4, #40]
 1472              	.L246:
 1473 0040 0023     		movs	r3, #0
 1474 0042 84F82430 		strb	r3, [r4, #36]
 1475 0046 10BD     		pop	{r4, pc}
 1476              	.L248:
 1477 0048 0220     		movs	r0, #2
 1478 004a 10BD     		pop	{r4, pc}
ARM GAS  /tmp/ccDtm2ZA.s 			page 26


 1480              		.ident	"GCC: (15:4.9.3+svn231177-1) 4.9.3 20150529 (prerelease)"
ARM GAS  /tmp/ccDtm2ZA.s 			page 27

