ARM GAS  /tmp/ccJH74E6.s 			page 1


   1              		.syntax unified
   2              		.cpu cortex-m3
   3              		.fpu softvfp
   4              		.eabi_attribute 20, 1
   5              		.eabi_attribute 21, 1
   6              		.eabi_attribute 23, 3
   7              		.eabi_attribute 24, 1
   8              		.eabi_attribute 25, 1
   9              		.eabi_attribute 26, 1
  10              		.eabi_attribute 30, 4
  11              		.eabi_attribute 34, 1
  12              		.eabi_attribute 18, 4
  13              		.thumb
  14              		.file	"stm32f1xx_hal_timebase_tim_template.c"
  15              		.section	.text.HAL_InitTick,"ax",%progbits
  16              		.align	1
  17              		.global	HAL_InitTick
  18              		.thumb
  19              		.thumb_func
  21              	HAL_InitTick:
  22              		@ args = 0, pretend = 0, frame = 32
  23              		@ frame_needed = 0, uses_anonymous_args = 0
  24 0000 10B5     		push	{r4, lr}
  25 0002 0146     		mov	r1, r0
  26 0004 88B0     		sub	sp, sp, #32
  27 0006 0022     		movs	r2, #0
  28 0008 1C20     		movs	r0, #28
  29 000a FFF7FEFF 		bl	HAL_NVIC_SetPriority
  30 000e 1C20     		movs	r0, #28
  31 0010 FFF7FEFF 		bl	HAL_NVIC_EnableIRQ
  32 0014 184B     		ldr	r3, .L7
  33 0016 03A8     		add	r0, sp, #12
  34 0018 DA69     		ldr	r2, [r3, #28]
  35 001a 01A9     		add	r1, sp, #4
  36 001c 42F00102 		orr	r2, r2, #1
  37 0020 DA61     		str	r2, [r3, #28]
  38 0022 DB69     		ldr	r3, [r3, #28]
  39 0024 03F00103 		and	r3, r3, #1
  40 0028 0293     		str	r3, [sp, #8]
  41 002a 029B     		ldr	r3, [sp, #8]
  42 002c FFF7FEFF 		bl	HAL_RCC_GetClockConfig
  43 0030 069B     		ldr	r3, [sp, #24]
  44 0032 13B9     		cbnz	r3, .L2
  45 0034 FFF7FEFF 		bl	HAL_RCC_GetPCLK1Freq
  46 0038 02E0     		b	.L3
  47              	.L2:
  48 003a FFF7FEFF 		bl	HAL_RCC_GetPCLK1Freq
  49 003e 4000     		lsls	r0, r0, #1
  50              	.L3:
  51 0040 0E4C     		ldr	r4, .L7+4
  52 0042 4FF08043 		mov	r3, #1073741824
  53 0046 2360     		str	r3, [r4]
  54 0048 40F2E733 		movw	r3, #999
  55 004c E360     		str	r3, [r4, #12]
  56 004e 0C4B     		ldr	r3, .L7+8
  57 0050 B0FBF3F0 		udiv	r0, r0, r3
  58 0054 0138     		subs	r0, r0, #1
ARM GAS  /tmp/ccJH74E6.s 			page 2


  59 0056 0023     		movs	r3, #0
  60 0058 6060     		str	r0, [r4, #4]
  61 005a 2046     		mov	r0, r4
  62 005c 2361     		str	r3, [r4, #16]
  63 005e A360     		str	r3, [r4, #8]
  64 0060 A361     		str	r3, [r4, #24]
  65 0062 FFF7FEFF 		bl	HAL_TIM_Base_Init
  66 0066 18B9     		cbnz	r0, .L5
  67 0068 2046     		mov	r0, r4
  68 006a FFF7FEFF 		bl	HAL_TIM_Base_Start_IT
  69 006e 00E0     		b	.L4
  70              	.L5:
  71 0070 0120     		movs	r0, #1
  72              	.L4:
  73 0072 08B0     		add	sp, sp, #32
  74              		@ sp needed
  75 0074 10BD     		pop	{r4, pc}
  76              	.L8:
  77 0076 00BF     		.align	2
  78              	.L7:
  79 0078 00100240 		.word	1073876992
  80 007c 00000000 		.word	TimHandle
  81 0080 40420F00 		.word	1000000
  83              		.section	.text.HAL_SuspendTick,"ax",%progbits
  84              		.align	1
  85              		.global	HAL_SuspendTick
  86              		.thumb
  87              		.thumb_func
  89              	HAL_SuspendTick:
  90              		@ args = 0, pretend = 0, frame = 0
  91              		@ frame_needed = 0, uses_anonymous_args = 0
  92              		@ link register save eliminated.
  93 0000 034B     		ldr	r3, .L10
  94 0002 1A68     		ldr	r2, [r3]
  95 0004 D368     		ldr	r3, [r2, #12]
  96 0006 23F00103 		bic	r3, r3, #1
  97 000a D360     		str	r3, [r2, #12]
  98 000c 7047     		bx	lr
  99              	.L11:
 100 000e 00BF     		.align	2
 101              	.L10:
 102 0010 00000000 		.word	TimHandle
 104              		.section	.text.HAL_ResumeTick,"ax",%progbits
 105              		.align	1
 106              		.global	HAL_ResumeTick
 107              		.thumb
 108              		.thumb_func
 110              	HAL_ResumeTick:
 111              		@ args = 0, pretend = 0, frame = 0
 112              		@ frame_needed = 0, uses_anonymous_args = 0
 113              		@ link register save eliminated.
 114 0000 034B     		ldr	r3, .L13
 115 0002 1A68     		ldr	r2, [r3]
 116 0004 D368     		ldr	r3, [r2, #12]
 117 0006 43F00103 		orr	r3, r3, #1
 118 000a D360     		str	r3, [r2, #12]
 119 000c 7047     		bx	lr
ARM GAS  /tmp/ccJH74E6.s 			page 3


 120              	.L14:
 121 000e 00BF     		.align	2
 122              	.L13:
 123 0010 00000000 		.word	TimHandle
 125              		.section	.text.HAL_TIM_PeriodElapsedCallback,"ax",%progbits
 126              		.align	1
 127              		.global	HAL_TIM_PeriodElapsedCallback
 128              		.thumb
 129              		.thumb_func
 131              	HAL_TIM_PeriodElapsedCallback:
 132              		@ args = 0, pretend = 0, frame = 0
 133              		@ frame_needed = 0, uses_anonymous_args = 0
 134              		@ link register save eliminated.
 135 0000 FFF7FEBF 		b	HAL_IncTick
 137              		.section	.text.TIM2_IRQHandler,"ax",%progbits
 138              		.align	1
 139              		.global	TIM2_IRQHandler
 140              		.thumb
 141              		.thumb_func
 143              	TIM2_IRQHandler:
 144              		@ args = 0, pretend = 0, frame = 0
 145              		@ frame_needed = 0, uses_anonymous_args = 0
 146              		@ link register save eliminated.
 147 0000 0148     		ldr	r0, .L17
 148 0002 FFF7FEBF 		b	HAL_TIM_IRQHandler
 149              	.L18:
 150 0006 00BF     		.align	2
 151              	.L17:
 152 0008 00000000 		.word	TimHandle
 154              		.comm	TimHandle,64,4
 155              		.ident	"GCC: (15:4.9.3+svn231177-1) 4.9.3 20150529 (prerelease)"
ARM GAS  /tmp/ccJH74E6.s 			page 4


DEFINED SYMBOLS
                            *ABS*:0000000000000000 stm32f1xx_hal_timebase_tim_template.c
     /tmp/ccJH74E6.s:16     .text.HAL_InitTick:0000000000000000 $t
     /tmp/ccJH74E6.s:21     .text.HAL_InitTick:0000000000000000 HAL_InitTick
     /tmp/ccJH74E6.s:79     .text.HAL_InitTick:0000000000000078 $d
                            *COM*:0000000000000040 TimHandle
     /tmp/ccJH74E6.s:84     .text.HAL_SuspendTick:0000000000000000 $t
     /tmp/ccJH74E6.s:89     .text.HAL_SuspendTick:0000000000000000 HAL_SuspendTick
     /tmp/ccJH74E6.s:102    .text.HAL_SuspendTick:0000000000000010 $d
     /tmp/ccJH74E6.s:105    .text.HAL_ResumeTick:0000000000000000 $t
     /tmp/ccJH74E6.s:110    .text.HAL_ResumeTick:0000000000000000 HAL_ResumeTick
     /tmp/ccJH74E6.s:123    .text.HAL_ResumeTick:0000000000000010 $d
     /tmp/ccJH74E6.s:126    .text.HAL_TIM_PeriodElapsedCallback:0000000000000000 $t
     /tmp/ccJH74E6.s:131    .text.HAL_TIM_PeriodElapsedCallback:0000000000000000 HAL_TIM_PeriodElapsedCallback
     /tmp/ccJH74E6.s:138    .text.TIM2_IRQHandler:0000000000000000 $t
     /tmp/ccJH74E6.s:143    .text.TIM2_IRQHandler:0000000000000000 TIM2_IRQHandler
     /tmp/ccJH74E6.s:152    .text.TIM2_IRQHandler:0000000000000008 $d

UNDEFINED SYMBOLS
HAL_NVIC_SetPriority
HAL_NVIC_EnableIRQ
HAL_RCC_GetClockConfig
HAL_RCC_GetPCLK1Freq
HAL_TIM_Base_Init
HAL_TIM_Base_Start_IT
HAL_IncTick
HAL_TIM_IRQHandler
