ARM GAS  /tmp/ccoemQSA.s 			page 1


   1              		.syntax unified
   2              		.cpu cortex-m3
   3              		.fpu softvfp
   4              		.eabi_attribute 20, 1
   5              		.eabi_attribute 21, 1
   6              		.eabi_attribute 23, 3
   7              		.eabi_attribute 24, 1
   8              		.eabi_attribute 25, 1
   9              		.eabi_attribute 26, 1
  10              		.eabi_attribute 30, 4
  11              		.eabi_attribute 34, 1
  12              		.eabi_attribute 18, 4
  13              		.thumb
  14              		.file	"stm32f1xx_ll_usb.c"
  15              		.section	.text.USB_CoreInit,"ax",%progbits
  16              		.align	1
  17              		.global	USB_CoreInit
  18              		.thumb
  19              		.thumb_func
  21              	USB_CoreInit:
  22              		@ args = 36, pretend = 16, frame = 0
  23              		@ frame_needed = 0, uses_anonymous_args = 0
  24              		@ link register save eliminated.
  25 0000 84B0     		sub	sp, sp, #16
  26 0002 01A8     		add	r0, sp, #4
  27 0004 80E80E00 		stmia	r0, {r1, r2, r3}
  28 0008 04B0     		add	sp, sp, #16
  29 000a 0020     		movs	r0, #0
  30 000c 7047     		bx	lr
  32              		.section	.text.USB_EnableGlobalInt,"ax",%progbits
  33              		.align	1
  34              		.global	USB_EnableGlobalInt
  35              		.thumb
  36              		.thumb_func
  38              	USB_EnableGlobalInt:
  39              		@ args = 0, pretend = 0, frame = 0
  40              		@ frame_needed = 0, uses_anonymous_args = 0
  41              		@ link register save eliminated.
  42 0000 B0F84030 		ldrh	r3, [r0, #64]
  43 0004 9BB2     		uxth	r3, r3
  44 0006 43F43F43 		orr	r3, r3, #48896
  45 000a A0F84030 		strh	r3, [r0, #64]	@ movhi
  46 000e 0020     		movs	r0, #0
  47 0010 7047     		bx	lr
  49              		.section	.text.USB_DisableGlobalInt,"ax",%progbits
  50              		.align	1
  51              		.global	USB_DisableGlobalInt
  52              		.thumb
  53              		.thumb_func
  55              	USB_DisableGlobalInt:
  56              		@ args = 0, pretend = 0, frame = 0
  57              		@ frame_needed = 0, uses_anonymous_args = 0
  58              		@ link register save eliminated.
  59 0000 B0F84030 		ldrh	r3, [r0, #64]
  60 0004 23F47C53 		bic	r3, r3, #16128
  61 0008 5B04     		lsls	r3, r3, #17
  62 000a 5B0C     		lsrs	r3, r3, #17
ARM GAS  /tmp/ccoemQSA.s 			page 2


  63 000c A0F84030 		strh	r3, [r0, #64]	@ movhi
  64 0010 0020     		movs	r0, #0
  65 0012 7047     		bx	lr
  67              		.section	.text.USB_SetCurrentMode,"ax",%progbits
  68              		.align	1
  69              		.global	USB_SetCurrentMode
  70              		.thumb
  71              		.thumb_func
  73              	USB_SetCurrentMode:
  74              		@ args = 0, pretend = 0, frame = 0
  75              		@ frame_needed = 0, uses_anonymous_args = 0
  76              		@ link register save eliminated.
  77 0000 0020     		movs	r0, #0
  78 0002 7047     		bx	lr
  80              		.section	.text.USB_DevInit,"ax",%progbits
  81              		.align	1
  82              		.global	USB_DevInit
  83              		.thumb
  84              		.thumb_func
  86              	USB_DevInit:
  87              		@ args = 36, pretend = 16, frame = 0
  88              		@ frame_needed = 0, uses_anonymous_args = 0
  89 0000 84B0     		sub	sp, sp, #16
  90 0002 10B5     		push	{r4, lr}
  91 0004 03AC     		add	r4, sp, #12
  92 0006 84E80E00 		stmia	r4, {r1, r2, r3}
  93 000a BDE81040 		pop	{r4, lr}
  94 000e 0022     		movs	r2, #0
  95 0010 0123     		movs	r3, #1
  96 0012 A0F84030 		strh	r3, [r0, #64]	@ movhi
  97 0016 A0F84020 		strh	r2, [r0, #64]	@ movhi
  98 001a A0F84420 		strh	r2, [r0, #68]	@ movhi
  99 001e A0F85020 		strh	r2, [r0, #80]	@ movhi
 100 0022 B0F84030 		ldrh	r3, [r0, #64]
 101 0026 04B0     		add	sp, sp, #16
 102 0028 9BB2     		uxth	r3, r3
 103 002a 43F43F43 		orr	r3, r3, #48896
 104 002e A0F84030 		strh	r3, [r0, #64]	@ movhi
 105 0032 1046     		mov	r0, r2
 106 0034 7047     		bx	lr
 108              		.section	.text.USB_SetDevSpeed,"ax",%progbits
 109              		.align	1
 110              		.global	USB_SetDevSpeed
 111              		.thumb
 112              		.thumb_func
 114              	USB_SetDevSpeed:
 115              		@ args = 0, pretend = 0, frame = 0
 116              		@ frame_needed = 0, uses_anonymous_args = 0
 117              		@ link register save eliminated.
 118 0000 0020     		movs	r0, #0
 119 0002 7047     		bx	lr
 121              		.section	.text.USB_FlushTxFifo,"ax",%progbits
 122              		.align	1
 123              		.global	USB_FlushTxFifo
 124              		.thumb
 125              		.thumb_func
 127              	USB_FlushTxFifo:
ARM GAS  /tmp/ccoemQSA.s 			page 3


 128              		@ args = 0, pretend = 0, frame = 0
 129              		@ frame_needed = 0, uses_anonymous_args = 0
 130              		@ link register save eliminated.
 131 0000 0020     		movs	r0, #0
 132 0002 7047     		bx	lr
 134              		.section	.text.USB_FlushRxFifo,"ax",%progbits
 135              		.align	1
 136              		.global	USB_FlushRxFifo
 137              		.thumb
 138              		.thumb_func
 140              	USB_FlushRxFifo:
 141              		@ args = 0, pretend = 0, frame = 0
 142              		@ frame_needed = 0, uses_anonymous_args = 0
 143              		@ link register save eliminated.
 144 0000 0020     		movs	r0, #0
 145 0002 7047     		bx	lr
 147              		.section	.text.USB_ActivateEndpoint,"ax",%progbits
 148              		.align	1
 149              		.global	USB_ActivateEndpoint
 150              		.thumb
 151              		.thumb_func
 153              	USB_ActivateEndpoint:
 154              		@ args = 0, pretend = 0, frame = 0
 155              		@ frame_needed = 0, uses_anonymous_args = 0
 156 0000 70B5     		push	{r4, r5, r6, lr}
 157 0002 0C78     		ldrb	r4, [r1]	@ zero_extendqisi2
 158 0004 0346     		mov	r3, r0
 159 0006 30F82420 		ldrh	r2, [r0, r4, lsl #2]
 160 000a C878     		ldrb	r0, [r1, #3]	@ zero_extendqisi2
 161 000c 22F4EC42 		bic	r2, r2, #30208
 162 0010 22F07002 		bic	r2, r2, #112
 163 0014 1204     		lsls	r2, r2, #16
 164 0016 120C     		lsrs	r2, r2, #16
 165 0018 0328     		cmp	r0, #3
 166 001a 0DD8     		bhi	.L34
 167 001c DFE800F0 		tbb	[pc, r0]
 168              	.L12:
 169 0020 02       		.byte	(.L11-.L12)/2
 170 0021 09       		.byte	(.L13-.L12)/2
 171 0022 07       		.byte	(.L56-.L12)/2
 172 0023 05       		.byte	(.L15-.L12)/2
 173              		.p2align 1
 174              	.L11:
 175 0024 42F40072 		orr	r2, r2, #512
 176 0028 01E0     		b	.L56
 177              	.L15:
 178 002a 42F4C062 		orr	r2, r2, #1536
 179              	.L56:
 180 002e 0020     		movs	r0, #0
 181 0030 03E0     		b	.L10
 182              	.L13:
 183 0032 42F48062 		orr	r2, r2, #1024
 184 0036 FAE7     		b	.L56
 185              	.L34:
 186 0038 0120     		movs	r0, #1
 187              	.L10:
 188 003a 42F40042 		orr	r2, r2, #32768
ARM GAS  /tmp/ccoemQSA.s 			page 4


 189 003e 42F08002 		orr	r2, r2, #128
 190 0042 23F82420 		strh	r2, [r3, r4, lsl #2]	@ movhi
 191 0046 0C78     		ldrb	r4, [r1]	@ zero_extendqisi2
 192 0048 33F82420 		ldrh	r2, [r3, r4, lsl #2]
 193 004c 44F40045 		orr	r5, r4, #32768
 194 0050 92B2     		uxth	r2, r2
 195 0052 22F4E042 		bic	r2, r2, #28672
 196 0056 45F08005 		orr	r5, r5, #128
 197 005a 22F07002 		bic	r2, r2, #112
 198 005e 2A43     		orrs	r2, r2, r5
 199 0060 23F82420 		strh	r2, [r3, r4, lsl #2]	@ movhi
 200 0064 0A7B     		ldrb	r2, [r1, #12]	@ zero_extendqisi2
 201 0066 0E78     		ldrb	r6, [r1]	@ zero_extendqisi2
 202 0068 002A     		cmp	r2, #0
 203 006a 7DD1     		bne	.L16
 204 006c 4C78     		ldrb	r4, [r1, #1]	@ zero_extendqisi2
 205 006e CA88     		ldrh	r2, [r1, #6]
 206 0070 5CB3     		cbz	r4, .L17
 207 0072 B3F85050 		ldrh	r5, [r3, #80]
 208 0076 22F00102 		bic	r2, r2, #1
 209 007a ADB2     		uxth	r5, r5
 210 007c 05F58065 		add	r5, r5, #1024
 211 0080 05EB0614 		add	r4, r5, r6, lsl #4
 212 0084 92B2     		uxth	r2, r2
 213 0086 1A53     		strh	r2, [r3, r4]	@ movhi
 214 0088 0C78     		ldrb	r4, [r1]	@ zero_extendqisi2
 215 008a 33F82420 		ldrh	r2, [r3, r4, lsl #2]
 216 008e 5606     		lsls	r6, r2, #25
 217 0090 0BD5     		bpl	.L18
 218 0092 33F82420 		ldrh	r2, [r3, r4, lsl #2]
 219 0096 22F0F002 		bic	r2, r2, #240
 220 009a 1205     		lsls	r2, r2, #20
 221 009c 120D     		lsrs	r2, r2, #20
 222 009e 42F40042 		orr	r2, r2, #32768
 223 00a2 42F0C002 		orr	r2, r2, #192
 224 00a6 23F82420 		strh	r2, [r3, r4, lsl #2]	@ movhi
 225              	.L18:
 226 00aa CA78     		ldrb	r2, [r1, #3]	@ zero_extendqisi2
 227 00ac 0978     		ldrb	r1, [r1]	@ zero_extendqisi2
 228 00ae 012A     		cmp	r2, #1
 229 00b0 33F82120 		ldrh	r2, [r3, r1, lsl #2]
 230 00b4 00F0C480 		beq	.L61
 231 00b8 22F4E042 		bic	r2, r2, #28672
 232 00bc 22F04002 		bic	r2, r2, #64
 233 00c0 1204     		lsls	r2, r2, #16
 234 00c2 120C     		lsrs	r2, r2, #16
 235 00c4 82F02002 		eor	r2, r2, #32
 236 00c8 0DE1     		b	.L60
 237              	.L17:
 238 00ca B3F85040 		ldrh	r4, [r3, #80]
 239 00ce 22F00102 		bic	r2, r2, #1
 240 00d2 A4B2     		uxth	r4, r4
 241 00d4 04F58164 		add	r4, r4, #1032
 242 00d8 04EB0614 		add	r4, r4, r6, lsl #4
 243 00dc 92B2     		uxth	r2, r2
 244 00de E252     		strh	r2, [r4, r3]	@ movhi
 245 00e0 B3F85020 		ldrh	r2, [r3, #80]
ARM GAS  /tmp/ccoemQSA.s 			page 5


 246 00e4 0C78     		ldrb	r4, [r1]	@ zero_extendqisi2
 247 00e6 92B2     		uxth	r2, r2
 248 00e8 0D69     		ldr	r5, [r1, #16]
 249 00ea 02F20C42 		addw	r2, r2, #1036
 250 00ee 02EB0412 		add	r2, r2, r4, lsl #4
 251 00f2 4DB9     		cbnz	r5, .L21
 252 00f4 D45A     		ldrh	r4, [r2, r3]
 253 00f6 24F4F844 		bic	r4, r4, #31744
 254 00fa 2404     		lsls	r4, r4, #16
 255 00fc 240C     		lsrs	r4, r4, #16
 256 00fe D452     		strh	r4, [r2, r3]	@ movhi
 257 0100 D45A     		ldrh	r4, [r2, r3]
 258 0102 6FEA4444 		mvn	r4, r4, lsl #17
 259 0106 0EE0     		b	.L57
 260              	.L21:
 261 0108 3E2D     		cmp	r5, #62
 262 010a 05D8     		bhi	.L23
 263 010c 6C08     		lsrs	r4, r5, #1
 264 010e ED07     		lsls	r5, r5, #31
 265 0110 48BF     		it	mi
 266 0112 0134     		addmi	r4, r4, #1
 267 0114 A402     		lsls	r4, r4, #10
 268 0116 08E0     		b	.L58
 269              	.L23:
 270 0118 6C09     		lsrs	r4, r5, #5
 271 011a EE06     		lsls	r6, r5, #27
 272 011c 08BF     		it	eq
 273 011e 04F1FF34 		addeq	r4, r4, #-1
 274 0122 6FEAC464 		mvn	r4, r4, lsl #27
 275              	.L57:
 276 0126 6FEA5444 		mvn	r4, r4, lsr #17
 277              	.L58:
 278 012a A4B2     		uxth	r4, r4
 279 012c D452     		strh	r4, [r2, r3]	@ movhi
 280 012e 0C78     		ldrb	r4, [r1]	@ zero_extendqisi2
 281 0130 33F82420 		ldrh	r2, [r3, r4, lsl #2]
 282 0134 5504     		lsls	r5, r2, #17
 283 0136 0BD5     		bpl	.L26
 284 0138 33F82420 		ldrh	r2, [r3, r4, lsl #2]
 285 013c 22F0F002 		bic	r2, r2, #240
 286 0140 1205     		lsls	r2, r2, #20
 287 0142 120D     		lsrs	r2, r2, #20
 288 0144 42F44042 		orr	r2, r2, #49152
 289 0148 42F08002 		orr	r2, r2, #128
 290 014c 23F82420 		strh	r2, [r3, r4, lsl #2]	@ movhi
 291              	.L26:
 292 0150 0978     		ldrb	r1, [r1]	@ zero_extendqisi2
 293 0152 33F82120 		ldrh	r2, [r3, r1, lsl #2]
 294 0156 22F48042 		bic	r2, r2, #16384
 295 015a 22F07002 		bic	r2, r2, #112
 296 015e 1204     		lsls	r2, r2, #16
 297 0160 120C     		lsrs	r2, r2, #16
 298 0162 82F44052 		eor	r2, r2, #12288
 299 0166 BEE0     		b	.L60
 300              	.L16:
 301 0168 33F82620 		ldrh	r2, [r3, r6, lsl #2]
 302 016c 22F4F872 		bic	r2, r2, #496
ARM GAS  /tmp/ccoemQSA.s 			page 6


 303 0170 1205     		lsls	r2, r2, #20
 304 0172 120D     		lsrs	r2, r2, #20
 305 0174 42F40142 		orr	r2, r2, #33024
 306 0178 42F08002 		orr	r2, r2, #128
 307 017c 23F82620 		strh	r2, [r3, r6, lsl #2]	@ movhi
 308 0180 B3F85020 		ldrh	r2, [r3, #80]
 309 0184 0C78     		ldrb	r4, [r1]	@ zero_extendqisi2
 310 0186 92B2     		uxth	r2, r2
 311 0188 02F58062 		add	r2, r2, #1024
 312 018c 02EB0412 		add	r2, r2, r4, lsl #4
 313 0190 0C89     		ldrh	r4, [r1, #8]
 314 0192 24F00104 		bic	r4, r4, #1
 315 0196 A4B2     		uxth	r4, r4
 316 0198 D452     		strh	r4, [r2, r3]	@ movhi
 317 019a B3F85020 		ldrh	r2, [r3, #80]
 318 019e 0C78     		ldrb	r4, [r1]	@ zero_extendqisi2
 319 01a0 92B2     		uxth	r2, r2
 320 01a2 02F58162 		add	r2, r2, #1032
 321 01a6 02EB0412 		add	r2, r2, r4, lsl #4
 322 01aa 4C89     		ldrh	r4, [r1, #10]
 323 01ac 24F00104 		bic	r4, r4, #1
 324 01b0 A4B2     		uxth	r4, r4
 325 01b2 D452     		strh	r4, [r2, r3]	@ movhi
 326 01b4 4A78     		ldrb	r2, [r1, #1]	@ zero_extendqisi2
 327 01b6 0C78     		ldrb	r4, [r1]	@ zero_extendqisi2
 328 01b8 002A     		cmp	r2, #0
 329 01ba 46D1     		bne	.L27
 330 01bc 33F82420 		ldrh	r2, [r3, r4, lsl #2]
 331 01c0 5204     		lsls	r2, r2, #17
 332 01c2 0BD5     		bpl	.L28
 333 01c4 33F82420 		ldrh	r2, [r3, r4, lsl #2]
 334 01c8 22F0F002 		bic	r2, r2, #240
 335 01cc 1205     		lsls	r2, r2, #20
 336 01ce 120D     		lsrs	r2, r2, #20
 337 01d0 42F44042 		orr	r2, r2, #49152
 338 01d4 42F08002 		orr	r2, r2, #128
 339 01d8 23F82420 		strh	r2, [r3, r4, lsl #2]	@ movhi
 340              	.L28:
 341 01dc 0C78     		ldrb	r4, [r1]	@ zero_extendqisi2
 342 01de 33F82420 		ldrh	r2, [r3, r4, lsl #2]
 343 01e2 5606     		lsls	r6, r2, #25
 344 01e4 0BD5     		bpl	.L29
 345 01e6 33F82420 		ldrh	r2, [r3, r4, lsl #2]
 346 01ea 22F0F002 		bic	r2, r2, #240
 347 01ee 1205     		lsls	r2, r2, #20
 348 01f0 120D     		lsrs	r2, r2, #20
 349 01f2 42F40042 		orr	r2, r2, #32768
 350 01f6 42F0C002 		orr	r2, r2, #192
 351 01fa 23F82420 		strh	r2, [r3, r4, lsl #2]	@ movhi
 352              	.L29:
 353 01fe 0C78     		ldrb	r4, [r1]	@ zero_extendqisi2
 354 0200 33F82420 		ldrh	r2, [r3, r4, lsl #2]
 355 0204 22F0F002 		bic	r2, r2, #240
 356 0208 1205     		lsls	r2, r2, #20
 357 020a 120D     		lsrs	r2, r2, #20
 358 020c 42F40042 		orr	r2, r2, #32768
 359 0210 42F0C002 		orr	r2, r2, #192
ARM GAS  /tmp/ccoemQSA.s 			page 7


 360 0214 23F82420 		strh	r2, [r3, r4, lsl #2]	@ movhi
 361 0218 0C78     		ldrb	r4, [r1]	@ zero_extendqisi2
 362 021a 33F82420 		ldrh	r2, [r3, r4, lsl #2]
 363 021e 22F48042 		bic	r2, r2, #16384
 364 0222 22F07002 		bic	r2, r2, #112
 365 0226 1204     		lsls	r2, r2, #16
 366 0228 120C     		lsrs	r2, r2, #16
 367 022a 82F44052 		eor	r2, r2, #12288
 368 022e 42F40042 		orr	r2, r2, #32768
 369 0232 42F08002 		orr	r2, r2, #128
 370 0236 23F82420 		strh	r2, [r3, r4, lsl #2]	@ movhi
 371 023a 0978     		ldrb	r1, [r1]	@ zero_extendqisi2
 372 023c 33F82120 		ldrh	r2, [r3, r1, lsl #2]
 373              	.L61:
 374 0240 22F0C002 		bic	r2, r2, #192
 375 0244 1205     		lsls	r2, r2, #20
 376 0246 120D     		lsrs	r2, r2, #20
 377 0248 4DE0     		b	.L60
 378              	.L27:
 379 024a 33F82420 		ldrh	r2, [r3, r4, lsl #2]
 380 024e 5504     		lsls	r5, r2, #17
 381 0250 0BD5     		bpl	.L30
 382 0252 33F82420 		ldrh	r2, [r3, r4, lsl #2]
 383 0256 22F0F002 		bic	r2, r2, #240
 384 025a 1205     		lsls	r2, r2, #20
 385 025c 120D     		lsrs	r2, r2, #20
 386 025e 42F44042 		orr	r2, r2, #49152
 387 0262 42F08002 		orr	r2, r2, #128
 388 0266 23F82420 		strh	r2, [r3, r4, lsl #2]	@ movhi
 389              	.L30:
 390 026a 0C78     		ldrb	r4, [r1]	@ zero_extendqisi2
 391 026c 33F82420 		ldrh	r2, [r3, r4, lsl #2]
 392 0270 5206     		lsls	r2, r2, #25
 393 0272 0BD5     		bpl	.L31
 394 0274 33F82420 		ldrh	r2, [r3, r4, lsl #2]
 395 0278 22F0F002 		bic	r2, r2, #240
 396 027c 1205     		lsls	r2, r2, #20
 397 027e 120D     		lsrs	r2, r2, #20
 398 0280 42F40042 		orr	r2, r2, #32768
 399 0284 42F0C002 		orr	r2, r2, #192
 400 0288 23F82420 		strh	r2, [r3, r4, lsl #2]	@ movhi
 401              	.L31:
 402 028c 0C78     		ldrb	r4, [r1]	@ zero_extendqisi2
 403 028e 33F82420 		ldrh	r2, [r3, r4, lsl #2]
 404 0292 22F0F002 		bic	r2, r2, #240
 405 0296 1205     		lsls	r2, r2, #20
 406 0298 120D     		lsrs	r2, r2, #20
 407 029a 42F44042 		orr	r2, r2, #49152
 408 029e 42F08002 		orr	r2, r2, #128
 409 02a2 23F82420 		strh	r2, [r3, r4, lsl #2]	@ movhi
 410 02a6 CA78     		ldrb	r2, [r1, #3]	@ zero_extendqisi2
 411 02a8 0C78     		ldrb	r4, [r1]	@ zero_extendqisi2
 412 02aa 012A     		cmp	r2, #1
 413 02ac 33F82420 		ldrh	r2, [r3, r4, lsl #2]
 414 02b0 1DBF     		ittte	ne
 415 02b2 22F4E042 		bicne	r2, r2, #28672
 416 02b6 22F04002 		bicne	r2, r2, #64
ARM GAS  /tmp/ccoemQSA.s 			page 8


 417 02ba 1204     		lslne	r2, r2, #16
 418 02bc 22F0C002 		biceq	r2, r2, #192
 419 02c0 15BF     		itete	ne
 420 02c2 120C     		lsrne	r2, r2, #16
 421 02c4 1205     		lsleq	r2, r2, #20
 422 02c6 82F02002 		eorne	r2, r2, #32
 423 02ca 120D     		lsreq	r2, r2, #20
 424 02cc 42F40042 		orr	r2, r2, #32768
 425 02d0 42F08002 		orr	r2, r2, #128
 426 02d4 23F82420 		strh	r2, [r3, r4, lsl #2]	@ movhi
 427 02d8 0978     		ldrb	r1, [r1]	@ zero_extendqisi2
 428 02da 33F82120 		ldrh	r2, [r3, r1, lsl #2]
 429 02de 22F0F002 		bic	r2, r2, #240
 430 02e2 9204     		lsls	r2, r2, #18
 431 02e4 920C     		lsrs	r2, r2, #18
 432              	.L60:
 433 02e6 42F40042 		orr	r2, r2, #32768
 434 02ea 42F08002 		orr	r2, r2, #128
 435 02ee 23F82120 		strh	r2, [r3, r1, lsl #2]	@ movhi
 436 02f2 70BD     		pop	{r4, r5, r6, pc}
 438              		.section	.text.USB_DeactivateEndpoint,"ax",%progbits
 439              		.align	1
 440              		.global	USB_DeactivateEndpoint
 441              		.thumb
 442              		.thumb_func
 444              	USB_DeactivateEndpoint:
 445              		@ args = 0, pretend = 0, frame = 0
 446              		@ frame_needed = 0, uses_anonymous_args = 0
 447 0000 10B5     		push	{r4, lr}
 448 0002 0C7B     		ldrb	r4, [r1, #12]	@ zero_extendqisi2
 449 0004 4A78     		ldrb	r2, [r1, #1]	@ zero_extendqisi2
 450 0006 0B78     		ldrb	r3, [r1]	@ zero_extendqisi2
 451 0008 1CBB     		cbnz	r4, .L64
 452 000a 82B1     		cbz	r2, .L65
 453 000c 30F82320 		ldrh	r2, [r0, r3, lsl #2]
 454 0010 5206     		lsls	r2, r2, #25
 455 0012 5BD5     		bpl	.L94
 456 0014 30F82320 		ldrh	r2, [r0, r3, lsl #2]
 457 0018 22F0F002 		bic	r2, r2, #240
 458 001c 1205     		lsls	r2, r2, #20
 459 001e 120D     		lsrs	r2, r2, #20
 460 0020 42F40042 		orr	r2, r2, #32768
 461 0024 42F0C002 		orr	r2, r2, #192
 462 0028 20F82320 		strh	r2, [r0, r3, lsl #2]	@ movhi
 463 002c 4EE0     		b	.L94
 464              	.L65:
 465 002e 30F82320 		ldrh	r2, [r0, r3, lsl #2]
 466 0032 5404     		lsls	r4, r2, #17
 467 0034 40F18D80 		bpl	.L93
 468 0038 30F82320 		ldrh	r2, [r0, r3, lsl #2]
 469 003c 22F0F002 		bic	r2, r2, #240
 470 0040 1205     		lsls	r2, r2, #20
 471 0042 120D     		lsrs	r2, r2, #20
 472 0044 42F44042 		orr	r2, r2, #49152
 473 0048 42F08002 		orr	r2, r2, #128
 474 004c 20F82320 		strh	r2, [r0, r3, lsl #2]	@ movhi
 475 0050 7FE0     		b	.L93
ARM GAS  /tmp/ccoemQSA.s 			page 9


 476              	.L64:
 477 0052 002A     		cmp	r2, #0
 478 0054 42D1     		bne	.L69
 479 0056 30F82320 		ldrh	r2, [r0, r3, lsl #2]
 480 005a 5204     		lsls	r2, r2, #17
 481 005c 0BD5     		bpl	.L70
 482 005e 30F82320 		ldrh	r2, [r0, r3, lsl #2]
 483 0062 22F0F002 		bic	r2, r2, #240
 484 0066 1205     		lsls	r2, r2, #20
 485 0068 120D     		lsrs	r2, r2, #20
 486 006a 42F44042 		orr	r2, r2, #49152
 487 006e 42F08002 		orr	r2, r2, #128
 488 0072 20F82320 		strh	r2, [r0, r3, lsl #2]	@ movhi
 489              	.L70:
 490 0076 0A78     		ldrb	r2, [r1]	@ zero_extendqisi2
 491 0078 30F82230 		ldrh	r3, [r0, r2, lsl #2]
 492 007c 5C06     		lsls	r4, r3, #25
 493 007e 0BD5     		bpl	.L71
 494 0080 30F82230 		ldrh	r3, [r0, r2, lsl #2]
 495 0084 23F0F003 		bic	r3, r3, #240
 496 0088 1B05     		lsls	r3, r3, #20
 497 008a 1B0D     		lsrs	r3, r3, #20
 498 008c 43F40043 		orr	r3, r3, #32768
 499 0090 43F0C003 		orr	r3, r3, #192
 500 0094 20F82230 		strh	r3, [r0, r2, lsl #2]	@ movhi
 501              	.L71:
 502 0098 0A78     		ldrb	r2, [r1]	@ zero_extendqisi2
 503 009a 30F82230 		ldrh	r3, [r0, r2, lsl #2]
 504 009e 23F0F003 		bic	r3, r3, #240
 505 00a2 1B05     		lsls	r3, r3, #20
 506 00a4 1B0D     		lsrs	r3, r3, #20
 507 00a6 43F40043 		orr	r3, r3, #32768
 508 00aa 43F0C003 		orr	r3, r3, #192
 509 00ae 20F82230 		strh	r3, [r0, r2, lsl #2]	@ movhi
 510 00b2 0A78     		ldrb	r2, [r1]	@ zero_extendqisi2
 511 00b4 30F82230 		ldrh	r3, [r0, r2, lsl #2]
 512 00b8 23F0F003 		bic	r3, r3, #240
 513 00bc 9B04     		lsls	r3, r3, #18
 514 00be 9B0C     		lsrs	r3, r3, #18
 515 00c0 43F40043 		orr	r3, r3, #32768
 516 00c4 43F08003 		orr	r3, r3, #128
 517 00c8 20F82230 		strh	r3, [r0, r2, lsl #2]	@ movhi
 518              	.L94:
 519 00cc 0A78     		ldrb	r2, [r1]	@ zero_extendqisi2
 520 00ce 30F82230 		ldrh	r3, [r0, r2, lsl #2]
 521 00d2 23F0C003 		bic	r3, r3, #192
 522 00d6 1B05     		lsls	r3, r3, #20
 523 00d8 1B0D     		lsrs	r3, r3, #20
 524 00da 41E0     		b	.L92
 525              	.L69:
 526 00dc 30F82320 		ldrh	r2, [r0, r3, lsl #2]
 527 00e0 5204     		lsls	r2, r2, #17
 528 00e2 0BD5     		bpl	.L72
 529 00e4 30F82320 		ldrh	r2, [r0, r3, lsl #2]
 530 00e8 22F0F002 		bic	r2, r2, #240
 531 00ec 1205     		lsls	r2, r2, #20
 532 00ee 120D     		lsrs	r2, r2, #20
ARM GAS  /tmp/ccoemQSA.s 			page 10


 533 00f0 42F44042 		orr	r2, r2, #49152
 534 00f4 42F08002 		orr	r2, r2, #128
 535 00f8 20F82320 		strh	r2, [r0, r3, lsl #2]	@ movhi
 536              	.L72:
 537 00fc 0A78     		ldrb	r2, [r1]	@ zero_extendqisi2
 538 00fe 30F82230 		ldrh	r3, [r0, r2, lsl #2]
 539 0102 5B06     		lsls	r3, r3, #25
 540 0104 0BD5     		bpl	.L73
 541 0106 30F82230 		ldrh	r3, [r0, r2, lsl #2]
 542 010a 23F0F003 		bic	r3, r3, #240
 543 010e 1B05     		lsls	r3, r3, #20
 544 0110 1B0D     		lsrs	r3, r3, #20
 545 0112 43F40043 		orr	r3, r3, #32768
 546 0116 43F0C003 		orr	r3, r3, #192
 547 011a 20F82230 		strh	r3, [r0, r2, lsl #2]	@ movhi
 548              	.L73:
 549 011e 0A78     		ldrb	r2, [r1]	@ zero_extendqisi2
 550 0120 30F82230 		ldrh	r3, [r0, r2, lsl #2]
 551 0124 23F0F003 		bic	r3, r3, #240
 552 0128 1B05     		lsls	r3, r3, #20
 553 012a 1B0D     		lsrs	r3, r3, #20
 554 012c 43F44043 		orr	r3, r3, #49152
 555 0130 43F08003 		orr	r3, r3, #128
 556 0134 20F82230 		strh	r3, [r0, r2, lsl #2]	@ movhi
 557 0138 0A78     		ldrb	r2, [r1]	@ zero_extendqisi2
 558 013a 30F82230 		ldrh	r3, [r0, r2, lsl #2]
 559 013e 23F0C003 		bic	r3, r3, #192
 560 0142 1B05     		lsls	r3, r3, #20
 561 0144 1B0D     		lsrs	r3, r3, #20
 562 0146 43F40043 		orr	r3, r3, #32768
 563 014a 43F08003 		orr	r3, r3, #128
 564 014e 20F82230 		strh	r3, [r0, r2, lsl #2]	@ movhi
 565              	.L93:
 566 0152 0A78     		ldrb	r2, [r1]	@ zero_extendqisi2
 567 0154 30F82230 		ldrh	r3, [r0, r2, lsl #2]
 568 0158 23F0F003 		bic	r3, r3, #240
 569 015c 9B04     		lsls	r3, r3, #18
 570 015e 9B0C     		lsrs	r3, r3, #18
 571              	.L92:
 572 0160 43F40043 		orr	r3, r3, #32768
 573 0164 43F08003 		orr	r3, r3, #128
 574 0168 20F82230 		strh	r3, [r0, r2, lsl #2]	@ movhi
 575 016c 0020     		movs	r0, #0
 576 016e 10BD     		pop	{r4, pc}
 578              		.section	.text.USB_WritePacket,"ax",%progbits
 579              		.align	1
 580              		.global	USB_WritePacket
 581              		.thumb
 582              		.thumb_func
 584              	USB_WritePacket:
 585              		@ args = 0, pretend = 0, frame = 0
 586              		@ frame_needed = 0, uses_anonymous_args = 0
 587              		@ link register save eliminated.
 588 0000 0020     		movs	r0, #0
 589 0002 7047     		bx	lr
 591              		.section	.text.USB_ReadPacket,"ax",%progbits
 592              		.align	1
ARM GAS  /tmp/ccoemQSA.s 			page 11


 593              		.global	USB_ReadPacket
 594              		.thumb
 595              		.thumb_func
 597              	USB_ReadPacket:
 598              		@ args = 0, pretend = 0, frame = 0
 599              		@ frame_needed = 0, uses_anonymous_args = 0
 600              		@ link register save eliminated.
 601 0000 0020     		movs	r0, #0
 602 0002 7047     		bx	lr
 604              		.section	.text.USB_EPSetStall,"ax",%progbits
 605              		.align	1
 606              		.global	USB_EPSetStall
 607              		.thumb
 608              		.thumb_func
 610              	USB_EPSetStall:
 611              		@ args = 0, pretend = 0, frame = 0
 612              		@ frame_needed = 0, uses_anonymous_args = 0
 613              		@ link register save eliminated.
 614 0000 4B78     		ldrb	r3, [r1, #1]	@ zero_extendqisi2
 615 0002 0A78     		ldrb	r2, [r1]	@ zero_extendqisi2
 616 0004 53B1     		cbz	r3, .L98
 617 0006 30F82230 		ldrh	r3, [r0, r2, lsl #2]
 618 000a 23F4E043 		bic	r3, r3, #28672
 619 000e 23F04003 		bic	r3, r3, #64
 620 0012 1B04     		lsls	r3, r3, #16
 621 0014 1B0C     		lsrs	r3, r3, #16
 622 0016 83F01003 		eor	r3, r3, #16
 623 001a 09E0     		b	.L100
 624              	.L98:
 625 001c 30F82230 		ldrh	r3, [r0, r2, lsl #2]
 626 0020 23F48043 		bic	r3, r3, #16384
 627 0024 23F07003 		bic	r3, r3, #112
 628 0028 1B04     		lsls	r3, r3, #16
 629 002a 1B0C     		lsrs	r3, r3, #16
 630 002c 83F48053 		eor	r3, r3, #4096
 631              	.L100:
 632 0030 43F40043 		orr	r3, r3, #32768
 633 0034 43F08003 		orr	r3, r3, #128
 634 0038 20F82230 		strh	r3, [r0, r2, lsl #2]	@ movhi
 635 003c 0020     		movs	r0, #0
 636 003e 7047     		bx	lr
 638              		.section	.text.USB_EPClearStall,"ax",%progbits
 639              		.align	1
 640              		.global	USB_EPClearStall
 641              		.thumb
 642              		.thumb_func
 644              	USB_EPClearStall:
 645              		@ args = 0, pretend = 0, frame = 0
 646              		@ frame_needed = 0, uses_anonymous_args = 0
 647              		@ link register save eliminated.
 648 0000 0B7B     		ldrb	r3, [r1, #12]	@ zero_extendqisi2
 649 0002 002B     		cmp	r3, #0
 650 0004 42D1     		bne	.L103
 651 0006 4B78     		ldrb	r3, [r1, #1]	@ zero_extendqisi2
 652 0008 0A78     		ldrb	r2, [r1]	@ zero_extendqisi2
 653 000a F3B1     		cbz	r3, .L104
 654 000c 30F82230 		ldrh	r3, [r0, r2, lsl #2]
ARM GAS  /tmp/ccoemQSA.s 			page 12


 655 0010 5B06     		lsls	r3, r3, #25
 656 0012 0BD5     		bpl	.L105
 657 0014 30F82230 		ldrh	r3, [r0, r2, lsl #2]
 658 0018 23F0F003 		bic	r3, r3, #240
 659 001c 1B05     		lsls	r3, r3, #20
 660 001e 1B0D     		lsrs	r3, r3, #20
 661 0020 43F40043 		orr	r3, r3, #32768
 662 0024 43F0C003 		orr	r3, r3, #192
 663 0028 20F82230 		strh	r3, [r0, r2, lsl #2]	@ movhi
 664              	.L105:
 665 002c CB78     		ldrb	r3, [r1, #3]	@ zero_extendqisi2
 666 002e 012B     		cmp	r3, #1
 667 0030 2CD0     		beq	.L103
 668 0032 0A78     		ldrb	r2, [r1]	@ zero_extendqisi2
 669 0034 30F82230 		ldrh	r3, [r0, r2, lsl #2]
 670 0038 23F4E043 		bic	r3, r3, #28672
 671 003c 23F04003 		bic	r3, r3, #64
 672 0040 1B04     		lsls	r3, r3, #16
 673 0042 1B0C     		lsrs	r3, r3, #16
 674 0044 83F02003 		eor	r3, r3, #32
 675 0048 1AE0     		b	.L117
 676              	.L104:
 677 004a 30F82230 		ldrh	r3, [r0, r2, lsl #2]
 678 004e 5B04     		lsls	r3, r3, #17
 679 0050 0BD5     		bpl	.L107
 680 0052 30F82230 		ldrh	r3, [r0, r2, lsl #2]
 681 0056 23F0F003 		bic	r3, r3, #240
 682 005a 1B05     		lsls	r3, r3, #20
 683 005c 1B0D     		lsrs	r3, r3, #20
 684 005e 43F44043 		orr	r3, r3, #49152
 685 0062 43F08003 		orr	r3, r3, #128
 686 0066 20F82230 		strh	r3, [r0, r2, lsl #2]	@ movhi
 687              	.L107:
 688 006a 0A78     		ldrb	r2, [r1]	@ zero_extendqisi2
 689 006c 30F82230 		ldrh	r3, [r0, r2, lsl #2]
 690 0070 23F48043 		bic	r3, r3, #16384
 691 0074 23F07003 		bic	r3, r3, #112
 692 0078 1B04     		lsls	r3, r3, #16
 693 007a 1B0C     		lsrs	r3, r3, #16
 694 007c 83F44053 		eor	r3, r3, #12288
 695              	.L117:
 696 0080 43F40043 		orr	r3, r3, #32768
 697 0084 43F08003 		orr	r3, r3, #128
 698 0088 20F82230 		strh	r3, [r0, r2, lsl #2]	@ movhi
 699              	.L103:
 700 008c 0020     		movs	r0, #0
 701 008e 7047     		bx	lr
 703              		.section	.text.USB_StopDevice,"ax",%progbits
 704              		.align	1
 705              		.global	USB_StopDevice
 706              		.thumb
 707              		.thumb_func
 709              	USB_StopDevice:
 710              		@ args = 0, pretend = 0, frame = 0
 711              		@ frame_needed = 0, uses_anonymous_args = 0
 712              		@ link register save eliminated.
 713 0000 0346     		mov	r3, r0
ARM GAS  /tmp/ccoemQSA.s 			page 13


 714 0002 0122     		movs	r2, #1
 715 0004 A0F84020 		strh	r2, [r0, #64]	@ movhi
 716 0008 0020     		movs	r0, #0
 717 000a 0322     		movs	r2, #3
 718 000c A3F84400 		strh	r0, [r3, #68]	@ movhi
 719 0010 A3F84020 		strh	r2, [r3, #64]	@ movhi
 720 0014 7047     		bx	lr
 722              		.section	.text.USB_SetDevAddress,"ax",%progbits
 723              		.align	1
 724              		.global	USB_SetDevAddress
 725              		.thumb
 726              		.thumb_func
 728              	USB_SetDevAddress:
 729              		@ args = 0, pretend = 0, frame = 0
 730              		@ frame_needed = 0, uses_anonymous_args = 0
 731              		@ link register save eliminated.
 732 0000 11B9     		cbnz	r1, .L120
 733 0002 8023     		movs	r3, #128
 734 0004 A0F84C30 		strh	r3, [r0, #76]	@ movhi
 735              	.L120:
 736 0008 0020     		movs	r0, #0
 737 000a 7047     		bx	lr
 739              		.section	.text.USB_DevConnect,"ax",%progbits
 740              		.align	1
 741              		.global	USB_DevConnect
 742              		.thumb
 743              		.thumb_func
 745              	USB_DevConnect:
 746              		@ args = 0, pretend = 0, frame = 0
 747              		@ frame_needed = 0, uses_anonymous_args = 0
 748              		@ link register save eliminated.
 749 0000 0020     		movs	r0, #0
 750 0002 7047     		bx	lr
 752              		.section	.text.USB_DevDisconnect,"ax",%progbits
 753              		.align	1
 754              		.global	USB_DevDisconnect
 755              		.thumb
 756              		.thumb_func
 758              	USB_DevDisconnect:
 759              		@ args = 0, pretend = 0, frame = 0
 760              		@ frame_needed = 0, uses_anonymous_args = 0
 761              		@ link register save eliminated.
 762 0000 0020     		movs	r0, #0
 763 0002 7047     		bx	lr
 765              		.section	.text.USB_ReadInterrupts,"ax",%progbits
 766              		.align	1
 767              		.global	USB_ReadInterrupts
 768              		.thumb
 769              		.thumb_func
 771              	USB_ReadInterrupts:
 772              		@ args = 0, pretend = 0, frame = 0
 773              		@ frame_needed = 0, uses_anonymous_args = 0
 774              		@ link register save eliminated.
 775 0000 B0F84400 		ldrh	r0, [r0, #68]
 776 0004 80B2     		uxth	r0, r0
 777 0006 7047     		bx	lr
 779              		.section	.text.USB_ReadDevAllOutEpInterrupt,"ax",%progbits
ARM GAS  /tmp/ccoemQSA.s 			page 14


 780              		.align	1
 781              		.global	USB_ReadDevAllOutEpInterrupt
 782              		.thumb
 783              		.thumb_func
 785              	USB_ReadDevAllOutEpInterrupt:
 786              		@ args = 0, pretend = 0, frame = 0
 787              		@ frame_needed = 0, uses_anonymous_args = 0
 788              		@ link register save eliminated.
 789 0000 0020     		movs	r0, #0
 790 0002 7047     		bx	lr
 792              		.section	.text.USB_ReadDevAllInEpInterrupt,"ax",%progbits
 793              		.align	1
 794              		.global	USB_ReadDevAllInEpInterrupt
 795              		.thumb
 796              		.thumb_func
 798              	USB_ReadDevAllInEpInterrupt:
 799              		@ args = 0, pretend = 0, frame = 0
 800              		@ frame_needed = 0, uses_anonymous_args = 0
 801              		@ link register save eliminated.
 802 0000 0020     		movs	r0, #0
 803 0002 7047     		bx	lr
 805              		.section	.text.USB_ReadDevOutEPInterrupt,"ax",%progbits
 806              		.align	1
 807              		.global	USB_ReadDevOutEPInterrupt
 808              		.thumb
 809              		.thumb_func
 811              	USB_ReadDevOutEPInterrupt:
 812              		@ args = 0, pretend = 0, frame = 0
 813              		@ frame_needed = 0, uses_anonymous_args = 0
 814              		@ link register save eliminated.
 815 0000 0020     		movs	r0, #0
 816 0002 7047     		bx	lr
 818              		.section	.text.USB_ReadDevInEPInterrupt,"ax",%progbits
 819              		.align	1
 820              		.global	USB_ReadDevInEPInterrupt
 821              		.thumb
 822              		.thumb_func
 824              	USB_ReadDevInEPInterrupt:
 825              		@ args = 0, pretend = 0, frame = 0
 826              		@ frame_needed = 0, uses_anonymous_args = 0
 827              		@ link register save eliminated.
 828 0000 0020     		movs	r0, #0
 829 0002 7047     		bx	lr
 831              		.section	.text.USB_ClearInterrupts,"ax",%progbits
 832              		.align	1
 833              		.global	USB_ClearInterrupts
 834              		.thumb
 835              		.thumb_func
 837              	USB_ClearInterrupts:
 838              		@ args = 0, pretend = 0, frame = 0
 839              		@ frame_needed = 0, uses_anonymous_args = 0
 840              		@ link register save eliminated.
 841 0000 7047     		bx	lr
 843              		.section	.text.USB_EP0_OutStart,"ax",%progbits
 844              		.align	1
 845              		.global	USB_EP0_OutStart
 846              		.thumb
ARM GAS  /tmp/ccoemQSA.s 			page 15


 847              		.thumb_func
 849              	USB_EP0_OutStart:
 850              		@ args = 0, pretend = 0, frame = 0
 851              		@ frame_needed = 0, uses_anonymous_args = 0
 852              		@ link register save eliminated.
 853 0000 0020     		movs	r0, #0
 854 0002 7047     		bx	lr
 856              		.section	.text.USB_ActivateRemoteWakeup,"ax",%progbits
 857              		.align	1
 858              		.global	USB_ActivateRemoteWakeup
 859              		.thumb
 860              		.thumb_func
 862              	USB_ActivateRemoteWakeup:
 863              		@ args = 0, pretend = 0, frame = 0
 864              		@ frame_needed = 0, uses_anonymous_args = 0
 865              		@ link register save eliminated.
 866 0000 B0F84030 		ldrh	r3, [r0, #64]
 867 0004 9BB2     		uxth	r3, r3
 868 0006 43F01003 		orr	r3, r3, #16
 869 000a A0F84030 		strh	r3, [r0, #64]	@ movhi
 870 000e 0020     		movs	r0, #0
 871 0010 7047     		bx	lr
 873              		.section	.text.USB_DeActivateRemoteWakeup,"ax",%progbits
 874              		.align	1
 875              		.global	USB_DeActivateRemoteWakeup
 876              		.thumb
 877              		.thumb_func
 879              	USB_DeActivateRemoteWakeup:
 880              		@ args = 0, pretend = 0, frame = 0
 881              		@ frame_needed = 0, uses_anonymous_args = 0
 882              		@ link register save eliminated.
 883 0000 B0F84030 		ldrh	r3, [r0, #64]
 884 0004 23F01003 		bic	r3, r3, #16
 885 0008 1B04     		lsls	r3, r3, #16
 886 000a 1B0C     		lsrs	r3, r3, #16
 887 000c A0F84030 		strh	r3, [r0, #64]	@ movhi
 888 0010 0020     		movs	r0, #0
 889 0012 7047     		bx	lr
 891              		.section	.text.USB_WritePMA,"ax",%progbits
 892              		.align	1
 893              		.global	USB_WritePMA
 894              		.thumb
 895              		.thumb_func
 897              	USB_WritePMA:
 898              		@ args = 0, pretend = 0, frame = 0
 899              		@ frame_needed = 0, uses_anonymous_args = 0
 900 0000 10B5     		push	{r4, lr}
 901 0002 00EB4202 		add	r2, r0, r2, lsl #1
 902 0006 0133     		adds	r3, r3, #1
 903 0008 02F58062 		add	r2, r2, #1024
 904 000c 5B08     		lsrs	r3, r3, #1
 905 000e 02EB8303 		add	r3, r2, r3, lsl #2
 906              	.L133:
 907 0012 9A42     		cmp	r2, r3
 908 0014 01F10201 		add	r1, r1, #2
 909 0018 08D0     		beq	.L135
 910 001a 11F8014C 		ldrb	r4, [r1, #-1]	@ zero_extendqisi2
ARM GAS  /tmp/ccoemQSA.s 			page 16


 911 001e 11F8020C 		ldrb	r0, [r1, #-2]	@ zero_extendqisi2
 912 0022 40EA0420 		orr	r0, r0, r4, lsl #8
 913 0026 22F8040B 		strh	r0, [r2], #4	@ movhi
 914 002a F2E7     		b	.L133
 915              	.L135:
 916 002c 10BD     		pop	{r4, pc}
 918              		.section	.text.USB_EPStartXfer,"ax",%progbits
 919              		.align	1
 920              		.global	USB_EPStartXfer
 921              		.thumb
 922              		.thumb_func
 924              	USB_EPStartXfer:
 925              		@ args = 0, pretend = 0, frame = 0
 926              		@ frame_needed = 0, uses_anonymous_args = 0
 927 0000 70B5     		push	{r4, r5, r6, lr}
 928 0002 0E46     		mov	r6, r1
 929 0004 4978     		ldrb	r1, [r1, #1]	@ zero_extendqisi2
 930 0006 0446     		mov	r4, r0
 931 0008 0129     		cmp	r1, #1
 932 000a B369     		ldr	r3, [r6, #24]
 933 000c 3269     		ldr	r2, [r6, #16]
 934 000e 307B     		ldrb	r0, [r6, #12]	@ zero_extendqisi2
 935 0010 5BD1     		bne	.L137
 936 0012 9342     		cmp	r3, r2
 937 0014 83BF     		ittte	hi
 938 0016 9B1A     		subhi	r3, r3, r2
 939 0018 B361     		strhi	r3, [r6, #24]
 940 001a 1346     		movhi	r3, r2
 941 001c 0022     		movls	r2, #0
 942 001e 98BF     		it	ls
 943 0020 B261     		strls	r2, [r6, #24]
 944 0022 9DB2     		uxth	r5, r3
 945 0024 78B9     		cbnz	r0, .L140
 946 0026 F288     		ldrh	r2, [r6, #6]
 947 0028 2B46     		mov	r3, r5
 948 002a 2046     		mov	r0, r4
 949 002c 7169     		ldr	r1, [r6, #20]
 950 002e FFF7FEFF 		bl	USB_WritePMA
 951 0032 B4F85030 		ldrh	r3, [r4, #80]
 952 0036 3278     		ldrb	r2, [r6]	@ zero_extendqisi2
 953 0038 9BB2     		uxth	r3, r3
 954 003a 03F20443 		addw	r3, r3, #1028
 955 003e 03EB0213 		add	r3, r3, r2, lsl #4
 956 0042 E552     		strh	r5, [r4, r3]	@ movhi
 957 0044 35E0     		b	.L141
 958              	.L140:
 959 0046 3378     		ldrb	r3, [r6]	@ zero_extendqisi2
 960 0048 2046     		mov	r0, r4
 961 004a 34F82320 		ldrh	r2, [r4, r3, lsl #2]
 962 004e 1B01     		lsls	r3, r3, #4
 963 0050 12F0400F 		tst	r2, #64
 964 0054 B4F85020 		ldrh	r2, [r4, #80]
 965 0058 7169     		ldr	r1, [r6, #20]
 966 005a 92B2     		uxth	r2, r2
 967 005c 15BF     		itete	ne
 968 005e 02F20C42 		addwne	r2, r2, #1036
 969 0062 02F20442 		addweq	r2, r2, #1028
ARM GAS  /tmp/ccoemQSA.s 			page 17


 970 0066 9B18     		addne	r3, r3, r2
 971 0068 9B18     		addeq	r3, r3, r2
 972 006a 15BF     		itete	ne
 973 006c E552     		strhne	r5, [r4, r3]	@ movhi
 974 006e E552     		strheq	r5, [r4, r3]	@ movhi
 975 0070 7289     		ldrhne	r2, [r6, #10]
 976 0072 3289     		ldrheq	r2, [r6, #8]
 977 0074 2B46     		mov	r3, r5
 978 0076 FFF7FEFF 		bl	USB_WritePMA
 979 007a 7378     		ldrb	r3, [r6, #1]	@ zero_extendqisi2
 980 007c 3278     		ldrb	r2, [r6]	@ zero_extendqisi2
 981 007e 53B9     		cbnz	r3, .L144
 982 0080 34F82230 		ldrh	r3, [r4, r2, lsl #2]
 983 0084 23F0F003 		bic	r3, r3, #240
 984 0088 1B05     		lsls	r3, r3, #20
 985 008a 1B0D     		lsrs	r3, r3, #20
 986 008c 43F40043 		orr	r3, r3, #32768
 987 0090 43F0C003 		orr	r3, r3, #192
 988 0094 0BE0     		b	.L173
 989              	.L144:
 990 0096 012B     		cmp	r3, #1
 991 0098 0BD1     		bne	.L141
 992 009a 34F82230 		ldrh	r3, [r4, r2, lsl #2]
 993 009e 23F0F003 		bic	r3, r3, #240
 994 00a2 1B05     		lsls	r3, r3, #20
 995 00a4 1B0D     		lsrs	r3, r3, #20
 996 00a6 43F44043 		orr	r3, r3, #49152
 997 00aa 43F08003 		orr	r3, r3, #128
 998              	.L173:
 999 00ae 24F82230 		strh	r3, [r4, r2, lsl #2]	@ movhi
 1000              	.L141:
 1001 00b2 3278     		ldrb	r2, [r6]	@ zero_extendqisi2
 1002 00b4 34F82230 		ldrh	r3, [r4, r2, lsl #2]
 1003 00b8 23F4E043 		bic	r3, r3, #28672
 1004 00bc 23F04003 		bic	r3, r3, #64
 1005 00c0 1B04     		lsls	r3, r3, #16
 1006 00c2 1B0C     		lsrs	r3, r3, #16
 1007 00c4 83F03003 		eor	r3, r3, #48
 1008 00c8 70E0     		b	.L178
 1009              	.L137:
 1010 00ca 9342     		cmp	r3, r2
 1011 00cc 8BBF     		itete	hi
 1012 00ce 9B1A     		subhi	r3, r3, r2
 1013 00d0 0022     		movls	r2, #0
 1014 00d2 B361     		strhi	r3, [r6, #24]
 1015 00d4 B261     		strls	r2, [r6, #24]
 1016 00d6 88BF     		it	hi
 1017 00d8 1346     		movhi	r3, r2
 1018 00da 3278     		ldrb	r2, [r6]	@ zero_extendqisi2
 1019 00dc 40B3     		cbz	r0, .L187
 1020 00de 21BB     		cbnz	r1, .L154
 1021 00e0 B4F85010 		ldrh	r1, [r4, #80]
 1022 00e4 89B2     		uxth	r1, r1
 1023 00e6 01F20441 		addw	r1, r1, #1028
 1024 00ea 01EB0211 		add	r1, r1, r2, lsl #4
 1025 00ee 4BB9     		cbnz	r3, .L155
 1026 00f0 625A     		ldrh	r2, [r4, r1]
ARM GAS  /tmp/ccoemQSA.s 			page 18


 1027 00f2 22F4F842 		bic	r2, r2, #31744
 1028 00f6 1204     		lsls	r2, r2, #16
 1029 00f8 120C     		lsrs	r2, r2, #16
 1030 00fa 6252     		strh	r2, [r4, r1]	@ movhi
 1031 00fc 625A     		ldrh	r2, [r4, r1]
 1032 00fe 6FEA4242 		mvn	r2, r2, lsl #17
 1033 0102 0EE0     		b	.L174
 1034              	.L155:
 1035 0104 3E2B     		cmp	r3, #62
 1036 0106 05D8     		bhi	.L156
 1037 0108 5A08     		lsrs	r2, r3, #1
 1038 010a D807     		lsls	r0, r3, #31
 1039 010c 48BF     		it	mi
 1040 010e 0132     		addmi	r2, r2, #1
 1041 0110 9202     		lsls	r2, r2, #10
 1042 0112 08E0     		b	.L175
 1043              	.L156:
 1044 0114 5A09     		lsrs	r2, r3, #5
 1045 0116 DD06     		lsls	r5, r3, #27
 1046 0118 08BF     		it	eq
 1047 011a 02F1FF32 		addeq	r2, r2, #-1
 1048 011e 6FEAC262 		mvn	r2, r2, lsl #27
 1049              	.L174:
 1050 0122 6FEA5242 		mvn	r2, r2, lsr #17
 1051              	.L175:
 1052 0126 92B2     		uxth	r2, r2
 1053 0128 6252     		strh	r2, [r4, r1]	@ movhi
 1054              	.L154:
 1055 012a 7178     		ldrb	r1, [r6, #1]	@ zero_extendqisi2
 1056 012c 3278     		ldrb	r2, [r6]	@ zero_extendqisi2
 1057 012e 39BB     		cbnz	r1, .L159
 1058              	.L187:
 1059 0130 B4F85010 		ldrh	r1, [r4, #80]
 1060 0134 89B2     		uxth	r1, r1
 1061 0136 01F20C41 		addw	r1, r1, #1036
 1062 013a 01EB0212 		add	r2, r1, r2, lsl #4
 1063 013e 5BB9     		cbnz	r3, .L160
 1064 0140 135B     		ldrh	r3, [r2, r4]
 1065 0142 23F4F843 		bic	r3, r3, #31744
 1066 0146 1B04     		lsls	r3, r3, #16
 1067 0148 1B0C     		lsrs	r3, r3, #16
 1068 014a 1353     		strh	r3, [r2, r4]	@ movhi
 1069 014c 135B     		ldrh	r3, [r2, r4]
 1070 014e 6FEA4343 		mvn	r3, r3, lsl #17
 1071 0152 6FEA5343 		mvn	r3, r3, lsr #17
 1072 0156 1CE0     		b	.L176
 1073              	.L160:
 1074 0158 3E2B     		cmp	r3, #62
 1075 015a 05D8     		bhi	.L161
 1076 015c 5908     		lsrs	r1, r3, #1
 1077 015e D807     		lsls	r0, r3, #31
 1078 0160 48BF     		it	mi
 1079 0162 0131     		addmi	r1, r1, #1
 1080 0164 8902     		lsls	r1, r1, #10
 1081 0166 08E0     		b	.L177
 1082              	.L161:
 1083 0168 5909     		lsrs	r1, r3, #5
ARM GAS  /tmp/ccoemQSA.s 			page 19


 1084 016a DB06     		lsls	r3, r3, #27
 1085 016c 08BF     		it	eq
 1086 016e 01F1FF31 		addeq	r1, r1, #-1
 1087 0172 6FEAC161 		mvn	r1, r1, lsl #27
 1088 0176 6FEA5141 		mvn	r1, r1, lsr #17
 1089              	.L177:
 1090 017a 89B2     		uxth	r1, r1
 1091 017c 1153     		strh	r1, [r2, r4]	@ movhi
 1092 017e 0AE0     		b	.L150
 1093              	.L159:
 1094 0180 0129     		cmp	r1, #1
 1095 0182 08D1     		bne	.L150
 1096 0184 B4F85010 		ldrh	r1, [r4, #80]
 1097 0188 89B2     		uxth	r1, r1
 1098 018a 01F20C41 		addw	r1, r1, #1036
 1099 018e 01EB0212 		add	r2, r1, r2, lsl #4
 1100              	.L176:
 1101 0192 9BB2     		uxth	r3, r3
 1102 0194 1353     		strh	r3, [r2, r4]	@ movhi
 1103              	.L150:
 1104 0196 3278     		ldrb	r2, [r6]	@ zero_extendqisi2
 1105 0198 34F82230 		ldrh	r3, [r4, r2, lsl #2]
 1106 019c 23F48043 		bic	r3, r3, #16384
 1107 01a0 23F07003 		bic	r3, r3, #112
 1108 01a4 1B04     		lsls	r3, r3, #16
 1109 01a6 1B0C     		lsrs	r3, r3, #16
 1110 01a8 83F44053 		eor	r3, r3, #12288
 1111              	.L178:
 1112 01ac 43F40043 		orr	r3, r3, #32768
 1113 01b0 43F08003 		orr	r3, r3, #128
 1114 01b4 24F82230 		strh	r3, [r4, r2, lsl #2]	@ movhi
 1115 01b8 0020     		movs	r0, #0
 1116 01ba 70BD     		pop	{r4, r5, r6, pc}
 1118              		.section	.text.USB_ReadPMA,"ax",%progbits
 1119              		.align	1
 1120              		.global	USB_ReadPMA
 1121              		.thumb
 1122              		.thumb_func
 1124              	USB_ReadPMA:
 1125              		@ args = 0, pretend = 0, frame = 0
 1126              		@ frame_needed = 0, uses_anonymous_args = 0
 1127 0000 00EB4202 		add	r2, r0, r2, lsl #1
 1128 0004 F0B5     		push	{r4, r5, r6, r7, lr}
 1129 0006 02F58062 		add	r2, r2, #1024
 1130 000a 5D08     		lsrs	r5, r3, #1
 1131 000c 0846     		mov	r0, r1
 1132 000e 1746     		mov	r7, r2
 1133 0010 2E46     		mov	r6, r5
 1134              	.L189:
 1135 0012 0230     		adds	r0, r0, #2
 1136 0014 4EB1     		cbz	r6, .L195
 1137 0016 37F8044B 		ldrh	r4, [r7], #4
 1138 001a 013E     		subs	r6, r6, #1
 1139 001c A4B2     		uxth	r4, r4
 1140 001e 00F8024C 		strb	r4, [r0, #-2]
 1141 0022 240A     		lsrs	r4, r4, #8
 1142 0024 00F8014C 		strb	r4, [r0, #-1]
ARM GAS  /tmp/ccoemQSA.s 			page 20


 1143 0028 F3E7     		b	.L189
 1144              	.L195:
 1145 002a DB07     		lsls	r3, r3, #31
 1146 002c 44BF     		itt	mi
 1147 002e 32F82530 		ldrhmi	r3, [r2, r5, lsl #2]
 1148 0032 01F81530 		strbmi	r3, [r1, r5, lsl #1]
 1149 0036 F0BD     		pop	{r4, r5, r6, r7, pc}
 1151              		.ident	"GCC: (15:4.9.3+svn231177-1) 4.9.3 20150529 (prerelease)"
ARM GAS  /tmp/ccoemQSA.s 			page 21


DEFINED SYMBOLS
                            *ABS*:0000000000000000 stm32f1xx_ll_usb.c
     /tmp/ccoemQSA.s:16     .text.USB_CoreInit:0000000000000000 $t
     /tmp/ccoemQSA.s:21     .text.USB_CoreInit:0000000000000000 USB_CoreInit
     /tmp/ccoemQSA.s:33     .text.USB_EnableGlobalInt:0000000000000000 $t
     /tmp/ccoemQSA.s:38     .text.USB_EnableGlobalInt:0000000000000000 USB_EnableGlobalInt
     /tmp/ccoemQSA.s:50     .text.USB_DisableGlobalInt:0000000000000000 $t
     /tmp/ccoemQSA.s:55     .text.USB_DisableGlobalInt:0000000000000000 USB_DisableGlobalInt
     /tmp/ccoemQSA.s:68     .text.USB_SetCurrentMode:0000000000000000 $t
     /tmp/ccoemQSA.s:73     .text.USB_SetCurrentMode:0000000000000000 USB_SetCurrentMode
     /tmp/ccoemQSA.s:81     .text.USB_DevInit:0000000000000000 $t
     /tmp/ccoemQSA.s:86     .text.USB_DevInit:0000000000000000 USB_DevInit
     /tmp/ccoemQSA.s:109    .text.USB_SetDevSpeed:0000000000000000 $t
     /tmp/ccoemQSA.s:114    .text.USB_SetDevSpeed:0000000000000000 USB_SetDevSpeed
     /tmp/ccoemQSA.s:122    .text.USB_FlushTxFifo:0000000000000000 $t
     /tmp/ccoemQSA.s:127    .text.USB_FlushTxFifo:0000000000000000 USB_FlushTxFifo
     /tmp/ccoemQSA.s:135    .text.USB_FlushRxFifo:0000000000000000 $t
     /tmp/ccoemQSA.s:140    .text.USB_FlushRxFifo:0000000000000000 USB_FlushRxFifo
     /tmp/ccoemQSA.s:148    .text.USB_ActivateEndpoint:0000000000000000 $t
     /tmp/ccoemQSA.s:153    .text.USB_ActivateEndpoint:0000000000000000 USB_ActivateEndpoint
     /tmp/ccoemQSA.s:169    .text.USB_ActivateEndpoint:0000000000000020 $d
     /tmp/ccoemQSA.s:173    .text.USB_ActivateEndpoint:0000000000000024 $t
     /tmp/ccoemQSA.s:439    .text.USB_DeactivateEndpoint:0000000000000000 $t
     /tmp/ccoemQSA.s:444    .text.USB_DeactivateEndpoint:0000000000000000 USB_DeactivateEndpoint
     /tmp/ccoemQSA.s:579    .text.USB_WritePacket:0000000000000000 $t
     /tmp/ccoemQSA.s:584    .text.USB_WritePacket:0000000000000000 USB_WritePacket
     /tmp/ccoemQSA.s:592    .text.USB_ReadPacket:0000000000000000 $t
     /tmp/ccoemQSA.s:597    .text.USB_ReadPacket:0000000000000000 USB_ReadPacket
     /tmp/ccoemQSA.s:605    .text.USB_EPSetStall:0000000000000000 $t
     /tmp/ccoemQSA.s:610    .text.USB_EPSetStall:0000000000000000 USB_EPSetStall
     /tmp/ccoemQSA.s:639    .text.USB_EPClearStall:0000000000000000 $t
     /tmp/ccoemQSA.s:644    .text.USB_EPClearStall:0000000000000000 USB_EPClearStall
     /tmp/ccoemQSA.s:704    .text.USB_StopDevice:0000000000000000 $t
     /tmp/ccoemQSA.s:709    .text.USB_StopDevice:0000000000000000 USB_StopDevice
     /tmp/ccoemQSA.s:723    .text.USB_SetDevAddress:0000000000000000 $t
     /tmp/ccoemQSA.s:728    .text.USB_SetDevAddress:0000000000000000 USB_SetDevAddress
     /tmp/ccoemQSA.s:740    .text.USB_DevConnect:0000000000000000 $t
     /tmp/ccoemQSA.s:745    .text.USB_DevConnect:0000000000000000 USB_DevConnect
     /tmp/ccoemQSA.s:753    .text.USB_DevDisconnect:0000000000000000 $t
     /tmp/ccoemQSA.s:758    .text.USB_DevDisconnect:0000000000000000 USB_DevDisconnect
     /tmp/ccoemQSA.s:766    .text.USB_ReadInterrupts:0000000000000000 $t
     /tmp/ccoemQSA.s:771    .text.USB_ReadInterrupts:0000000000000000 USB_ReadInterrupts
     /tmp/ccoemQSA.s:780    .text.USB_ReadDevAllOutEpInterrupt:0000000000000000 $t
     /tmp/ccoemQSA.s:785    .text.USB_ReadDevAllOutEpInterrupt:0000000000000000 USB_ReadDevAllOutEpInterrupt
     /tmp/ccoemQSA.s:793    .text.USB_ReadDevAllInEpInterrupt:0000000000000000 $t
     /tmp/ccoemQSA.s:798    .text.USB_ReadDevAllInEpInterrupt:0000000000000000 USB_ReadDevAllInEpInterrupt
     /tmp/ccoemQSA.s:806    .text.USB_ReadDevOutEPInterrupt:0000000000000000 $t
     /tmp/ccoemQSA.s:811    .text.USB_ReadDevOutEPInterrupt:0000000000000000 USB_ReadDevOutEPInterrupt
     /tmp/ccoemQSA.s:819    .text.USB_ReadDevInEPInterrupt:0000000000000000 $t
     /tmp/ccoemQSA.s:824    .text.USB_ReadDevInEPInterrupt:0000000000000000 USB_ReadDevInEPInterrupt
     /tmp/ccoemQSA.s:832    .text.USB_ClearInterrupts:0000000000000000 $t
     /tmp/ccoemQSA.s:837    .text.USB_ClearInterrupts:0000000000000000 USB_ClearInterrupts
     /tmp/ccoemQSA.s:844    .text.USB_EP0_OutStart:0000000000000000 $t
     /tmp/ccoemQSA.s:849    .text.USB_EP0_OutStart:0000000000000000 USB_EP0_OutStart
     /tmp/ccoemQSA.s:857    .text.USB_ActivateRemoteWakeup:0000000000000000 $t
     /tmp/ccoemQSA.s:862    .text.USB_ActivateRemoteWakeup:0000000000000000 USB_ActivateRemoteWakeup
     /tmp/ccoemQSA.s:874    .text.USB_DeActivateRemoteWakeup:0000000000000000 $t
ARM GAS  /tmp/ccoemQSA.s 			page 22


     /tmp/ccoemQSA.s:879    .text.USB_DeActivateRemoteWakeup:0000000000000000 USB_DeActivateRemoteWakeup
     /tmp/ccoemQSA.s:892    .text.USB_WritePMA:0000000000000000 $t
     /tmp/ccoemQSA.s:897    .text.USB_WritePMA:0000000000000000 USB_WritePMA
     /tmp/ccoemQSA.s:919    .text.USB_EPStartXfer:0000000000000000 $t
     /tmp/ccoemQSA.s:924    .text.USB_EPStartXfer:0000000000000000 USB_EPStartXfer
     /tmp/ccoemQSA.s:1119   .text.USB_ReadPMA:0000000000000000 $t
     /tmp/ccoemQSA.s:1124   .text.USB_ReadPMA:0000000000000000 USB_ReadPMA

NO UNDEFINED SYMBOLS
