ARM GAS  /tmp/ccs9G0wd.s 			page 1


   1              		.syntax unified
   2              		.cpu cortex-m3
   3              		.fpu softvfp
   4              		.eabi_attribute 20, 1
   5              		.eabi_attribute 21, 1
   6              		.eabi_attribute 23, 3
   7              		.eabi_attribute 24, 1
   8              		.eabi_attribute 25, 1
   9              		.eabi_attribute 26, 1
  10              		.eabi_attribute 30, 4
  11              		.eabi_attribute 34, 1
  12              		.eabi_attribute 18, 4
  13              		.thumb
  14              		.file	"stm32f1xx_hal_flash_ex.c"
  15              		.section	.text.FLASH_MassErase.isra.0,"ax",%progbits
  16              		.align	1
  17              		.thumb
  18              		.thumb_func
  20              	FLASH_MassErase.isra.0:
  21              		@ args = 0, pretend = 0, frame = 0
  22              		@ frame_needed = 0, uses_anonymous_args = 0
  23              		@ link register save eliminated.
  24 0000 064B     		ldr	r3, .L2
  25 0002 0022     		movs	r2, #0
  26 0004 DA61     		str	r2, [r3, #28]
  27 0006 064B     		ldr	r3, .L2+4
  28 0008 1A69     		ldr	r2, [r3, #16]
  29 000a 42F00402 		orr	r2, r2, #4
  30 000e 1A61     		str	r2, [r3, #16]
  31 0010 1A69     		ldr	r2, [r3, #16]
  32 0012 42F04002 		orr	r2, r2, #64
  33 0016 1A61     		str	r2, [r3, #16]
  34 0018 7047     		bx	lr
  35              	.L3:
  36 001a 00BF     		.align	2
  37              	.L2:
  38 001c 00000000 		.word	pFlash
  39 0020 00200240 		.word	1073881088
  41              		.section	.text.FLASH_OB_RDP_LevelConfig,"ax",%progbits
  42              		.align	1
  43              		.thumb
  44              		.thumb_func
  46              	FLASH_OB_RDP_LevelConfig:
  47              		@ args = 0, pretend = 0, frame = 0
  48              		@ frame_needed = 0, uses_anonymous_args = 0
  49 0000 38B5     		push	{r3, r4, r5, lr}
  50 0002 0546     		mov	r5, r0
  51 0004 4CF25030 		movw	r0, #50000
  52 0008 FFF7FEFF 		bl	FLASH_WaitForLastOperation
  53 000c 10BB     		cbnz	r0, .L5
  54 000e 124B     		ldr	r3, .L7
  55 0010 124C     		ldr	r4, .L7+4
  56 0012 D861     		str	r0, [r3, #28]
  57 0014 2369     		ldr	r3, [r4, #16]
  58 0016 4CF25030 		movw	r0, #50000
  59 001a 43F02003 		orr	r3, r3, #32
  60 001e 2361     		str	r3, [r4, #16]
ARM GAS  /tmp/ccs9G0wd.s 			page 2


  61 0020 2369     		ldr	r3, [r4, #16]
  62 0022 43F04003 		orr	r3, r3, #64
  63 0026 2361     		str	r3, [r4, #16]
  64 0028 FFF7FEFF 		bl	FLASH_WaitForLastOperation
  65 002c 2369     		ldr	r3, [r4, #16]
  66 002e 23F02003 		bic	r3, r3, #32
  67 0032 2361     		str	r3, [r4, #16]
  68 0034 70B9     		cbnz	r0, .L5
  69 0036 2369     		ldr	r3, [r4, #16]
  70 0038 ADB2     		uxth	r5, r5
  71 003a 43F01003 		orr	r3, r3, #16
  72 003e 2361     		str	r3, [r4, #16]
  73 0040 074B     		ldr	r3, .L7+8
  74 0042 4CF25030 		movw	r0, #50000
  75 0046 1D80     		strh	r5, [r3]	@ movhi
  76 0048 FFF7FEFF 		bl	FLASH_WaitForLastOperation
  77 004c 2369     		ldr	r3, [r4, #16]
  78 004e 23F01003 		bic	r3, r3, #16
  79 0052 2361     		str	r3, [r4, #16]
  80              	.L5:
  81 0054 38BD     		pop	{r3, r4, r5, pc}
  82              	.L8:
  83 0056 00BF     		.align	2
  84              	.L7:
  85 0058 00000000 		.word	pFlash
  86 005c 00200240 		.word	1073881088
  87 0060 00F8FF1F 		.word	536868864
  89              		.section	.text.HAL_FLASHEx_OBErase,"ax",%progbits
  90              		.align	1
  91              		.global	HAL_FLASHEx_OBErase
  92              		.thumb
  93              		.thumb_func
  95              	HAL_FLASHEx_OBErase:
  96              		@ args = 0, pretend = 0, frame = 0
  97              		@ frame_needed = 0, uses_anonymous_args = 0
  98 0000 38B5     		push	{r3, r4, r5, lr}
  99 0002 134C     		ldr	r4, .L13
 100 0004 4CF25030 		movw	r0, #50000
 101 0008 E369     		ldr	r3, [r4, #28]
 102 000a 13F0020F 		tst	r3, #2
 103 000e 14BF     		ite	ne
 104 0010 0025     		movne	r5, #0
 105 0012 A525     		moveq	r5, #165
 106 0014 FFF7FEFF 		bl	FLASH_WaitForLastOperation
 107 0018 0346     		mov	r3, r0
 108 001a BBB9     		cbnz	r3, .L11
 109 001c 0D4A     		ldr	r2, .L13+4
 110 001e 4CF25030 		movw	r0, #50000
 111 0022 D361     		str	r3, [r2, #28]
 112 0024 2369     		ldr	r3, [r4, #16]
 113 0026 43F02003 		orr	r3, r3, #32
 114 002a 2361     		str	r3, [r4, #16]
 115 002c 2369     		ldr	r3, [r4, #16]
 116 002e 43F04003 		orr	r3, r3, #64
 117 0032 2361     		str	r3, [r4, #16]
 118 0034 FFF7FEFF 		bl	FLASH_WaitForLastOperation
 119 0038 2369     		ldr	r3, [r4, #16]
ARM GAS  /tmp/ccs9G0wd.s 			page 3


 120 003a 23F02003 		bic	r3, r3, #32
 121 003e 2361     		str	r3, [r4, #16]
 122 0040 20B9     		cbnz	r0, .L11
 123 0042 2846     		mov	r0, r5
 124 0044 BDE83840 		pop	{r3, r4, r5, lr}
 125 0048 FFF7FEBF 		b	FLASH_OB_RDP_LevelConfig
 126              	.L11:
 127 004c 38BD     		pop	{r3, r4, r5, pc}
 128              	.L14:
 129 004e 00BF     		.align	2
 130              	.L13:
 131 0050 00200240 		.word	1073881088
 132 0054 00000000 		.word	pFlash
 134              		.section	.text.HAL_FLASHEx_OBProgram,"ax",%progbits
 135              		.align	1
 136              		.global	HAL_FLASHEx_OBProgram
 137              		.thumb
 138              		.thumb_func
 140              	HAL_FLASHEx_OBProgram:
 141              		@ args = 0, pretend = 0, frame = 0
 142              		@ frame_needed = 0, uses_anonymous_args = 0
 143 0000 2DE9F041 		push	{r4, r5, r6, r7, r8, lr}
 144 0004 484C     		ldr	r4, .L59
 145 0006 0546     		mov	r5, r0
 146 0008 237E     		ldrb	r3, [r4, #24]	@ zero_extendqisi2
 147 000a 012B     		cmp	r3, #1
 148 000c 00F08980 		beq	.L29
 149 0010 2B68     		ldr	r3, [r5]
 150 0012 0120     		movs	r0, #1
 151 0014 DE07     		lsls	r6, r3, #31
 152 0016 2076     		strb	r0, [r4, #24]
 153 0018 40D5     		bpl	.L17
 154 001a 6B68     		ldr	r3, [r5, #4]
 155 001c 434F     		ldr	r7, .L59+4
 156 001e 8342     		cmp	r3, r0
 157 0020 AE68     		ldr	r6, [r5, #8]
 158 0022 D7F82080 		ldr	r8, [r7, #32]
 159 0026 4CF25030 		movw	r0, #50000
 160 002a 15D1     		bne	.L18
 161 002c FFF7FEFF 		bl	FLASH_WaitForLastOperation
 162 0030 0028     		cmp	r0, #0
 163 0032 72D1     		bne	.L26
 164 0034 E061     		str	r0, [r4, #28]
 165 0036 FFF7FEFF 		bl	HAL_FLASHEx_OBErase
 166 003a 0028     		cmp	r0, #0
 167 003c 6DD1     		bne	.L26
 168 003e 3B69     		ldr	r3, [r7, #16]
 169 0040 28EA0606 		bic	r6, r8, r6
 170 0044 F6B2     		uxtb	r6, r6
 171 0046 43F01003 		orr	r3, r3, #16
 172 004a FF2E     		cmp	r6, #255
 173 004c 3B61     		str	r3, [r7, #16]
 174 004e 1ED0     		beq	.L22
 175 0050 374A     		ldr	r2, .L59+8
 176 0052 1389     		ldrh	r3, [r2, #8]
 177 0054 1E40     		ands	r6, r6, r3
 178 0056 15E0     		b	.L58
ARM GAS  /tmp/ccs9G0wd.s 			page 4


 179              	.L18:
 180 0058 FFF7FEFF 		bl	FLASH_WaitForLastOperation
 181 005c 0028     		cmp	r0, #0
 182 005e 5CD1     		bne	.L26
 183 0060 E061     		str	r0, [r4, #28]
 184 0062 FFF7FEFF 		bl	HAL_FLASHEx_OBErase
 185 0066 0028     		cmp	r0, #0
 186 0068 57D1     		bne	.L26
 187 006a 3B69     		ldr	r3, [r7, #16]
 188 006c 48EA0606 		orr	r6, r8, r6
 189 0070 F6B2     		uxtb	r6, r6
 190 0072 43F01003 		orr	r3, r3, #16
 191 0076 FF2E     		cmp	r6, #255
 192 0078 3B61     		str	r3, [r7, #16]
 193 007a 08D0     		beq	.L22
 194 007c 2C4A     		ldr	r2, .L59+8
 195 007e 1389     		ldrh	r3, [r2, #8]
 196 0080 9BB2     		uxth	r3, r3
 197 0082 1E43     		orrs	r6, r6, r3
 198              	.L58:
 199 0084 1681     		strh	r6, [r2, #8]	@ movhi
 200 0086 4CF25030 		movw	r0, #50000
 201 008a FFF7FEFF 		bl	FLASH_WaitForLastOperation
 202              	.L22:
 203 008e 274A     		ldr	r2, .L59+4
 204 0090 1369     		ldr	r3, [r2, #16]
 205 0092 23F01003 		bic	r3, r3, #16
 206 0096 1361     		str	r3, [r2, #16]
 207 0098 0028     		cmp	r0, #0
 208 009a 3ED1     		bne	.L26
 209              	.L17:
 210 009c 2B68     		ldr	r3, [r5]
 211 009e 9907     		lsls	r1, r3, #30
 212 00a0 04D5     		bpl	.L23
 213 00a2 287C     		ldrb	r0, [r5, #16]	@ zero_extendqisi2
 214 00a4 FFF7FEFF 		bl	FLASH_OB_RDP_LevelConfig
 215 00a8 0028     		cmp	r0, #0
 216 00aa 36D1     		bne	.L26
 217              	.L23:
 218 00ac 2B68     		ldr	r3, [r5]
 219 00ae 5A07     		lsls	r2, r3, #29
 220 00b0 19D5     		bpl	.L24
 221 00b2 4CF25030 		movw	r0, #50000
 222 00b6 6F7C     		ldrb	r7, [r5, #17]	@ zero_extendqisi2
 223 00b8 FFF7FEFF 		bl	FLASH_WaitForLastOperation
 224 00bc 0028     		cmp	r0, #0
 225 00be 2CD1     		bne	.L26
 226 00c0 1A4E     		ldr	r6, .L59+4
 227 00c2 E061     		str	r0, [r4, #28]
 228 00c4 3369     		ldr	r3, [r6, #16]
 229 00c6 47F08807 		orr	r7, r7, #136
 230 00ca 43F01003 		orr	r3, r3, #16
 231 00ce 3361     		str	r3, [r6, #16]
 232 00d0 174B     		ldr	r3, .L59+8
 233 00d2 4CF25030 		movw	r0, #50000
 234 00d6 5F80     		strh	r7, [r3, #2]	@ movhi
 235 00d8 FFF7FEFF 		bl	FLASH_WaitForLastOperation
ARM GAS  /tmp/ccs9G0wd.s 			page 5


 236 00dc 3369     		ldr	r3, [r6, #16]
 237 00de 23F01003 		bic	r3, r3, #16
 238 00e2 3361     		str	r3, [r6, #16]
 239 00e4 C8B9     		cbnz	r0, .L26
 240              	.L24:
 241 00e6 2B68     		ldr	r3, [r5]
 242 00e8 1B07     		lsls	r3, r3, #28
 243 00ea 16D5     		bpl	.L26
 244 00ec 4CF25030 		movw	r0, #50000
 245 00f0 6F69     		ldr	r7, [r5, #20]
 246 00f2 2E7E     		ldrb	r6, [r5, #24]	@ zero_extendqisi2
 247 00f4 FFF7FEFF 		bl	FLASH_WaitForLastOperation
 248 00f8 78B9     		cbnz	r0, .L26
 249 00fa 0C4D     		ldr	r5, .L59+4
 250 00fc E061     		str	r0, [r4, #28]
 251 00fe 2B69     		ldr	r3, [r5, #16]
 252 0100 B6B2     		uxth	r6, r6
 253 0102 43F01003 		orr	r3, r3, #16
 254 0106 2B61     		str	r3, [r5, #16]
 255 0108 4CF25030 		movw	r0, #50000
 256 010c 3E80     		strh	r6, [r7]	@ movhi
 257 010e FFF7FEFF 		bl	FLASH_WaitForLastOperation
 258 0112 2B69     		ldr	r3, [r5, #16]
 259 0114 23F01003 		bic	r3, r3, #16
 260 0118 2B61     		str	r3, [r5, #16]
 261              	.L26:
 262 011a 0023     		movs	r3, #0
 263 011c 2376     		strb	r3, [r4, #24]
 264 011e BDE8F081 		pop	{r4, r5, r6, r7, r8, pc}
 265              	.L29:
 266 0122 0220     		movs	r0, #2
 267 0124 BDE8F081 		pop	{r4, r5, r6, r7, r8, pc}
 268              	.L60:
 269              		.align	2
 270              	.L59:
 271 0128 00000000 		.word	pFlash
 272 012c 00200240 		.word	1073881088
 273 0130 00F8FF1F 		.word	536868864
 275              		.section	.text.HAL_FLASHEx_OBGetConfig,"ax",%progbits
 276              		.align	1
 277              		.global	HAL_FLASHEx_OBGetConfig
 278              		.thumb
 279              		.thumb_func
 281              	HAL_FLASHEx_OBGetConfig:
 282              		@ args = 0, pretend = 0, frame = 0
 283              		@ frame_needed = 0, uses_anonymous_args = 0
 284              		@ link register save eliminated.
 285 0000 0723     		movs	r3, #7
 286 0002 0360     		str	r3, [r0]
 287 0004 074B     		ldr	r3, .L64
 288 0006 1A6A     		ldr	r2, [r3, #32]
 289 0008 8260     		str	r2, [r0, #8]
 290 000a DA69     		ldr	r2, [r3, #28]
 291 000c 12F0020F 		tst	r2, #2
 292 0010 14BF     		ite	ne
 293 0012 0022     		movne	r2, #0
 294 0014 A522     		moveq	r2, #165
ARM GAS  /tmp/ccs9G0wd.s 			page 6


 295 0016 0274     		strb	r2, [r0, #16]
 296 0018 DB69     		ldr	r3, [r3, #28]
 297 001a C3F38203 		ubfx	r3, r3, #2, #3
 298 001e 4374     		strb	r3, [r0, #17]
 299 0020 7047     		bx	lr
 300              	.L65:
 301 0022 00BF     		.align	2
 302              	.L64:
 303 0024 00200240 		.word	1073881088
 305              		.section	.text.HAL_FLASHEx_OBGetUserData,"ax",%progbits
 306              		.align	1
 307              		.global	HAL_FLASHEx_OBGetUserData
 308              		.thumb
 309              		.thumb_func
 311              	HAL_FLASHEx_OBGetUserData:
 312              		@ args = 0, pretend = 0, frame = 0
 313              		@ frame_needed = 0, uses_anonymous_args = 0
 314              		@ link register save eliminated.
 315 0000 044B     		ldr	r3, .L69
 316 0002 9842     		cmp	r0, r3
 317 0004 044B     		ldr	r3, .L69+4
 318 0006 D869     		ldr	r0, [r3, #28]
 319 0008 0CBF     		ite	eq
 320 000a C0F38720 		ubfxeq	r0, r0, #10, #8
 321 000e C0F38740 		ubfxne	r0, r0, #18, #8
 322 0012 7047     		bx	lr
 323              	.L70:
 324              		.align	2
 325              	.L69:
 326 0014 04F8FF1F 		.word	536868868
 327 0018 00200240 		.word	1073881088
 329              		.section	.text.FLASH_PageErase,"ax",%progbits
 330              		.align	1
 331              		.global	FLASH_PageErase
 332              		.thumb
 333              		.thumb_func
 335              	FLASH_PageErase:
 336              		@ args = 0, pretend = 0, frame = 0
 337              		@ frame_needed = 0, uses_anonymous_args = 0
 338              		@ link register save eliminated.
 339 0000 064B     		ldr	r3, .L72
 340 0002 0022     		movs	r2, #0
 341 0004 DA61     		str	r2, [r3, #28]
 342 0006 064B     		ldr	r3, .L72+4
 343 0008 1A69     		ldr	r2, [r3, #16]
 344 000a 42F00202 		orr	r2, r2, #2
 345 000e 1A61     		str	r2, [r3, #16]
 346 0010 5861     		str	r0, [r3, #20]
 347 0012 1A69     		ldr	r2, [r3, #16]
 348 0014 42F04002 		orr	r2, r2, #64
 349 0018 1A61     		str	r2, [r3, #16]
 350 001a 7047     		bx	lr
 351              	.L73:
 352              		.align	2
 353              	.L72:
 354 001c 00000000 		.word	pFlash
 355 0020 00200240 		.word	1073881088
ARM GAS  /tmp/ccs9G0wd.s 			page 7


 357              		.section	.text.HAL_FLASHEx_Erase,"ax",%progbits
 358              		.align	1
 359              		.global	HAL_FLASHEx_Erase
 360              		.thumb
 361              		.thumb_func
 363              	HAL_FLASHEx_Erase:
 364              		@ args = 0, pretend = 0, frame = 0
 365              		@ frame_needed = 0, uses_anonymous_args = 0
 366 0000 2DE9F041 		push	{r4, r5, r6, r7, r8, lr}
 367 0004 234D     		ldr	r5, .L84
 368 0006 0746     		mov	r7, r0
 369 0008 2B7E     		ldrb	r3, [r5, #24]	@ zero_extendqisi2
 370 000a 8846     		mov	r8, r1
 371 000c 012B     		cmp	r3, #1
 372 000e 3ED0     		beq	.L83
 373 0010 0368     		ldr	r3, [r0]
 374 0012 0124     		movs	r4, #1
 375 0014 022B     		cmp	r3, #2
 376 0016 2C76     		strb	r4, [r5, #24]
 377 0018 4CF25030 		movw	r0, #50000
 378 001c 10D1     		bne	.L76
 379 001e FFF7FEFF 		bl	FLASH_WaitForLastOperation
 380 0022 08B1     		cbz	r0, .L77
 381              	.L79:
 382 0024 0120     		movs	r0, #1
 383 0026 2EE0     		b	.L78
 384              	.L77:
 385 0028 FFF7FEFF 		bl	FLASH_MassErase.isra.0
 386 002c 4CF25030 		movw	r0, #50000
 387 0030 FFF7FEFF 		bl	FLASH_WaitForLastOperation
 388 0034 184A     		ldr	r2, .L84+4
 389 0036 1369     		ldr	r3, [r2, #16]
 390 0038 23F00403 		bic	r3, r3, #4
 391 003c 1361     		str	r3, [r2, #16]
 392 003e 22E0     		b	.L78
 393              	.L76:
 394 0040 FFF7FEFF 		bl	FLASH_WaitForLastOperation
 395 0044 0028     		cmp	r0, #0
 396 0046 EDD1     		bne	.L79
 397 0048 2046     		mov	r0, r4
 398 004a 4FF0FF33 		mov	r3, #-1
 399 004e C8F80030 		str	r3, [r8]
 400 0052 BE68     		ldr	r6, [r7, #8]
 401              	.L80:
 402 0054 FA68     		ldr	r2, [r7, #12]
 403 0056 BB68     		ldr	r3, [r7, #8]
 404 0058 03EB8223 		add	r3, r3, r2, lsl #10
 405 005c 9E42     		cmp	r6, r3
 406 005e 12D2     		bcs	.L78
 407 0060 3046     		mov	r0, r6
 408 0062 FFF7FEFF 		bl	FLASH_PageErase
 409 0066 4CF25030 		movw	r0, #50000
 410 006a FFF7FEFF 		bl	FLASH_WaitForLastOperation
 411 006e 0A4A     		ldr	r2, .L84+4
 412 0070 1369     		ldr	r3, [r2, #16]
 413 0072 23F00203 		bic	r3, r3, #2
 414 0076 1361     		str	r3, [r2, #16]
ARM GAS  /tmp/ccs9G0wd.s 			page 8


 415 0078 10B1     		cbz	r0, .L81
 416 007a C8F80060 		str	r6, [r8]
 417 007e 02E0     		b	.L78
 418              	.L81:
 419 0080 06F58066 		add	r6, r6, #1024
 420 0084 E6E7     		b	.L80
 421              	.L78:
 422 0086 0023     		movs	r3, #0
 423 0088 2B76     		strb	r3, [r5, #24]
 424 008a BDE8F081 		pop	{r4, r5, r6, r7, r8, pc}
 425              	.L83:
 426 008e 0220     		movs	r0, #2
 427 0090 BDE8F081 		pop	{r4, r5, r6, r7, r8, pc}
 428              	.L85:
 429              		.align	2
 430              	.L84:
 431 0094 00000000 		.word	pFlash
 432 0098 00200240 		.word	1073881088
 434              		.section	.text.HAL_FLASHEx_Erase_IT,"ax",%progbits
 435              		.align	1
 436              		.global	HAL_FLASHEx_Erase_IT
 437              		.thumb
 438              		.thumb_func
 440              	HAL_FLASHEx_Erase_IT:
 441              		@ args = 0, pretend = 0, frame = 0
 442              		@ frame_needed = 0, uses_anonymous_args = 0
 443 0000 114A     		ldr	r2, .L92
 444 0002 38B5     		push	{r3, r4, r5, lr}
 445 0004 137E     		ldrb	r3, [r2, #24]	@ zero_extendqisi2
 446 0006 012B     		cmp	r3, #1
 447 0008 1AD0     		beq	.L89
 448 000a 1178     		ldrb	r1, [r2]	@ zero_extendqisi2
 449 000c 0123     		movs	r3, #1
 450 000e 1376     		strb	r3, [r2, #24]
 451 0010 01F0FF04 		and	r4, r1, #255
 452 0014 B1B9     		cbnz	r1, .L90
 453 0016 0D4D     		ldr	r5, .L92+4
 454 0018 2969     		ldr	r1, [r5, #16]
 455 001a 41F4A051 		orr	r1, r1, #5120
 456 001e 2961     		str	r1, [r5, #16]
 457 0020 0168     		ldr	r1, [r0]
 458 0022 0229     		cmp	r1, #2
 459 0024 03D1     		bne	.L88
 460 0026 1170     		strb	r1, [r2]
 461 0028 FFF7FEFF 		bl	FLASH_MassErase.isra.0
 462 002c 06E0     		b	.L91
 463              	.L88:
 464 002e 1370     		strb	r3, [r2]
 465 0030 C368     		ldr	r3, [r0, #12]
 466 0032 8068     		ldr	r0, [r0, #8]
 467 0034 5360     		str	r3, [r2, #4]
 468 0036 9060     		str	r0, [r2, #8]
 469 0038 FFF7FEFF 		bl	FLASH_PageErase
 470              	.L91:
 471 003c 2046     		mov	r0, r4
 472 003e 38BD     		pop	{r3, r4, r5, pc}
 473              	.L89:
ARM GAS  /tmp/ccs9G0wd.s 			page 9


 474 0040 0220     		movs	r0, #2
 475 0042 38BD     		pop	{r3, r4, r5, pc}
 476              	.L90:
 477 0044 1846     		mov	r0, r3
 478 0046 38BD     		pop	{r3, r4, r5, pc}
 479              	.L93:
 480              		.align	2
 481              	.L92:
 482 0048 00000000 		.word	pFlash
 483 004c 00200240 		.word	1073881088
 485              		.ident	"GCC: (15:4.9.3+svn231177-1) 4.9.3 20150529 (prerelease)"
ARM GAS  /tmp/ccs9G0wd.s 			page 10


DEFINED SYMBOLS
                            *ABS*:0000000000000000 stm32f1xx_hal_flash_ex.c
     /tmp/ccs9G0wd.s:16     .text.FLASH_MassErase.isra.0:0000000000000000 $t
     /tmp/ccs9G0wd.s:20     .text.FLASH_MassErase.isra.0:0000000000000000 FLASH_MassErase.isra.0
     /tmp/ccs9G0wd.s:38     .text.FLASH_MassErase.isra.0:000000000000001c $d
     /tmp/ccs9G0wd.s:42     .text.FLASH_OB_RDP_LevelConfig:0000000000000000 $t
     /tmp/ccs9G0wd.s:46     .text.FLASH_OB_RDP_LevelConfig:0000000000000000 FLASH_OB_RDP_LevelConfig
     /tmp/ccs9G0wd.s:85     .text.FLASH_OB_RDP_LevelConfig:0000000000000058 $d
     /tmp/ccs9G0wd.s:90     .text.HAL_FLASHEx_OBErase:0000000000000000 $t
     /tmp/ccs9G0wd.s:95     .text.HAL_FLASHEx_OBErase:0000000000000000 HAL_FLASHEx_OBErase
     /tmp/ccs9G0wd.s:131    .text.HAL_FLASHEx_OBErase:0000000000000050 $d
     /tmp/ccs9G0wd.s:135    .text.HAL_FLASHEx_OBProgram:0000000000000000 $t
     /tmp/ccs9G0wd.s:140    .text.HAL_FLASHEx_OBProgram:0000000000000000 HAL_FLASHEx_OBProgram
     /tmp/ccs9G0wd.s:271    .text.HAL_FLASHEx_OBProgram:0000000000000128 $d
     /tmp/ccs9G0wd.s:276    .text.HAL_FLASHEx_OBGetConfig:0000000000000000 $t
     /tmp/ccs9G0wd.s:281    .text.HAL_FLASHEx_OBGetConfig:0000000000000000 HAL_FLASHEx_OBGetConfig
     /tmp/ccs9G0wd.s:303    .text.HAL_FLASHEx_OBGetConfig:0000000000000024 $d
     /tmp/ccs9G0wd.s:306    .text.HAL_FLASHEx_OBGetUserData:0000000000000000 $t
     /tmp/ccs9G0wd.s:311    .text.HAL_FLASHEx_OBGetUserData:0000000000000000 HAL_FLASHEx_OBGetUserData
     /tmp/ccs9G0wd.s:326    .text.HAL_FLASHEx_OBGetUserData:0000000000000014 $d
     /tmp/ccs9G0wd.s:330    .text.FLASH_PageErase:0000000000000000 $t
     /tmp/ccs9G0wd.s:335    .text.FLASH_PageErase:0000000000000000 FLASH_PageErase
     /tmp/ccs9G0wd.s:354    .text.FLASH_PageErase:000000000000001c $d
     /tmp/ccs9G0wd.s:358    .text.HAL_FLASHEx_Erase:0000000000000000 $t
     /tmp/ccs9G0wd.s:363    .text.HAL_FLASHEx_Erase:0000000000000000 HAL_FLASHEx_Erase
     /tmp/ccs9G0wd.s:431    .text.HAL_FLASHEx_Erase:0000000000000094 $d
     /tmp/ccs9G0wd.s:435    .text.HAL_FLASHEx_Erase_IT:0000000000000000 $t
     /tmp/ccs9G0wd.s:440    .text.HAL_FLASHEx_Erase_IT:0000000000000000 HAL_FLASHEx_Erase_IT
     /tmp/ccs9G0wd.s:482    .text.HAL_FLASHEx_Erase_IT:0000000000000048 $d

UNDEFINED SYMBOLS
pFlash
FLASH_WaitForLastOperation
