ARM GAS  /tmp/cceJvfNE.s 			page 1


   1              		.syntax unified
   2              		.cpu cortex-m3
   3              		.fpu softvfp
   4              		.eabi_attribute 20, 1
   5              		.eabi_attribute 21, 1
   6              		.eabi_attribute 23, 3
   7              		.eabi_attribute 24, 1
   8              		.eabi_attribute 25, 1
   9              		.eabi_attribute 26, 1
  10              		.eabi_attribute 30, 1
  11              		.eabi_attribute 34, 1
  12              		.eabi_attribute 18, 4
  13              		.thumb
  14              		.file	"stm32f1xx_hal_rcc_ex.c"
  15              		.section	.text.HAL_RCCEx_PeriphCLKConfig,"ax",%progbits
  16              		.align	2
  17              		.global	HAL_RCCEx_PeriphCLKConfig
  18              		.thumb
  19              		.thumb_func
  21              	HAL_RCCEx_PeriphCLKConfig:
  22              		@ args = 0, pretend = 0, frame = 8
  23              		@ frame_needed = 0, uses_anonymous_args = 0
  24 0000 70B5     		push	{r4, r5, r6, lr}
  25 0002 82B0     		sub	sp, sp, #8
  26 0004 0446     		mov	r4, r0
  27 0006 0368     		ldr	r3, [r0]
  28 0008 13F0010F 		tst	r3, #1
  29 000c 5CD0     		beq	.L2
  30 000e 3E4B     		ldr	r3, .L17
  31 0010 DB69     		ldr	r3, [r3, #28]
  32 0012 13F0805F 		tst	r3, #268435456
  33 0016 0BD1     		bne	.L12
  34 0018 3B4B     		ldr	r3, .L17
  35 001a DA69     		ldr	r2, [r3, #28]
  36 001c 42F08052 		orr	r2, r2, #268435456
  37 0020 DA61     		str	r2, [r3, #28]
  38 0022 DB69     		ldr	r3, [r3, #28]
  39 0024 03F08053 		and	r3, r3, #268435456
  40 0028 0193     		str	r3, [sp, #4]
  41 002a 019B     		ldr	r3, [sp, #4]
  42 002c 0126     		movs	r6, #1
  43 002e 00E0     		b	.L3
  44              	.L12:
  45 0030 0026     		movs	r6, #0
  46              	.L3:
  47 0032 364B     		ldr	r3, .L17+4
  48 0034 1B68     		ldr	r3, [r3]
  49 0036 13F4807F 		tst	r3, #256
  50 003a 12D1     		bne	.L4
  51 003c 334A     		ldr	r2, .L17+4
  52 003e 1368     		ldr	r3, [r2]
  53 0040 43F48073 		orr	r3, r3, #256
  54 0044 1360     		str	r3, [r2]
  55 0046 FFF7FEFF 		bl	HAL_GetTick
  56 004a 0546     		mov	r5, r0
  57 004c 04E0     		b	.L5
  58              	.L7:
ARM GAS  /tmp/cceJvfNE.s 			page 2


  59 004e FFF7FEFF 		bl	HAL_GetTick
  60 0052 401B     		subs	r0, r0, r5
  61 0054 6428     		cmp	r0, #100
  62 0056 4FD8     		bhi	.L13
  63              	.L5:
  64 0058 2C4B     		ldr	r3, .L17+4
  65 005a 1B68     		ldr	r3, [r3]
  66 005c 13F4807F 		tst	r3, #256
  67 0060 F5D0     		beq	.L7
  68              	.L4:
  69 0062 294B     		ldr	r3, .L17
  70 0064 1B6A     		ldr	r3, [r3, #32]
  71 0066 13F44073 		ands	r3, r3, #768
  72 006a 21D0     		beq	.L8
  73 006c 6268     		ldr	r2, [r4, #4]
  74 006e 02F44072 		and	r2, r2, #768
  75 0072 9A42     		cmp	r2, r3
  76 0074 1CD0     		beq	.L8
  77 0076 244A     		ldr	r2, .L17
  78 0078 136A     		ldr	r3, [r2, #32]
  79 007a 23F44070 		bic	r0, r3, #768
  80 007e 2449     		ldr	r1, .L17+8
  81 0080 0125     		movs	r5, #1
  82 0082 0D60     		str	r5, [r1]
  83 0084 0025     		movs	r5, #0
  84 0086 0D60     		str	r5, [r1]
  85 0088 1062     		str	r0, [r2, #32]
  86 008a 13F0010F 		tst	r3, #1
  87 008e 0FD0     		beq	.L8
  88 0090 FFF7FEFF 		bl	HAL_GetTick
  89 0094 0546     		mov	r5, r0
  90 0096 06E0     		b	.L9
  91              	.L10:
  92 0098 FFF7FEFF 		bl	HAL_GetTick
  93 009c 401B     		subs	r0, r0, r5
  94 009e 41F28833 		movw	r3, #5000
  95 00a2 9842     		cmp	r0, r3
  96 00a4 2AD8     		bhi	.L14
  97              	.L9:
  98 00a6 184B     		ldr	r3, .L17
  99 00a8 1B6A     		ldr	r3, [r3, #32]
 100 00aa 13F0020F 		tst	r3, #2
 101 00ae F3D0     		beq	.L10
 102              	.L8:
 103 00b0 1549     		ldr	r1, .L17
 104 00b2 0B6A     		ldr	r3, [r1, #32]
 105 00b4 23F44072 		bic	r2, r3, #768
 106 00b8 6368     		ldr	r3, [r4, #4]
 107 00ba 1343     		orrs	r3, r3, r2
 108 00bc 0B62     		str	r3, [r1, #32]
 109 00be 1EB1     		cbz	r6, .L2
 110 00c0 CB69     		ldr	r3, [r1, #28]
 111 00c2 23F08053 		bic	r3, r3, #268435456
 112 00c6 CB61     		str	r3, [r1, #28]
 113              	.L2:
 114 00c8 2368     		ldr	r3, [r4]
 115 00ca 13F0020F 		tst	r3, #2
ARM GAS  /tmp/cceJvfNE.s 			page 3


 116 00ce 06D0     		beq	.L11
 117 00d0 0D49     		ldr	r1, .L17
 118 00d2 4B68     		ldr	r3, [r1, #4]
 119 00d4 23F44042 		bic	r2, r3, #49152
 120 00d8 A368     		ldr	r3, [r4, #8]
 121 00da 1343     		orrs	r3, r3, r2
 122 00dc 4B60     		str	r3, [r1, #4]
 123              	.L11:
 124 00de 2368     		ldr	r3, [r4]
 125 00e0 13F0100F 		tst	r3, #16
 126 00e4 0CD0     		beq	.L15
 127 00e6 0849     		ldr	r1, .L17
 128 00e8 4B68     		ldr	r3, [r1, #4]
 129 00ea 23F48002 		bic	r2, r3, #4194304
 130 00ee E368     		ldr	r3, [r4, #12]
 131 00f0 1343     		orrs	r3, r3, r2
 132 00f2 4B60     		str	r3, [r1, #4]
 133 00f4 0020     		movs	r0, #0
 134 00f6 04E0     		b	.L6
 135              	.L13:
 136 00f8 0320     		movs	r0, #3
 137 00fa 02E0     		b	.L6
 138              	.L14:
 139 00fc 0320     		movs	r0, #3
 140 00fe 00E0     		b	.L6
 141              	.L15:
 142 0100 0020     		movs	r0, #0
 143              	.L6:
 144 0102 02B0     		add	sp, sp, #8
 145              		@ sp needed
 146 0104 70BD     		pop	{r4, r5, r6, pc}
 147              	.L18:
 148 0106 00BF     		.align	2
 149              	.L17:
 150 0108 00100240 		.word	1073876992
 151 010c 00700040 		.word	1073770496
 152 0110 40044242 		.word	1111622720
 154              		.section	.text.HAL_RCCEx_GetPeriphCLKConfig,"ax",%progbits
 155              		.align	2
 156              		.global	HAL_RCCEx_GetPeriphCLKConfig
 157              		.thumb
 158              		.thumb_func
 160              	HAL_RCCEx_GetPeriphCLKConfig:
 161              		@ args = 0, pretend = 0, frame = 0
 162              		@ frame_needed = 0, uses_anonymous_args = 0
 163              		@ link register save eliminated.
 164 0000 0123     		movs	r3, #1
 165 0002 0360     		str	r3, [r0]
 166 0004 084B     		ldr	r3, .L20
 167 0006 1A6A     		ldr	r2, [r3, #32]
 168 0008 02F44072 		and	r2, r2, #768
 169 000c 4260     		str	r2, [r0, #4]
 170 000e 0322     		movs	r2, #3
 171 0010 0260     		str	r2, [r0]
 172 0012 5A68     		ldr	r2, [r3, #4]
 173 0014 02F44042 		and	r2, r2, #49152
 174 0018 8260     		str	r2, [r0, #8]
ARM GAS  /tmp/cceJvfNE.s 			page 4


 175 001a 1322     		movs	r2, #19
 176 001c 0260     		str	r2, [r0]
 177 001e 5B68     		ldr	r3, [r3, #4]
 178 0020 03F48003 		and	r3, r3, #4194304
 179 0024 C360     		str	r3, [r0, #12]
 180 0026 7047     		bx	lr
 181              	.L21:
 182              		.align	2
 183              	.L20:
 184 0028 00100240 		.word	1073876992
 186              		.section	.text.HAL_RCCEx_GetPeriphCLKFreq,"ax",%progbits
 187              		.align	2
 188              		.global	HAL_RCCEx_GetPeriphCLKFreq
 189              		.thumb
 190              		.thumb_func
 192              	HAL_RCCEx_GetPeriphCLKFreq:
 193              		@ args = 0, pretend = 0, frame = 24
 194              		@ frame_needed = 0, uses_anonymous_args = 0
 195 0000 70B5     		push	{r4, r5, r6, lr}
 196 0002 86B0     		sub	sp, sp, #24
 197 0004 0646     		mov	r6, r0
 198 0006 3B4D     		ldr	r5, .L39
 199 0008 02AC     		add	r4, sp, #8
 200 000a 2868     		ldr	r0, [r5]	@ unaligned
 201 000c 6968     		ldr	r1, [r5, #4]	@ unaligned
 202 000e AA68     		ldr	r2, [r5, #8]	@ unaligned
 203 0010 EB68     		ldr	r3, [r5, #12]	@ unaligned
 204 0012 0FC4     		stmia	r4!, {r0, r1, r2, r3}
 205 0014 2B8A     		ldrh	r3, [r5, #16]	@ unaligned
 206 0016 ADF80430 		strh	r3, [sp, #4]	@ unaligned
 207 001a 022E     		cmp	r6, #2
 208 001c 4ED0     		beq	.L24
 209 001e 102E     		cmp	r6, #16
 210 0020 02D0     		beq	.L25
 211 0022 012E     		cmp	r6, #1
 212 0024 55D1     		bne	.L37
 213 0026 2DE0     		b	.L26
 214              	.L25:
 215 0028 334B     		ldr	r3, .L39+4
 216 002a 5A68     		ldr	r2, [r3, #4]
 217 002c 1B68     		ldr	r3, [r3]
 218 002e 13F0807F 		tst	r3, #16777216
 219 0032 50D0     		beq	.L31
 220 0034 C2F38343 		ubfx	r3, r2, #18, #4
 221 0038 06A9     		add	r1, sp, #24
 222 003a 0B44     		add	r3, r3, r1
 223 003c 13F8103C 		ldrb	r3, [r3, #-16]	@ zero_extendqisi2
 224 0040 12F48032 		ands	r2, r2, #65536
 225 0044 0ED0     		beq	.L27
 226 0046 2C49     		ldr	r1, .L39+4
 227 0048 4968     		ldr	r1, [r1, #4]
 228 004a C1F34041 		ubfx	r1, r1, #17, #1
 229 004e 06A8     		add	r0, sp, #24
 230 0050 0144     		add	r1, r1, r0
 231 0052 11F8140C 		ldrb	r0, [r1, #-20]	@ zero_extendqisi2
 232 0056 4AB1     		cbz	r2, .L32
 233 0058 284A     		ldr	r2, .L39+8
ARM GAS  /tmp/cceJvfNE.s 			page 5


 234 005a B2FBF0F0 		udiv	r0, r2, r0
 235 005e 03FB00F0 		mul	r0, r3, r0
 236 0062 04E0     		b	.L28
 237              	.L27:
 238 0064 2648     		ldr	r0, .L39+12
 239 0066 00FB03F0 		mul	r0, r0, r3
 240 006a 00E0     		b	.L28
 241              	.L32:
 242 006c 0020     		movs	r0, #0
 243              	.L28:
 244 006e 224B     		ldr	r3, .L39+4
 245 0070 5B68     		ldr	r3, [r3, #4]
 246 0072 13F4800F 		tst	r3, #4194304
 247 0076 3AD1     		bne	.L23
 248 0078 4000     		lsls	r0, r0, #1
 249 007a 224B     		ldr	r3, .L39+16
 250 007c A3FB0030 		umull	r3, r0, r3, r0
 251 0080 4008     		lsrs	r0, r0, #1
 252 0082 34E0     		b	.L23
 253              	.L26:
 254 0084 1C4B     		ldr	r3, .L39+4
 255 0086 1B6A     		ldr	r3, [r3, #32]
 256 0088 40F20232 		movw	r2, #770
 257 008c 1A40     		ands	r2, r2, r3
 258 008e B2F5817F 		cmp	r2, #258
 259 0092 22D0     		beq	.L33
 260 0094 03F44073 		and	r3, r3, #768
 261 0098 B3F5007F 		cmp	r3, #512
 262 009c 04D1     		bne	.L29
 263 009e 164A     		ldr	r2, .L39+4
 264 00a0 526A     		ldr	r2, [r2, #36]
 265 00a2 12F0020F 		tst	r2, #2
 266 00a6 1BD1     		bne	.L34
 267              	.L29:
 268 00a8 B3F5407F 		cmp	r3, #768
 269 00ac 1BD1     		bne	.L35
 270 00ae 124B     		ldr	r3, .L39+4
 271 00b0 1B68     		ldr	r3, [r3]
 272 00b2 13F4003F 		tst	r3, #131072
 273 00b6 18D1     		bne	.L36
 274 00b8 0020     		movs	r0, #0
 275 00ba 18E0     		b	.L23
 276              	.L24:
 277 00bc FFF7FEFF 		bl	HAL_RCC_GetPCLK2Freq
 278 00c0 0D4B     		ldr	r3, .L39+4
 279 00c2 5B68     		ldr	r3, [r3, #4]
 280 00c4 C3F38133 		ubfx	r3, r3, #14, #2
 281 00c8 0133     		adds	r3, r3, #1
 282 00ca 5B00     		lsls	r3, r3, #1
 283 00cc B0FBF3F0 		udiv	r0, r0, r3
 284 00d0 0DE0     		b	.L23
 285              	.L37:
 286 00d2 0020     		movs	r0, #0
 287 00d4 0BE0     		b	.L23
 288              	.L31:
 289 00d6 0020     		movs	r0, #0
 290 00d8 09E0     		b	.L23
ARM GAS  /tmp/cceJvfNE.s 			page 6


 291              	.L33:
 292 00da 4FF40040 		mov	r0, #32768
 293 00de 06E0     		b	.L23
 294              	.L34:
 295 00e0 49F64040 		movw	r0, #40000
 296 00e4 03E0     		b	.L23
 297              	.L35:
 298 00e6 0020     		movs	r0, #0
 299 00e8 01E0     		b	.L23
 300              	.L36:
 301 00ea 4FF22440 		movw	r0, #62500
 302              	.L23:
 303 00ee 06B0     		add	sp, sp, #24
 304              		@ sp needed
 305 00f0 70BD     		pop	{r4, r5, r6, pc}
 306              	.L40:
 307 00f2 00BF     		.align	2
 308              	.L39:
 309 00f4 00000000 		.word	.LANCHOR0
 310 00f8 00100240 		.word	1073876992
 311 00fc 00127A00 		.word	8000000
 312 0100 00093D00 		.word	4000000
 313 0104 ABAAAAAA 		.word	-1431655765
 315              		.section	.rodata
 316              		.align	2
 317              		.set	.LANCHOR0,. + 0
 318              	.LC0:
 319 0000 02       		.byte	2
 320 0001 03       		.byte	3
 321 0002 04       		.byte	4
 322 0003 05       		.byte	5
 323 0004 06       		.byte	6
 324 0005 07       		.byte	7
 325 0006 08       		.byte	8
 326 0007 09       		.byte	9
 327 0008 0A       		.byte	10
 328 0009 0B       		.byte	11
 329 000a 0C       		.byte	12
 330 000b 0D       		.byte	13
 331 000c 0E       		.byte	14
 332 000d 0F       		.byte	15
 333 000e 10       		.byte	16
 334 000f 10       		.byte	16
 335              	.LC1:
 336 0010 01       		.byte	1
 337 0011 02       		.byte	2
 338              		.ident	"GCC: (15:4.9.3+svn231177-1) 4.9.3 20150529 (prerelease)"
ARM GAS  /tmp/cceJvfNE.s 			page 7

