ARM GAS  /tmp/ccGuF8yC.s 			page 1


   1              		.syntax unified
   2              		.cpu cortex-m3
   3              		.fpu softvfp
   4              		.eabi_attribute 20, 1
   5              		.eabi_attribute 21, 1
   6              		.eabi_attribute 23, 3
   7              		.eabi_attribute 24, 1
   8              		.eabi_attribute 25, 1
   9              		.eabi_attribute 26, 1
  10              		.eabi_attribute 30, 4
  11              		.eabi_attribute 34, 1
  12              		.eabi_attribute 18, 4
  13              		.thumb
  14              		.file	"stm32f1xx_hal_tim.c"
  15              		.section	.text.TIM_OC1_SetConfig,"ax",%progbits
  16              		.align	1
  17              		.thumb
  18              		.thumb_func
  20              	TIM_OC1_SetConfig:
  21              		@ args = 0, pretend = 0, frame = 0
  22              		@ frame_needed = 0, uses_anonymous_args = 0
  23 0000 036A     		ldr	r3, [r0, #32]
  24 0002 70B5     		push	{r4, r5, r6, lr}
  25 0004 23F00103 		bic	r3, r3, #1
  26 0008 0362     		str	r3, [r0, #32]
  27 000a 036A     		ldr	r3, [r0, #32]
  28 000c 4268     		ldr	r2, [r0, #4]
  29 000e 8469     		ldr	r4, [r0, #24]
  30 0010 0D68     		ldr	r5, [r1]
  31 0012 24F07304 		bic	r4, r4, #115
  32 0016 2543     		orrs	r5, r5, r4
  33 0018 23F00204 		bic	r4, r3, #2
  34 001c 8B68     		ldr	r3, [r1, #8]
  35 001e 2343     		orrs	r3, r3, r4
  36 0020 0A4C     		ldr	r4, .L4
  37 0022 A042     		cmp	r0, r4
  38 0024 0BD1     		bne	.L2
  39 0026 CC68     		ldr	r4, [r1, #12]
  40 0028 23F00803 		bic	r3, r3, #8
  41 002c 2343     		orrs	r3, r3, r4
  42 002e 8E69     		ldr	r6, [r1, #24]
  43 0030 4C69     		ldr	r4, [r1, #20]
  44 0032 22F44072 		bic	r2, r2, #768
  45 0036 3443     		orrs	r4, r4, r6
  46 0038 23F00403 		bic	r3, r3, #4
  47 003c 2243     		orrs	r2, r2, r4
  48              	.L2:
  49 003e 4260     		str	r2, [r0, #4]
  50 0040 4A68     		ldr	r2, [r1, #4]
  51 0042 8561     		str	r5, [r0, #24]
  52 0044 4263     		str	r2, [r0, #52]
  53 0046 0362     		str	r3, [r0, #32]
  54 0048 70BD     		pop	{r4, r5, r6, pc}
  55              	.L5:
  56 004a 00BF     		.align	2
  57              	.L4:
  58 004c 002C0140 		.word	1073818624
ARM GAS  /tmp/ccGuF8yC.s 			page 2


  60              		.section	.text.TIM_OC3_SetConfig,"ax",%progbits
  61              		.align	1
  62              		.thumb
  63              		.thumb_func
  65              	TIM_OC3_SetConfig:
  66              		@ args = 0, pretend = 0, frame = 0
  67              		@ frame_needed = 0, uses_anonymous_args = 0
  68 0000 036A     		ldr	r3, [r0, #32]
  69 0002 30B5     		push	{r4, r5, lr}
  70 0004 23F48073 		bic	r3, r3, #256
  71 0008 0362     		str	r3, [r0, #32]
  72 000a 036A     		ldr	r3, [r0, #32]
  73 000c 4268     		ldr	r2, [r0, #4]
  74 000e C469     		ldr	r4, [r0, #28]
  75 0010 0D68     		ldr	r5, [r1]
  76 0012 24F07304 		bic	r4, r4, #115
  77 0016 2C43     		orrs	r4, r4, r5
  78 0018 8D68     		ldr	r5, [r1, #8]
  79 001a 23F40073 		bic	r3, r3, #512
  80 001e 43EA0523 		orr	r3, r3, r5, lsl #8
  81 0022 0C4D     		ldr	r5, .L8
  82 0024 A842     		cmp	r0, r5
  83 0026 0ED1     		bne	.L7
  84 0028 CD68     		ldr	r5, [r1, #12]
  85 002a 23F40063 		bic	r3, r3, #2048
  86 002e 43EA0523 		orr	r3, r3, r5, lsl #8
  87 0032 4D69     		ldr	r5, [r1, #20]
  88 0034 22F44052 		bic	r2, r2, #12288
  89 0038 42EA0512 		orr	r2, r2, r5, lsl #4
  90 003c 8D69     		ldr	r5, [r1, #24]
  91 003e 23F48063 		bic	r3, r3, #1024
  92 0042 42EA0512 		orr	r2, r2, r5, lsl #4
  93              	.L7:
  94 0046 4260     		str	r2, [r0, #4]
  95 0048 4A68     		ldr	r2, [r1, #4]
  96 004a C461     		str	r4, [r0, #28]
  97 004c C263     		str	r2, [r0, #60]
  98 004e 0362     		str	r3, [r0, #32]
  99 0050 30BD     		pop	{r4, r5, pc}
 100              	.L9:
 101 0052 00BF     		.align	2
 102              	.L8:
 103 0054 002C0140 		.word	1073818624
 105              		.section	.text.TIM_OC4_SetConfig,"ax",%progbits
 106              		.align	1
 107              		.thumb
 108              		.thumb_func
 110              	TIM_OC4_SetConfig:
 111              		@ args = 0, pretend = 0, frame = 0
 112              		@ frame_needed = 0, uses_anonymous_args = 0
 113 0000 036A     		ldr	r3, [r0, #32]
 114 0002 30B5     		push	{r4, r5, lr}
 115 0004 23F48053 		bic	r3, r3, #4096
 116 0008 0362     		str	r3, [r0, #32]
 117 000a 036A     		ldr	r3, [r0, #32]
 118 000c 4468     		ldr	r4, [r0, #4]
 119 000e C269     		ldr	r2, [r0, #28]
ARM GAS  /tmp/ccGuF8yC.s 			page 3


 120 0010 0D68     		ldr	r5, [r1]
 121 0012 22F4E642 		bic	r2, r2, #29440
 122 0016 42EA0522 		orr	r2, r2, r5, lsl #8
 123 001a 8D68     		ldr	r5, [r1, #8]
 124 001c 23F40053 		bic	r3, r3, #8192
 125 0020 43EA0533 		orr	r3, r3, r5, lsl #12
 126 0024 064D     		ldr	r5, .L12
 127 0026 A842     		cmp	r0, r5
 128 0028 02BF     		ittt	eq
 129 002a 4D69     		ldreq	r5, [r1, #20]
 130 002c 24F48044 		biceq	r4, r4, #16384
 131 0030 44EA8514 		orreq	r4, r4, r5, lsl #6
 132 0034 4460     		str	r4, [r0, #4]
 133 0036 C261     		str	r2, [r0, #28]
 134 0038 4A68     		ldr	r2, [r1, #4]
 135 003a 0264     		str	r2, [r0, #64]
 136 003c 0362     		str	r3, [r0, #32]
 137 003e 30BD     		pop	{r4, r5, pc}
 138              	.L13:
 139              		.align	2
 140              	.L12:
 141 0040 002C0140 		.word	1073818624
 143              		.section	.text.HAL_TIM_Base_MspInit,"ax",%progbits
 144              		.align	1
 145              		.weak	HAL_TIM_Base_MspInit
 146              		.thumb
 147              		.thumb_func
 149              	HAL_TIM_Base_MspInit:
 150              		@ args = 0, pretend = 0, frame = 0
 151              		@ frame_needed = 0, uses_anonymous_args = 0
 152              		@ link register save eliminated.
 153 0000 7047     		bx	lr
 155              		.section	.text.HAL_TIM_Base_MspDeInit,"ax",%progbits
 156              		.align	1
 157              		.weak	HAL_TIM_Base_MspDeInit
 158              		.thumb
 159              		.thumb_func
 161              	HAL_TIM_Base_MspDeInit:
 162              		@ args = 0, pretend = 0, frame = 0
 163              		@ frame_needed = 0, uses_anonymous_args = 0
 164              		@ link register save eliminated.
 165 0000 7047     		bx	lr
 167              		.section	.text.HAL_TIM_Base_DeInit,"ax",%progbits
 168              		.align	1
 169              		.global	HAL_TIM_Base_DeInit
 170              		.thumb
 171              		.thumb_func
 173              	HAL_TIM_Base_DeInit:
 174              		@ args = 0, pretend = 0, frame = 0
 175              		@ frame_needed = 0, uses_anonymous_args = 0
 176 0000 41F21112 		movw	r2, #4369
 177 0004 0223     		movs	r3, #2
 178 0006 10B5     		push	{r4, lr}
 179 0008 80F83D30 		strb	r3, [r0, #61]
 180 000c 0368     		ldr	r3, [r0]
 181 000e 0446     		mov	r4, r0
 182 0010 196A     		ldr	r1, [r3, #32]
ARM GAS  /tmp/ccGuF8yC.s 			page 4


 183 0012 0A40     		ands	r2, r2, r1
 184 0014 42B9     		cbnz	r2, .L17
 185 0016 40F24442 		movw	r2, #1092
 186 001a 196A     		ldr	r1, [r3, #32]
 187 001c 0A40     		ands	r2, r2, r1
 188 001e 1AB9     		cbnz	r2, .L17
 189 0020 1A68     		ldr	r2, [r3]
 190 0022 22F00102 		bic	r2, r2, #1
 191 0026 1A60     		str	r2, [r3]
 192              	.L17:
 193 0028 2046     		mov	r0, r4
 194 002a FFF7FEFF 		bl	HAL_TIM_Base_MspDeInit
 195 002e 0020     		movs	r0, #0
 196 0030 84F83D00 		strb	r0, [r4, #61]
 197 0034 84F83C00 		strb	r0, [r4, #60]
 198 0038 10BD     		pop	{r4, pc}
 200              		.section	.text.HAL_TIM_Base_Start,"ax",%progbits
 201              		.align	1
 202              		.global	HAL_TIM_Base_Start
 203              		.thumb
 204              		.thumb_func
 206              	HAL_TIM_Base_Start:
 207              		@ args = 0, pretend = 0, frame = 0
 208              		@ frame_needed = 0, uses_anonymous_args = 0
 209              		@ link register save eliminated.
 210 0000 0223     		movs	r3, #2
 211 0002 80F83D30 		strb	r3, [r0, #61]
 212 0006 0368     		ldr	r3, [r0]
 213 0008 9A68     		ldr	r2, [r3, #8]
 214 000a 02F00702 		and	r2, r2, #7
 215 000e 062A     		cmp	r2, #6
 216 0010 1EBF     		ittt	ne
 217 0012 1A68     		ldrne	r2, [r3]
 218 0014 42F00102 		orrne	r2, r2, #1
 219 0018 1A60     		strne	r2, [r3]
 220 001a 0123     		movs	r3, #1
 221 001c 80F83D30 		strb	r3, [r0, #61]
 222 0020 0020     		movs	r0, #0
 223 0022 7047     		bx	lr
 225              		.section	.text.HAL_TIM_Base_Stop,"ax",%progbits
 226              		.align	1
 227              		.global	HAL_TIM_Base_Stop
 228              		.thumb
 229              		.thumb_func
 231              	HAL_TIM_Base_Stop:
 232              		@ args = 0, pretend = 0, frame = 0
 233              		@ frame_needed = 0, uses_anonymous_args = 0
 234              		@ link register save eliminated.
 235 0000 41F21112 		movw	r2, #4369
 236 0004 0223     		movs	r3, #2
 237 0006 80F83D30 		strb	r3, [r0, #61]
 238 000a 0368     		ldr	r3, [r0]
 239 000c 196A     		ldr	r1, [r3, #32]
 240 000e 0A40     		ands	r2, r2, r1
 241 0010 42B9     		cbnz	r2, .L24
 242 0012 40F24442 		movw	r2, #1092
 243 0016 196A     		ldr	r1, [r3, #32]
ARM GAS  /tmp/ccGuF8yC.s 			page 5


 244 0018 0A40     		ands	r2, r2, r1
 245 001a 1AB9     		cbnz	r2, .L24
 246 001c 1A68     		ldr	r2, [r3]
 247 001e 22F00102 		bic	r2, r2, #1
 248 0022 1A60     		str	r2, [r3]
 249              	.L24:
 250 0024 0123     		movs	r3, #1
 251 0026 80F83D30 		strb	r3, [r0, #61]
 252 002a 0020     		movs	r0, #0
 253 002c 7047     		bx	lr
 255              		.section	.text.HAL_TIM_Base_Start_IT,"ax",%progbits
 256              		.align	1
 257              		.global	HAL_TIM_Base_Start_IT
 258              		.thumb
 259              		.thumb_func
 261              	HAL_TIM_Base_Start_IT:
 262              		@ args = 0, pretend = 0, frame = 0
 263              		@ frame_needed = 0, uses_anonymous_args = 0
 264              		@ link register save eliminated.
 265 0000 0368     		ldr	r3, [r0]
 266 0002 0020     		movs	r0, #0
 267 0004 DA68     		ldr	r2, [r3, #12]
 268 0006 42F00102 		orr	r2, r2, #1
 269 000a DA60     		str	r2, [r3, #12]
 270 000c 9A68     		ldr	r2, [r3, #8]
 271 000e 02F00702 		and	r2, r2, #7
 272 0012 062A     		cmp	r2, #6
 273 0014 1EBF     		ittt	ne
 274 0016 1A68     		ldrne	r2, [r3]
 275 0018 42F00102 		orrne	r2, r2, #1
 276 001c 1A60     		strne	r2, [r3]
 277 001e 7047     		bx	lr
 279              		.section	.text.HAL_TIM_Base_Stop_IT,"ax",%progbits
 280              		.align	1
 281              		.global	HAL_TIM_Base_Stop_IT
 282              		.thumb
 283              		.thumb_func
 285              	HAL_TIM_Base_Stop_IT:
 286              		@ args = 0, pretend = 0, frame = 0
 287              		@ frame_needed = 0, uses_anonymous_args = 0
 288              		@ link register save eliminated.
 289 0000 0368     		ldr	r3, [r0]
 290 0002 DA68     		ldr	r2, [r3, #12]
 291 0004 22F00102 		bic	r2, r2, #1
 292 0008 DA60     		str	r2, [r3, #12]
 293 000a 41F21112 		movw	r2, #4369
 294 000e 196A     		ldr	r1, [r3, #32]
 295 0010 0A40     		ands	r2, r2, r1
 296 0012 42B9     		cbnz	r2, .L31
 297 0014 40F24442 		movw	r2, #1092
 298 0018 196A     		ldr	r1, [r3, #32]
 299 001a 0A40     		ands	r2, r2, r1
 300 001c 1AB9     		cbnz	r2, .L31
 301 001e 1A68     		ldr	r2, [r3]
 302 0020 22F00102 		bic	r2, r2, #1
 303 0024 1A60     		str	r2, [r3]
 304              	.L31:
ARM GAS  /tmp/ccGuF8yC.s 			page 6


 305 0026 0020     		movs	r0, #0
 306 0028 7047     		bx	lr
 308              		.section	.text.HAL_TIM_Base_Start_DMA,"ax",%progbits
 309              		.align	1
 310              		.global	HAL_TIM_Base_Start_DMA
 311              		.thumb
 312              		.thumb_func
 314              	HAL_TIM_Base_Start_DMA:
 315              		@ args = 0, pretend = 0, frame = 0
 316              		@ frame_needed = 0, uses_anonymous_args = 0
 317 0000 10B5     		push	{r4, lr}
 318 0002 0446     		mov	r4, r0
 319 0004 90F83D00 		ldrb	r0, [r0, #61]	@ zero_extendqisi2
 320 0008 1346     		mov	r3, r2
 321 000a C0B2     		uxtb	r0, r0
 322 000c 0228     		cmp	r0, #2
 323 000e 25D0     		beq	.L33
 324 0010 94F83D20 		ldrb	r2, [r4, #61]	@ zero_extendqisi2
 325 0014 012A     		cmp	r2, #1
 326 0016 06D1     		bne	.L34
 327 0018 11B9     		cbnz	r1, .L35
 328 001a 0BB1     		cbz	r3, .L35
 329              	.L36:
 330 001c 0120     		movs	r0, #1
 331 001e 10BD     		pop	{r4, pc}
 332              	.L35:
 333 0020 0222     		movs	r2, #2
 334 0022 84F83D20 		strb	r2, [r4, #61]
 335              	.L34:
 336 0026 206A     		ldr	r0, [r4, #32]
 337 0028 0D4A     		ldr	r2, .L44
 338 002a 8262     		str	r2, [r0, #40]
 339 002c 0D4A     		ldr	r2, .L44+4
 340 002e C262     		str	r2, [r0, #44]
 341 0030 0D4A     		ldr	r2, .L44+8
 342 0032 0263     		str	r2, [r0, #48]
 343 0034 2268     		ldr	r2, [r4]
 344 0036 2C32     		adds	r2, r2, #44
 345 0038 FFF7FEFF 		bl	HAL_DMA_Start_IT
 346 003c 0028     		cmp	r0, #0
 347 003e EDD1     		bne	.L36
 348 0040 2368     		ldr	r3, [r4]
 349 0042 DA68     		ldr	r2, [r3, #12]
 350 0044 42F48072 		orr	r2, r2, #256
 351 0048 DA60     		str	r2, [r3, #12]
 352 004a 9A68     		ldr	r2, [r3, #8]
 353 004c 02F00702 		and	r2, r2, #7
 354 0050 062A     		cmp	r2, #6
 355 0052 1EBF     		ittt	ne
 356 0054 1A68     		ldrne	r2, [r3]
 357 0056 42F00102 		orrne	r2, r2, #1
 358 005a 1A60     		strne	r2, [r3]
 359              	.L33:
 360 005c 10BD     		pop	{r4, pc}
 361              	.L45:
 362 005e 00BF     		.align	2
 363              	.L44:
ARM GAS  /tmp/ccGuF8yC.s 			page 7


 364 0060 00000000 		.word	TIM_DMAPeriodElapsedCplt
 365 0064 00000000 		.word	TIM_DMAPeriodElapsedHalfCplt
 366 0068 00000000 		.word	TIM_DMAError
 368              		.section	.text.HAL_TIM_Base_Stop_DMA,"ax",%progbits
 369              		.align	1
 370              		.global	HAL_TIM_Base_Stop_DMA
 371              		.thumb
 372              		.thumb_func
 374              	HAL_TIM_Base_Stop_DMA:
 375              		@ args = 0, pretend = 0, frame = 0
 376              		@ frame_needed = 0, uses_anonymous_args = 0
 377 0000 0268     		ldr	r2, [r0]
 378 0002 10B5     		push	{r4, lr}
 379 0004 D368     		ldr	r3, [r2, #12]
 380 0006 0446     		mov	r4, r0
 381 0008 23F48073 		bic	r3, r3, #256
 382 000c D360     		str	r3, [r2, #12]
 383 000e 006A     		ldr	r0, [r0, #32]
 384 0010 FFF7FEFF 		bl	HAL_DMA_Abort_IT
 385 0014 41F21112 		movw	r2, #4369
 386 0018 2368     		ldr	r3, [r4]
 387 001a 196A     		ldr	r1, [r3, #32]
 388 001c 0A40     		ands	r2, r2, r1
 389 001e 42B9     		cbnz	r2, .L47
 390 0020 40F24442 		movw	r2, #1092
 391 0024 196A     		ldr	r1, [r3, #32]
 392 0026 0A40     		ands	r2, r2, r1
 393 0028 1AB9     		cbnz	r2, .L47
 394 002a 1A68     		ldr	r2, [r3]
 395 002c 22F00102 		bic	r2, r2, #1
 396 0030 1A60     		str	r2, [r3]
 397              	.L47:
 398 0032 0123     		movs	r3, #1
 399 0034 84F83D30 		strb	r3, [r4, #61]
 400 0038 0020     		movs	r0, #0
 401 003a 10BD     		pop	{r4, pc}
 403              		.section	.text.HAL_TIM_OC_MspInit,"ax",%progbits
 404              		.align	1
 405              		.weak	HAL_TIM_OC_MspInit
 406              		.thumb
 407              		.thumb_func
 409              	HAL_TIM_OC_MspInit:
 410              		@ args = 0, pretend = 0, frame = 0
 411              		@ frame_needed = 0, uses_anonymous_args = 0
 412              		@ link register save eliminated.
 413 0000 7047     		bx	lr
 415              		.section	.text.HAL_TIM_OC_MspDeInit,"ax",%progbits
 416              		.align	1
 417              		.weak	HAL_TIM_OC_MspDeInit
 418              		.thumb
 419              		.thumb_func
 421              	HAL_TIM_OC_MspDeInit:
 422              		@ args = 0, pretend = 0, frame = 0
 423              		@ frame_needed = 0, uses_anonymous_args = 0
 424              		@ link register save eliminated.
 425 0000 7047     		bx	lr
 427              		.section	.text.HAL_TIM_OC_DeInit,"ax",%progbits
ARM GAS  /tmp/ccGuF8yC.s 			page 8


 428              		.align	1
 429              		.global	HAL_TIM_OC_DeInit
 430              		.thumb
 431              		.thumb_func
 433              	HAL_TIM_OC_DeInit:
 434              		@ args = 0, pretend = 0, frame = 0
 435              		@ frame_needed = 0, uses_anonymous_args = 0
 436 0000 41F21112 		movw	r2, #4369
 437 0004 0223     		movs	r3, #2
 438 0006 10B5     		push	{r4, lr}
 439 0008 80F83D30 		strb	r3, [r0, #61]
 440 000c 0368     		ldr	r3, [r0]
 441 000e 0446     		mov	r4, r0
 442 0010 196A     		ldr	r1, [r3, #32]
 443 0012 0A40     		ands	r2, r2, r1
 444 0014 42B9     		cbnz	r2, .L51
 445 0016 40F24442 		movw	r2, #1092
 446 001a 196A     		ldr	r1, [r3, #32]
 447 001c 0A40     		ands	r2, r2, r1
 448 001e 1AB9     		cbnz	r2, .L51
 449 0020 1A68     		ldr	r2, [r3]
 450 0022 22F00102 		bic	r2, r2, #1
 451 0026 1A60     		str	r2, [r3]
 452              	.L51:
 453 0028 2046     		mov	r0, r4
 454 002a FFF7FEFF 		bl	HAL_TIM_OC_MspDeInit
 455 002e 0020     		movs	r0, #0
 456 0030 84F83D00 		strb	r0, [r4, #61]
 457 0034 84F83C00 		strb	r0, [r4, #60]
 458 0038 10BD     		pop	{r4, pc}
 460              		.section	.text.HAL_TIM_PWM_MspInit,"ax",%progbits
 461              		.align	1
 462              		.weak	HAL_TIM_PWM_MspInit
 463              		.thumb
 464              		.thumb_func
 466              	HAL_TIM_PWM_MspInit:
 467              		@ args = 0, pretend = 0, frame = 0
 468              		@ frame_needed = 0, uses_anonymous_args = 0
 469              		@ link register save eliminated.
 470 0000 7047     		bx	lr
 472              		.section	.text.HAL_TIM_PWM_MspDeInit,"ax",%progbits
 473              		.align	1
 474              		.weak	HAL_TIM_PWM_MspDeInit
 475              		.thumb
 476              		.thumb_func
 478              	HAL_TIM_PWM_MspDeInit:
 479              		@ args = 0, pretend = 0, frame = 0
 480              		@ frame_needed = 0, uses_anonymous_args = 0
 481              		@ link register save eliminated.
 482 0000 7047     		bx	lr
 484              		.section	.text.HAL_TIM_PWM_DeInit,"ax",%progbits
 485              		.align	1
 486              		.global	HAL_TIM_PWM_DeInit
 487              		.thumb
 488              		.thumb_func
 490              	HAL_TIM_PWM_DeInit:
 491              		@ args = 0, pretend = 0, frame = 0
ARM GAS  /tmp/ccGuF8yC.s 			page 9


 492              		@ frame_needed = 0, uses_anonymous_args = 0
 493 0000 41F21112 		movw	r2, #4369
 494 0004 0223     		movs	r3, #2
 495 0006 10B5     		push	{r4, lr}
 496 0008 80F83D30 		strb	r3, [r0, #61]
 497 000c 0368     		ldr	r3, [r0]
 498 000e 0446     		mov	r4, r0
 499 0010 196A     		ldr	r1, [r3, #32]
 500 0012 0A40     		ands	r2, r2, r1
 501 0014 42B9     		cbnz	r2, .L55
 502 0016 40F24442 		movw	r2, #1092
 503 001a 196A     		ldr	r1, [r3, #32]
 504 001c 0A40     		ands	r2, r2, r1
 505 001e 1AB9     		cbnz	r2, .L55
 506 0020 1A68     		ldr	r2, [r3]
 507 0022 22F00102 		bic	r2, r2, #1
 508 0026 1A60     		str	r2, [r3]
 509              	.L55:
 510 0028 2046     		mov	r0, r4
 511 002a FFF7FEFF 		bl	HAL_TIM_PWM_MspDeInit
 512 002e 0020     		movs	r0, #0
 513 0030 84F83D00 		strb	r0, [r4, #61]
 514 0034 84F83C00 		strb	r0, [r4, #60]
 515 0038 10BD     		pop	{r4, pc}
 517              		.section	.text.HAL_TIM_IC_MspInit,"ax",%progbits
 518              		.align	1
 519              		.weak	HAL_TIM_IC_MspInit
 520              		.thumb
 521              		.thumb_func
 523              	HAL_TIM_IC_MspInit:
 524              		@ args = 0, pretend = 0, frame = 0
 525              		@ frame_needed = 0, uses_anonymous_args = 0
 526              		@ link register save eliminated.
 527 0000 7047     		bx	lr
 529              		.section	.text.HAL_TIM_IC_MspDeInit,"ax",%progbits
 530              		.align	1
 531              		.weak	HAL_TIM_IC_MspDeInit
 532              		.thumb
 533              		.thumb_func
 535              	HAL_TIM_IC_MspDeInit:
 536              		@ args = 0, pretend = 0, frame = 0
 537              		@ frame_needed = 0, uses_anonymous_args = 0
 538              		@ link register save eliminated.
 539 0000 7047     		bx	lr
 541              		.section	.text.HAL_TIM_IC_DeInit,"ax",%progbits
 542              		.align	1
 543              		.global	HAL_TIM_IC_DeInit
 544              		.thumb
 545              		.thumb_func
 547              	HAL_TIM_IC_DeInit:
 548              		@ args = 0, pretend = 0, frame = 0
 549              		@ frame_needed = 0, uses_anonymous_args = 0
 550 0000 41F21112 		movw	r2, #4369
 551 0004 0223     		movs	r3, #2
 552 0006 10B5     		push	{r4, lr}
 553 0008 80F83D30 		strb	r3, [r0, #61]
 554 000c 0368     		ldr	r3, [r0]
ARM GAS  /tmp/ccGuF8yC.s 			page 10


 555 000e 0446     		mov	r4, r0
 556 0010 196A     		ldr	r1, [r3, #32]
 557 0012 0A40     		ands	r2, r2, r1
 558 0014 42B9     		cbnz	r2, .L59
 559 0016 40F24442 		movw	r2, #1092
 560 001a 196A     		ldr	r1, [r3, #32]
 561 001c 0A40     		ands	r2, r2, r1
 562 001e 1AB9     		cbnz	r2, .L59
 563 0020 1A68     		ldr	r2, [r3]
 564 0022 22F00102 		bic	r2, r2, #1
 565 0026 1A60     		str	r2, [r3]
 566              	.L59:
 567 0028 2046     		mov	r0, r4
 568 002a FFF7FEFF 		bl	HAL_TIM_IC_MspDeInit
 569 002e 0020     		movs	r0, #0
 570 0030 84F83D00 		strb	r0, [r4, #61]
 571 0034 84F83C00 		strb	r0, [r4, #60]
 572 0038 10BD     		pop	{r4, pc}
 574              		.section	.text.HAL_TIM_OnePulse_MspInit,"ax",%progbits
 575              		.align	1
 576              		.weak	HAL_TIM_OnePulse_MspInit
 577              		.thumb
 578              		.thumb_func
 580              	HAL_TIM_OnePulse_MspInit:
 581              		@ args = 0, pretend = 0, frame = 0
 582              		@ frame_needed = 0, uses_anonymous_args = 0
 583              		@ link register save eliminated.
 584 0000 7047     		bx	lr
 586              		.section	.text.HAL_TIM_OnePulse_MspDeInit,"ax",%progbits
 587              		.align	1
 588              		.weak	HAL_TIM_OnePulse_MspDeInit
 589              		.thumb
 590              		.thumb_func
 592              	HAL_TIM_OnePulse_MspDeInit:
 593              		@ args = 0, pretend = 0, frame = 0
 594              		@ frame_needed = 0, uses_anonymous_args = 0
 595              		@ link register save eliminated.
 596 0000 7047     		bx	lr
 598              		.section	.text.HAL_TIM_OnePulse_DeInit,"ax",%progbits
 599              		.align	1
 600              		.global	HAL_TIM_OnePulse_DeInit
 601              		.thumb
 602              		.thumb_func
 604              	HAL_TIM_OnePulse_DeInit:
 605              		@ args = 0, pretend = 0, frame = 0
 606              		@ frame_needed = 0, uses_anonymous_args = 0
 607 0000 41F21112 		movw	r2, #4369
 608 0004 0223     		movs	r3, #2
 609 0006 10B5     		push	{r4, lr}
 610 0008 80F83D30 		strb	r3, [r0, #61]
 611 000c 0368     		ldr	r3, [r0]
 612 000e 0446     		mov	r4, r0
 613 0010 196A     		ldr	r1, [r3, #32]
 614 0012 0A40     		ands	r2, r2, r1
 615 0014 42B9     		cbnz	r2, .L63
 616 0016 40F24442 		movw	r2, #1092
 617 001a 196A     		ldr	r1, [r3, #32]
ARM GAS  /tmp/ccGuF8yC.s 			page 11


 618 001c 0A40     		ands	r2, r2, r1
 619 001e 1AB9     		cbnz	r2, .L63
 620 0020 1A68     		ldr	r2, [r3]
 621 0022 22F00102 		bic	r2, r2, #1
 622 0026 1A60     		str	r2, [r3]
 623              	.L63:
 624 0028 2046     		mov	r0, r4
 625 002a FFF7FEFF 		bl	HAL_TIM_OnePulse_MspDeInit
 626 002e 0020     		movs	r0, #0
 627 0030 84F83D00 		strb	r0, [r4, #61]
 628 0034 84F83C00 		strb	r0, [r4, #60]
 629 0038 10BD     		pop	{r4, pc}
 631              		.section	.text.HAL_TIM_OnePulse_Start,"ax",%progbits
 632              		.align	1
 633              		.global	HAL_TIM_OnePulse_Start
 634              		.thumb
 635              		.thumb_func
 637              	HAL_TIM_OnePulse_Start:
 638              		@ args = 0, pretend = 0, frame = 0
 639              		@ frame_needed = 0, uses_anonymous_args = 0
 640              		@ link register save eliminated.
 641 0000 0368     		ldr	r3, [r0]
 642 0002 0020     		movs	r0, #0
 643 0004 1A6A     		ldr	r2, [r3, #32]
 644 0006 22F00102 		bic	r2, r2, #1
 645 000a 1A62     		str	r2, [r3, #32]
 646 000c 1A6A     		ldr	r2, [r3, #32]
 647 000e 42F00102 		orr	r2, r2, #1
 648 0012 1A62     		str	r2, [r3, #32]
 649 0014 1A6A     		ldr	r2, [r3, #32]
 650 0016 22F01002 		bic	r2, r2, #16
 651 001a 1A62     		str	r2, [r3, #32]
 652 001c 1A6A     		ldr	r2, [r3, #32]
 653 001e 42F01002 		orr	r2, r2, #16
 654 0022 1A62     		str	r2, [r3, #32]
 655 0024 034A     		ldr	r2, .L66
 656 0026 9342     		cmp	r3, r2
 657 0028 02BF     		ittt	eq
 658 002a 5A6C     		ldreq	r2, [r3, #68]
 659 002c 42F40042 		orreq	r2, r2, #32768
 660 0030 5A64     		streq	r2, [r3, #68]
 661 0032 7047     		bx	lr
 662              	.L67:
 663              		.align	2
 664              	.L66:
 665 0034 002C0140 		.word	1073818624
 667              		.section	.text.HAL_TIM_OnePulse_Stop,"ax",%progbits
 668              		.align	1
 669              		.global	HAL_TIM_OnePulse_Stop
 670              		.thumb
 671              		.thumb_func
 673              	HAL_TIM_OnePulse_Stop:
 674              		@ args = 0, pretend = 0, frame = 0
 675              		@ frame_needed = 0, uses_anonymous_args = 0
 676              		@ link register save eliminated.
 677 0000 0368     		ldr	r3, [r0]
 678 0002 1A6A     		ldr	r2, [r3, #32]
ARM GAS  /tmp/ccGuF8yC.s 			page 12


 679 0004 22F00102 		bic	r2, r2, #1
 680 0008 1A62     		str	r2, [r3, #32]
 681 000a 1A6A     		ldr	r2, [r3, #32]
 682 000c 1A62     		str	r2, [r3, #32]
 683 000e 1A6A     		ldr	r2, [r3, #32]
 684 0010 22F01002 		bic	r2, r2, #16
 685 0014 1A62     		str	r2, [r3, #32]
 686 0016 1A6A     		ldr	r2, [r3, #32]
 687 0018 1A62     		str	r2, [r3, #32]
 688 001a 104A     		ldr	r2, .L71
 689 001c 9342     		cmp	r3, r2
 690 001e 0DD1     		bne	.L69
 691 0020 41F21112 		movw	r2, #4369
 692 0024 196A     		ldr	r1, [r3, #32]
 693 0026 0A40     		ands	r2, r2, r1
 694 0028 42B9     		cbnz	r2, .L69
 695 002a 40F24442 		movw	r2, #1092
 696 002e 196A     		ldr	r1, [r3, #32]
 697 0030 0A40     		ands	r2, r2, r1
 698 0032 1AB9     		cbnz	r2, .L69
 699 0034 5A6C     		ldr	r2, [r3, #68]
 700 0036 22F40042 		bic	r2, r2, #32768
 701 003a 5A64     		str	r2, [r3, #68]
 702              	.L69:
 703 003c 41F21112 		movw	r2, #4369
 704 0040 196A     		ldr	r1, [r3, #32]
 705 0042 0A40     		ands	r2, r2, r1
 706 0044 42B9     		cbnz	r2, .L70
 707 0046 40F24442 		movw	r2, #1092
 708 004a 196A     		ldr	r1, [r3, #32]
 709 004c 0A40     		ands	r2, r2, r1
 710 004e 1AB9     		cbnz	r2, .L70
 711 0050 1A68     		ldr	r2, [r3]
 712 0052 22F00102 		bic	r2, r2, #1
 713 0056 1A60     		str	r2, [r3]
 714              	.L70:
 715 0058 0020     		movs	r0, #0
 716 005a 7047     		bx	lr
 717              	.L72:
 718              		.align	2
 719              	.L71:
 720 005c 002C0140 		.word	1073818624
 722              		.section	.text.HAL_TIM_OnePulse_Start_IT,"ax",%progbits
 723              		.align	1
 724              		.global	HAL_TIM_OnePulse_Start_IT
 725              		.thumb
 726              		.thumb_func
 728              	HAL_TIM_OnePulse_Start_IT:
 729              		@ args = 0, pretend = 0, frame = 0
 730              		@ frame_needed = 0, uses_anonymous_args = 0
 731              		@ link register save eliminated.
 732 0000 0368     		ldr	r3, [r0]
 733 0002 0020     		movs	r0, #0
 734 0004 DA68     		ldr	r2, [r3, #12]
 735 0006 42F00202 		orr	r2, r2, #2
 736 000a DA60     		str	r2, [r3, #12]
 737 000c DA68     		ldr	r2, [r3, #12]
ARM GAS  /tmp/ccGuF8yC.s 			page 13


 738 000e 42F00402 		orr	r2, r2, #4
 739 0012 DA60     		str	r2, [r3, #12]
 740 0014 1A6A     		ldr	r2, [r3, #32]
 741 0016 22F00102 		bic	r2, r2, #1
 742 001a 1A62     		str	r2, [r3, #32]
 743 001c 1A6A     		ldr	r2, [r3, #32]
 744 001e 42F00102 		orr	r2, r2, #1
 745 0022 1A62     		str	r2, [r3, #32]
 746 0024 1A6A     		ldr	r2, [r3, #32]
 747 0026 22F01002 		bic	r2, r2, #16
 748 002a 1A62     		str	r2, [r3, #32]
 749 002c 1A6A     		ldr	r2, [r3, #32]
 750 002e 42F01002 		orr	r2, r2, #16
 751 0032 1A62     		str	r2, [r3, #32]
 752 0034 034A     		ldr	r2, .L75
 753 0036 9342     		cmp	r3, r2
 754 0038 02BF     		ittt	eq
 755 003a 5A6C     		ldreq	r2, [r3, #68]
 756 003c 42F40042 		orreq	r2, r2, #32768
 757 0040 5A64     		streq	r2, [r3, #68]
 758 0042 7047     		bx	lr
 759              	.L76:
 760              		.align	2
 761              	.L75:
 762 0044 002C0140 		.word	1073818624
 764              		.section	.text.HAL_TIM_OnePulse_Stop_IT,"ax",%progbits
 765              		.align	1
 766              		.global	HAL_TIM_OnePulse_Stop_IT
 767              		.thumb
 768              		.thumb_func
 770              	HAL_TIM_OnePulse_Stop_IT:
 771              		@ args = 0, pretend = 0, frame = 0
 772              		@ frame_needed = 0, uses_anonymous_args = 0
 773              		@ link register save eliminated.
 774 0000 0368     		ldr	r3, [r0]
 775 0002 DA68     		ldr	r2, [r3, #12]
 776 0004 22F00202 		bic	r2, r2, #2
 777 0008 DA60     		str	r2, [r3, #12]
 778 000a DA68     		ldr	r2, [r3, #12]
 779 000c 22F00402 		bic	r2, r2, #4
 780 0010 DA60     		str	r2, [r3, #12]
 781 0012 1A6A     		ldr	r2, [r3, #32]
 782 0014 22F00102 		bic	r2, r2, #1
 783 0018 1A62     		str	r2, [r3, #32]
 784 001a 1A6A     		ldr	r2, [r3, #32]
 785 001c 1A62     		str	r2, [r3, #32]
 786 001e 1A6A     		ldr	r2, [r3, #32]
 787 0020 22F01002 		bic	r2, r2, #16
 788 0024 1A62     		str	r2, [r3, #32]
 789 0026 1A6A     		ldr	r2, [r3, #32]
 790 0028 1A62     		str	r2, [r3, #32]
 791 002a 104A     		ldr	r2, .L80
 792 002c 9342     		cmp	r3, r2
 793 002e 0DD1     		bne	.L78
 794 0030 41F21112 		movw	r2, #4369
 795 0034 196A     		ldr	r1, [r3, #32]
 796 0036 0A40     		ands	r2, r2, r1
ARM GAS  /tmp/ccGuF8yC.s 			page 14


 797 0038 42B9     		cbnz	r2, .L78
 798 003a 40F24442 		movw	r2, #1092
 799 003e 196A     		ldr	r1, [r3, #32]
 800 0040 0A40     		ands	r2, r2, r1
 801 0042 1AB9     		cbnz	r2, .L78
 802 0044 5A6C     		ldr	r2, [r3, #68]
 803 0046 22F40042 		bic	r2, r2, #32768
 804 004a 5A64     		str	r2, [r3, #68]
 805              	.L78:
 806 004c 41F21112 		movw	r2, #4369
 807 0050 196A     		ldr	r1, [r3, #32]
 808 0052 0A40     		ands	r2, r2, r1
 809 0054 42B9     		cbnz	r2, .L79
 810 0056 40F24442 		movw	r2, #1092
 811 005a 196A     		ldr	r1, [r3, #32]
 812 005c 0A40     		ands	r2, r2, r1
 813 005e 1AB9     		cbnz	r2, .L79
 814 0060 1A68     		ldr	r2, [r3]
 815 0062 22F00102 		bic	r2, r2, #1
 816 0066 1A60     		str	r2, [r3]
 817              	.L79:
 818 0068 0020     		movs	r0, #0
 819 006a 7047     		bx	lr
 820              	.L81:
 821              		.align	2
 822              	.L80:
 823 006c 002C0140 		.word	1073818624
 825              		.section	.text.HAL_TIM_Encoder_MspInit,"ax",%progbits
 826              		.align	1
 827              		.weak	HAL_TIM_Encoder_MspInit
 828              		.thumb
 829              		.thumb_func
 831              	HAL_TIM_Encoder_MspInit:
 832              		@ args = 0, pretend = 0, frame = 0
 833              		@ frame_needed = 0, uses_anonymous_args = 0
 834              		@ link register save eliminated.
 835 0000 7047     		bx	lr
 837              		.section	.text.HAL_TIM_Encoder_MspDeInit,"ax",%progbits
 838              		.align	1
 839              		.weak	HAL_TIM_Encoder_MspDeInit
 840              		.thumb
 841              		.thumb_func
 843              	HAL_TIM_Encoder_MspDeInit:
 844              		@ args = 0, pretend = 0, frame = 0
 845              		@ frame_needed = 0, uses_anonymous_args = 0
 846              		@ link register save eliminated.
 847 0000 7047     		bx	lr
 849              		.section	.text.HAL_TIM_Encoder_DeInit,"ax",%progbits
 850              		.align	1
 851              		.global	HAL_TIM_Encoder_DeInit
 852              		.thumb
 853              		.thumb_func
 855              	HAL_TIM_Encoder_DeInit:
 856              		@ args = 0, pretend = 0, frame = 0
 857              		@ frame_needed = 0, uses_anonymous_args = 0
 858 0000 41F21112 		movw	r2, #4369
 859 0004 0223     		movs	r3, #2
ARM GAS  /tmp/ccGuF8yC.s 			page 15


 860 0006 10B5     		push	{r4, lr}
 861 0008 80F83D30 		strb	r3, [r0, #61]
 862 000c 0368     		ldr	r3, [r0]
 863 000e 0446     		mov	r4, r0
 864 0010 196A     		ldr	r1, [r3, #32]
 865 0012 0A40     		ands	r2, r2, r1
 866 0014 42B9     		cbnz	r2, .L85
 867 0016 40F24442 		movw	r2, #1092
 868 001a 196A     		ldr	r1, [r3, #32]
 869 001c 0A40     		ands	r2, r2, r1
 870 001e 1AB9     		cbnz	r2, .L85
 871 0020 1A68     		ldr	r2, [r3]
 872 0022 22F00102 		bic	r2, r2, #1
 873 0026 1A60     		str	r2, [r3]
 874              	.L85:
 875 0028 2046     		mov	r0, r4
 876 002a FFF7FEFF 		bl	HAL_TIM_Encoder_MspDeInit
 877 002e 0020     		movs	r0, #0
 878 0030 84F83D00 		strb	r0, [r4, #61]
 879 0034 84F83C00 		strb	r0, [r4, #60]
 880 0038 10BD     		pop	{r4, pc}
 882              		.section	.text.HAL_TIM_Encoder_Start,"ax",%progbits
 883              		.align	1
 884              		.global	HAL_TIM_Encoder_Start
 885              		.thumb
 886              		.thumb_func
 888              	HAL_TIM_Encoder_Start:
 889              		@ args = 0, pretend = 0, frame = 0
 890              		@ frame_needed = 0, uses_anonymous_args = 0
 891              		@ link register save eliminated.
 892 0000 0368     		ldr	r3, [r0]
 893 0002 51B1     		cbz	r1, .L88
 894 0004 0429     		cmp	r1, #4
 895 0006 10D0     		beq	.L93
 896 0008 1A6A     		ldr	r2, [r3, #32]
 897 000a 22F00102 		bic	r2, r2, #1
 898 000e 1A62     		str	r2, [r3, #32]
 899 0010 1A6A     		ldr	r2, [r3, #32]
 900 0012 42F00102 		orr	r2, r2, #1
 901 0016 1A62     		str	r2, [r3, #32]
 902 0018 07E0     		b	.L93
 903              	.L88:
 904 001a 1A6A     		ldr	r2, [r3, #32]
 905 001c 22F00102 		bic	r2, r2, #1
 906 0020 1A62     		str	r2, [r3, #32]
 907 0022 1A6A     		ldr	r2, [r3, #32]
 908 0024 42F00102 		orr	r2, r2, #1
 909 0028 06E0     		b	.L92
 910              	.L93:
 911 002a 1A6A     		ldr	r2, [r3, #32]
 912 002c 22F01002 		bic	r2, r2, #16
 913 0030 1A62     		str	r2, [r3, #32]
 914 0032 1A6A     		ldr	r2, [r3, #32]
 915 0034 42F01002 		orr	r2, r2, #16
 916              	.L92:
 917 0038 1A62     		str	r2, [r3, #32]
 918 003a 1A68     		ldr	r2, [r3]
ARM GAS  /tmp/ccGuF8yC.s 			page 16


 919 003c 0020     		movs	r0, #0
 920 003e 42F00102 		orr	r2, r2, #1
 921 0042 1A60     		str	r2, [r3]
 922 0044 7047     		bx	lr
 924              		.section	.text.HAL_TIM_Encoder_Stop,"ax",%progbits
 925              		.align	1
 926              		.global	HAL_TIM_Encoder_Stop
 927              		.thumb
 928              		.thumb_func
 930              	HAL_TIM_Encoder_Stop:
 931              		@ args = 0, pretend = 0, frame = 0
 932              		@ frame_needed = 0, uses_anonymous_args = 0
 933              		@ link register save eliminated.
 934 0000 0368     		ldr	r3, [r0]
 935 0002 41B1     		cbz	r1, .L96
 936 0004 0429     		cmp	r1, #4
 937 0006 0AD0     		beq	.L102
 938 0008 1A6A     		ldr	r2, [r3, #32]
 939 000a 22F00102 		bic	r2, r2, #1
 940 000e 1A62     		str	r2, [r3, #32]
 941 0010 1A6A     		ldr	r2, [r3, #32]
 942 0012 1A62     		str	r2, [r3, #32]
 943 0014 03E0     		b	.L102
 944              	.L96:
 945 0016 1A6A     		ldr	r2, [r3, #32]
 946 0018 22F00102 		bic	r2, r2, #1
 947 001c 02E0     		b	.L101
 948              	.L102:
 949 001e 1A6A     		ldr	r2, [r3, #32]
 950 0020 22F01002 		bic	r2, r2, #16
 951              	.L101:
 952 0024 1A62     		str	r2, [r3, #32]
 953 0026 1A6A     		ldr	r2, [r3, #32]
 954 0028 1A62     		str	r2, [r3, #32]
 955 002a 41F21112 		movw	r2, #4369
 956 002e 196A     		ldr	r1, [r3, #32]
 957 0030 0A40     		ands	r2, r2, r1
 958 0032 42B9     		cbnz	r2, .L99
 959 0034 40F24442 		movw	r2, #1092
 960 0038 196A     		ldr	r1, [r3, #32]
 961 003a 0A40     		ands	r2, r2, r1
 962 003c 1AB9     		cbnz	r2, .L99
 963 003e 1A68     		ldr	r2, [r3]
 964 0040 22F00102 		bic	r2, r2, #1
 965 0044 1A60     		str	r2, [r3]
 966              	.L99:
 967 0046 0020     		movs	r0, #0
 968 0048 7047     		bx	lr
 970              		.section	.text.HAL_TIM_Encoder_Start_IT,"ax",%progbits
 971              		.align	1
 972              		.global	HAL_TIM_Encoder_Start_IT
 973              		.thumb
 974              		.thumb_func
 976              	HAL_TIM_Encoder_Start_IT:
 977              		@ args = 0, pretend = 0, frame = 0
 978              		@ frame_needed = 0, uses_anonymous_args = 0
 979              		@ link register save eliminated.
ARM GAS  /tmp/ccGuF8yC.s 			page 17


 980 0000 0368     		ldr	r3, [r0]
 981 0002 51B1     		cbz	r1, .L105
 982 0004 0429     		cmp	r1, #4
 983 0006 14D1     		bne	.L111
 984 0008 1A6A     		ldr	r2, [r3, #32]
 985 000a 22F01002 		bic	r2, r2, #16
 986 000e 1A62     		str	r2, [r3, #32]
 987 0010 1A6A     		ldr	r2, [r3, #32]
 988 0012 42F01002 		orr	r2, r2, #16
 989 0016 1A62     		str	r2, [r3, #32]
 990 0018 1FE0     		b	.L110
 991              	.L105:
 992 001a 1A6A     		ldr	r2, [r3, #32]
 993 001c 22F00102 		bic	r2, r2, #1
 994 0020 1A62     		str	r2, [r3, #32]
 995 0022 1A6A     		ldr	r2, [r3, #32]
 996 0024 42F00102 		orr	r2, r2, #1
 997 0028 1A62     		str	r2, [r3, #32]
 998 002a DA68     		ldr	r2, [r3, #12]
 999 002c 42F00202 		orr	r2, r2, #2
 1000 0030 16E0     		b	.L109
 1001              	.L111:
 1002 0032 1A6A     		ldr	r2, [r3, #32]
 1003 0034 22F00102 		bic	r2, r2, #1
 1004 0038 1A62     		str	r2, [r3, #32]
 1005 003a 1A6A     		ldr	r2, [r3, #32]
 1006 003c 42F00102 		orr	r2, r2, #1
 1007 0040 1A62     		str	r2, [r3, #32]
 1008 0042 1A6A     		ldr	r2, [r3, #32]
 1009 0044 22F01002 		bic	r2, r2, #16
 1010 0048 1A62     		str	r2, [r3, #32]
 1011 004a 1A6A     		ldr	r2, [r3, #32]
 1012 004c 42F01002 		orr	r2, r2, #16
 1013 0050 1A62     		str	r2, [r3, #32]
 1014 0052 DA68     		ldr	r2, [r3, #12]
 1015 0054 42F00202 		orr	r2, r2, #2
 1016 0058 DA60     		str	r2, [r3, #12]
 1017              	.L110:
 1018 005a DA68     		ldr	r2, [r3, #12]
 1019 005c 42F00402 		orr	r2, r2, #4
 1020              	.L109:
 1021 0060 DA60     		str	r2, [r3, #12]
 1022 0062 1A68     		ldr	r2, [r3]
 1023 0064 0020     		movs	r0, #0
 1024 0066 42F00102 		orr	r2, r2, #1
 1025 006a 1A60     		str	r2, [r3]
 1026 006c 7047     		bx	lr
 1028              		.section	.text.HAL_TIM_Encoder_Stop_IT,"ax",%progbits
 1029              		.align	1
 1030              		.global	HAL_TIM_Encoder_Stop_IT
 1031              		.thumb
 1032              		.thumb_func
 1034              	HAL_TIM_Encoder_Stop_IT:
 1035              		@ args = 0, pretend = 0, frame = 0
 1036              		@ frame_needed = 0, uses_anonymous_args = 0
 1037              		@ link register save eliminated.
 1038 0000 0368     		ldr	r3, [r0]
ARM GAS  /tmp/ccGuF8yC.s 			page 18


 1039 0002 1A6A     		ldr	r2, [r3, #32]
 1040 0004 41B9     		cbnz	r1, .L113
 1041 0006 22F00102 		bic	r2, r2, #1
 1042 000a 1A62     		str	r2, [r3, #32]
 1043 000c 1A6A     		ldr	r2, [r3, #32]
 1044 000e 1A62     		str	r2, [r3, #32]
 1045 0010 DA68     		ldr	r2, [r3, #12]
 1046 0012 22F00202 		bic	r2, r2, #2
 1047 0016 19E0     		b	.L117
 1048              	.L113:
 1049 0018 0429     		cmp	r1, #4
 1050 001a 05D1     		bne	.L115
 1051 001c 22F01002 		bic	r2, r2, #16
 1052 0020 1A62     		str	r2, [r3, #32]
 1053 0022 1A6A     		ldr	r2, [r3, #32]
 1054 0024 1A62     		str	r2, [r3, #32]
 1055 0026 0EE0     		b	.L118
 1056              	.L115:
 1057 0028 22F00102 		bic	r2, r2, #1
 1058 002c 1A62     		str	r2, [r3, #32]
 1059 002e 1A6A     		ldr	r2, [r3, #32]
 1060 0030 1A62     		str	r2, [r3, #32]
 1061 0032 1A6A     		ldr	r2, [r3, #32]
 1062 0034 22F01002 		bic	r2, r2, #16
 1063 0038 1A62     		str	r2, [r3, #32]
 1064 003a 1A6A     		ldr	r2, [r3, #32]
 1065 003c 1A62     		str	r2, [r3, #32]
 1066 003e DA68     		ldr	r2, [r3, #12]
 1067 0040 22F00202 		bic	r2, r2, #2
 1068 0044 DA60     		str	r2, [r3, #12]
 1069              	.L118:
 1070 0046 DA68     		ldr	r2, [r3, #12]
 1071 0048 22F00402 		bic	r2, r2, #4
 1072              	.L117:
 1073 004c DA60     		str	r2, [r3, #12]
 1074 004e 41F21112 		movw	r2, #4369
 1075 0052 196A     		ldr	r1, [r3, #32]
 1076 0054 0A40     		ands	r2, r2, r1
 1077 0056 42B9     		cbnz	r2, .L116
 1078 0058 40F24442 		movw	r2, #1092
 1079 005c 196A     		ldr	r1, [r3, #32]
 1080 005e 0A40     		ands	r2, r2, r1
 1081 0060 1AB9     		cbnz	r2, .L116
 1082 0062 1A68     		ldr	r2, [r3]
 1083 0064 22F00102 		bic	r2, r2, #1
 1084 0068 1A60     		str	r2, [r3]
 1085              	.L116:
 1086 006a 0123     		movs	r3, #1
 1087 006c 80F83D30 		strb	r3, [r0, #61]
 1088 0070 0020     		movs	r0, #0
 1089 0072 7047     		bx	lr
 1091              		.section	.text.HAL_TIM_Encoder_Start_DMA,"ax",%progbits
 1092              		.align	1
 1093              		.global	HAL_TIM_Encoder_Start_DMA
 1094              		.thumb
 1095              		.thumb_func
 1097              	HAL_TIM_Encoder_Start_DMA:
ARM GAS  /tmp/ccGuF8yC.s 			page 19


 1098              		@ args = 4, pretend = 0, frame = 0
 1099              		@ frame_needed = 0, uses_anonymous_args = 0
 1100 0000 2DE9F843 		push	{r3, r4, r5, r6, r7, r8, r9, lr}
 1101 0004 0446     		mov	r4, r0
 1102 0006 90F83D00 		ldrb	r0, [r0, #61]	@ zero_extendqisi2
 1103 000a 1E46     		mov	r6, r3
 1104 000c C0B2     		uxtb	r0, r0
 1105 000e 0228     		cmp	r0, #2
 1106 0010 BDF82050 		ldrh	r5, [sp, #32]
 1107 0014 00F09480 		beq	.L120
 1108 0018 94F83D30 		ldrb	r3, [r4, #61]	@ zero_extendqisi2
 1109 001c 012B     		cmp	r3, #1
 1110 001e 08D1     		bne	.L121
 1111 0020 02B1     		cbz	r2, .L122
 1112 0022 1EB9     		cbnz	r6, .L123
 1113              	.L122:
 1114 0024 15B1     		cbz	r5, .L123
 1115              	.L127:
 1116 0026 0120     		movs	r0, #1
 1117 0028 BDE8F883 		pop	{r3, r4, r5, r6, r7, r8, r9, pc}
 1118              	.L123:
 1119 002c 0223     		movs	r3, #2
 1120 002e 84F83D30 		strb	r3, [r4, #61]
 1121              	.L121:
 1122 0032 0429     		cmp	r1, #4
 1123 0034 22D0     		beq	.L124
 1124 0036 3C29     		cmp	r1, #60
 1125 0038 42D0     		beq	.L125
 1126 003a 0029     		cmp	r1, #0
 1127 003c 7FD1     		bne	.L136
 1128 003e 606A     		ldr	r0, [r4, #36]
 1129 0040 404B     		ldr	r3, .L138
 1130 0042 2168     		ldr	r1, [r4]
 1131 0044 8362     		str	r3, [r0, #40]
 1132 0046 404B     		ldr	r3, .L138+4
 1133 0048 3431     		adds	r1, r1, #52
 1134 004a C362     		str	r3, [r0, #44]
 1135 004c 3F4B     		ldr	r3, .L138+8
 1136 004e 0363     		str	r3, [r0, #48]
 1137 0050 2B46     		mov	r3, r5
 1138 0052 FFF7FEFF 		bl	HAL_DMA_Start_IT
 1139 0056 0028     		cmp	r0, #0
 1140 0058 E5D1     		bne	.L127
 1141 005a 2368     		ldr	r3, [r4]
 1142 005c DA68     		ldr	r2, [r3, #12]
 1143 005e 42F40072 		orr	r2, r2, #512
 1144 0062 DA60     		str	r2, [r3, #12]
 1145 0064 1A68     		ldr	r2, [r3]
 1146 0066 42F00102 		orr	r2, r2, #1
 1147 006a 1A60     		str	r2, [r3]
 1148 006c 1A6A     		ldr	r2, [r3, #32]
 1149 006e 22F00102 		bic	r2, r2, #1
 1150 0072 1A62     		str	r2, [r3, #32]
 1151 0074 1A6A     		ldr	r2, [r3, #32]
 1152 0076 42F00102 		orr	r2, r2, #1
 1153 007a 1EE0     		b	.L137
 1154              	.L124:
ARM GAS  /tmp/ccGuF8yC.s 			page 20


 1155 007c A06A     		ldr	r0, [r4, #40]
 1156 007e 314B     		ldr	r3, .L138
 1157 0080 2168     		ldr	r1, [r4]
 1158 0082 8362     		str	r3, [r0, #40]
 1159 0084 304B     		ldr	r3, .L138+4
 1160 0086 3831     		adds	r1, r1, #56
 1161 0088 C362     		str	r3, [r0, #44]
 1162 008a 304B     		ldr	r3, .L138+8
 1163 008c 3246     		mov	r2, r6
 1164 008e 0363     		str	r3, [r0, #48]
 1165 0090 2B46     		mov	r3, r5
 1166 0092 FFF7FEFF 		bl	HAL_DMA_Start_IT
 1167 0096 0028     		cmp	r0, #0
 1168 0098 C5D1     		bne	.L127
 1169 009a 2368     		ldr	r3, [r4]
 1170 009c DA68     		ldr	r2, [r3, #12]
 1171 009e 42F48062 		orr	r2, r2, #1024
 1172 00a2 DA60     		str	r2, [r3, #12]
 1173 00a4 1A68     		ldr	r2, [r3]
 1174 00a6 42F00102 		orr	r2, r2, #1
 1175 00aa 1A60     		str	r2, [r3]
 1176 00ac 1A6A     		ldr	r2, [r3, #32]
 1177 00ae 22F01002 		bic	r2, r2, #16
 1178 00b2 1A62     		str	r2, [r3, #32]
 1179 00b4 1A6A     		ldr	r2, [r3, #32]
 1180 00b6 42F01002 		orr	r2, r2, #16
 1181              	.L137:
 1182 00ba 1A62     		str	r2, [r3, #32]
 1183 00bc BDE8F883 		pop	{r3, r4, r5, r6, r7, r8, r9, pc}
 1184              	.L125:
 1185 00c0 606A     		ldr	r0, [r4, #36]
 1186 00c2 DFF88090 		ldr	r9, .L138
 1187 00c6 DFF88080 		ldr	r8, .L138+4
 1188 00ca 204F     		ldr	r7, .L138+8
 1189 00cc 2168     		ldr	r1, [r4]
 1190 00ce C0F82890 		str	r9, [r0, #40]
 1191 00d2 C0F82C80 		str	r8, [r0, #44]
 1192 00d6 0763     		str	r7, [r0, #48]
 1193 00d8 3431     		adds	r1, r1, #52
 1194 00da 2B46     		mov	r3, r5
 1195 00dc FFF7FEFF 		bl	HAL_DMA_Start_IT
 1196 00e0 0028     		cmp	r0, #0
 1197 00e2 A0D1     		bne	.L127
 1198 00e4 A06A     		ldr	r0, [r4, #40]
 1199 00e6 2168     		ldr	r1, [r4]
 1200 00e8 C0F82890 		str	r9, [r0, #40]
 1201 00ec C0F82C80 		str	r8, [r0, #44]
 1202 00f0 0763     		str	r7, [r0, #48]
 1203 00f2 3831     		adds	r1, r1, #56
 1204 00f4 3246     		mov	r2, r6
 1205 00f6 2B46     		mov	r3, r5
 1206 00f8 FFF7FEFF 		bl	HAL_DMA_Start_IT
 1207 00fc 0028     		cmp	r0, #0
 1208 00fe 92D1     		bne	.L127
 1209 0100 2368     		ldr	r3, [r4]
 1210 0102 1A68     		ldr	r2, [r3]
 1211 0104 42F00102 		orr	r2, r2, #1
ARM GAS  /tmp/ccGuF8yC.s 			page 21


 1212 0108 1A60     		str	r2, [r3]
 1213 010a 1A6A     		ldr	r2, [r3, #32]
 1214 010c 22F00102 		bic	r2, r2, #1
 1215 0110 1A62     		str	r2, [r3, #32]
 1216 0112 1A6A     		ldr	r2, [r3, #32]
 1217 0114 42F00102 		orr	r2, r2, #1
 1218 0118 1A62     		str	r2, [r3, #32]
 1219 011a 1A6A     		ldr	r2, [r3, #32]
 1220 011c 22F01002 		bic	r2, r2, #16
 1221 0120 1A62     		str	r2, [r3, #32]
 1222 0122 1A6A     		ldr	r2, [r3, #32]
 1223 0124 42F01002 		orr	r2, r2, #16
 1224 0128 1A62     		str	r2, [r3, #32]
 1225 012a DA68     		ldr	r2, [r3, #12]
 1226 012c 42F40072 		orr	r2, r2, #512
 1227 0130 DA60     		str	r2, [r3, #12]
 1228 0132 DA68     		ldr	r2, [r3, #12]
 1229 0134 42F48062 		orr	r2, r2, #1024
 1230 0138 DA60     		str	r2, [r3, #12]
 1231 013a BDE8F883 		pop	{r3, r4, r5, r6, r7, r8, r9, pc}
 1232              	.L136:
 1233 013e 0020     		movs	r0, #0
 1234              	.L120:
 1235 0140 BDE8F883 		pop	{r3, r4, r5, r6, r7, r8, r9, pc}
 1236              	.L139:
 1237              		.align	2
 1238              	.L138:
 1239 0144 00000000 		.word	TIM_DMACaptureCplt
 1240 0148 00000000 		.word	TIM_DMACaptureHalfCplt
 1241 014c 00000000 		.word	TIM_DMAError
 1243              		.section	.text.HAL_TIM_Encoder_Stop_DMA,"ax",%progbits
 1244              		.align	1
 1245              		.global	HAL_TIM_Encoder_Stop_DMA
 1246              		.thumb
 1247              		.thumb_func
 1249              	HAL_TIM_Encoder_Stop_DMA:
 1250              		@ args = 0, pretend = 0, frame = 0
 1251              		@ frame_needed = 0, uses_anonymous_args = 0
 1252 0000 0368     		ldr	r3, [r0]
 1253 0002 10B5     		push	{r4, lr}
 1254 0004 1A6A     		ldr	r2, [r3, #32]
 1255 0006 0446     		mov	r4, r0
 1256 0008 51B9     		cbnz	r1, .L141
 1257 000a 22F00102 		bic	r2, r2, #1
 1258 000e 1A62     		str	r2, [r3, #32]
 1259 0010 1A6A     		ldr	r2, [r3, #32]
 1260 0012 406A     		ldr	r0, [r0, #36]
 1261 0014 1A62     		str	r2, [r3, #32]
 1262 0016 DA68     		ldr	r2, [r3, #12]
 1263 0018 22F40072 		bic	r2, r2, #512
 1264 001c DA60     		str	r2, [r3, #12]
 1265 001e 22E0     		b	.L145
 1266              	.L141:
 1267 0020 0429     		cmp	r1, #4
 1268 0022 09D1     		bne	.L143
 1269 0024 22F01002 		bic	r2, r2, #16
 1270 0028 1A62     		str	r2, [r3, #32]
ARM GAS  /tmp/ccGuF8yC.s 			page 22


 1271 002a 1A6A     		ldr	r2, [r3, #32]
 1272 002c 1A62     		str	r2, [r3, #32]
 1273 002e DA68     		ldr	r2, [r3, #12]
 1274 0030 22F48062 		bic	r2, r2, #1024
 1275 0034 DA60     		str	r2, [r3, #12]
 1276 0036 15E0     		b	.L146
 1277              	.L143:
 1278 0038 22F00102 		bic	r2, r2, #1
 1279 003c 1A62     		str	r2, [r3, #32]
 1280 003e 1A6A     		ldr	r2, [r3, #32]
 1281 0040 406A     		ldr	r0, [r0, #36]
 1282 0042 1A62     		str	r2, [r3, #32]
 1283 0044 1A6A     		ldr	r2, [r3, #32]
 1284 0046 22F01002 		bic	r2, r2, #16
 1285 004a 1A62     		str	r2, [r3, #32]
 1286 004c 1A6A     		ldr	r2, [r3, #32]
 1287 004e 1A62     		str	r2, [r3, #32]
 1288 0050 DA68     		ldr	r2, [r3, #12]
 1289 0052 22F40072 		bic	r2, r2, #512
 1290 0056 DA60     		str	r2, [r3, #12]
 1291 0058 DA68     		ldr	r2, [r3, #12]
 1292 005a 22F48062 		bic	r2, r2, #1024
 1293 005e DA60     		str	r2, [r3, #12]
 1294 0060 FFF7FEFF 		bl	HAL_DMA_Abort_IT
 1295              	.L146:
 1296 0064 A06A     		ldr	r0, [r4, #40]
 1297              	.L145:
 1298 0066 FFF7FEFF 		bl	HAL_DMA_Abort_IT
 1299 006a 41F21112 		movw	r2, #4369
 1300 006e 2368     		ldr	r3, [r4]
 1301 0070 196A     		ldr	r1, [r3, #32]
 1302 0072 0A40     		ands	r2, r2, r1
 1303 0074 42B9     		cbnz	r2, .L144
 1304 0076 40F24442 		movw	r2, #1092
 1305 007a 196A     		ldr	r1, [r3, #32]
 1306 007c 0A40     		ands	r2, r2, r1
 1307 007e 1AB9     		cbnz	r2, .L144
 1308 0080 1A68     		ldr	r2, [r3]
 1309 0082 22F00102 		bic	r2, r2, #1
 1310 0086 1A60     		str	r2, [r3]
 1311              	.L144:
 1312 0088 0123     		movs	r3, #1
 1313 008a 84F83D30 		strb	r3, [r4, #61]
 1314 008e 0020     		movs	r0, #0
 1315 0090 10BD     		pop	{r4, pc}
 1317              		.section	.text.HAL_TIM_DMABurst_WriteStart,"ax",%progbits
 1318              		.align	1
 1319              		.global	HAL_TIM_DMABurst_WriteStart
 1320              		.thumb
 1321              		.thumb_func
 1323              	HAL_TIM_DMABurst_WriteStart:
 1324              		@ args = 4, pretend = 0, frame = 0
 1325              		@ frame_needed = 0, uses_anonymous_args = 0
 1326 0000 F8B5     		push	{r3, r4, r5, r6, r7, lr}
 1327 0002 0446     		mov	r4, r0
 1328 0004 90F83D00 		ldrb	r0, [r0, #61]	@ zero_extendqisi2
 1329 0008 0F46     		mov	r7, r1
ARM GAS  /tmp/ccGuF8yC.s 			page 23


 1330 000a C0B2     		uxtb	r0, r0
 1331 000c 0228     		cmp	r0, #2
 1332 000e 1646     		mov	r6, r2
 1333 0010 1946     		mov	r1, r3
 1334 0012 069D     		ldr	r5, [sp, #24]
 1335 0014 4ED0     		beq	.L148
 1336 0016 94F83D30 		ldrb	r3, [r4, #61]	@ zero_extendqisi2
 1337 001a 012B     		cmp	r3, #1
 1338 001c 06D1     		bne	.L149
 1339 001e 11B9     		cbnz	r1, .L150
 1340 0020 0DB1     		cbz	r5, .L150
 1341              	.L160:
 1342 0022 0120     		movs	r0, #1
 1343 0024 F8BD     		pop	{r3, r4, r5, r6, r7, pc}
 1344              	.L150:
 1345 0026 0223     		movs	r3, #2
 1346 0028 84F83D30 		strb	r3, [r4, #61]
 1347              	.L149:
 1348 002c B6F5006F 		cmp	r6, #2048
 1349 0030 2268     		ldr	r2, [r4]
 1350 0032 20D0     		beq	.L152
 1351 0034 0DD8     		bhi	.L153
 1352 0036 B6F5007F 		cmp	r6, #512
 1353 003a 15D0     		beq	.L154
 1354 003c B6F5806F 		cmp	r6, #1024
 1355 0040 14D0     		beq	.L155
 1356 0042 B6F5807F 		cmp	r6, #256
 1357 0046 2BD1     		bne	.L151
 1358 0048 1B4B     		ldr	r3, .L174
 1359 004a 206A     		ldr	r0, [r4, #32]
 1360 004c 8362     		str	r3, [r0, #40]
 1361 004e 1B4B     		ldr	r3, .L174+4
 1362 0050 1CE0     		b	.L167
 1363              	.L153:
 1364 0052 B6F5005F 		cmp	r6, #8192
 1365 0056 10D0     		beq	.L157
 1366 0058 B6F5804F 		cmp	r6, #16384
 1367 005c 12D0     		beq	.L158
 1368 005e B6F5805F 		cmp	r6, #4096
 1369 0062 1DD1     		bne	.L151
 1370 0064 206B     		ldr	r0, [r4, #48]
 1371 0066 02E0     		b	.L173
 1372              	.L154:
 1373 0068 606A     		ldr	r0, [r4, #36]
 1374 006a 00E0     		b	.L173
 1375              	.L155:
 1376 006c A06A     		ldr	r0, [r4, #40]
 1377              	.L173:
 1378 006e 144B     		ldr	r3, .L174+8
 1379 0070 8362     		str	r3, [r0, #40]
 1380 0072 144B     		ldr	r3, .L174+12
 1381 0074 0AE0     		b	.L167
 1382              	.L152:
 1383 0076 E06A     		ldr	r0, [r4, #44]
 1384 0078 F9E7     		b	.L173
 1385              	.L157:
 1386 007a 134B     		ldr	r3, .L174+16
ARM GAS  /tmp/ccGuF8yC.s 			page 24


 1387 007c 606B     		ldr	r0, [r4, #52]
 1388 007e 8362     		str	r3, [r0, #40]
 1389 0080 124B     		ldr	r3, .L174+20
 1390 0082 03E0     		b	.L167
 1391              	.L158:
 1392 0084 124B     		ldr	r3, .L174+24
 1393 0086 A06B     		ldr	r0, [r4, #56]
 1394 0088 8362     		str	r3, [r0, #40]
 1395 008a 124B     		ldr	r3, .L174+28
 1396              	.L167:
 1397 008c C362     		str	r3, [r0, #44]
 1398 008e 124B     		ldr	r3, .L174+32
 1399 0090 4C32     		adds	r2, r2, #76
 1400 0092 0363     		str	r3, [r0, #48]
 1401 0094 2B0A     		lsrs	r3, r5, #8
 1402 0096 0133     		adds	r3, r3, #1
 1403 0098 FFF7FEFF 		bl	HAL_DMA_Start_IT
 1404 009c 0028     		cmp	r0, #0
 1405 009e C0D1     		bne	.L160
 1406              	.L151:
 1407 00a0 2368     		ldr	r3, [r4]
 1408 00a2 3D43     		orrs	r5, r5, r7
 1409 00a4 9D64     		str	r5, [r3, #72]
 1410 00a6 DA68     		ldr	r2, [r3, #12]
 1411 00a8 0020     		movs	r0, #0
 1412 00aa 1643     		orrs	r6, r6, r2
 1413 00ac DE60     		str	r6, [r3, #12]
 1414 00ae 0123     		movs	r3, #1
 1415 00b0 84F83D30 		strb	r3, [r4, #61]
 1416              	.L148:
 1417 00b4 F8BD     		pop	{r3, r4, r5, r6, r7, pc}
 1418              	.L175:
 1419 00b6 00BF     		.align	2
 1420              	.L174:
 1421 00b8 00000000 		.word	TIM_DMAPeriodElapsedCplt
 1422 00bc 00000000 		.word	TIM_DMAPeriodElapsedHalfCplt
 1423 00c0 00000000 		.word	TIM_DMADelayPulseCplt
 1424 00c4 00000000 		.word	TIM_DMADelayPulseHalfCplt
 1425 00c8 00000000 		.word	TIMEx_DMACommutationCplt
 1426 00cc 00000000 		.word	TIMEx_DMACommutationHalfCplt
 1427 00d0 00000000 		.word	TIM_DMATriggerCplt
 1428 00d4 00000000 		.word	TIM_DMATriggerHalfCplt
 1429 00d8 00000000 		.word	TIM_DMAError
 1431              		.section	.text.HAL_TIM_DMABurst_WriteStop,"ax",%progbits
 1432              		.align	1
 1433              		.global	HAL_TIM_DMABurst_WriteStop
 1434              		.thumb
 1435              		.thumb_func
 1437              	HAL_TIM_DMABurst_WriteStop:
 1438              		@ args = 0, pretend = 0, frame = 0
 1439              		@ frame_needed = 0, uses_anonymous_args = 0
 1440 0000 B1F5006F 		cmp	r1, #2048
 1441 0004 38B5     		push	{r3, r4, r5, lr}
 1442 0006 0546     		mov	r5, r0
 1443 0008 0C46     		mov	r4, r1
 1444 000a 1AD0     		beq	.L178
 1445 000c 0AD8     		bhi	.L179
ARM GAS  /tmp/ccGuF8yC.s 			page 25


 1446 000e B1F5007F 		cmp	r1, #512
 1447 0012 12D0     		beq	.L180
 1448 0014 B1F5806F 		cmp	r1, #1024
 1449 0018 11D0     		beq	.L181
 1450 001a B1F5807F 		cmp	r1, #256
 1451 001e 18D1     		bne	.L177
 1452 0020 006A     		ldr	r0, [r0, #32]
 1453 0022 13E0     		b	.L188
 1454              	.L179:
 1455 0024 B1F5005F 		cmp	r1, #8192
 1456 0028 0DD0     		beq	.L183
 1457 002a B1F5804F 		cmp	r1, #16384
 1458 002e 0CD0     		beq	.L184
 1459 0030 B1F5805F 		cmp	r1, #4096
 1460 0034 0DD1     		bne	.L177
 1461 0036 006B     		ldr	r0, [r0, #48]
 1462 0038 08E0     		b	.L188
 1463              	.L180:
 1464 003a 406A     		ldr	r0, [r0, #36]
 1465 003c 06E0     		b	.L188
 1466              	.L181:
 1467 003e 806A     		ldr	r0, [r0, #40]
 1468 0040 04E0     		b	.L188
 1469              	.L178:
 1470 0042 C06A     		ldr	r0, [r0, #44]
 1471 0044 02E0     		b	.L188
 1472              	.L183:
 1473 0046 406B     		ldr	r0, [r0, #52]
 1474 0048 00E0     		b	.L188
 1475              	.L184:
 1476 004a 806B     		ldr	r0, [r0, #56]
 1477              	.L188:
 1478 004c FFF7FEFF 		bl	HAL_DMA_Abort_IT
 1479 0050 28B9     		cbnz	r0, .L187
 1480              	.L177:
 1481 0052 2A68     		ldr	r2, [r5]
 1482 0054 0020     		movs	r0, #0
 1483 0056 D368     		ldr	r3, [r2, #12]
 1484 0058 23EA0404 		bic	r4, r3, r4
 1485 005c D460     		str	r4, [r2, #12]
 1486              	.L187:
 1487 005e 38BD     		pop	{r3, r4, r5, pc}
 1489              		.section	.text.HAL_TIM_DMABurst_ReadStart,"ax",%progbits
 1490              		.align	1
 1491              		.global	HAL_TIM_DMABurst_ReadStart
 1492              		.thumb
 1493              		.thumb_func
 1495              	HAL_TIM_DMABurst_ReadStart:
 1496              		@ args = 4, pretend = 0, frame = 0
 1497              		@ frame_needed = 0, uses_anonymous_args = 0
 1498 0000 F8B5     		push	{r3, r4, r5, r6, r7, lr}
 1499 0002 0446     		mov	r4, r0
 1500 0004 90F83D00 		ldrb	r0, [r0, #61]	@ zero_extendqisi2
 1501 0008 1646     		mov	r6, r2
 1502 000a C0B2     		uxtb	r0, r0
 1503 000c 0228     		cmp	r0, #2
 1504 000e 0F46     		mov	r7, r1
ARM GAS  /tmp/ccGuF8yC.s 			page 26


 1505 0010 1A46     		mov	r2, r3
 1506 0012 069D     		ldr	r5, [sp, #24]
 1507 0014 4ED0     		beq	.L190
 1508 0016 94F83D30 		ldrb	r3, [r4, #61]	@ zero_extendqisi2
 1509 001a 012B     		cmp	r3, #1
 1510 001c 06D1     		bne	.L191
 1511 001e 12B9     		cbnz	r2, .L192
 1512 0020 0DB1     		cbz	r5, .L192
 1513              	.L202:
 1514 0022 0120     		movs	r0, #1
 1515 0024 F8BD     		pop	{r3, r4, r5, r6, r7, pc}
 1516              	.L192:
 1517 0026 0223     		movs	r3, #2
 1518 0028 84F83D30 		strb	r3, [r4, #61]
 1519              	.L191:
 1520 002c B6F5006F 		cmp	r6, #2048
 1521 0030 2168     		ldr	r1, [r4]
 1522 0032 20D0     		beq	.L194
 1523 0034 0DD8     		bhi	.L195
 1524 0036 B6F5007F 		cmp	r6, #512
 1525 003a 15D0     		beq	.L196
 1526 003c B6F5806F 		cmp	r6, #1024
 1527 0040 14D0     		beq	.L197
 1528 0042 B6F5807F 		cmp	r6, #256
 1529 0046 2BD1     		bne	.L193
 1530 0048 1B4B     		ldr	r3, .L216
 1531 004a 206A     		ldr	r0, [r4, #32]
 1532 004c 8362     		str	r3, [r0, #40]
 1533 004e 1B4B     		ldr	r3, .L216+4
 1534 0050 1CE0     		b	.L209
 1535              	.L195:
 1536 0052 B6F5005F 		cmp	r6, #8192
 1537 0056 10D0     		beq	.L199
 1538 0058 B6F5804F 		cmp	r6, #16384
 1539 005c 12D0     		beq	.L200
 1540 005e B6F5805F 		cmp	r6, #4096
 1541 0062 1DD1     		bne	.L193
 1542 0064 206B     		ldr	r0, [r4, #48]
 1543 0066 02E0     		b	.L215
 1544              	.L196:
 1545 0068 606A     		ldr	r0, [r4, #36]
 1546 006a 00E0     		b	.L215
 1547              	.L197:
 1548 006c A06A     		ldr	r0, [r4, #40]
 1549              	.L215:
 1550 006e 144B     		ldr	r3, .L216+8
 1551 0070 8362     		str	r3, [r0, #40]
 1552 0072 144B     		ldr	r3, .L216+12
 1553 0074 0AE0     		b	.L209
 1554              	.L194:
 1555 0076 E06A     		ldr	r0, [r4, #44]
 1556 0078 F9E7     		b	.L215
 1557              	.L199:
 1558 007a 134B     		ldr	r3, .L216+16
 1559 007c 606B     		ldr	r0, [r4, #52]
 1560 007e 8362     		str	r3, [r0, #40]
 1561 0080 124B     		ldr	r3, .L216+20
ARM GAS  /tmp/ccGuF8yC.s 			page 27


 1562 0082 03E0     		b	.L209
 1563              	.L200:
 1564 0084 124B     		ldr	r3, .L216+24
 1565 0086 A06B     		ldr	r0, [r4, #56]
 1566 0088 8362     		str	r3, [r0, #40]
 1567 008a 124B     		ldr	r3, .L216+28
 1568              	.L209:
 1569 008c C362     		str	r3, [r0, #44]
 1570 008e 124B     		ldr	r3, .L216+32
 1571 0090 4C31     		adds	r1, r1, #76
 1572 0092 0363     		str	r3, [r0, #48]
 1573 0094 2B0A     		lsrs	r3, r5, #8
 1574 0096 0133     		adds	r3, r3, #1
 1575 0098 FFF7FEFF 		bl	HAL_DMA_Start_IT
 1576 009c 0028     		cmp	r0, #0
 1577 009e C0D1     		bne	.L202
 1578              	.L193:
 1579 00a0 2368     		ldr	r3, [r4]
 1580 00a2 3D43     		orrs	r5, r5, r7
 1581 00a4 9D64     		str	r5, [r3, #72]
 1582 00a6 DA68     		ldr	r2, [r3, #12]
 1583 00a8 0020     		movs	r0, #0
 1584 00aa 1643     		orrs	r6, r6, r2
 1585 00ac DE60     		str	r6, [r3, #12]
 1586 00ae 0123     		movs	r3, #1
 1587 00b0 84F83D30 		strb	r3, [r4, #61]
 1588              	.L190:
 1589 00b4 F8BD     		pop	{r3, r4, r5, r6, r7, pc}
 1590              	.L217:
 1591 00b6 00BF     		.align	2
 1592              	.L216:
 1593 00b8 00000000 		.word	TIM_DMAPeriodElapsedCplt
 1594 00bc 00000000 		.word	TIM_DMAPeriodElapsedHalfCplt
 1595 00c0 00000000 		.word	TIM_DMACaptureCplt
 1596 00c4 00000000 		.word	TIM_DMACaptureHalfCplt
 1597 00c8 00000000 		.word	TIMEx_DMACommutationCplt
 1598 00cc 00000000 		.word	TIMEx_DMACommutationHalfCplt
 1599 00d0 00000000 		.word	TIM_DMATriggerCplt
 1600 00d4 00000000 		.word	TIM_DMATriggerHalfCplt
 1601 00d8 00000000 		.word	TIM_DMAError
 1603              		.section	.text.HAL_TIM_DMABurst_ReadStop,"ax",%progbits
 1604              		.align	1
 1605              		.global	HAL_TIM_DMABurst_ReadStop
 1606              		.thumb
 1607              		.thumb_func
 1609              	HAL_TIM_DMABurst_ReadStop:
 1610              		@ args = 0, pretend = 0, frame = 0
 1611              		@ frame_needed = 0, uses_anonymous_args = 0
 1612 0000 B1F5006F 		cmp	r1, #2048
 1613 0004 38B5     		push	{r3, r4, r5, lr}
 1614 0006 0546     		mov	r5, r0
 1615 0008 0C46     		mov	r4, r1
 1616 000a 1AD0     		beq	.L220
 1617 000c 0AD8     		bhi	.L221
 1618 000e B1F5007F 		cmp	r1, #512
 1619 0012 12D0     		beq	.L222
 1620 0014 B1F5806F 		cmp	r1, #1024
ARM GAS  /tmp/ccGuF8yC.s 			page 28


 1621 0018 11D0     		beq	.L223
 1622 001a B1F5807F 		cmp	r1, #256
 1623 001e 18D1     		bne	.L219
 1624 0020 006A     		ldr	r0, [r0, #32]
 1625 0022 13E0     		b	.L230
 1626              	.L221:
 1627 0024 B1F5005F 		cmp	r1, #8192
 1628 0028 0DD0     		beq	.L225
 1629 002a B1F5804F 		cmp	r1, #16384
 1630 002e 0CD0     		beq	.L226
 1631 0030 B1F5805F 		cmp	r1, #4096
 1632 0034 0DD1     		bne	.L219
 1633 0036 006B     		ldr	r0, [r0, #48]
 1634 0038 08E0     		b	.L230
 1635              	.L222:
 1636 003a 406A     		ldr	r0, [r0, #36]
 1637 003c 06E0     		b	.L230
 1638              	.L223:
 1639 003e 806A     		ldr	r0, [r0, #40]
 1640 0040 04E0     		b	.L230
 1641              	.L220:
 1642 0042 C06A     		ldr	r0, [r0, #44]
 1643 0044 02E0     		b	.L230
 1644              	.L225:
 1645 0046 406B     		ldr	r0, [r0, #52]
 1646 0048 00E0     		b	.L230
 1647              	.L226:
 1648 004a 806B     		ldr	r0, [r0, #56]
 1649              	.L230:
 1650 004c FFF7FEFF 		bl	HAL_DMA_Abort_IT
 1651 0050 28B9     		cbnz	r0, .L229
 1652              	.L219:
 1653 0052 2A68     		ldr	r2, [r5]
 1654 0054 0020     		movs	r0, #0
 1655 0056 D368     		ldr	r3, [r2, #12]
 1656 0058 23EA0404 		bic	r4, r3, r4
 1657 005c D460     		str	r4, [r2, #12]
 1658              	.L229:
 1659 005e 38BD     		pop	{r3, r4, r5, pc}
 1661              		.section	.text.HAL_TIM_GenerateEvent,"ax",%progbits
 1662              		.align	1
 1663              		.global	HAL_TIM_GenerateEvent
 1664              		.thumb
 1665              		.thumb_func
 1667              	HAL_TIM_GenerateEvent:
 1668              		@ args = 0, pretend = 0, frame = 0
 1669              		@ frame_needed = 0, uses_anonymous_args = 0
 1670              		@ link register save eliminated.
 1671 0000 90F83C30 		ldrb	r3, [r0, #60]	@ zero_extendqisi2
 1672 0004 012B     		cmp	r3, #1
 1673 0006 4FF00203 		mov	r3, #2
 1674 000a 09D0     		beq	.L233
 1675 000c 80F83D30 		strb	r3, [r0, #61]
 1676 0010 0368     		ldr	r3, [r0]
 1677 0012 5961     		str	r1, [r3, #20]
 1678 0014 0123     		movs	r3, #1
 1679 0016 80F83D30 		strb	r3, [r0, #61]
ARM GAS  /tmp/ccGuF8yC.s 			page 29


 1680 001a 0023     		movs	r3, #0
 1681 001c 80F83C30 		strb	r3, [r0, #60]
 1682              	.L233:
 1683 0020 1846     		mov	r0, r3
 1684 0022 7047     		bx	lr
 1686              		.section	.text.HAL_TIM_ConfigTI1Input,"ax",%progbits
 1687              		.align	1
 1688              		.global	HAL_TIM_ConfigTI1Input
 1689              		.thumb
 1690              		.thumb_func
 1692              	HAL_TIM_ConfigTI1Input:
 1693              		@ args = 0, pretend = 0, frame = 0
 1694              		@ frame_needed = 0, uses_anonymous_args = 0
 1695              		@ link register save eliminated.
 1696 0000 0268     		ldr	r2, [r0]
 1697 0002 0020     		movs	r0, #0
 1698 0004 5368     		ldr	r3, [r2, #4]
 1699 0006 23F08003 		bic	r3, r3, #128
 1700 000a 1943     		orrs	r1, r1, r3
 1701 000c 5160     		str	r1, [r2, #4]
 1702 000e 7047     		bx	lr
 1704              		.section	.text.HAL_TIM_ReadCapturedValue,"ax",%progbits
 1705              		.align	1
 1706              		.global	HAL_TIM_ReadCapturedValue
 1707              		.thumb
 1708              		.thumb_func
 1710              	HAL_TIM_ReadCapturedValue:
 1711              		@ args = 0, pretend = 0, frame = 0
 1712              		@ frame_needed = 0, uses_anonymous_args = 0
 1713              		@ link register save eliminated.
 1714 0000 0C29     		cmp	r1, #12
 1715 0002 14D8     		bhi	.L242
 1716 0004 DFE801F0 		tbb	[pc, r1]
 1717              	.L238:
 1718 0008 07       		.byte	(.L237-.L238)/2
 1719 0009 13       		.byte	(.L242-.L238)/2
 1720 000a 13       		.byte	(.L242-.L238)/2
 1721 000b 13       		.byte	(.L242-.L238)/2
 1722 000c 0A       		.byte	(.L239-.L238)/2
 1723 000d 13       		.byte	(.L242-.L238)/2
 1724 000e 13       		.byte	(.L242-.L238)/2
 1725 000f 13       		.byte	(.L242-.L238)/2
 1726 0010 0D       		.byte	(.L240-.L238)/2
 1727 0011 13       		.byte	(.L242-.L238)/2
 1728 0012 13       		.byte	(.L242-.L238)/2
 1729 0013 13       		.byte	(.L242-.L238)/2
 1730 0014 10       		.byte	(.L241-.L238)/2
 1731 0015 00       		.p2align 1
 1732              	.L237:
 1733 0016 0368     		ldr	r3, [r0]
 1734 0018 586B     		ldr	r0, [r3, #52]
 1735 001a 7047     		bx	lr
 1736              	.L239:
 1737 001c 0368     		ldr	r3, [r0]
 1738 001e 986B     		ldr	r0, [r3, #56]
 1739 0020 7047     		bx	lr
 1740              	.L240:
ARM GAS  /tmp/ccGuF8yC.s 			page 30


 1741 0022 0368     		ldr	r3, [r0]
 1742 0024 D86B     		ldr	r0, [r3, #60]
 1743 0026 7047     		bx	lr
 1744              	.L241:
 1745 0028 0368     		ldr	r3, [r0]
 1746 002a 186C     		ldr	r0, [r3, #64]
 1747 002c 7047     		bx	lr
 1748              	.L242:
 1749 002e 0020     		movs	r0, #0
 1750 0030 7047     		bx	lr
 1752              		.section	.text.HAL_TIM_PeriodElapsedCallback,"ax",%progbits
 1753              		.align	1
 1754              		.weak	HAL_TIM_PeriodElapsedCallback
 1755              		.thumb
 1756              		.thumb_func
 1758              	HAL_TIM_PeriodElapsedCallback:
 1759              		@ args = 0, pretend = 0, frame = 0
 1760              		@ frame_needed = 0, uses_anonymous_args = 0
 1761              		@ link register save eliminated.
 1762 0000 7047     		bx	lr
 1764              		.section	.text.TIM_DMAPeriodElapsedCplt,"ax",%progbits
 1765              		.align	1
 1766              		.thumb
 1767              		.thumb_func
 1769              	TIM_DMAPeriodElapsedCplt:
 1770              		@ args = 0, pretend = 0, frame = 0
 1771              		@ frame_needed = 0, uses_anonymous_args = 0
 1772 0000 08B5     		push	{r3, lr}
 1773 0002 406A     		ldr	r0, [r0, #36]
 1774 0004 0123     		movs	r3, #1
 1775 0006 80F83D30 		strb	r3, [r0, #61]
 1776 000a FFF7FEFF 		bl	HAL_TIM_PeriodElapsedCallback
 1777 000e 08BD     		pop	{r3, pc}
 1779              		.section	.text.HAL_TIM_PeriodElapsedHalfCpltCallback,"ax",%progbits
 1780              		.align	1
 1781              		.weak	HAL_TIM_PeriodElapsedHalfCpltCallback
 1782              		.thumb
 1783              		.thumb_func
 1785              	HAL_TIM_PeriodElapsedHalfCpltCallback:
 1786              		@ args = 0, pretend = 0, frame = 0
 1787              		@ frame_needed = 0, uses_anonymous_args = 0
 1788              		@ link register save eliminated.
 1789 0000 7047     		bx	lr
 1791              		.section	.text.TIM_DMAPeriodElapsedHalfCplt,"ax",%progbits
 1792              		.align	1
 1793              		.thumb
 1794              		.thumb_func
 1796              	TIM_DMAPeriodElapsedHalfCplt:
 1797              		@ args = 0, pretend = 0, frame = 0
 1798              		@ frame_needed = 0, uses_anonymous_args = 0
 1799 0000 08B5     		push	{r3, lr}
 1800 0002 406A     		ldr	r0, [r0, #36]
 1801 0004 0123     		movs	r3, #1
 1802 0006 80F83D30 		strb	r3, [r0, #61]
 1803 000a FFF7FEFF 		bl	HAL_TIM_PeriodElapsedHalfCpltCallback
 1804 000e 08BD     		pop	{r3, pc}
 1806              		.section	.text.HAL_TIM_OC_DelayElapsedCallback,"ax",%progbits
ARM GAS  /tmp/ccGuF8yC.s 			page 31


 1807              		.align	1
 1808              		.weak	HAL_TIM_OC_DelayElapsedCallback
 1809              		.thumb
 1810              		.thumb_func
 1812              	HAL_TIM_OC_DelayElapsedCallback:
 1813              		@ args = 0, pretend = 0, frame = 0
 1814              		@ frame_needed = 0, uses_anonymous_args = 0
 1815              		@ link register save eliminated.
 1816 0000 7047     		bx	lr
 1818              		.section	.text.HAL_TIM_IC_CaptureCallback,"ax",%progbits
 1819              		.align	1
 1820              		.weak	HAL_TIM_IC_CaptureCallback
 1821              		.thumb
 1822              		.thumb_func
 1824              	HAL_TIM_IC_CaptureCallback:
 1825              		@ args = 0, pretend = 0, frame = 0
 1826              		@ frame_needed = 0, uses_anonymous_args = 0
 1827              		@ link register save eliminated.
 1828 0000 7047     		bx	lr
 1830              		.section	.text.TIM_DMACaptureCplt,"ax",%progbits
 1831              		.align	1
 1832              		.global	TIM_DMACaptureCplt
 1833              		.thumb
 1834              		.thumb_func
 1836              	TIM_DMACaptureCplt:
 1837              		@ args = 0, pretend = 0, frame = 0
 1838              		@ frame_needed = 0, uses_anonymous_args = 0
 1839 0000 10B5     		push	{r4, lr}
 1840 0002 446A     		ldr	r4, [r0, #36]
 1841 0004 0123     		movs	r3, #1
 1842 0006 626A     		ldr	r2, [r4, #36]
 1843 0008 84F83D30 		strb	r3, [r4, #61]
 1844 000c 9042     		cmp	r0, r2
 1845 000e 0DD0     		beq	.L254
 1846 0010 A36A     		ldr	r3, [r4, #40]
 1847 0012 9842     		cmp	r0, r3
 1848 0014 01D1     		bne	.L252
 1849 0016 0223     		movs	r3, #2
 1850 0018 08E0     		b	.L254
 1851              	.L252:
 1852 001a E36A     		ldr	r3, [r4, #44]
 1853 001c 9842     		cmp	r0, r3
 1854 001e 01D1     		bne	.L253
 1855 0020 0423     		movs	r3, #4
 1856 0022 03E0     		b	.L254
 1857              	.L253:
 1858 0024 236B     		ldr	r3, [r4, #48]
 1859 0026 9842     		cmp	r0, r3
 1860 0028 01D1     		bne	.L251
 1861 002a 0823     		movs	r3, #8
 1862              	.L254:
 1863 002c 2377     		strb	r3, [r4, #28]
 1864              	.L251:
 1865 002e 2046     		mov	r0, r4
 1866 0030 FFF7FEFF 		bl	HAL_TIM_IC_CaptureCallback
 1867 0034 0023     		movs	r3, #0
 1868 0036 2377     		strb	r3, [r4, #28]
ARM GAS  /tmp/ccGuF8yC.s 			page 32


 1869 0038 10BD     		pop	{r4, pc}
 1871              		.section	.text.HAL_TIM_IC_CaptureHalfCpltCallback,"ax",%progbits
 1872              		.align	1
 1873              		.weak	HAL_TIM_IC_CaptureHalfCpltCallback
 1874              		.thumb
 1875              		.thumb_func
 1877              	HAL_TIM_IC_CaptureHalfCpltCallback:
 1878              		@ args = 0, pretend = 0, frame = 0
 1879              		@ frame_needed = 0, uses_anonymous_args = 0
 1880              		@ link register save eliminated.
 1881 0000 7047     		bx	lr
 1883              		.section	.text.TIM_DMACaptureHalfCplt,"ax",%progbits
 1884              		.align	1
 1885              		.global	TIM_DMACaptureHalfCplt
 1886              		.thumb
 1887              		.thumb_func
 1889              	TIM_DMACaptureHalfCplt:
 1890              		@ args = 0, pretend = 0, frame = 0
 1891              		@ frame_needed = 0, uses_anonymous_args = 0
 1892 0000 10B5     		push	{r4, lr}
 1893 0002 446A     		ldr	r4, [r0, #36]
 1894 0004 0123     		movs	r3, #1
 1895 0006 626A     		ldr	r2, [r4, #36]
 1896 0008 84F83D30 		strb	r3, [r4, #61]
 1897 000c 9042     		cmp	r0, r2
 1898 000e 0DD0     		beq	.L261
 1899 0010 A36A     		ldr	r3, [r4, #40]
 1900 0012 9842     		cmp	r0, r3
 1901 0014 01D1     		bne	.L259
 1902 0016 0223     		movs	r3, #2
 1903 0018 08E0     		b	.L261
 1904              	.L259:
 1905 001a E36A     		ldr	r3, [r4, #44]
 1906 001c 9842     		cmp	r0, r3
 1907 001e 01D1     		bne	.L260
 1908 0020 0423     		movs	r3, #4
 1909 0022 03E0     		b	.L261
 1910              	.L260:
 1911 0024 236B     		ldr	r3, [r4, #48]
 1912 0026 9842     		cmp	r0, r3
 1913 0028 01D1     		bne	.L258
 1914 002a 0823     		movs	r3, #8
 1915              	.L261:
 1916 002c 2377     		strb	r3, [r4, #28]
 1917              	.L258:
 1918 002e 2046     		mov	r0, r4
 1919 0030 FFF7FEFF 		bl	HAL_TIM_IC_CaptureHalfCpltCallback
 1920 0034 0023     		movs	r3, #0
 1921 0036 2377     		strb	r3, [r4, #28]
 1922 0038 10BD     		pop	{r4, pc}
 1924              		.section	.text.HAL_TIM_PWM_PulseFinishedCallback,"ax",%progbits
 1925              		.align	1
 1926              		.weak	HAL_TIM_PWM_PulseFinishedCallback
 1927              		.thumb
 1928              		.thumb_func
 1930              	HAL_TIM_PWM_PulseFinishedCallback:
 1931              		@ args = 0, pretend = 0, frame = 0
ARM GAS  /tmp/ccGuF8yC.s 			page 33


 1932              		@ frame_needed = 0, uses_anonymous_args = 0
 1933              		@ link register save eliminated.
 1934 0000 7047     		bx	lr
 1936              		.section	.text.TIM_DMADelayPulseCplt,"ax",%progbits
 1937              		.align	1
 1938              		.global	TIM_DMADelayPulseCplt
 1939              		.thumb
 1940              		.thumb_func
 1942              	TIM_DMADelayPulseCplt:
 1943              		@ args = 0, pretend = 0, frame = 0
 1944              		@ frame_needed = 0, uses_anonymous_args = 0
 1945 0000 10B5     		push	{r4, lr}
 1946 0002 446A     		ldr	r4, [r0, #36]
 1947 0004 0123     		movs	r3, #1
 1948 0006 626A     		ldr	r2, [r4, #36]
 1949 0008 84F83D30 		strb	r3, [r4, #61]
 1950 000c 9042     		cmp	r0, r2
 1951 000e 0DD0     		beq	.L268
 1952 0010 A36A     		ldr	r3, [r4, #40]
 1953 0012 9842     		cmp	r0, r3
 1954 0014 01D1     		bne	.L266
 1955 0016 0223     		movs	r3, #2
 1956 0018 08E0     		b	.L268
 1957              	.L266:
 1958 001a E36A     		ldr	r3, [r4, #44]
 1959 001c 9842     		cmp	r0, r3
 1960 001e 01D1     		bne	.L267
 1961 0020 0423     		movs	r3, #4
 1962 0022 03E0     		b	.L268
 1963              	.L267:
 1964 0024 236B     		ldr	r3, [r4, #48]
 1965 0026 9842     		cmp	r0, r3
 1966 0028 01D1     		bne	.L265
 1967 002a 0823     		movs	r3, #8
 1968              	.L268:
 1969 002c 2377     		strb	r3, [r4, #28]
 1970              	.L265:
 1971 002e 2046     		mov	r0, r4
 1972 0030 FFF7FEFF 		bl	HAL_TIM_PWM_PulseFinishedCallback
 1973 0034 0023     		movs	r3, #0
 1974 0036 2377     		strb	r3, [r4, #28]
 1975 0038 10BD     		pop	{r4, pc}
 1977              		.section	.text.HAL_TIM_PWM_PulseFinishedHalfCpltCallback,"ax",%progbits
 1978              		.align	1
 1979              		.weak	HAL_TIM_PWM_PulseFinishedHalfCpltCallback
 1980              		.thumb
 1981              		.thumb_func
 1983              	HAL_TIM_PWM_PulseFinishedHalfCpltCallback:
 1984              		@ args = 0, pretend = 0, frame = 0
 1985              		@ frame_needed = 0, uses_anonymous_args = 0
 1986              		@ link register save eliminated.
 1987 0000 7047     		bx	lr
 1989              		.section	.text.TIM_DMADelayPulseHalfCplt,"ax",%progbits
 1990              		.align	1
 1991              		.global	TIM_DMADelayPulseHalfCplt
 1992              		.thumb
 1993              		.thumb_func
ARM GAS  /tmp/ccGuF8yC.s 			page 34


 1995              	TIM_DMADelayPulseHalfCplt:
 1996              		@ args = 0, pretend = 0, frame = 0
 1997              		@ frame_needed = 0, uses_anonymous_args = 0
 1998 0000 10B5     		push	{r4, lr}
 1999 0002 446A     		ldr	r4, [r0, #36]
 2000 0004 0123     		movs	r3, #1
 2001 0006 626A     		ldr	r2, [r4, #36]
 2002 0008 84F83D30 		strb	r3, [r4, #61]
 2003 000c 9042     		cmp	r0, r2
 2004 000e 0DD0     		beq	.L275
 2005 0010 A36A     		ldr	r3, [r4, #40]
 2006 0012 9842     		cmp	r0, r3
 2007 0014 01D1     		bne	.L273
 2008 0016 0223     		movs	r3, #2
 2009 0018 08E0     		b	.L275
 2010              	.L273:
 2011 001a E36A     		ldr	r3, [r4, #44]
 2012 001c 9842     		cmp	r0, r3
 2013 001e 01D1     		bne	.L274
 2014 0020 0423     		movs	r3, #4
 2015 0022 03E0     		b	.L275
 2016              	.L274:
 2017 0024 236B     		ldr	r3, [r4, #48]
 2018 0026 9842     		cmp	r0, r3
 2019 0028 01D1     		bne	.L272
 2020 002a 0823     		movs	r3, #8
 2021              	.L275:
 2022 002c 2377     		strb	r3, [r4, #28]
 2023              	.L272:
 2024 002e 2046     		mov	r0, r4
 2025 0030 FFF7FEFF 		bl	HAL_TIM_PWM_PulseFinishedHalfCpltCallback
 2026 0034 0023     		movs	r3, #0
 2027 0036 2377     		strb	r3, [r4, #28]
 2028 0038 10BD     		pop	{r4, pc}
 2030              		.section	.text.HAL_TIM_TriggerCallback,"ax",%progbits
 2031              		.align	1
 2032              		.weak	HAL_TIM_TriggerCallback
 2033              		.thumb
 2034              		.thumb_func
 2036              	HAL_TIM_TriggerCallback:
 2037              		@ args = 0, pretend = 0, frame = 0
 2038              		@ frame_needed = 0, uses_anonymous_args = 0
 2039              		@ link register save eliminated.
 2040 0000 7047     		bx	lr
 2042              		.section	.text.HAL_TIM_IRQHandler,"ax",%progbits
 2043              		.align	1
 2044              		.global	HAL_TIM_IRQHandler
 2045              		.thumb
 2046              		.thumb_func
 2048              	HAL_TIM_IRQHandler:
 2049              		@ args = 0, pretend = 0, frame = 0
 2050              		@ frame_needed = 0, uses_anonymous_args = 0
 2051 0000 0368     		ldr	r3, [r0]
 2052 0002 10B5     		push	{r4, lr}
 2053 0004 1A69     		ldr	r2, [r3, #16]
 2054 0006 0446     		mov	r4, r0
 2055 0008 9107     		lsls	r1, r2, #30
ARM GAS  /tmp/ccGuF8yC.s 			page 35


 2056 000a 14D5     		bpl	.L278
 2057 000c DA68     		ldr	r2, [r3, #12]
 2058 000e 9207     		lsls	r2, r2, #30
 2059 0010 11D5     		bpl	.L278
 2060 0012 6FF00202 		mvn	r2, #2
 2061 0016 1A61     		str	r2, [r3, #16]
 2062 0018 9B69     		ldr	r3, [r3, #24]
 2063 001a 0122     		movs	r2, #1
 2064 001c 9B07     		lsls	r3, r3, #30
 2065 001e 0277     		strb	r2, [r0, #28]
 2066 0020 02D0     		beq	.L279
 2067 0022 FFF7FEFF 		bl	HAL_TIM_IC_CaptureCallback
 2068 0026 04E0     		b	.L280
 2069              	.L279:
 2070 0028 FFF7FEFF 		bl	HAL_TIM_OC_DelayElapsedCallback
 2071 002c 2046     		mov	r0, r4
 2072 002e FFF7FEFF 		bl	HAL_TIM_PWM_PulseFinishedCallback
 2073              	.L280:
 2074 0032 0023     		movs	r3, #0
 2075 0034 2377     		strb	r3, [r4, #28]
 2076              	.L278:
 2077 0036 2368     		ldr	r3, [r4]
 2078 0038 1A69     		ldr	r2, [r3, #16]
 2079 003a 5007     		lsls	r0, r2, #29
 2080 003c 16D5     		bpl	.L281
 2081 003e DA68     		ldr	r2, [r3, #12]
 2082 0040 5107     		lsls	r1, r2, #29
 2083 0042 13D5     		bpl	.L281
 2084 0044 6FF00402 		mvn	r2, #4
 2085 0048 1A61     		str	r2, [r3, #16]
 2086 004a 9B69     		ldr	r3, [r3, #24]
 2087 004c 0222     		movs	r2, #2
 2088 004e 13F4407F 		tst	r3, #768
 2089 0052 2277     		strb	r2, [r4, #28]
 2090 0054 2046     		mov	r0, r4
 2091 0056 02D0     		beq	.L282
 2092 0058 FFF7FEFF 		bl	HAL_TIM_IC_CaptureCallback
 2093 005c 04E0     		b	.L283
 2094              	.L282:
 2095 005e FFF7FEFF 		bl	HAL_TIM_OC_DelayElapsedCallback
 2096 0062 2046     		mov	r0, r4
 2097 0064 FFF7FEFF 		bl	HAL_TIM_PWM_PulseFinishedCallback
 2098              	.L283:
 2099 0068 0023     		movs	r3, #0
 2100 006a 2377     		strb	r3, [r4, #28]
 2101              	.L281:
 2102 006c 2368     		ldr	r3, [r4]
 2103 006e 1A69     		ldr	r2, [r3, #16]
 2104 0070 1207     		lsls	r2, r2, #28
 2105 0072 15D5     		bpl	.L284
 2106 0074 DA68     		ldr	r2, [r3, #12]
 2107 0076 1007     		lsls	r0, r2, #28
 2108 0078 12D5     		bpl	.L284
 2109 007a 6FF00802 		mvn	r2, #8
 2110 007e 1A61     		str	r2, [r3, #16]
 2111 0080 DB69     		ldr	r3, [r3, #28]
 2112 0082 0422     		movs	r2, #4
ARM GAS  /tmp/ccGuF8yC.s 			page 36


 2113 0084 9907     		lsls	r1, r3, #30
 2114 0086 2277     		strb	r2, [r4, #28]
 2115 0088 2046     		mov	r0, r4
 2116 008a 02D0     		beq	.L285
 2117 008c FFF7FEFF 		bl	HAL_TIM_IC_CaptureCallback
 2118 0090 04E0     		b	.L286
 2119              	.L285:
 2120 0092 FFF7FEFF 		bl	HAL_TIM_OC_DelayElapsedCallback
 2121 0096 2046     		mov	r0, r4
 2122 0098 FFF7FEFF 		bl	HAL_TIM_PWM_PulseFinishedCallback
 2123              	.L286:
 2124 009c 0023     		movs	r3, #0
 2125 009e 2377     		strb	r3, [r4, #28]
 2126              	.L284:
 2127 00a0 2368     		ldr	r3, [r4]
 2128 00a2 1A69     		ldr	r2, [r3, #16]
 2129 00a4 D206     		lsls	r2, r2, #27
 2130 00a6 16D5     		bpl	.L287
 2131 00a8 DA68     		ldr	r2, [r3, #12]
 2132 00aa D006     		lsls	r0, r2, #27
 2133 00ac 13D5     		bpl	.L287
 2134 00ae 6FF01002 		mvn	r2, #16
 2135 00b2 1A61     		str	r2, [r3, #16]
 2136 00b4 DB69     		ldr	r3, [r3, #28]
 2137 00b6 0822     		movs	r2, #8
 2138 00b8 13F4407F 		tst	r3, #768
 2139 00bc 2277     		strb	r2, [r4, #28]
 2140 00be 2046     		mov	r0, r4
 2141 00c0 02D0     		beq	.L288
 2142 00c2 FFF7FEFF 		bl	HAL_TIM_IC_CaptureCallback
 2143 00c6 04E0     		b	.L289
 2144              	.L288:
 2145 00c8 FFF7FEFF 		bl	HAL_TIM_OC_DelayElapsedCallback
 2146 00cc 2046     		mov	r0, r4
 2147 00ce FFF7FEFF 		bl	HAL_TIM_PWM_PulseFinishedCallback
 2148              	.L289:
 2149 00d2 0023     		movs	r3, #0
 2150 00d4 2377     		strb	r3, [r4, #28]
 2151              	.L287:
 2152 00d6 2368     		ldr	r3, [r4]
 2153 00d8 1A69     		ldr	r2, [r3, #16]
 2154 00da D107     		lsls	r1, r2, #31
 2155 00dc 08D5     		bpl	.L290
 2156 00de DA68     		ldr	r2, [r3, #12]
 2157 00e0 D207     		lsls	r2, r2, #31
 2158 00e2 05D5     		bpl	.L290
 2159 00e4 6FF00102 		mvn	r2, #1
 2160 00e8 1A61     		str	r2, [r3, #16]
 2161 00ea 2046     		mov	r0, r4
 2162 00ec FFF7FEFF 		bl	HAL_TIM_PeriodElapsedCallback
 2163              	.L290:
 2164 00f0 2368     		ldr	r3, [r4]
 2165 00f2 1A69     		ldr	r2, [r3, #16]
 2166 00f4 1006     		lsls	r0, r2, #24
 2167 00f6 08D5     		bpl	.L291
 2168 00f8 DA68     		ldr	r2, [r3, #12]
 2169 00fa 1106     		lsls	r1, r2, #24
ARM GAS  /tmp/ccGuF8yC.s 			page 37


 2170 00fc 05D5     		bpl	.L291
 2171 00fe 6FF08002 		mvn	r2, #128
 2172 0102 1A61     		str	r2, [r3, #16]
 2173 0104 2046     		mov	r0, r4
 2174 0106 FFF7FEFF 		bl	HAL_TIMEx_BreakCallback
 2175              	.L291:
 2176 010a 2368     		ldr	r3, [r4]
 2177 010c 1A69     		ldr	r2, [r3, #16]
 2178 010e 5206     		lsls	r2, r2, #25
 2179 0110 08D5     		bpl	.L292
 2180 0112 DA68     		ldr	r2, [r3, #12]
 2181 0114 5006     		lsls	r0, r2, #25
 2182 0116 05D5     		bpl	.L292
 2183 0118 6FF04002 		mvn	r2, #64
 2184 011c 1A61     		str	r2, [r3, #16]
 2185 011e 2046     		mov	r0, r4
 2186 0120 FFF7FEFF 		bl	HAL_TIM_TriggerCallback
 2187              	.L292:
 2188 0124 2368     		ldr	r3, [r4]
 2189 0126 1A69     		ldr	r2, [r3, #16]
 2190 0128 9106     		lsls	r1, r2, #26
 2191 012a 0AD5     		bpl	.L277
 2192 012c DA68     		ldr	r2, [r3, #12]
 2193 012e 9206     		lsls	r2, r2, #26
 2194 0130 07D5     		bpl	.L277
 2195 0132 6FF02002 		mvn	r2, #32
 2196 0136 2046     		mov	r0, r4
 2197 0138 BDE81040 		pop	{r4, lr}
 2198 013c 1A61     		str	r2, [r3, #16]
 2199 013e FFF7FEBF 		b	HAL_TIMEx_CommutCallback
 2200              	.L277:
 2201 0142 10BD     		pop	{r4, pc}
 2203              		.section	.text.TIM_DMATriggerCplt,"ax",%progbits
 2204              		.align	1
 2205              		.thumb
 2206              		.thumb_func
 2208              	TIM_DMATriggerCplt:
 2209              		@ args = 0, pretend = 0, frame = 0
 2210              		@ frame_needed = 0, uses_anonymous_args = 0
 2211 0000 08B5     		push	{r3, lr}
 2212 0002 406A     		ldr	r0, [r0, #36]
 2213 0004 0123     		movs	r3, #1
 2214 0006 80F83D30 		strb	r3, [r0, #61]
 2215 000a FFF7FEFF 		bl	HAL_TIM_TriggerCallback
 2216 000e 08BD     		pop	{r3, pc}
 2218              		.section	.text.HAL_TIM_TriggerHalfCpltCallback,"ax",%progbits
 2219              		.align	1
 2220              		.weak	HAL_TIM_TriggerHalfCpltCallback
 2221              		.thumb
 2222              		.thumb_func
 2224              	HAL_TIM_TriggerHalfCpltCallback:
 2225              		@ args = 0, pretend = 0, frame = 0
 2226              		@ frame_needed = 0, uses_anonymous_args = 0
 2227              		@ link register save eliminated.
 2228 0000 7047     		bx	lr
 2230              		.section	.text.TIM_DMATriggerHalfCplt,"ax",%progbits
 2231              		.align	1
ARM GAS  /tmp/ccGuF8yC.s 			page 38


 2232              		.thumb
 2233              		.thumb_func
 2235              	TIM_DMATriggerHalfCplt:
 2236              		@ args = 0, pretend = 0, frame = 0
 2237              		@ frame_needed = 0, uses_anonymous_args = 0
 2238 0000 08B5     		push	{r3, lr}
 2239 0002 406A     		ldr	r0, [r0, #36]
 2240 0004 0123     		movs	r3, #1
 2241 0006 80F83D30 		strb	r3, [r0, #61]
 2242 000a FFF7FEFF 		bl	HAL_TIM_TriggerHalfCpltCallback
 2243 000e 08BD     		pop	{r3, pc}
 2245              		.section	.text.HAL_TIM_ErrorCallback,"ax",%progbits
 2246              		.align	1
 2247              		.weak	HAL_TIM_ErrorCallback
 2248              		.thumb
 2249              		.thumb_func
 2251              	HAL_TIM_ErrorCallback:
 2252              		@ args = 0, pretend = 0, frame = 0
 2253              		@ frame_needed = 0, uses_anonymous_args = 0
 2254              		@ link register save eliminated.
 2255 0000 7047     		bx	lr
 2257              		.section	.text.TIM_DMAError,"ax",%progbits
 2258              		.align	1
 2259              		.global	TIM_DMAError
 2260              		.thumb
 2261              		.thumb_func
 2263              	TIM_DMAError:
 2264              		@ args = 0, pretend = 0, frame = 0
 2265              		@ frame_needed = 0, uses_anonymous_args = 0
 2266 0000 08B5     		push	{r3, lr}
 2267 0002 406A     		ldr	r0, [r0, #36]
 2268 0004 0123     		movs	r3, #1
 2269 0006 80F83D30 		strb	r3, [r0, #61]
 2270 000a FFF7FEFF 		bl	HAL_TIM_ErrorCallback
 2271 000e 08BD     		pop	{r3, pc}
 2273              		.section	.text.HAL_TIM_Base_GetState,"ax",%progbits
 2274              		.align	1
 2275              		.global	HAL_TIM_Base_GetState
 2276              		.thumb
 2277              		.thumb_func
 2279              	HAL_TIM_Base_GetState:
 2280              		@ args = 0, pretend = 0, frame = 0
 2281              		@ frame_needed = 0, uses_anonymous_args = 0
 2282              		@ link register save eliminated.
 2283 0000 90F83D00 		ldrb	r0, [r0, #61]	@ zero_extendqisi2
 2284 0004 7047     		bx	lr
 2286              		.section	.text.HAL_TIM_OC_GetState,"ax",%progbits
 2287              		.align	1
 2288              		.global	HAL_TIM_OC_GetState
 2289              		.thumb
 2290              		.thumb_func
 2292              	HAL_TIM_OC_GetState:
 2293              		@ args = 0, pretend = 0, frame = 0
 2294              		@ frame_needed = 0, uses_anonymous_args = 0
 2295              		@ link register save eliminated.
 2296 0000 90F83D00 		ldrb	r0, [r0, #61]	@ zero_extendqisi2
 2297 0004 7047     		bx	lr
ARM GAS  /tmp/ccGuF8yC.s 			page 39


 2299              		.section	.text.HAL_TIM_PWM_GetState,"ax",%progbits
 2300              		.align	1
 2301              		.global	HAL_TIM_PWM_GetState
 2302              		.thumb
 2303              		.thumb_func
 2305              	HAL_TIM_PWM_GetState:
 2306              		@ args = 0, pretend = 0, frame = 0
 2307              		@ frame_needed = 0, uses_anonymous_args = 0
 2308              		@ link register save eliminated.
 2309 0000 90F83D00 		ldrb	r0, [r0, #61]	@ zero_extendqisi2
 2310 0004 7047     		bx	lr
 2312              		.section	.text.HAL_TIM_IC_GetState,"ax",%progbits
 2313              		.align	1
 2314              		.global	HAL_TIM_IC_GetState
 2315              		.thumb
 2316              		.thumb_func
 2318              	HAL_TIM_IC_GetState:
 2319              		@ args = 0, pretend = 0, frame = 0
 2320              		@ frame_needed = 0, uses_anonymous_args = 0
 2321              		@ link register save eliminated.
 2322 0000 90F83D00 		ldrb	r0, [r0, #61]	@ zero_extendqisi2
 2323 0004 7047     		bx	lr
 2325              		.section	.text.HAL_TIM_OnePulse_GetState,"ax",%progbits
 2326              		.align	1
 2327              		.global	HAL_TIM_OnePulse_GetState
 2328              		.thumb
 2329              		.thumb_func
 2331              	HAL_TIM_OnePulse_GetState:
 2332              		@ args = 0, pretend = 0, frame = 0
 2333              		@ frame_needed = 0, uses_anonymous_args = 0
 2334              		@ link register save eliminated.
 2335 0000 90F83D00 		ldrb	r0, [r0, #61]	@ zero_extendqisi2
 2336 0004 7047     		bx	lr
 2338              		.section	.text.HAL_TIM_Encoder_GetState,"ax",%progbits
 2339              		.align	1
 2340              		.global	HAL_TIM_Encoder_GetState
 2341              		.thumb
 2342              		.thumb_func
 2344              	HAL_TIM_Encoder_GetState:
 2345              		@ args = 0, pretend = 0, frame = 0
 2346              		@ frame_needed = 0, uses_anonymous_args = 0
 2347              		@ link register save eliminated.
 2348 0000 90F83D00 		ldrb	r0, [r0, #61]	@ zero_extendqisi2
 2349 0004 7047     		bx	lr
 2351              		.section	.text.TIM_Base_SetConfig,"ax",%progbits
 2352              		.align	1
 2353              		.global	TIM_Base_SetConfig
 2354              		.thumb
 2355              		.thumb_func
 2357              	TIM_Base_SetConfig:
 2358              		@ args = 0, pretend = 0, frame = 0
 2359              		@ frame_needed = 0, uses_anonymous_args = 0
 2360 0000 164A     		ldr	r2, .L364
 2361 0002 10B5     		push	{r4, lr}
 2362 0004 9042     		cmp	r0, r2
 2363 0006 0368     		ldr	r3, [r0]
 2364 0008 05D0     		beq	.L354
ARM GAS  /tmp/ccGuF8yC.s 			page 40


 2365 000a B0F1804F 		cmp	r0, #1073741824
 2366 000e 02D0     		beq	.L354
 2367 0010 134C     		ldr	r4, .L364+4
 2368 0012 A042     		cmp	r0, r4
 2369 0014 10D1     		bne	.L355
 2370              	.L354:
 2371 0016 4C68     		ldr	r4, [r1, #4]
 2372 0018 23F07003 		bic	r3, r3, #112
 2373 001c 9042     		cmp	r0, r2
 2374 001e 43EA0403 		orr	r3, r3, r4
 2375 0022 05D0     		beq	.L356
 2376 0024 B0F1804F 		cmp	r0, #1073741824
 2377 0028 02D0     		beq	.L356
 2378 002a 0D4A     		ldr	r2, .L364+4
 2379 002c 9042     		cmp	r0, r2
 2380 002e 03D1     		bne	.L355
 2381              	.L356:
 2382 0030 CA68     		ldr	r2, [r1, #12]
 2383 0032 23F44073 		bic	r3, r3, #768
 2384 0036 1343     		orrs	r3, r3, r2
 2385              	.L355:
 2386 0038 4A69     		ldr	r2, [r1, #20]
 2387 003a 23F08003 		bic	r3, r3, #128
 2388 003e 1343     		orrs	r3, r3, r2
 2389 0040 0360     		str	r3, [r0]
 2390 0042 8B68     		ldr	r3, [r1, #8]
 2391 0044 C362     		str	r3, [r0, #44]
 2392 0046 0B68     		ldr	r3, [r1]
 2393 0048 8362     		str	r3, [r0, #40]
 2394 004a 044B     		ldr	r3, .L364
 2395 004c 9842     		cmp	r0, r3
 2396 004e 04BF     		itt	eq
 2397 0050 0B69     		ldreq	r3, [r1, #16]
 2398 0052 0363     		streq	r3, [r0, #48]
 2399 0054 0123     		movs	r3, #1
 2400 0056 4361     		str	r3, [r0, #20]
 2401 0058 10BD     		pop	{r4, pc}
 2402              	.L365:
 2403 005a 00BF     		.align	2
 2404              	.L364:
 2405 005c 002C0140 		.word	1073818624
 2406 0060 00040040 		.word	1073742848
 2408              		.section	.text.HAL_TIM_Base_Init,"ax",%progbits
 2409              		.align	1
 2410              		.global	HAL_TIM_Base_Init
 2411              		.thumb
 2412              		.thumb_func
 2414              	HAL_TIM_Base_Init:
 2415              		@ args = 0, pretend = 0, frame = 0
 2416              		@ frame_needed = 0, uses_anonymous_args = 0
 2417 0000 10B5     		push	{r4, lr}
 2418 0002 0446     		mov	r4, r0
 2419 0004 A0B1     		cbz	r0, .L369
 2420 0006 90F83D30 		ldrb	r3, [r0, #61]	@ zero_extendqisi2
 2421 000a 03F0FF02 		and	r2, r3, #255
 2422 000e 1BB9     		cbnz	r3, .L368
 2423 0010 80F83C20 		strb	r2, [r0, #60]
ARM GAS  /tmp/ccGuF8yC.s 			page 41


 2424 0014 FFF7FEFF 		bl	HAL_TIM_Base_MspInit
 2425              	.L368:
 2426 0018 0223     		movs	r3, #2
 2427 001a 84F83D30 		strb	r3, [r4, #61]
 2428 001e 2068     		ldr	r0, [r4]
 2429 0020 211D     		adds	r1, r4, #4
 2430 0022 FFF7FEFF 		bl	TIM_Base_SetConfig
 2431 0026 0123     		movs	r3, #1
 2432 0028 84F83D30 		strb	r3, [r4, #61]
 2433 002c 0020     		movs	r0, #0
 2434 002e 10BD     		pop	{r4, pc}
 2435              	.L369:
 2436 0030 0120     		movs	r0, #1
 2437 0032 10BD     		pop	{r4, pc}
 2439              		.section	.text.HAL_TIM_OC_Init,"ax",%progbits
 2440              		.align	1
 2441              		.global	HAL_TIM_OC_Init
 2442              		.thumb
 2443              		.thumb_func
 2445              	HAL_TIM_OC_Init:
 2446              		@ args = 0, pretend = 0, frame = 0
 2447              		@ frame_needed = 0, uses_anonymous_args = 0
 2448 0000 10B5     		push	{r4, lr}
 2449 0002 0446     		mov	r4, r0
 2450 0004 A0B1     		cbz	r0, .L373
 2451 0006 90F83D30 		ldrb	r3, [r0, #61]	@ zero_extendqisi2
 2452 000a 03F0FF02 		and	r2, r3, #255
 2453 000e 1BB9     		cbnz	r3, .L372
 2454 0010 80F83C20 		strb	r2, [r0, #60]
 2455 0014 FFF7FEFF 		bl	HAL_TIM_OC_MspInit
 2456              	.L372:
 2457 0018 0223     		movs	r3, #2
 2458 001a 84F83D30 		strb	r3, [r4, #61]
 2459 001e 2068     		ldr	r0, [r4]
 2460 0020 211D     		adds	r1, r4, #4
 2461 0022 FFF7FEFF 		bl	TIM_Base_SetConfig
 2462 0026 0123     		movs	r3, #1
 2463 0028 84F83D30 		strb	r3, [r4, #61]
 2464 002c 0020     		movs	r0, #0
 2465 002e 10BD     		pop	{r4, pc}
 2466              	.L373:
 2467 0030 0120     		movs	r0, #1
 2468 0032 10BD     		pop	{r4, pc}
 2470              		.section	.text.HAL_TIM_PWM_Init,"ax",%progbits
 2471              		.align	1
 2472              		.global	HAL_TIM_PWM_Init
 2473              		.thumb
 2474              		.thumb_func
 2476              	HAL_TIM_PWM_Init:
 2477              		@ args = 0, pretend = 0, frame = 0
 2478              		@ frame_needed = 0, uses_anonymous_args = 0
 2479 0000 10B5     		push	{r4, lr}
 2480 0002 0446     		mov	r4, r0
 2481 0004 A0B1     		cbz	r0, .L377
 2482 0006 90F83D30 		ldrb	r3, [r0, #61]	@ zero_extendqisi2
 2483 000a 03F0FF02 		and	r2, r3, #255
 2484 000e 1BB9     		cbnz	r3, .L376
ARM GAS  /tmp/ccGuF8yC.s 			page 42


 2485 0010 80F83C20 		strb	r2, [r0, #60]
 2486 0014 FFF7FEFF 		bl	HAL_TIM_PWM_MspInit
 2487              	.L376:
 2488 0018 0223     		movs	r3, #2
 2489 001a 84F83D30 		strb	r3, [r4, #61]
 2490 001e 2068     		ldr	r0, [r4]
 2491 0020 211D     		adds	r1, r4, #4
 2492 0022 FFF7FEFF 		bl	TIM_Base_SetConfig
 2493 0026 0123     		movs	r3, #1
 2494 0028 84F83D30 		strb	r3, [r4, #61]
 2495 002c 0020     		movs	r0, #0
 2496 002e 10BD     		pop	{r4, pc}
 2497              	.L377:
 2498 0030 0120     		movs	r0, #1
 2499 0032 10BD     		pop	{r4, pc}
 2501              		.section	.text.HAL_TIM_IC_Init,"ax",%progbits
 2502              		.align	1
 2503              		.global	HAL_TIM_IC_Init
 2504              		.thumb
 2505              		.thumb_func
 2507              	HAL_TIM_IC_Init:
 2508              		@ args = 0, pretend = 0, frame = 0
 2509              		@ frame_needed = 0, uses_anonymous_args = 0
 2510 0000 10B5     		push	{r4, lr}
 2511 0002 0446     		mov	r4, r0
 2512 0004 A0B1     		cbz	r0, .L381
 2513 0006 90F83D30 		ldrb	r3, [r0, #61]	@ zero_extendqisi2
 2514 000a 03F0FF02 		and	r2, r3, #255
 2515 000e 1BB9     		cbnz	r3, .L380
 2516 0010 80F83C20 		strb	r2, [r0, #60]
 2517 0014 FFF7FEFF 		bl	HAL_TIM_IC_MspInit
 2518              	.L380:
 2519 0018 0223     		movs	r3, #2
 2520 001a 84F83D30 		strb	r3, [r4, #61]
 2521 001e 2068     		ldr	r0, [r4]
 2522 0020 211D     		adds	r1, r4, #4
 2523 0022 FFF7FEFF 		bl	TIM_Base_SetConfig
 2524 0026 0123     		movs	r3, #1
 2525 0028 84F83D30 		strb	r3, [r4, #61]
 2526 002c 0020     		movs	r0, #0
 2527 002e 10BD     		pop	{r4, pc}
 2528              	.L381:
 2529 0030 0120     		movs	r0, #1
 2530 0032 10BD     		pop	{r4, pc}
 2532              		.section	.text.HAL_TIM_OnePulse_Init,"ax",%progbits
 2533              		.align	1
 2534              		.global	HAL_TIM_OnePulse_Init
 2535              		.thumb
 2536              		.thumb_func
 2538              	HAL_TIM_OnePulse_Init:
 2539              		@ args = 0, pretend = 0, frame = 0
 2540              		@ frame_needed = 0, uses_anonymous_args = 0
 2541 0000 38B5     		push	{r3, r4, r5, lr}
 2542 0002 0D46     		mov	r5, r1
 2543 0004 0446     		mov	r4, r0
 2544 0006 E0B1     		cbz	r0, .L385
 2545 0008 90F83D30 		ldrb	r3, [r0, #61]	@ zero_extendqisi2
ARM GAS  /tmp/ccGuF8yC.s 			page 43


 2546 000c 03F0FF02 		and	r2, r3, #255
 2547 0010 1BB9     		cbnz	r3, .L384
 2548 0012 80F83C20 		strb	r2, [r0, #60]
 2549 0016 FFF7FEFF 		bl	HAL_TIM_OnePulse_MspInit
 2550              	.L384:
 2551 001a 0223     		movs	r3, #2
 2552 001c 84F83D30 		strb	r3, [r4, #61]
 2553 0020 2068     		ldr	r0, [r4]
 2554 0022 211D     		adds	r1, r4, #4
 2555 0024 FFF7FEFF 		bl	TIM_Base_SetConfig
 2556 0028 2368     		ldr	r3, [r4]
 2557 002a 0020     		movs	r0, #0
 2558 002c 1A68     		ldr	r2, [r3]
 2559 002e 22F00802 		bic	r2, r2, #8
 2560 0032 1A60     		str	r2, [r3]
 2561 0034 1968     		ldr	r1, [r3]
 2562 0036 2943     		orrs	r1, r1, r5
 2563 0038 1960     		str	r1, [r3]
 2564 003a 0123     		movs	r3, #1
 2565 003c 84F83D30 		strb	r3, [r4, #61]
 2566 0040 38BD     		pop	{r3, r4, r5, pc}
 2567              	.L385:
 2568 0042 0120     		movs	r0, #1
 2569 0044 38BD     		pop	{r3, r4, r5, pc}
 2571              		.section	.text.HAL_TIM_Encoder_Init,"ax",%progbits
 2572              		.align	1
 2573              		.global	HAL_TIM_Encoder_Init
 2574              		.thumb
 2575              		.thumb_func
 2577              	HAL_TIM_Encoder_Init:
 2578              		@ args = 0, pretend = 0, frame = 0
 2579              		@ frame_needed = 0, uses_anonymous_args = 0
 2580 0000 F8B5     		push	{r3, r4, r5, r6, r7, lr}
 2581 0002 0C46     		mov	r4, r1
 2582 0004 0546     		mov	r5, r0
 2583 0006 0028     		cmp	r0, #0
 2584 0008 43D0     		beq	.L389
 2585 000a 90F83D30 		ldrb	r3, [r0, #61]	@ zero_extendqisi2
 2586 000e 03F0FF02 		and	r2, r3, #255
 2587 0012 1BB9     		cbnz	r3, .L388
 2588 0014 80F83C20 		strb	r2, [r0, #60]
 2589 0018 FFF7FEFF 		bl	HAL_TIM_Encoder_MspInit
 2590              	.L388:
 2591 001c 2946     		mov	r1, r5
 2592 001e 0223     		movs	r3, #2
 2593 0020 51F8040B 		ldr	r0, [r1], #4
 2594 0024 85F83D30 		strb	r3, [r5, #61]
 2595 0028 8368     		ldr	r3, [r0, #8]
 2596 002a 23F48043 		bic	r3, r3, #16384
 2597 002e 23F00703 		bic	r3, r3, #7
 2598 0032 8360     		str	r3, [r0, #8]
 2599 0034 FFF7FEFF 		bl	TIM_Base_SetConfig
 2600 0038 2968     		ldr	r1, [r5]
 2601 003a 2268     		ldr	r2, [r4]
 2602 003c 8E68     		ldr	r6, [r1, #8]
 2603 003e 8B69     		ldr	r3, [r1, #24]
 2604 0040 1643     		orrs	r6, r6, r2
ARM GAS  /tmp/ccGuF8yC.s 			page 44


 2605 0042 23F44073 		bic	r3, r3, #768
 2606 0046 A269     		ldr	r2, [r4, #24]
 2607 0048 23F00303 		bic	r3, r3, #3
 2608 004c 43EA0222 		orr	r2, r3, r2, lsl #8
 2609 0050 A368     		ldr	r3, [r4, #8]
 2610 0052 2769     		ldr	r7, [r4, #16]
 2611 0054 1343     		orrs	r3, r3, r2
 2612 0056 E269     		ldr	r2, [r4, #28]
 2613 0058 3F01     		lsls	r7, r7, #4
 2614 005a 47EA0227 		orr	r7, r7, r2, lsl #8
 2615 005e E268     		ldr	r2, [r4, #12]
 2616 0060 086A     		ldr	r0, [r1, #32]
 2617 0062 3A43     		orrs	r2, r2, r7
 2618 0064 276A     		ldr	r7, [r4, #32]
 2619 0066 23F47C43 		bic	r3, r3, #64512
 2620 006a 42EA0732 		orr	r2, r2, r7, lsl #12
 2621 006e 23F0FC03 		bic	r3, r3, #252
 2622 0072 1343     		orrs	r3, r3, r2
 2623 0074 20F02202 		bic	r2, r0, #34
 2624 0078 6069     		ldr	r0, [r4, #20]
 2625 007a 42EA0012 		orr	r2, r2, r0, lsl #4
 2626 007e 6068     		ldr	r0, [r4, #4]
 2627 0080 8E60     		str	r6, [r1, #8]
 2628 0082 0243     		orrs	r2, r2, r0
 2629 0084 8B61     		str	r3, [r1, #24]
 2630 0086 0123     		movs	r3, #1
 2631 0088 0A62     		str	r2, [r1, #32]
 2632 008a 0020     		movs	r0, #0
 2633 008c 85F83D30 		strb	r3, [r5, #61]
 2634 0090 F8BD     		pop	{r3, r4, r5, r6, r7, pc}
 2635              	.L389:
 2636 0092 0120     		movs	r0, #1
 2637 0094 F8BD     		pop	{r3, r4, r5, r6, r7, pc}
 2639              		.section	.text.TIM_OC2_SetConfig,"ax",%progbits
 2640              		.align	1
 2641              		.global	TIM_OC2_SetConfig
 2642              		.thumb
 2643              		.thumb_func
 2645              	TIM_OC2_SetConfig:
 2646              		@ args = 0, pretend = 0, frame = 0
 2647              		@ frame_needed = 0, uses_anonymous_args = 0
 2648 0000 036A     		ldr	r3, [r0, #32]
 2649 0002 30B5     		push	{r4, r5, lr}
 2650 0004 23F01003 		bic	r3, r3, #16
 2651 0008 0362     		str	r3, [r0, #32]
 2652 000a 036A     		ldr	r3, [r0, #32]
 2653 000c 4268     		ldr	r2, [r0, #4]
 2654 000e 8469     		ldr	r4, [r0, #24]
 2655 0010 0D68     		ldr	r5, [r1]
 2656 0012 24F4E644 		bic	r4, r4, #29440
 2657 0016 44EA0524 		orr	r4, r4, r5, lsl #8
 2658 001a 8D68     		ldr	r5, [r1, #8]
 2659 001c 23F02003 		bic	r3, r3, #32
 2660 0020 43EA0513 		orr	r3, r3, r5, lsl #4
 2661 0024 0B4D     		ldr	r5, .L392
 2662 0026 A842     		cmp	r0, r5
 2663 0028 0ED1     		bne	.L391
ARM GAS  /tmp/ccGuF8yC.s 			page 45


 2664 002a CD68     		ldr	r5, [r1, #12]
 2665 002c 23F08003 		bic	r3, r3, #128
 2666 0030 43EA0513 		orr	r3, r3, r5, lsl #4
 2667 0034 4D69     		ldr	r5, [r1, #20]
 2668 0036 22F44062 		bic	r2, r2, #3072
 2669 003a 42EA8502 		orr	r2, r2, r5, lsl #2
 2670 003e 8D69     		ldr	r5, [r1, #24]
 2671 0040 23F04003 		bic	r3, r3, #64
 2672 0044 42EA8502 		orr	r2, r2, r5, lsl #2
 2673              	.L391:
 2674 0048 4260     		str	r2, [r0, #4]
 2675 004a 4A68     		ldr	r2, [r1, #4]
 2676 004c 8461     		str	r4, [r0, #24]
 2677 004e 8263     		str	r2, [r0, #56]
 2678 0050 0362     		str	r3, [r0, #32]
 2679 0052 30BD     		pop	{r4, r5, pc}
 2680              	.L393:
 2681              		.align	2
 2682              	.L392:
 2683 0054 002C0140 		.word	1073818624
 2685              		.section	.text.HAL_TIM_OC_ConfigChannel,"ax",%progbits
 2686              		.align	1
 2687              		.global	HAL_TIM_OC_ConfigChannel
 2688              		.thumb
 2689              		.thumb_func
 2691              	HAL_TIM_OC_ConfigChannel:
 2692              		@ args = 0, pretend = 0, frame = 0
 2693              		@ frame_needed = 0, uses_anonymous_args = 0
 2694 0000 38B5     		push	{r3, r4, r5, lr}
 2695 0002 90F83C30 		ldrb	r3, [r0, #60]	@ zero_extendqisi2
 2696 0006 0446     		mov	r4, r0
 2697 0008 012B     		cmp	r3, #1
 2698 000a 4FF00200 		mov	r0, #2
 2699 000e 24D0     		beq	.L395
 2700 0010 0123     		movs	r3, #1
 2701 0012 84F83C30 		strb	r3, [r4, #60]
 2702 0016 84F83D00 		strb	r0, [r4, #61]
 2703 001a 1D46     		mov	r5, r3
 2704 001c 0C2A     		cmp	r2, #12
 2705 001e 17D8     		bhi	.L396
 2706 0020 DFE802F0 		tbb	[pc, r2]
 2707              	.L398:
 2708 0024 07       		.byte	(.L397-.L398)/2
 2709 0025 16       		.byte	(.L396-.L398)/2
 2710 0026 16       		.byte	(.L396-.L398)/2
 2711 0027 16       		.byte	(.L396-.L398)/2
 2712 0028 0B       		.byte	(.L399-.L398)/2
 2713 0029 16       		.byte	(.L396-.L398)/2
 2714 002a 16       		.byte	(.L396-.L398)/2
 2715 002b 16       		.byte	(.L396-.L398)/2
 2716 002c 0F       		.byte	(.L400-.L398)/2
 2717 002d 16       		.byte	(.L396-.L398)/2
 2718 002e 16       		.byte	(.L396-.L398)/2
 2719 002f 16       		.byte	(.L396-.L398)/2
 2720 0030 13       		.byte	(.L401-.L398)/2
 2721 0031 00       		.p2align 1
 2722              	.L397:
ARM GAS  /tmp/ccGuF8yC.s 			page 46


 2723 0032 2068     		ldr	r0, [r4]
 2724 0034 FFF7FEFF 		bl	TIM_OC1_SetConfig
 2725 0038 0AE0     		b	.L396
 2726              	.L399:
 2727 003a 2068     		ldr	r0, [r4]
 2728 003c FFF7FEFF 		bl	TIM_OC2_SetConfig
 2729 0040 06E0     		b	.L396
 2730              	.L400:
 2731 0042 2068     		ldr	r0, [r4]
 2732 0044 FFF7FEFF 		bl	TIM_OC3_SetConfig
 2733 0048 02E0     		b	.L396
 2734              	.L401:
 2735 004a 2068     		ldr	r0, [r4]
 2736 004c FFF7FEFF 		bl	TIM_OC4_SetConfig
 2737              	.L396:
 2738 0050 0020     		movs	r0, #0
 2739 0052 84F83D50 		strb	r5, [r4, #61]
 2740 0056 84F83C00 		strb	r0, [r4, #60]
 2741              	.L395:
 2742 005a 38BD     		pop	{r3, r4, r5, pc}
 2744              		.section	.text.HAL_TIM_PWM_ConfigChannel,"ax",%progbits
 2745              		.align	1
 2746              		.global	HAL_TIM_PWM_ConfigChannel
 2747              		.thumb
 2748              		.thumb_func
 2750              	HAL_TIM_PWM_ConfigChannel:
 2751              		@ args = 0, pretend = 0, frame = 0
 2752              		@ frame_needed = 0, uses_anonymous_args = 0
 2753 0000 38B5     		push	{r3, r4, r5, lr}
 2754 0002 90F83C30 		ldrb	r3, [r0, #60]	@ zero_extendqisi2
 2755 0006 0446     		mov	r4, r0
 2756 0008 012B     		cmp	r3, #1
 2757 000a 0D46     		mov	r5, r1
 2758 000c 4FF00200 		mov	r0, #2
 2759 0010 58D0     		beq	.L404
 2760 0012 0123     		movs	r3, #1
 2761 0014 84F83C30 		strb	r3, [r4, #60]
 2762 0018 84F83D00 		strb	r0, [r4, #61]
 2763 001c 0C2A     		cmp	r2, #12
 2764 001e 4BD8     		bhi	.L405
 2765 0020 DFE802F0 		tbb	[pc, r2]
 2766              	.L407:
 2767 0024 07       		.byte	(.L406-.L407)/2
 2768 0025 4A       		.byte	(.L405-.L407)/2
 2769 0026 4A       		.byte	(.L405-.L407)/2
 2770 0027 4A       		.byte	(.L405-.L407)/2
 2771 0028 17       		.byte	(.L408-.L407)/2
 2772 0029 4A       		.byte	(.L405-.L407)/2
 2773 002a 4A       		.byte	(.L405-.L407)/2
 2774 002b 4A       		.byte	(.L405-.L407)/2
 2775 002c 29       		.byte	(.L409-.L407)/2
 2776 002d 4A       		.byte	(.L405-.L407)/2
 2777 002e 4A       		.byte	(.L405-.L407)/2
 2778 002f 4A       		.byte	(.L405-.L407)/2
 2779 0030 39       		.byte	(.L410-.L407)/2
 2780 0031 00       		.p2align 1
 2781              	.L406:
ARM GAS  /tmp/ccGuF8yC.s 			page 47


 2782 0032 2068     		ldr	r0, [r4]
 2783 0034 FFF7FEFF 		bl	TIM_OC1_SetConfig
 2784 0038 2368     		ldr	r3, [r4]
 2785 003a 9A69     		ldr	r2, [r3, #24]
 2786 003c 42F00802 		orr	r2, r2, #8
 2787 0040 9A61     		str	r2, [r3, #24]
 2788 0042 9A69     		ldr	r2, [r3, #24]
 2789 0044 22F00402 		bic	r2, r2, #4
 2790 0048 9A61     		str	r2, [r3, #24]
 2791 004a 9969     		ldr	r1, [r3, #24]
 2792 004c 2A69     		ldr	r2, [r5, #16]
 2793 004e 0A43     		orrs	r2, r2, r1
 2794 0050 0FE0     		b	.L412
 2795              	.L408:
 2796 0052 2068     		ldr	r0, [r4]
 2797 0054 FFF7FEFF 		bl	TIM_OC2_SetConfig
 2798 0058 2368     		ldr	r3, [r4]
 2799 005a 2969     		ldr	r1, [r5, #16]
 2800 005c 9A69     		ldr	r2, [r3, #24]
 2801 005e 42F40062 		orr	r2, r2, #2048
 2802 0062 9A61     		str	r2, [r3, #24]
 2803 0064 9A69     		ldr	r2, [r3, #24]
 2804 0066 22F48062 		bic	r2, r2, #1024
 2805 006a 9A61     		str	r2, [r3, #24]
 2806 006c 9A69     		ldr	r2, [r3, #24]
 2807 006e 42EA0122 		orr	r2, r2, r1, lsl #8
 2808              	.L412:
 2809 0072 9A61     		str	r2, [r3, #24]
 2810 0074 20E0     		b	.L405
 2811              	.L409:
 2812 0076 2068     		ldr	r0, [r4]
 2813 0078 FFF7FEFF 		bl	TIM_OC3_SetConfig
 2814 007c 2368     		ldr	r3, [r4]
 2815 007e DA69     		ldr	r2, [r3, #28]
 2816 0080 42F00802 		orr	r2, r2, #8
 2817 0084 DA61     		str	r2, [r3, #28]
 2818 0086 DA69     		ldr	r2, [r3, #28]
 2819 0088 22F00402 		bic	r2, r2, #4
 2820 008c DA61     		str	r2, [r3, #28]
 2821 008e D969     		ldr	r1, [r3, #28]
 2822 0090 2A69     		ldr	r2, [r5, #16]
 2823 0092 0A43     		orrs	r2, r2, r1
 2824 0094 0FE0     		b	.L413
 2825              	.L410:
 2826 0096 2068     		ldr	r0, [r4]
 2827 0098 FFF7FEFF 		bl	TIM_OC4_SetConfig
 2828 009c 2368     		ldr	r3, [r4]
 2829 009e 2969     		ldr	r1, [r5, #16]
 2830 00a0 DA69     		ldr	r2, [r3, #28]
 2831 00a2 42F40062 		orr	r2, r2, #2048
 2832 00a6 DA61     		str	r2, [r3, #28]
 2833 00a8 DA69     		ldr	r2, [r3, #28]
 2834 00aa 22F48062 		bic	r2, r2, #1024
 2835 00ae DA61     		str	r2, [r3, #28]
 2836 00b0 DA69     		ldr	r2, [r3, #28]
 2837 00b2 42EA0122 		orr	r2, r2, r1, lsl #8
 2838              	.L413:
ARM GAS  /tmp/ccGuF8yC.s 			page 48


 2839 00b6 DA61     		str	r2, [r3, #28]
 2840              	.L405:
 2841 00b8 0123     		movs	r3, #1
 2842 00ba 0020     		movs	r0, #0
 2843 00bc 84F83D30 		strb	r3, [r4, #61]
 2844 00c0 84F83C00 		strb	r0, [r4, #60]
 2845              	.L404:
 2846 00c4 38BD     		pop	{r3, r4, r5, pc}
 2848              		.section	.text.TIM_TI1_SetConfig,"ax",%progbits
 2849              		.align	1
 2850              		.global	TIM_TI1_SetConfig
 2851              		.thumb
 2852              		.thumb_func
 2854              	TIM_TI1_SetConfig:
 2855              		@ args = 0, pretend = 0, frame = 0
 2856              		@ frame_needed = 0, uses_anonymous_args = 0
 2857 0000 70B5     		push	{r4, r5, r6, lr}
 2858 0002 046A     		ldr	r4, [r0, #32]
 2859 0004 104E     		ldr	r6, .L423
 2860 0006 24F00104 		bic	r4, r4, #1
 2861 000a 0462     		str	r4, [r0, #32]
 2862 000c B042     		cmp	r0, r6
 2863 000e 8469     		ldr	r4, [r0, #24]
 2864 0010 056A     		ldr	r5, [r0, #32]
 2865 0012 06D0     		beq	.L415
 2866 0014 B0F1804F 		cmp	r0, #1073741824
 2867 0018 03D0     		beq	.L415
 2868 001a A6F59436 		sub	r6, r6, #75776
 2869 001e B042     		cmp	r0, r6
 2870 0020 0FD1     		bne	.L421
 2871              	.L415:
 2872 0022 24F00304 		bic	r4, r4, #3
 2873 0026 2243     		orrs	r2, r2, r4
 2874              	.L417:
 2875 0028 1B01     		lsls	r3, r3, #4
 2876 002a 22F0F002 		bic	r2, r2, #240
 2877 002e DBB2     		uxtb	r3, r3
 2878 0030 25F00A05 		bic	r5, r5, #10
 2879 0034 01F00A01 		and	r1, r1, #10
 2880 0038 1A43     		orrs	r2, r2, r3
 2881 003a 0D43     		orrs	r5, r5, r1
 2882 003c 8261     		str	r2, [r0, #24]
 2883 003e 0562     		str	r5, [r0, #32]
 2884 0040 70BD     		pop	{r4, r5, r6, pc}
 2885              	.L421:
 2886 0042 44F00102 		orr	r2, r4, #1
 2887 0046 EFE7     		b	.L417
 2888              	.L424:
 2889              		.align	2
 2890              	.L423:
 2891 0048 002C0140 		.word	1073818624
 2893              		.section	.text.HAL_TIM_IC_ConfigChannel,"ax",%progbits
 2894              		.align	1
 2895              		.global	HAL_TIM_IC_ConfigChannel
 2896              		.thumb
 2897              		.thumb_func
 2899              	HAL_TIM_IC_ConfigChannel:
ARM GAS  /tmp/ccGuF8yC.s 			page 49


 2900              		@ args = 0, pretend = 0, frame = 0
 2901              		@ frame_needed = 0, uses_anonymous_args = 0
 2902 0000 F8B5     		push	{r3, r4, r5, r6, r7, lr}
 2903 0002 90F83C30 		ldrb	r3, [r0, #60]	@ zero_extendqisi2
 2904 0006 0446     		mov	r4, r0
 2905 0008 012B     		cmp	r3, #1
 2906 000a 0D46     		mov	r5, r1
 2907 000c 4FF00200 		mov	r0, #2
 2908 0010 7FD0     		beq	.L426
 2909 0012 0123     		movs	r3, #1
 2910 0014 84F83C30 		strb	r3, [r4, #60]
 2911 0018 84F83D00 		strb	r0, [r4, #61]
 2912 001c 72B9     		cbnz	r2, .L427
 2913 001e 06C9     		ldmia	r1, {r1, r2}
 2914 0020 EB68     		ldr	r3, [r5, #12]
 2915 0022 2068     		ldr	r0, [r4]
 2916 0024 FFF7FEFF 		bl	TIM_TI1_SetConfig
 2917 0028 2368     		ldr	r3, [r4]
 2918 002a 9A69     		ldr	r2, [r3, #24]
 2919 002c 22F00C02 		bic	r2, r2, #12
 2920 0030 9A61     		str	r2, [r3, #24]
 2921 0032 9969     		ldr	r1, [r3, #24]
 2922 0034 AA68     		ldr	r2, [r5, #8]
 2923 0036 0A43     		orrs	r2, r2, r1
 2924 0038 9A61     		str	r2, [r3, #24]
 2925 003a 64E0     		b	.L428
 2926              	.L427:
 2927 003c 042A     		cmp	r2, #4
 2928 003e 8E68     		ldr	r6, [r1, #8]
 2929 0040 91E80140 		ldmia	r1, {r0, lr}
 2930 0044 2368     		ldr	r3, [r4]
 2931 0046 C968     		ldr	r1, [r1, #12]
 2932 0048 1FD1     		bne	.L429
 2933 004a 1A6A     		ldr	r2, [r3, #32]
 2934 004c 0903     		lsls	r1, r1, #12
 2935 004e 22F01002 		bic	r2, r2, #16
 2936 0052 1A62     		str	r2, [r3, #32]
 2937 0054 9D69     		ldr	r5, [r3, #24]
 2938 0056 1F6A     		ldr	r7, [r3, #32]
 2939 0058 25F44075 		bic	r5, r5, #768
 2940 005c 45EA0E22 		orr	r2, r5, lr, lsl #8
 2941 0060 0001     		lsls	r0, r0, #4
 2942 0062 22F47042 		bic	r2, r2, #61440
 2943 0066 89B2     		uxth	r1, r1
 2944 0068 27F0A005 		bic	r5, r7, #160
 2945 006c 00F0A000 		and	r0, r0, #160
 2946 0070 0A43     		orrs	r2, r2, r1
 2947 0072 2843     		orrs	r0, r0, r5
 2948 0074 9A61     		str	r2, [r3, #24]
 2949 0076 1862     		str	r0, [r3, #32]
 2950 0078 9A69     		ldr	r2, [r3, #24]
 2951 007a 22F44062 		bic	r2, r2, #3072
 2952 007e 9A61     		str	r2, [r3, #24]
 2953 0080 9A69     		ldr	r2, [r3, #24]
 2954 0082 42EA0626 		orr	r6, r2, r6, lsl #8
 2955 0086 9E61     		str	r6, [r3, #24]
 2956 0088 3DE0     		b	.L428
ARM GAS  /tmp/ccGuF8yC.s 			page 50


 2957              	.L429:
 2958 008a 082A     		cmp	r2, #8
 2959 008c 1A6A     		ldr	r2, [r3, #32]
 2960 008e 1CD1     		bne	.L430
 2961 0090 22F48072 		bic	r2, r2, #256
 2962 0094 1A62     		str	r2, [r3, #32]
 2963 0096 DD69     		ldr	r5, [r3, #28]
 2964 0098 1F6A     		ldr	r7, [r3, #32]
 2965 009a 25F00305 		bic	r5, r5, #3
 2966 009e 45EA0E02 		orr	r2, r5, lr
 2967 00a2 0901     		lsls	r1, r1, #4
 2968 00a4 0002     		lsls	r0, r0, #8
 2969 00a6 22F0F002 		bic	r2, r2, #240
 2970 00aa C9B2     		uxtb	r1, r1
 2971 00ac 27F40075 		bic	r5, r7, #512
 2972 00b0 00F40070 		and	r0, r0, #512
 2973 00b4 0A43     		orrs	r2, r2, r1
 2974 00b6 2843     		orrs	r0, r0, r5
 2975 00b8 DA61     		str	r2, [r3, #28]
 2976 00ba 1862     		str	r0, [r3, #32]
 2977 00bc DA69     		ldr	r2, [r3, #28]
 2978 00be 22F00C02 		bic	r2, r2, #12
 2979 00c2 DA61     		str	r2, [r3, #28]
 2980 00c4 DA69     		ldr	r2, [r3, #28]
 2981 00c6 1643     		orrs	r6, r6, r2
 2982 00c8 1CE0     		b	.L432
 2983              	.L430:
 2984 00ca 22F48052 		bic	r2, r2, #4096
 2985 00ce 1A62     		str	r2, [r3, #32]
 2986 00d0 DD69     		ldr	r5, [r3, #28]
 2987 00d2 0903     		lsls	r1, r1, #12
 2988 00d4 25F44075 		bic	r5, r5, #768
 2989 00d8 1F6A     		ldr	r7, [r3, #32]
 2990 00da 45EA0E22 		orr	r2, r5, lr, lsl #8
 2991 00de 22F47042 		bic	r2, r2, #61440
 2992 00e2 89B2     		uxth	r1, r1
 2993 00e4 0003     		lsls	r0, r0, #12
 2994 00e6 1143     		orrs	r1, r1, r2
 2995 00e8 00F40050 		and	r0, r0, #8192
 2996 00ec 27F40052 		bic	r2, r7, #8192
 2997 00f0 1043     		orrs	r0, r0, r2
 2998 00f2 D961     		str	r1, [r3, #28]
 2999 00f4 1862     		str	r0, [r3, #32]
 3000 00f6 DA69     		ldr	r2, [r3, #28]
 3001 00f8 22F44062 		bic	r2, r2, #3072
 3002 00fc DA61     		str	r2, [r3, #28]
 3003 00fe DA69     		ldr	r2, [r3, #28]
 3004 0100 42EA0626 		orr	r6, r2, r6, lsl #8
 3005              	.L432:
 3006 0104 DE61     		str	r6, [r3, #28]
 3007              	.L428:
 3008 0106 0123     		movs	r3, #1
 3009 0108 0020     		movs	r0, #0
 3010 010a 84F83D30 		strb	r3, [r4, #61]
 3011 010e 84F83C00 		strb	r0, [r4, #60]
 3012              	.L426:
 3013 0112 F8BD     		pop	{r3, r4, r5, r6, r7, pc}
ARM GAS  /tmp/ccGuF8yC.s 			page 51


 3015              		.section	.text.HAL_TIM_OnePulse_ConfigChannel,"ax",%progbits
 3016              		.align	1
 3017              		.global	HAL_TIM_OnePulse_ConfigChannel
 3018              		.thumb
 3019              		.thumb_func
 3021              	HAL_TIM_OnePulse_ConfigChannel:
 3022              		@ args = 0, pretend = 0, frame = 32
 3023              		@ frame_needed = 0, uses_anonymous_args = 0
 3024 0000 F0B5     		push	{r4, r5, r6, r7, lr}
 3025 0002 9A42     		cmp	r2, r3
 3026 0004 89B0     		sub	sp, sp, #36
 3027 0006 0546     		mov	r5, r0
 3028 0008 0C46     		mov	r4, r1
 3029 000a 1E46     		mov	r6, r3
 3030 000c 6DD0     		beq	.L441
 3031 000e 90F83C30 		ldrb	r3, [r0, #60]	@ zero_extendqisi2
 3032 0012 0220     		movs	r0, #2
 3033 0014 012B     		cmp	r3, #1
 3034 0016 69D0     		beq	.L434
 3035 0018 0123     		movs	r3, #1
 3036 001a 85F83C30 		strb	r3, [r5, #60]
 3037 001e 0B68     		ldr	r3, [r1]
 3038 0020 85F83D00 		strb	r0, [r5, #61]
 3039 0024 0193     		str	r3, [sp, #4]
 3040 0026 4B68     		ldr	r3, [r1, #4]
 3041 0028 0293     		str	r3, [sp, #8]
 3042 002a 8B68     		ldr	r3, [r1, #8]
 3043 002c 0393     		str	r3, [sp, #12]
 3044 002e CB68     		ldr	r3, [r1, #12]
 3045 0030 0493     		str	r3, [sp, #16]
 3046 0032 0B69     		ldr	r3, [r1, #16]
 3047 0034 0693     		str	r3, [sp, #24]
 3048 0036 4B69     		ldr	r3, [r1, #20]
 3049 0038 0793     		str	r3, [sp, #28]
 3050 003a 32B1     		cbz	r2, .L436
 3051 003c 042A     		cmp	r2, #4
 3052 003e 08D1     		bne	.L435
 3053 0040 2868     		ldr	r0, [r5]
 3054 0042 01A9     		add	r1, sp, #4
 3055 0044 FFF7FEFF 		bl	TIM_OC2_SetConfig
 3056 0048 03E0     		b	.L435
 3057              	.L436:
 3058 004a 2868     		ldr	r0, [r5]
 3059 004c 01A9     		add	r1, sp, #4
 3060 004e FFF7FEFF 		bl	TIM_OC1_SetConfig
 3061              	.L435:
 3062 0052 46B3     		cbz	r6, .L439
 3063 0054 042E     		cmp	r6, #4
 3064 0056 41D1     		bne	.L438
 3065 0058 2B68     		ldr	r3, [r5]
 3066 005a A669     		ldr	r6, [r4, #24]
 3067 005c 186A     		ldr	r0, [r3, #32]
 3068 005e E769     		ldr	r7, [r4, #28]
 3069 0060 20F01000 		bic	r0, r0, #16
 3070 0064 226A     		ldr	r2, [r4, #32]
 3071 0066 1862     		str	r0, [r3, #32]
 3072 0068 9969     		ldr	r1, [r3, #24]
ARM GAS  /tmp/ccGuF8yC.s 			page 52


 3073 006a 1203     		lsls	r2, r2, #12
 3074 006c 21F44071 		bic	r1, r1, #768
 3075 0070 41EA0721 		orr	r1, r1, r7, lsl #8
 3076 0074 186A     		ldr	r0, [r3, #32]
 3077 0076 21F47041 		bic	r1, r1, #61440
 3078 007a 92B2     		uxth	r2, r2
 3079 007c 0A43     		orrs	r2, r2, r1
 3080 007e 3101     		lsls	r1, r6, #4
 3081 0080 20F0A000 		bic	r0, r0, #160
 3082 0084 01F0A001 		and	r1, r1, #160
 3083 0088 0143     		orrs	r1, r1, r0
 3084 008a 9A61     		str	r2, [r3, #24]
 3085 008c 1962     		str	r1, [r3, #32]
 3086 008e 9A69     		ldr	r2, [r3, #24]
 3087 0090 22F44062 		bic	r2, r2, #3072
 3088 0094 9A61     		str	r2, [r3, #24]
 3089 0096 9A68     		ldr	r2, [r3, #8]
 3090 0098 22F07002 		bic	r2, r2, #112
 3091 009c 9A60     		str	r2, [r3, #8]
 3092 009e 9A68     		ldr	r2, [r3, #8]
 3093 00a0 42F06002 		orr	r2, r2, #96
 3094 00a4 11E0     		b	.L443
 3095              	.L439:
 3096 00a6 04F11801 		add	r1, r4, #24
 3097 00aa 0EC9     		ldmia	r1, {r1, r2, r3}
 3098 00ac 2868     		ldr	r0, [r5]
 3099 00ae FFF7FEFF 		bl	TIM_TI1_SetConfig
 3100 00b2 2B68     		ldr	r3, [r5]
 3101 00b4 9A69     		ldr	r2, [r3, #24]
 3102 00b6 22F00C02 		bic	r2, r2, #12
 3103 00ba 9A61     		str	r2, [r3, #24]
 3104 00bc 9A68     		ldr	r2, [r3, #8]
 3105 00be 22F07002 		bic	r2, r2, #112
 3106 00c2 9A60     		str	r2, [r3, #8]
 3107 00c4 9A68     		ldr	r2, [r3, #8]
 3108 00c6 42F05002 		orr	r2, r2, #80
 3109              	.L443:
 3110 00ca 9A60     		str	r2, [r3, #8]
 3111 00cc 9A68     		ldr	r2, [r3, #8]
 3112 00ce 22F00702 		bic	r2, r2, #7
 3113 00d2 9A60     		str	r2, [r3, #8]
 3114 00d4 9A68     		ldr	r2, [r3, #8]
 3115 00d6 42F00602 		orr	r2, r2, #6
 3116 00da 9A60     		str	r2, [r3, #8]
 3117              	.L438:
 3118 00dc 0123     		movs	r3, #1
 3119 00de 0020     		movs	r0, #0
 3120 00e0 85F83D30 		strb	r3, [r5, #61]
 3121 00e4 85F83C00 		strb	r0, [r5, #60]
 3122 00e8 00E0     		b	.L434
 3123              	.L441:
 3124 00ea 0120     		movs	r0, #1
 3125              	.L434:
 3126 00ec 09B0     		add	sp, sp, #36
 3127              		@ sp needed
 3128 00ee F0BD     		pop	{r4, r5, r6, r7, pc}
 3130              		.section	.text.TIM_ETR_SetConfig,"ax",%progbits
ARM GAS  /tmp/ccGuF8yC.s 			page 53


 3131              		.align	1
 3132              		.global	TIM_ETR_SetConfig
 3133              		.thumb
 3134              		.thumb_func
 3136              	TIM_ETR_SetConfig:
 3137              		@ args = 0, pretend = 0, frame = 0
 3138              		@ frame_needed = 0, uses_anonymous_args = 0
 3139 0000 10B5     		push	{r4, lr}
 3140 0002 8468     		ldr	r4, [r0, #8]
 3141 0004 24F47F44 		bic	r4, r4, #65280
 3142 0008 2143     		orrs	r1, r1, r4
 3143 000a 0A43     		orrs	r2, r2, r1
 3144 000c 42EA0323 		orr	r3, r2, r3, lsl #8
 3145 0010 8360     		str	r3, [r0, #8]
 3146 0012 10BD     		pop	{r4, pc}
 3148              		.section	.text.HAL_TIM_ConfigOCrefClear,"ax",%progbits
 3149              		.align	1
 3150              		.global	HAL_TIM_ConfigOCrefClear
 3151              		.thumb
 3152              		.thumb_func
 3154              	HAL_TIM_ConfigOCrefClear:
 3155              		@ args = 0, pretend = 0, frame = 0
 3156              		@ frame_needed = 0, uses_anonymous_args = 0
 3157 0000 90F83C30 		ldrb	r3, [r0, #60]	@ zero_extendqisi2
 3158 0004 70B5     		push	{r4, r5, r6, lr}
 3159 0006 012B     		cmp	r3, #1
 3160 0008 0446     		mov	r4, r0
 3161 000a 0D46     		mov	r5, r1
 3162 000c 1646     		mov	r6, r2
 3163 000e 4FF00200 		mov	r0, #2
 3164 0012 5AD0     		beq	.L446
 3165 0014 84F83D00 		strb	r0, [r4, #61]
 3166 0018 4868     		ldr	r0, [r1, #4]
 3167 001a 0123     		movs	r3, #1
 3168 001c 84F83C30 		strb	r3, [r4, #60]
 3169 0020 10B1     		cbz	r0, .L448
 3170 0022 9842     		cmp	r0, r3
 3171 0024 06D0     		beq	.L449
 3172 0026 12E0     		b	.L447
 3173              	.L448:
 3174 0028 2268     		ldr	r2, [r4]
 3175 002a 9368     		ldr	r3, [r2, #8]
 3176 002c 23F47F43 		bic	r3, r3, #65280
 3177 0030 9360     		str	r3, [r2, #8]
 3178 0032 0CE0     		b	.L447
 3179              	.L449:
 3180 0034 C968     		ldr	r1, [r1, #12]
 3181 0036 29B1     		cbz	r1, .L450
 3182 0038 0023     		movs	r3, #0
 3183 003a 84F83D00 		strb	r0, [r4, #61]
 3184 003e 84F83C30 		strb	r3, [r4, #60]
 3185 0042 70BD     		pop	{r4, r5, r6, pc}
 3186              	.L450:
 3187 0044 2068     		ldr	r0, [r4]
 3188 0046 AA68     		ldr	r2, [r5, #8]
 3189 0048 2B69     		ldr	r3, [r5, #16]
 3190 004a FFF7FEFF 		bl	TIM_ETR_SetConfig
ARM GAS  /tmp/ccGuF8yC.s 			page 54


 3191              	.L447:
 3192 004e 0C2E     		cmp	r6, #12
 3193 0050 35D8     		bhi	.L451
 3194 0052 DFE806F0 		tbb	[pc, r6]
 3195              	.L453:
 3196 0056 07       		.byte	(.L452-.L453)/2
 3197 0057 34       		.byte	(.L451-.L453)/2
 3198 0058 34       		.byte	(.L451-.L453)/2
 3199 0059 34       		.byte	(.L451-.L453)/2
 3200 005a 12       		.byte	(.L454-.L453)/2
 3201 005b 34       		.byte	(.L451-.L453)/2
 3202 005c 34       		.byte	(.L451-.L453)/2
 3203 005d 34       		.byte	(.L451-.L453)/2
 3204 005e 1E       		.byte	(.L455-.L453)/2
 3205 005f 34       		.byte	(.L451-.L453)/2
 3206 0060 34       		.byte	(.L451-.L453)/2
 3207 0061 34       		.byte	(.L451-.L453)/2
 3208 0062 29       		.byte	(.L456-.L453)/2
 3209 0063 00       		.p2align 1
 3210              	.L452:
 3211 0064 2A68     		ldr	r2, [r5]
 3212 0066 2368     		ldr	r3, [r4]
 3213 0068 1AB1     		cbz	r2, .L457
 3214 006a 9A69     		ldr	r2, [r3, #24]
 3215 006c 42F08002 		orr	r2, r2, #128
 3216 0070 09E0     		b	.L462
 3217              	.L457:
 3218 0072 9A69     		ldr	r2, [r3, #24]
 3219 0074 22F08002 		bic	r2, r2, #128
 3220 0078 05E0     		b	.L462
 3221              	.L454:
 3222 007a 2A68     		ldr	r2, [r5]
 3223 007c 2368     		ldr	r3, [r4]
 3224 007e 22B1     		cbz	r2, .L458
 3225 0080 9A69     		ldr	r2, [r3, #24]
 3226 0082 42F40042 		orr	r2, r2, #32768
 3227              	.L462:
 3228 0086 9A61     		str	r2, [r3, #24]
 3229 0088 19E0     		b	.L451
 3230              	.L458:
 3231 008a 9A69     		ldr	r2, [r3, #24]
 3232 008c 22F40042 		bic	r2, r2, #32768
 3233 0090 F9E7     		b	.L462
 3234              	.L455:
 3235 0092 2A68     		ldr	r2, [r5]
 3236 0094 2368     		ldr	r3, [r4]
 3237 0096 1AB1     		cbz	r2, .L459
 3238 0098 DA69     		ldr	r2, [r3, #28]
 3239 009a 42F08002 		orr	r2, r2, #128
 3240 009e 0DE0     		b	.L463
 3241              	.L459:
 3242 00a0 DA69     		ldr	r2, [r3, #28]
 3243 00a2 22F08002 		bic	r2, r2, #128
 3244 00a6 09E0     		b	.L463
 3245              	.L456:
 3246 00a8 2A68     		ldr	r2, [r5]
 3247 00aa 2368     		ldr	r3, [r4]
ARM GAS  /tmp/ccGuF8yC.s 			page 55


 3248 00ac 1AB1     		cbz	r2, .L460
 3249 00ae DA69     		ldr	r2, [r3, #28]
 3250 00b0 42F40042 		orr	r2, r2, #32768
 3251 00b4 02E0     		b	.L463
 3252              	.L460:
 3253 00b6 DA69     		ldr	r2, [r3, #28]
 3254 00b8 22F40042 		bic	r2, r2, #32768
 3255              	.L463:
 3256 00bc DA61     		str	r2, [r3, #28]
 3257              	.L451:
 3258 00be 0123     		movs	r3, #1
 3259 00c0 0020     		movs	r0, #0
 3260 00c2 84F83D30 		strb	r3, [r4, #61]
 3261 00c6 84F83C00 		strb	r0, [r4, #60]
 3262              	.L446:
 3263 00ca 70BD     		pop	{r4, r5, r6, pc}
 3265              		.section	.text.HAL_TIM_ConfigClockSource,"ax",%progbits
 3266              		.align	1
 3267              		.global	HAL_TIM_ConfigClockSource
 3268              		.thumb
 3269              		.thumb_func
 3271              	HAL_TIM_ConfigClockSource:
 3272              		@ args = 0, pretend = 0, frame = 0
 3273              		@ frame_needed = 0, uses_anonymous_args = 0
 3274 0000 90F83C20 		ldrb	r2, [r0, #60]	@ zero_extendqisi2
 3275 0004 70B5     		push	{r4, r5, r6, lr}
 3276 0006 012A     		cmp	r2, #1
 3277 0008 0446     		mov	r4, r0
 3278 000a 0B46     		mov	r3, r1
 3279 000c 4FF00200 		mov	r0, #2
 3280 0010 00F08E80 		beq	.L465
 3281 0014 84F83D00 		strb	r0, [r4, #61]
 3282 0018 2068     		ldr	r0, [r4]
 3283 001a 0122     		movs	r2, #1
 3284 001c 84F83C20 		strb	r2, [r4, #60]
 3285 0020 8268     		ldr	r2, [r0, #8]
 3286 0022 22F47F42 		bic	r2, r2, #65280
 3287 0026 22F07702 		bic	r2, r2, #119
 3288 002a 8260     		str	r2, [r0, #8]
 3289 002c 0A68     		ldr	r2, [r1]
 3290 002e 402A     		cmp	r2, #64
 3291 0030 59D0     		beq	.L467
 3292 0032 0AD8     		bhi	.L468
 3293 0034 102A     		cmp	r2, #16
 3294 0036 6ED0     		beq	.L469
 3295 0038 02D8     		bhi	.L470
 3296 003a 002A     		cmp	r2, #0
 3297 003c 6BD0     		beq	.L469
 3298 003e 71E0     		b	.L466
 3299              	.L470:
 3300 0040 202A     		cmp	r2, #32
 3301 0042 68D0     		beq	.L469
 3302 0044 302A     		cmp	r2, #48
 3303 0046 66D0     		beq	.L469
 3304 0048 6CE0     		b	.L466
 3305              	.L468:
 3306 004a 602A     		cmp	r2, #96
ARM GAS  /tmp/ccGuF8yC.s 			page 56


 3307 004c 33D0     		beq	.L471
 3308 004e 18D8     		bhi	.L472
 3309 0050 502A     		cmp	r2, #80
 3310 0052 67D1     		bne	.L466
 3311 0054 026A     		ldr	r2, [r0, #32]
 3312 0056 056A     		ldr	r5, [r0, #32]
 3313 0058 DE68     		ldr	r6, [r3, #12]
 3314 005a 25F00105 		bic	r5, r5, #1
 3315 005e 4968     		ldr	r1, [r1, #4]
 3316 0060 0562     		str	r5, [r0, #32]
 3317 0062 8369     		ldr	r3, [r0, #24]
 3318 0064 22F00A02 		bic	r2, r2, #10
 3319 0068 23F0F003 		bic	r3, r3, #240
 3320 006c 43EA0613 		orr	r3, r3, r6, lsl #4
 3321 0070 0A43     		orrs	r2, r2, r1
 3322 0072 8361     		str	r3, [r0, #24]
 3323 0074 0262     		str	r2, [r0, #32]
 3324 0076 8368     		ldr	r3, [r0, #8]
 3325 0078 23F07003 		bic	r3, r3, #112
 3326 007c 43F05703 		orr	r3, r3, #87
 3327 0080 47E0     		b	.L490
 3328              	.L472:
 3329 0082 702A     		cmp	r2, #112
 3330 0084 0CD0     		beq	.L474
 3331 0086 B2F5005F 		cmp	r2, #8192
 3332 008a 4BD1     		bne	.L466
 3333 008c 5A68     		ldr	r2, [r3, #4]
 3334 008e 8968     		ldr	r1, [r1, #8]
 3335 0090 DB68     		ldr	r3, [r3, #12]
 3336 0092 FFF7FEFF 		bl	TIM_ETR_SetConfig
 3337 0096 2268     		ldr	r2, [r4]
 3338 0098 9368     		ldr	r3, [r2, #8]
 3339 009a 43F48043 		orr	r3, r3, #16384
 3340 009e 08E0     		b	.L489
 3341              	.L474:
 3342 00a0 5A68     		ldr	r2, [r3, #4]
 3343 00a2 8968     		ldr	r1, [r1, #8]
 3344 00a4 DB68     		ldr	r3, [r3, #12]
 3345 00a6 FFF7FEFF 		bl	TIM_ETR_SetConfig
 3346 00aa 2268     		ldr	r2, [r4]
 3347 00ac 9368     		ldr	r3, [r2, #8]
 3348 00ae 43F07703 		orr	r3, r3, #119
 3349              	.L489:
 3350 00b2 9360     		str	r3, [r2, #8]
 3351 00b4 36E0     		b	.L466
 3352              	.L471:
 3353 00b6 4D68     		ldr	r5, [r1, #4]
 3354 00b8 CE68     		ldr	r6, [r1, #12]
 3355 00ba 016A     		ldr	r1, [r0, #32]
 3356 00bc 21F01001 		bic	r1, r1, #16
 3357 00c0 0162     		str	r1, [r0, #32]
 3358 00c2 8269     		ldr	r2, [r0, #24]
 3359 00c4 036A     		ldr	r3, [r0, #32]
 3360 00c6 22F47042 		bic	r2, r2, #61440
 3361 00ca 23F0A003 		bic	r3, r3, #160
 3362 00ce 43EA0513 		orr	r3, r3, r5, lsl #4
 3363 00d2 42EA0632 		orr	r2, r2, r6, lsl #12
ARM GAS  /tmp/ccGuF8yC.s 			page 57


 3364 00d6 8261     		str	r2, [r0, #24]
 3365 00d8 0362     		str	r3, [r0, #32]
 3366 00da 8368     		ldr	r3, [r0, #8]
 3367 00dc 23F07003 		bic	r3, r3, #112
 3368 00e0 43F06703 		orr	r3, r3, #103
 3369 00e4 15E0     		b	.L490
 3370              	.L467:
 3371 00e6 026A     		ldr	r2, [r0, #32]
 3372 00e8 056A     		ldr	r5, [r0, #32]
 3373 00ea DE68     		ldr	r6, [r3, #12]
 3374 00ec 25F00105 		bic	r5, r5, #1
 3375 00f0 4968     		ldr	r1, [r1, #4]
 3376 00f2 0562     		str	r5, [r0, #32]
 3377 00f4 8369     		ldr	r3, [r0, #24]
 3378 00f6 22F00A02 		bic	r2, r2, #10
 3379 00fa 23F0F003 		bic	r3, r3, #240
 3380 00fe 43EA0613 		orr	r3, r3, r6, lsl #4
 3381 0102 0A43     		orrs	r2, r2, r1
 3382 0104 8361     		str	r3, [r0, #24]
 3383 0106 0262     		str	r2, [r0, #32]
 3384 0108 8368     		ldr	r3, [r0, #8]
 3385 010a 23F07003 		bic	r3, r3, #112
 3386 010e 43F04703 		orr	r3, r3, #71
 3387              	.L490:
 3388 0112 8360     		str	r3, [r0, #8]
 3389 0114 06E0     		b	.L466
 3390              	.L469:
 3391 0116 8368     		ldr	r3, [r0, #8]
 3392 0118 42F00702 		orr	r2, r2, #7
 3393 011c 23F07003 		bic	r3, r3, #112
 3394 0120 1A43     		orrs	r2, r2, r3
 3395 0122 8260     		str	r2, [r0, #8]
 3396              	.L466:
 3397 0124 0123     		movs	r3, #1
 3398 0126 0020     		movs	r0, #0
 3399 0128 84F83D30 		strb	r3, [r4, #61]
 3400 012c 84F83C00 		strb	r0, [r4, #60]
 3401              	.L465:
 3402 0130 70BD     		pop	{r4, r5, r6, pc}
 3404              		.section	.text.TIM_SlaveTimer_SetConfig,"ax",%progbits
 3405              		.align	1
 3406              		.thumb
 3407              		.thumb_func
 3409              	TIM_SlaveTimer_SetConfig:
 3410              		@ args = 0, pretend = 0, frame = 0
 3411              		@ frame_needed = 0, uses_anonymous_args = 0
 3412 0000 38B5     		push	{r3, r4, r5, lr}
 3413 0002 0B46     		mov	r3, r1
 3414 0004 0068     		ldr	r0, [r0]
 3415 0006 4968     		ldr	r1, [r1, #4]
 3416 0008 8268     		ldr	r2, [r0, #8]
 3417 000a 1C68     		ldr	r4, [r3]
 3418 000c 22F07002 		bic	r2, r2, #112
 3419 0010 0A43     		orrs	r2, r2, r1
 3420 0012 22F00702 		bic	r2, r2, #7
 3421 0016 2243     		orrs	r2, r2, r4
 3422 0018 5029     		cmp	r1, #80
ARM GAS  /tmp/ccGuF8yC.s 			page 58


 3423 001a 8260     		str	r2, [r0, #8]
 3424 001c 1DD0     		beq	.L493
 3425 001e 02D8     		bhi	.L494
 3426 0020 4029     		cmp	r1, #64
 3427 0022 0AD0     		beq	.L495
 3428 0024 3DE0     		b	.L500
 3429              	.L494:
 3430 0026 6029     		cmp	r1, #96
 3431 0028 29D0     		beq	.L496
 3432 002a 7029     		cmp	r1, #112
 3433 002c 39D1     		bne	.L500
 3434 002e D968     		ldr	r1, [r3, #12]
 3435 0030 9A68     		ldr	r2, [r3, #8]
 3436 0032 1B69     		ldr	r3, [r3, #16]
 3437 0034 FFF7FEFF 		bl	TIM_ETR_SetConfig
 3438 0038 33E0     		b	.L500
 3439              	.L495:
 3440 003a 052C     		cmp	r4, #5
 3441 003c 33D0     		beq	.L499
 3442 003e 016A     		ldr	r1, [r0, #32]
 3443 0040 026A     		ldr	r2, [r0, #32]
 3444 0042 1B69     		ldr	r3, [r3, #16]
 3445 0044 22F00102 		bic	r2, r2, #1
 3446 0048 0262     		str	r2, [r0, #32]
 3447 004a 8269     		ldr	r2, [r0, #24]
 3448 004c 22F0F002 		bic	r2, r2, #240
 3449 0050 42EA0313 		orr	r3, r2, r3, lsl #4
 3450 0054 8361     		str	r3, [r0, #24]
 3451 0056 0162     		str	r1, [r0, #32]
 3452 0058 23E0     		b	.L500
 3453              	.L493:
 3454 005a 026A     		ldr	r2, [r0, #32]
 3455 005c 046A     		ldr	r4, [r0, #32]
 3456 005e 9968     		ldr	r1, [r3, #8]
 3457 0060 24F00104 		bic	r4, r4, #1
 3458 0064 1D69     		ldr	r5, [r3, #16]
 3459 0066 0462     		str	r4, [r0, #32]
 3460 0068 8369     		ldr	r3, [r0, #24]
 3461 006a 22F00A02 		bic	r2, r2, #10
 3462 006e 23F0F003 		bic	r3, r3, #240
 3463 0072 43EA0513 		orr	r3, r3, r5, lsl #4
 3464 0076 0A43     		orrs	r2, r2, r1
 3465 0078 8361     		str	r3, [r0, #24]
 3466 007a 0262     		str	r2, [r0, #32]
 3467 007c 11E0     		b	.L500
 3468              	.L496:
 3469 007e 016A     		ldr	r1, [r0, #32]
 3470 0080 9C68     		ldr	r4, [r3, #8]
 3471 0082 21F01001 		bic	r1, r1, #16
 3472 0086 1D69     		ldr	r5, [r3, #16]
 3473 0088 0162     		str	r1, [r0, #32]
 3474 008a 8269     		ldr	r2, [r0, #24]
 3475 008c 036A     		ldr	r3, [r0, #32]
 3476 008e 22F47042 		bic	r2, r2, #61440
 3477 0092 23F0A003 		bic	r3, r3, #160
 3478 0096 42EA0532 		orr	r2, r2, r5, lsl #12
 3479 009a 43EA0413 		orr	r3, r3, r4, lsl #4
ARM GAS  /tmp/ccGuF8yC.s 			page 59


 3480 009e 8261     		str	r2, [r0, #24]
 3481 00a0 0362     		str	r3, [r0, #32]
 3482              	.L500:
 3483 00a2 0020     		movs	r0, #0
 3484 00a4 38BD     		pop	{r3, r4, r5, pc}
 3485              	.L499:
 3486 00a6 0120     		movs	r0, #1
 3487 00a8 38BD     		pop	{r3, r4, r5, pc}
 3489              		.section	.text.HAL_TIM_SlaveConfigSynchro,"ax",%progbits
 3490              		.align	1
 3491              		.global	HAL_TIM_SlaveConfigSynchro
 3492              		.thumb
 3493              		.thumb_func
 3495              	HAL_TIM_SlaveConfigSynchro:
 3496              		@ args = 0, pretend = 0, frame = 0
 3497              		@ frame_needed = 0, uses_anonymous_args = 0
 3498 0000 38B5     		push	{r3, r4, r5, lr}
 3499 0002 90F83C30 		ldrb	r3, [r0, #60]	@ zero_extendqisi2
 3500 0006 0446     		mov	r4, r0
 3501 0008 012B     		cmp	r3, #1
 3502 000a 4FF00203 		mov	r3, #2
 3503 000e 1CD0     		beq	.L504
 3504 0010 0125     		movs	r5, #1
 3505 0012 80F83C50 		strb	r5, [r0, #60]
 3506 0016 80F83D30 		strb	r3, [r0, #61]
 3507 001a FFF7FEFF 		bl	TIM_SlaveTimer_SetConfig
 3508 001e 30B1     		cbz	r0, .L503
 3509 0020 0023     		movs	r3, #0
 3510 0022 84F83D50 		strb	r5, [r4, #61]
 3511 0026 84F83C30 		strb	r3, [r4, #60]
 3512 002a 2846     		mov	r0, r5
 3513 002c 38BD     		pop	{r3, r4, r5, pc}
 3514              	.L503:
 3515 002e 2368     		ldr	r3, [r4]
 3516 0030 DA68     		ldr	r2, [r3, #12]
 3517 0032 22F04002 		bic	r2, r2, #64
 3518 0036 DA60     		str	r2, [r3, #12]
 3519 0038 DA68     		ldr	r2, [r3, #12]
 3520 003a 22F48042 		bic	r2, r2, #16384
 3521 003e DA60     		str	r2, [r3, #12]
 3522 0040 84F83D50 		strb	r5, [r4, #61]
 3523 0044 84F83C00 		strb	r0, [r4, #60]
 3524 0048 38BD     		pop	{r3, r4, r5, pc}
 3525              	.L504:
 3526 004a 1846     		mov	r0, r3
 3527 004c 38BD     		pop	{r3, r4, r5, pc}
 3529              		.section	.text.HAL_TIM_SlaveConfigSynchro_IT,"ax",%progbits
 3530              		.align	1
 3531              		.global	HAL_TIM_SlaveConfigSynchro_IT
 3532              		.thumb
 3533              		.thumb_func
 3535              	HAL_TIM_SlaveConfigSynchro_IT:
 3536              		@ args = 0, pretend = 0, frame = 0
 3537              		@ frame_needed = 0, uses_anonymous_args = 0
 3538 0000 38B5     		push	{r3, r4, r5, lr}
 3539 0002 90F83C30 		ldrb	r3, [r0, #60]	@ zero_extendqisi2
 3540 0006 0446     		mov	r4, r0
ARM GAS  /tmp/ccGuF8yC.s 			page 60


 3541 0008 012B     		cmp	r3, #1
 3542 000a 4FF00203 		mov	r3, #2
 3543 000e 1CD0     		beq	.L508
 3544 0010 0125     		movs	r5, #1
 3545 0012 80F83C50 		strb	r5, [r0, #60]
 3546 0016 80F83D30 		strb	r3, [r0, #61]
 3547 001a FFF7FEFF 		bl	TIM_SlaveTimer_SetConfig
 3548 001e 30B1     		cbz	r0, .L507
 3549 0020 0023     		movs	r3, #0
 3550 0022 84F83D50 		strb	r5, [r4, #61]
 3551 0026 84F83C30 		strb	r3, [r4, #60]
 3552 002a 2846     		mov	r0, r5
 3553 002c 38BD     		pop	{r3, r4, r5, pc}
 3554              	.L507:
 3555 002e 2368     		ldr	r3, [r4]
 3556 0030 DA68     		ldr	r2, [r3, #12]
 3557 0032 42F04002 		orr	r2, r2, #64
 3558 0036 DA60     		str	r2, [r3, #12]
 3559 0038 DA68     		ldr	r2, [r3, #12]
 3560 003a 22F48042 		bic	r2, r2, #16384
 3561 003e DA60     		str	r2, [r3, #12]
 3562 0040 84F83D50 		strb	r5, [r4, #61]
 3563 0044 84F83C00 		strb	r0, [r4, #60]
 3564 0048 38BD     		pop	{r3, r4, r5, pc}
 3565              	.L508:
 3566 004a 1846     		mov	r0, r3
 3567 004c 38BD     		pop	{r3, r4, r5, pc}
 3569              		.section	.text.TIM_CCxChannelCmd,"ax",%progbits
 3570              		.align	1
 3571              		.global	TIM_CCxChannelCmd
 3572              		.thumb
 3573              		.thumb_func
 3575              	TIM_CCxChannelCmd:
 3576              		@ args = 0, pretend = 0, frame = 0
 3577              		@ frame_needed = 0, uses_anonymous_args = 0
 3578 0000 01F01F01 		and	r1, r1, #31
 3579 0004 10B5     		push	{r4, lr}
 3580 0006 0123     		movs	r3, #1
 3581 0008 046A     		ldr	r4, [r0, #32]
 3582 000a 8B40     		lsls	r3, r3, r1
 3583 000c 24EA0303 		bic	r3, r4, r3
 3584 0010 0362     		str	r3, [r0, #32]
 3585 0012 036A     		ldr	r3, [r0, #32]
 3586 0014 8A40     		lsls	r2, r2, r1
 3587 0016 1343     		orrs	r3, r3, r2
 3588 0018 0362     		str	r3, [r0, #32]
 3589 001a 10BD     		pop	{r4, pc}
 3591              		.section	.text.HAL_TIM_OC_Start,"ax",%progbits
 3592              		.align	1
 3593              		.global	HAL_TIM_OC_Start
 3594              		.thumb
 3595              		.thumb_func
 3597              	HAL_TIM_OC_Start:
 3598              		@ args = 0, pretend = 0, frame = 0
 3599              		@ frame_needed = 0, uses_anonymous_args = 0
 3600 0000 10B5     		push	{r4, lr}
 3601 0002 0446     		mov	r4, r0
ARM GAS  /tmp/ccGuF8yC.s 			page 61


 3602 0004 0122     		movs	r2, #1
 3603 0006 0068     		ldr	r0, [r0]
 3604 0008 FFF7FEFF 		bl	TIM_CCxChannelCmd
 3605 000c 2368     		ldr	r3, [r4]
 3606 000e 094A     		ldr	r2, .L516
 3607 0010 0020     		movs	r0, #0
 3608 0012 9342     		cmp	r3, r2
 3609 0014 02BF     		ittt	eq
 3610 0016 5A6C     		ldreq	r2, [r3, #68]
 3611 0018 42F40042 		orreq	r2, r2, #32768
 3612 001c 5A64     		streq	r2, [r3, #68]
 3613 001e 9A68     		ldr	r2, [r3, #8]
 3614 0020 02F00702 		and	r2, r2, #7
 3615 0024 062A     		cmp	r2, #6
 3616 0026 1EBF     		ittt	ne
 3617 0028 1A68     		ldrne	r2, [r3]
 3618 002a 42F00102 		orrne	r2, r2, #1
 3619 002e 1A60     		strne	r2, [r3]
 3620 0030 10BD     		pop	{r4, pc}
 3621              	.L517:
 3622 0032 00BF     		.align	2
 3623              	.L516:
 3624 0034 002C0140 		.word	1073818624
 3626              		.section	.text.HAL_TIM_OC_Stop,"ax",%progbits
 3627              		.align	1
 3628              		.global	HAL_TIM_OC_Stop
 3629              		.thumb
 3630              		.thumb_func
 3632              	HAL_TIM_OC_Stop:
 3633              		@ args = 0, pretend = 0, frame = 0
 3634              		@ frame_needed = 0, uses_anonymous_args = 0
 3635 0000 10B5     		push	{r4, lr}
 3636 0002 0446     		mov	r4, r0
 3637 0004 0022     		movs	r2, #0
 3638 0006 0068     		ldr	r0, [r0]
 3639 0008 FFF7FEFF 		bl	TIM_CCxChannelCmd
 3640 000c 2368     		ldr	r3, [r4]
 3641 000e 104A     		ldr	r2, .L521
 3642 0010 9342     		cmp	r3, r2
 3643 0012 0DD1     		bne	.L519
 3644 0014 41F21112 		movw	r2, #4369
 3645 0018 196A     		ldr	r1, [r3, #32]
 3646 001a 0A40     		ands	r2, r2, r1
 3647 001c 42B9     		cbnz	r2, .L519
 3648 001e 40F24442 		movw	r2, #1092
 3649 0022 196A     		ldr	r1, [r3, #32]
 3650 0024 0A40     		ands	r2, r2, r1
 3651 0026 1AB9     		cbnz	r2, .L519
 3652 0028 5A6C     		ldr	r2, [r3, #68]
 3653 002a 22F40042 		bic	r2, r2, #32768
 3654 002e 5A64     		str	r2, [r3, #68]
 3655              	.L519:
 3656 0030 41F21112 		movw	r2, #4369
 3657 0034 196A     		ldr	r1, [r3, #32]
 3658 0036 0A40     		ands	r2, r2, r1
 3659 0038 42B9     		cbnz	r2, .L520
 3660 003a 40F24442 		movw	r2, #1092
ARM GAS  /tmp/ccGuF8yC.s 			page 62


 3661 003e 196A     		ldr	r1, [r3, #32]
 3662 0040 0A40     		ands	r2, r2, r1
 3663 0042 1AB9     		cbnz	r2, .L520
 3664 0044 1A68     		ldr	r2, [r3]
 3665 0046 22F00102 		bic	r2, r2, #1
 3666 004a 1A60     		str	r2, [r3]
 3667              	.L520:
 3668 004c 0020     		movs	r0, #0
 3669 004e 10BD     		pop	{r4, pc}
 3670              	.L522:
 3671              		.align	2
 3672              	.L521:
 3673 0050 002C0140 		.word	1073818624
 3675              		.section	.text.HAL_TIM_OC_Start_IT,"ax",%progbits
 3676              		.align	1
 3677              		.global	HAL_TIM_OC_Start_IT
 3678              		.thumb
 3679              		.thumb_func
 3681              	HAL_TIM_OC_Start_IT:
 3682              		@ args = 0, pretend = 0, frame = 0
 3683              		@ frame_needed = 0, uses_anonymous_args = 0
 3684 0000 10B5     		push	{r4, lr}
 3685 0002 0446     		mov	r4, r0
 3686 0004 0C29     		cmp	r1, #12
 3687 0006 1CD8     		bhi	.L524
 3688 0008 DFE801F0 		tbb	[pc, r1]
 3689              	.L526:
 3690 000c 07       		.byte	(.L525-.L526)/2
 3691 000d 1B       		.byte	(.L524-.L526)/2
 3692 000e 1B       		.byte	(.L524-.L526)/2
 3693 000f 1B       		.byte	(.L524-.L526)/2
 3694 0010 0C       		.byte	(.L527-.L526)/2
 3695 0011 1B       		.byte	(.L524-.L526)/2
 3696 0012 1B       		.byte	(.L524-.L526)/2
 3697 0013 1B       		.byte	(.L524-.L526)/2
 3698 0014 11       		.byte	(.L528-.L526)/2
 3699 0015 1B       		.byte	(.L524-.L526)/2
 3700 0016 1B       		.byte	(.L524-.L526)/2
 3701 0017 1B       		.byte	(.L524-.L526)/2
 3702 0018 16       		.byte	(.L529-.L526)/2
 3703 0019 00       		.p2align 1
 3704              	.L525:
 3705 001a 0268     		ldr	r2, [r0]
 3706 001c D368     		ldr	r3, [r2, #12]
 3707 001e 43F00203 		orr	r3, r3, #2
 3708 0022 0DE0     		b	.L535
 3709              	.L527:
 3710 0024 0268     		ldr	r2, [r0]
 3711 0026 D368     		ldr	r3, [r2, #12]
 3712 0028 43F00403 		orr	r3, r3, #4
 3713 002c 08E0     		b	.L535
 3714              	.L528:
 3715 002e 0268     		ldr	r2, [r0]
 3716 0030 D368     		ldr	r3, [r2, #12]
 3717 0032 43F00803 		orr	r3, r3, #8
 3718 0036 03E0     		b	.L535
 3719              	.L529:
ARM GAS  /tmp/ccGuF8yC.s 			page 63


 3720 0038 0268     		ldr	r2, [r0]
 3721 003a D368     		ldr	r3, [r2, #12]
 3722 003c 43F01003 		orr	r3, r3, #16
 3723              	.L535:
 3724 0040 D360     		str	r3, [r2, #12]
 3725              	.L524:
 3726 0042 2068     		ldr	r0, [r4]
 3727 0044 0122     		movs	r2, #1
 3728 0046 FFF7FEFF 		bl	TIM_CCxChannelCmd
 3729 004a 2368     		ldr	r3, [r4]
 3730 004c 084A     		ldr	r2, .L536
 3731 004e 0020     		movs	r0, #0
 3732 0050 9342     		cmp	r3, r2
 3733 0052 02BF     		ittt	eq
 3734 0054 5A6C     		ldreq	r2, [r3, #68]
 3735 0056 42F40042 		orreq	r2, r2, #32768
 3736 005a 5A64     		streq	r2, [r3, #68]
 3737 005c 9A68     		ldr	r2, [r3, #8]
 3738 005e 02F00702 		and	r2, r2, #7
 3739 0062 062A     		cmp	r2, #6
 3740 0064 1EBF     		ittt	ne
 3741 0066 1A68     		ldrne	r2, [r3]
 3742 0068 42F00102 		orrne	r2, r2, #1
 3743 006c 1A60     		strne	r2, [r3]
 3744 006e 10BD     		pop	{r4, pc}
 3745              	.L537:
 3746              		.align	2
 3747              	.L536:
 3748 0070 002C0140 		.word	1073818624
 3750              		.section	.text.HAL_TIM_OC_Stop_IT,"ax",%progbits
 3751              		.align	1
 3752              		.global	HAL_TIM_OC_Stop_IT
 3753              		.thumb
 3754              		.thumb_func
 3756              	HAL_TIM_OC_Stop_IT:
 3757              		@ args = 0, pretend = 0, frame = 0
 3758              		@ frame_needed = 0, uses_anonymous_args = 0
 3759 0000 10B5     		push	{r4, lr}
 3760 0002 0446     		mov	r4, r0
 3761 0004 0C29     		cmp	r1, #12
 3762 0006 1CD8     		bhi	.L539
 3763 0008 DFE801F0 		tbb	[pc, r1]
 3764              	.L541:
 3765 000c 07       		.byte	(.L540-.L541)/2
 3766 000d 1B       		.byte	(.L539-.L541)/2
 3767 000e 1B       		.byte	(.L539-.L541)/2
 3768 000f 1B       		.byte	(.L539-.L541)/2
 3769 0010 0C       		.byte	(.L542-.L541)/2
 3770 0011 1B       		.byte	(.L539-.L541)/2
 3771 0012 1B       		.byte	(.L539-.L541)/2
 3772 0013 1B       		.byte	(.L539-.L541)/2
 3773 0014 11       		.byte	(.L543-.L541)/2
 3774 0015 1B       		.byte	(.L539-.L541)/2
 3775 0016 1B       		.byte	(.L539-.L541)/2
 3776 0017 1B       		.byte	(.L539-.L541)/2
 3777 0018 16       		.byte	(.L544-.L541)/2
 3778 0019 00       		.p2align 1
ARM GAS  /tmp/ccGuF8yC.s 			page 64


 3779              	.L540:
 3780 001a 0268     		ldr	r2, [r0]
 3781 001c D368     		ldr	r3, [r2, #12]
 3782 001e 23F00203 		bic	r3, r3, #2
 3783 0022 0DE0     		b	.L547
 3784              	.L542:
 3785 0024 0268     		ldr	r2, [r0]
 3786 0026 D368     		ldr	r3, [r2, #12]
 3787 0028 23F00403 		bic	r3, r3, #4
 3788 002c 08E0     		b	.L547
 3789              	.L543:
 3790 002e 0268     		ldr	r2, [r0]
 3791 0030 D368     		ldr	r3, [r2, #12]
 3792 0032 23F00803 		bic	r3, r3, #8
 3793 0036 03E0     		b	.L547
 3794              	.L544:
 3795 0038 0268     		ldr	r2, [r0]
 3796 003a D368     		ldr	r3, [r2, #12]
 3797 003c 23F01003 		bic	r3, r3, #16
 3798              	.L547:
 3799 0040 D360     		str	r3, [r2, #12]
 3800              	.L539:
 3801 0042 0022     		movs	r2, #0
 3802 0044 2068     		ldr	r0, [r4]
 3803 0046 FFF7FEFF 		bl	TIM_CCxChannelCmd
 3804 004a 2368     		ldr	r3, [r4]
 3805 004c 104A     		ldr	r2, .L548
 3806 004e 9342     		cmp	r3, r2
 3807 0050 0DD1     		bne	.L545
 3808 0052 41F21112 		movw	r2, #4369
 3809 0056 196A     		ldr	r1, [r3, #32]
 3810 0058 0A40     		ands	r2, r2, r1
 3811 005a 42B9     		cbnz	r2, .L545
 3812 005c 40F24442 		movw	r2, #1092
 3813 0060 196A     		ldr	r1, [r3, #32]
 3814 0062 0A40     		ands	r2, r2, r1
 3815 0064 1AB9     		cbnz	r2, .L545
 3816 0066 5A6C     		ldr	r2, [r3, #68]
 3817 0068 22F40042 		bic	r2, r2, #32768
 3818 006c 5A64     		str	r2, [r3, #68]
 3819              	.L545:
 3820 006e 41F21112 		movw	r2, #4369
 3821 0072 196A     		ldr	r1, [r3, #32]
 3822 0074 0A40     		ands	r2, r2, r1
 3823 0076 42B9     		cbnz	r2, .L546
 3824 0078 40F24442 		movw	r2, #1092
 3825 007c 196A     		ldr	r1, [r3, #32]
 3826 007e 0A40     		ands	r2, r2, r1
 3827 0080 1AB9     		cbnz	r2, .L546
 3828 0082 1A68     		ldr	r2, [r3]
 3829 0084 22F00102 		bic	r2, r2, #1
 3830 0088 1A60     		str	r2, [r3]
 3831              	.L546:
 3832 008a 0020     		movs	r0, #0
 3833 008c 10BD     		pop	{r4, pc}
 3834              	.L549:
 3835 008e 00BF     		.align	2
ARM GAS  /tmp/ccGuF8yC.s 			page 65


 3836              	.L548:
 3837 0090 002C0140 		.word	1073818624
 3839              		.section	.text.HAL_TIM_OC_Start_DMA,"ax",%progbits
 3840              		.align	1
 3841              		.global	HAL_TIM_OC_Start_DMA
 3842              		.thumb
 3843              		.thumb_func
 3845              	HAL_TIM_OC_Start_DMA:
 3846              		@ args = 0, pretend = 0, frame = 0
 3847              		@ frame_needed = 0, uses_anonymous_args = 0
 3848 0000 38B5     		push	{r3, r4, r5, lr}
 3849 0002 0446     		mov	r4, r0
 3850 0004 90F83D00 		ldrb	r0, [r0, #61]	@ zero_extendqisi2
 3851 0008 0D46     		mov	r5, r1
 3852 000a C0B2     		uxtb	r0, r0
 3853 000c 0228     		cmp	r0, #2
 3854 000e 1146     		mov	r1, r2
 3855 0010 74D0     		beq	.L551
 3856 0012 94F83D20 		ldrb	r2, [r4, #61]	@ zero_extendqisi2
 3857 0016 012A     		cmp	r2, #1
 3858 0018 06D1     		bne	.L552
 3859 001a 11B9     		cbnz	r1, .L553
 3860 001c 0BB1     		cbz	r3, .L553
 3861              	.L560:
 3862 001e 0120     		movs	r0, #1
 3863 0020 38BD     		pop	{r3, r4, r5, pc}
 3864              	.L553:
 3865 0022 0222     		movs	r2, #2
 3866 0024 84F83D20 		strb	r2, [r4, #61]
 3867              	.L552:
 3868 0028 0C2D     		cmp	r5, #12
 3869 002a 50D8     		bhi	.L554
 3870 002c DFE805F0 		tbb	[pc, r5]
 3871              	.L556:
 3872 0030 07       		.byte	(.L555-.L556)/2
 3873 0031 4F       		.byte	(.L554-.L556)/2
 3874 0032 4F       		.byte	(.L554-.L556)/2
 3875 0033 4F       		.byte	(.L554-.L556)/2
 3876 0034 19       		.byte	(.L557-.L556)/2
 3877 0035 4F       		.byte	(.L554-.L556)/2
 3878 0036 4F       		.byte	(.L554-.L556)/2
 3879 0037 4F       		.byte	(.L554-.L556)/2
 3880 0038 2B       		.byte	(.L558-.L556)/2
 3881 0039 4F       		.byte	(.L554-.L556)/2
 3882 003a 4F       		.byte	(.L554-.L556)/2
 3883 003b 4F       		.byte	(.L554-.L556)/2
 3884 003c 3D       		.byte	(.L559-.L556)/2
 3885 003d 00       		.p2align 1
 3886              	.L555:
 3887 003e 606A     		ldr	r0, [r4, #36]
 3888 0040 2F4A     		ldr	r2, .L568
 3889 0042 8262     		str	r2, [r0, #40]
 3890 0044 2F4A     		ldr	r2, .L568+4
 3891 0046 C262     		str	r2, [r0, #44]
 3892 0048 2F4A     		ldr	r2, .L568+8
 3893 004a 0263     		str	r2, [r0, #48]
 3894 004c 2268     		ldr	r2, [r4]
ARM GAS  /tmp/ccGuF8yC.s 			page 66


 3895 004e 3432     		adds	r2, r2, #52
 3896 0050 FFF7FEFF 		bl	HAL_DMA_Start_IT
 3897 0054 0028     		cmp	r0, #0
 3898 0056 E2D1     		bne	.L560
 3899 0058 2268     		ldr	r2, [r4]
 3900 005a D368     		ldr	r3, [r2, #12]
 3901 005c 43F40073 		orr	r3, r3, #512
 3902 0060 34E0     		b	.L567
 3903              	.L557:
 3904 0062 A06A     		ldr	r0, [r4, #40]
 3905 0064 264A     		ldr	r2, .L568
 3906 0066 8262     		str	r2, [r0, #40]
 3907 0068 264A     		ldr	r2, .L568+4
 3908 006a C262     		str	r2, [r0, #44]
 3909 006c 264A     		ldr	r2, .L568+8
 3910 006e 0263     		str	r2, [r0, #48]
 3911 0070 2268     		ldr	r2, [r4]
 3912 0072 3832     		adds	r2, r2, #56
 3913 0074 FFF7FEFF 		bl	HAL_DMA_Start_IT
 3914 0078 0028     		cmp	r0, #0
 3915 007a D0D1     		bne	.L560
 3916 007c 2268     		ldr	r2, [r4]
 3917 007e D368     		ldr	r3, [r2, #12]
 3918 0080 43F48063 		orr	r3, r3, #1024
 3919 0084 22E0     		b	.L567
 3920              	.L558:
 3921 0086 E06A     		ldr	r0, [r4, #44]
 3922 0088 1D4A     		ldr	r2, .L568
 3923 008a 8262     		str	r2, [r0, #40]
 3924 008c 1D4A     		ldr	r2, .L568+4
 3925 008e C262     		str	r2, [r0, #44]
 3926 0090 1D4A     		ldr	r2, .L568+8
 3927 0092 0263     		str	r2, [r0, #48]
 3928 0094 2268     		ldr	r2, [r4]
 3929 0096 3C32     		adds	r2, r2, #60
 3930 0098 FFF7FEFF 		bl	HAL_DMA_Start_IT
 3931 009c 0028     		cmp	r0, #0
 3932 009e BED1     		bne	.L560
 3933 00a0 2268     		ldr	r2, [r4]
 3934 00a2 D368     		ldr	r3, [r2, #12]
 3935 00a4 43F40063 		orr	r3, r3, #2048
 3936 00a8 10E0     		b	.L567
 3937              	.L559:
 3938 00aa 206B     		ldr	r0, [r4, #48]
 3939 00ac 144A     		ldr	r2, .L568
 3940 00ae 8262     		str	r2, [r0, #40]
 3941 00b0 144A     		ldr	r2, .L568+4
 3942 00b2 C262     		str	r2, [r0, #44]
 3943 00b4 144A     		ldr	r2, .L568+8
 3944 00b6 0263     		str	r2, [r0, #48]
 3945 00b8 2268     		ldr	r2, [r4]
 3946 00ba 4032     		adds	r2, r2, #64
 3947 00bc FFF7FEFF 		bl	HAL_DMA_Start_IT
 3948 00c0 0028     		cmp	r0, #0
 3949 00c2 ACD1     		bne	.L560
 3950 00c4 2268     		ldr	r2, [r4]
 3951 00c6 D368     		ldr	r3, [r2, #12]
ARM GAS  /tmp/ccGuF8yC.s 			page 67


 3952 00c8 43F48053 		orr	r3, r3, #4096
 3953              	.L567:
 3954 00cc D360     		str	r3, [r2, #12]
 3955              	.L554:
 3956 00ce 2068     		ldr	r0, [r4]
 3957 00d0 0122     		movs	r2, #1
 3958 00d2 2946     		mov	r1, r5
 3959 00d4 FFF7FEFF 		bl	TIM_CCxChannelCmd
 3960 00d8 2368     		ldr	r3, [r4]
 3961 00da 0C4A     		ldr	r2, .L568+12
 3962 00dc 0020     		movs	r0, #0
 3963 00de 9342     		cmp	r3, r2
 3964 00e0 02BF     		ittt	eq
 3965 00e2 5A6C     		ldreq	r2, [r3, #68]
 3966 00e4 42F40042 		orreq	r2, r2, #32768
 3967 00e8 5A64     		streq	r2, [r3, #68]
 3968 00ea 9A68     		ldr	r2, [r3, #8]
 3969 00ec 02F00702 		and	r2, r2, #7
 3970 00f0 062A     		cmp	r2, #6
 3971 00f2 1EBF     		ittt	ne
 3972 00f4 1A68     		ldrne	r2, [r3]
 3973 00f6 42F00102 		orrne	r2, r2, #1
 3974 00fa 1A60     		strne	r2, [r3]
 3975              	.L551:
 3976 00fc 38BD     		pop	{r3, r4, r5, pc}
 3977              	.L569:
 3978 00fe 00BF     		.align	2
 3979              	.L568:
 3980 0100 00000000 		.word	TIM_DMADelayPulseCplt
 3981 0104 00000000 		.word	TIM_DMADelayPulseHalfCplt
 3982 0108 00000000 		.word	TIM_DMAError
 3983 010c 002C0140 		.word	1073818624
 3985              		.section	.text.HAL_TIM_OC_Stop_DMA,"ax",%progbits
 3986              		.align	1
 3987              		.global	HAL_TIM_OC_Stop_DMA
 3988              		.thumb
 3989              		.thumb_func
 3991              	HAL_TIM_OC_Stop_DMA:
 3992              		@ args = 0, pretend = 0, frame = 0
 3993              		@ frame_needed = 0, uses_anonymous_args = 0
 3994 0000 38B5     		push	{r3, r4, r5, lr}
 3995 0002 0446     		mov	r4, r0
 3996 0004 0D46     		mov	r5, r1
 3997 0006 0C29     		cmp	r1, #12
 3998 0008 25D8     		bhi	.L571
 3999 000a DFE801F0 		tbb	[pc, r1]
 4000              	.L573:
 4001 000e 07       		.byte	(.L572-.L573)/2
 4002 000f 24       		.byte	(.L571-.L573)/2
 4003 0010 24       		.byte	(.L571-.L573)/2
 4004 0011 24       		.byte	(.L571-.L573)/2
 4005 0012 0E       		.byte	(.L574-.L573)/2
 4006 0013 24       		.byte	(.L571-.L573)/2
 4007 0014 24       		.byte	(.L571-.L573)/2
 4008 0015 24       		.byte	(.L571-.L573)/2
 4009 0016 15       		.byte	(.L575-.L573)/2
 4010 0017 24       		.byte	(.L571-.L573)/2
ARM GAS  /tmp/ccGuF8yC.s 			page 68


 4011 0018 24       		.byte	(.L571-.L573)/2
 4012 0019 24       		.byte	(.L571-.L573)/2
 4013 001a 1C       		.byte	(.L576-.L573)/2
 4014 001b 00       		.p2align 1
 4015              	.L572:
 4016 001c 0268     		ldr	r2, [r0]
 4017 001e 406A     		ldr	r0, [r0, #36]
 4018 0020 D368     		ldr	r3, [r2, #12]
 4019 0022 23F40073 		bic	r3, r3, #512
 4020 0026 D360     		str	r3, [r2, #12]
 4021 0028 13E0     		b	.L579
 4022              	.L574:
 4023 002a 0268     		ldr	r2, [r0]
 4024 002c 806A     		ldr	r0, [r0, #40]
 4025 002e D368     		ldr	r3, [r2, #12]
 4026 0030 23F48063 		bic	r3, r3, #1024
 4027 0034 D360     		str	r3, [r2, #12]
 4028 0036 0CE0     		b	.L579
 4029              	.L575:
 4030 0038 0268     		ldr	r2, [r0]
 4031 003a C06A     		ldr	r0, [r0, #44]
 4032 003c D368     		ldr	r3, [r2, #12]
 4033 003e 23F40063 		bic	r3, r3, #2048
 4034 0042 D360     		str	r3, [r2, #12]
 4035 0044 05E0     		b	.L579
 4036              	.L576:
 4037 0046 0268     		ldr	r2, [r0]
 4038 0048 006B     		ldr	r0, [r0, #48]
 4039 004a D368     		ldr	r3, [r2, #12]
 4040 004c 23F48053 		bic	r3, r3, #4096
 4041 0050 D360     		str	r3, [r2, #12]
 4042              	.L579:
 4043 0052 FFF7FEFF 		bl	HAL_DMA_Abort_IT
 4044              	.L571:
 4045 0056 0022     		movs	r2, #0
 4046 0058 2068     		ldr	r0, [r4]
 4047 005a 2946     		mov	r1, r5
 4048 005c FFF7FEFF 		bl	TIM_CCxChannelCmd
 4049 0060 2368     		ldr	r3, [r4]
 4050 0062 124A     		ldr	r2, .L580
 4051 0064 9342     		cmp	r3, r2
 4052 0066 0DD1     		bne	.L577
 4053 0068 41F21112 		movw	r2, #4369
 4054 006c 196A     		ldr	r1, [r3, #32]
 4055 006e 0A40     		ands	r2, r2, r1
 4056 0070 42B9     		cbnz	r2, .L577
 4057 0072 40F24442 		movw	r2, #1092
 4058 0076 196A     		ldr	r1, [r3, #32]
 4059 0078 0A40     		ands	r2, r2, r1
 4060 007a 1AB9     		cbnz	r2, .L577
 4061 007c 5A6C     		ldr	r2, [r3, #68]
 4062 007e 22F40042 		bic	r2, r2, #32768
 4063 0082 5A64     		str	r2, [r3, #68]
 4064              	.L577:
 4065 0084 41F21112 		movw	r2, #4369
 4066 0088 196A     		ldr	r1, [r3, #32]
 4067 008a 0A40     		ands	r2, r2, r1
ARM GAS  /tmp/ccGuF8yC.s 			page 69


 4068 008c 42B9     		cbnz	r2, .L578
 4069 008e 40F24442 		movw	r2, #1092
 4070 0092 196A     		ldr	r1, [r3, #32]
 4071 0094 0A40     		ands	r2, r2, r1
 4072 0096 1AB9     		cbnz	r2, .L578
 4073 0098 1A68     		ldr	r2, [r3]
 4074 009a 22F00102 		bic	r2, r2, #1
 4075 009e 1A60     		str	r2, [r3]
 4076              	.L578:
 4077 00a0 0123     		movs	r3, #1
 4078 00a2 84F83D30 		strb	r3, [r4, #61]
 4079 00a6 0020     		movs	r0, #0
 4080 00a8 38BD     		pop	{r3, r4, r5, pc}
 4081              	.L581:
 4082 00aa 00BF     		.align	2
 4083              	.L580:
 4084 00ac 002C0140 		.word	1073818624
 4086              		.section	.text.HAL_TIM_PWM_Start,"ax",%progbits
 4087              		.align	1
 4088              		.global	HAL_TIM_PWM_Start
 4089              		.thumb
 4090              		.thumb_func
 4092              	HAL_TIM_PWM_Start:
 4093              		@ args = 0, pretend = 0, frame = 0
 4094              		@ frame_needed = 0, uses_anonymous_args = 0
 4095 0000 10B5     		push	{r4, lr}
 4096 0002 0446     		mov	r4, r0
 4097 0004 0122     		movs	r2, #1
 4098 0006 0068     		ldr	r0, [r0]
 4099 0008 FFF7FEFF 		bl	TIM_CCxChannelCmd
 4100 000c 2368     		ldr	r3, [r4]
 4101 000e 094A     		ldr	r2, .L588
 4102 0010 0020     		movs	r0, #0
 4103 0012 9342     		cmp	r3, r2
 4104 0014 02BF     		ittt	eq
 4105 0016 5A6C     		ldreq	r2, [r3, #68]
 4106 0018 42F40042 		orreq	r2, r2, #32768
 4107 001c 5A64     		streq	r2, [r3, #68]
 4108 001e 9A68     		ldr	r2, [r3, #8]
 4109 0020 02F00702 		and	r2, r2, #7
 4110 0024 062A     		cmp	r2, #6
 4111 0026 1EBF     		ittt	ne
 4112 0028 1A68     		ldrne	r2, [r3]
 4113 002a 42F00102 		orrne	r2, r2, #1
 4114 002e 1A60     		strne	r2, [r3]
 4115 0030 10BD     		pop	{r4, pc}
 4116              	.L589:
 4117 0032 00BF     		.align	2
 4118              	.L588:
 4119 0034 002C0140 		.word	1073818624
 4121              		.section	.text.HAL_TIM_PWM_Stop,"ax",%progbits
 4122              		.align	1
 4123              		.global	HAL_TIM_PWM_Stop
 4124              		.thumb
 4125              		.thumb_func
 4127              	HAL_TIM_PWM_Stop:
 4128              		@ args = 0, pretend = 0, frame = 0
ARM GAS  /tmp/ccGuF8yC.s 			page 70


 4129              		@ frame_needed = 0, uses_anonymous_args = 0
 4130 0000 10B5     		push	{r4, lr}
 4131 0002 0446     		mov	r4, r0
 4132 0004 0022     		movs	r2, #0
 4133 0006 0068     		ldr	r0, [r0]
 4134 0008 FFF7FEFF 		bl	TIM_CCxChannelCmd
 4135 000c 2368     		ldr	r3, [r4]
 4136 000e 124A     		ldr	r2, .L593
 4137 0010 9342     		cmp	r3, r2
 4138 0012 0DD1     		bne	.L591
 4139 0014 41F21112 		movw	r2, #4369
 4140 0018 196A     		ldr	r1, [r3, #32]
 4141 001a 0A40     		ands	r2, r2, r1
 4142 001c 42B9     		cbnz	r2, .L591
 4143 001e 40F24442 		movw	r2, #1092
 4144 0022 196A     		ldr	r1, [r3, #32]
 4145 0024 0A40     		ands	r2, r2, r1
 4146 0026 1AB9     		cbnz	r2, .L591
 4147 0028 5A6C     		ldr	r2, [r3, #68]
 4148 002a 22F40042 		bic	r2, r2, #32768
 4149 002e 5A64     		str	r2, [r3, #68]
 4150              	.L591:
 4151 0030 41F21112 		movw	r2, #4369
 4152 0034 196A     		ldr	r1, [r3, #32]
 4153 0036 0A40     		ands	r2, r2, r1
 4154 0038 42B9     		cbnz	r2, .L592
 4155 003a 40F24442 		movw	r2, #1092
 4156 003e 196A     		ldr	r1, [r3, #32]
 4157 0040 0A40     		ands	r2, r2, r1
 4158 0042 1AB9     		cbnz	r2, .L592
 4159 0044 1A68     		ldr	r2, [r3]
 4160 0046 22F00102 		bic	r2, r2, #1
 4161 004a 1A60     		str	r2, [r3]
 4162              	.L592:
 4163 004c 0123     		movs	r3, #1
 4164 004e 84F83D30 		strb	r3, [r4, #61]
 4165 0052 0020     		movs	r0, #0
 4166 0054 10BD     		pop	{r4, pc}
 4167              	.L594:
 4168 0056 00BF     		.align	2
 4169              	.L593:
 4170 0058 002C0140 		.word	1073818624
 4172              		.section	.text.HAL_TIM_PWM_Start_IT,"ax",%progbits
 4173              		.align	1
 4174              		.global	HAL_TIM_PWM_Start_IT
 4175              		.thumb
 4176              		.thumb_func
 4178              	HAL_TIM_PWM_Start_IT:
 4179              		@ args = 0, pretend = 0, frame = 0
 4180              		@ frame_needed = 0, uses_anonymous_args = 0
 4181 0000 10B5     		push	{r4, lr}
 4182 0002 0446     		mov	r4, r0
 4183 0004 0C29     		cmp	r1, #12
 4184 0006 1CD8     		bhi	.L596
 4185 0008 DFE801F0 		tbb	[pc, r1]
 4186              	.L598:
 4187 000c 07       		.byte	(.L597-.L598)/2
ARM GAS  /tmp/ccGuF8yC.s 			page 71


 4188 000d 1B       		.byte	(.L596-.L598)/2
 4189 000e 1B       		.byte	(.L596-.L598)/2
 4190 000f 1B       		.byte	(.L596-.L598)/2
 4191 0010 0C       		.byte	(.L599-.L598)/2
 4192 0011 1B       		.byte	(.L596-.L598)/2
 4193 0012 1B       		.byte	(.L596-.L598)/2
 4194 0013 1B       		.byte	(.L596-.L598)/2
 4195 0014 11       		.byte	(.L600-.L598)/2
 4196 0015 1B       		.byte	(.L596-.L598)/2
 4197 0016 1B       		.byte	(.L596-.L598)/2
 4198 0017 1B       		.byte	(.L596-.L598)/2
 4199 0018 16       		.byte	(.L601-.L598)/2
 4200 0019 00       		.p2align 1
 4201              	.L597:
 4202 001a 0268     		ldr	r2, [r0]
 4203 001c D368     		ldr	r3, [r2, #12]
 4204 001e 43F00203 		orr	r3, r3, #2
 4205 0022 0DE0     		b	.L607
 4206              	.L599:
 4207 0024 0268     		ldr	r2, [r0]
 4208 0026 D368     		ldr	r3, [r2, #12]
 4209 0028 43F00403 		orr	r3, r3, #4
 4210 002c 08E0     		b	.L607
 4211              	.L600:
 4212 002e 0268     		ldr	r2, [r0]
 4213 0030 D368     		ldr	r3, [r2, #12]
 4214 0032 43F00803 		orr	r3, r3, #8
 4215 0036 03E0     		b	.L607
 4216              	.L601:
 4217 0038 0268     		ldr	r2, [r0]
 4218 003a D368     		ldr	r3, [r2, #12]
 4219 003c 43F01003 		orr	r3, r3, #16
 4220              	.L607:
 4221 0040 D360     		str	r3, [r2, #12]
 4222              	.L596:
 4223 0042 2068     		ldr	r0, [r4]
 4224 0044 0122     		movs	r2, #1
 4225 0046 FFF7FEFF 		bl	TIM_CCxChannelCmd
 4226 004a 2368     		ldr	r3, [r4]
 4227 004c 084A     		ldr	r2, .L608
 4228 004e 0020     		movs	r0, #0
 4229 0050 9342     		cmp	r3, r2
 4230 0052 02BF     		ittt	eq
 4231 0054 5A6C     		ldreq	r2, [r3, #68]
 4232 0056 42F40042 		orreq	r2, r2, #32768
 4233 005a 5A64     		streq	r2, [r3, #68]
 4234 005c 9A68     		ldr	r2, [r3, #8]
 4235 005e 02F00702 		and	r2, r2, #7
 4236 0062 062A     		cmp	r2, #6
 4237 0064 1EBF     		ittt	ne
 4238 0066 1A68     		ldrne	r2, [r3]
 4239 0068 42F00102 		orrne	r2, r2, #1
 4240 006c 1A60     		strne	r2, [r3]
 4241 006e 10BD     		pop	{r4, pc}
 4242              	.L609:
 4243              		.align	2
 4244              	.L608:
ARM GAS  /tmp/ccGuF8yC.s 			page 72


 4245 0070 002C0140 		.word	1073818624
 4247              		.section	.text.HAL_TIM_PWM_Stop_IT,"ax",%progbits
 4248              		.align	1
 4249              		.global	HAL_TIM_PWM_Stop_IT
 4250              		.thumb
 4251              		.thumb_func
 4253              	HAL_TIM_PWM_Stop_IT:
 4254              		@ args = 0, pretend = 0, frame = 0
 4255              		@ frame_needed = 0, uses_anonymous_args = 0
 4256 0000 10B5     		push	{r4, lr}
 4257 0002 0446     		mov	r4, r0
 4258 0004 0C29     		cmp	r1, #12
 4259 0006 1CD8     		bhi	.L611
 4260 0008 DFE801F0 		tbb	[pc, r1]
 4261              	.L613:
 4262 000c 07       		.byte	(.L612-.L613)/2
 4263 000d 1B       		.byte	(.L611-.L613)/2
 4264 000e 1B       		.byte	(.L611-.L613)/2
 4265 000f 1B       		.byte	(.L611-.L613)/2
 4266 0010 0C       		.byte	(.L614-.L613)/2
 4267 0011 1B       		.byte	(.L611-.L613)/2
 4268 0012 1B       		.byte	(.L611-.L613)/2
 4269 0013 1B       		.byte	(.L611-.L613)/2
 4270 0014 11       		.byte	(.L615-.L613)/2
 4271 0015 1B       		.byte	(.L611-.L613)/2
 4272 0016 1B       		.byte	(.L611-.L613)/2
 4273 0017 1B       		.byte	(.L611-.L613)/2
 4274 0018 16       		.byte	(.L616-.L613)/2
 4275 0019 00       		.p2align 1
 4276              	.L612:
 4277 001a 0268     		ldr	r2, [r0]
 4278 001c D368     		ldr	r3, [r2, #12]
 4279 001e 23F00203 		bic	r3, r3, #2
 4280 0022 0DE0     		b	.L619
 4281              	.L614:
 4282 0024 0268     		ldr	r2, [r0]
 4283 0026 D368     		ldr	r3, [r2, #12]
 4284 0028 23F00403 		bic	r3, r3, #4
 4285 002c 08E0     		b	.L619
 4286              	.L615:
 4287 002e 0268     		ldr	r2, [r0]
 4288 0030 D368     		ldr	r3, [r2, #12]
 4289 0032 23F00803 		bic	r3, r3, #8
 4290 0036 03E0     		b	.L619
 4291              	.L616:
 4292 0038 0268     		ldr	r2, [r0]
 4293 003a D368     		ldr	r3, [r2, #12]
 4294 003c 23F01003 		bic	r3, r3, #16
 4295              	.L619:
 4296 0040 D360     		str	r3, [r2, #12]
 4297              	.L611:
 4298 0042 0022     		movs	r2, #0
 4299 0044 2068     		ldr	r0, [r4]
 4300 0046 FFF7FEFF 		bl	TIM_CCxChannelCmd
 4301 004a 2368     		ldr	r3, [r4]
 4302 004c 104A     		ldr	r2, .L620
 4303 004e 9342     		cmp	r3, r2
ARM GAS  /tmp/ccGuF8yC.s 			page 73


 4304 0050 0DD1     		bne	.L617
 4305 0052 41F21112 		movw	r2, #4369
 4306 0056 196A     		ldr	r1, [r3, #32]
 4307 0058 0A40     		ands	r2, r2, r1
 4308 005a 42B9     		cbnz	r2, .L617
 4309 005c 40F24442 		movw	r2, #1092
 4310 0060 196A     		ldr	r1, [r3, #32]
 4311 0062 0A40     		ands	r2, r2, r1
 4312 0064 1AB9     		cbnz	r2, .L617
 4313 0066 5A6C     		ldr	r2, [r3, #68]
 4314 0068 22F40042 		bic	r2, r2, #32768
 4315 006c 5A64     		str	r2, [r3, #68]
 4316              	.L617:
 4317 006e 41F21112 		movw	r2, #4369
 4318 0072 196A     		ldr	r1, [r3, #32]
 4319 0074 0A40     		ands	r2, r2, r1
 4320 0076 42B9     		cbnz	r2, .L618
 4321 0078 40F24442 		movw	r2, #1092
 4322 007c 196A     		ldr	r1, [r3, #32]
 4323 007e 0A40     		ands	r2, r2, r1
 4324 0080 1AB9     		cbnz	r2, .L618
 4325 0082 1A68     		ldr	r2, [r3]
 4326 0084 22F00102 		bic	r2, r2, #1
 4327 0088 1A60     		str	r2, [r3]
 4328              	.L618:
 4329 008a 0020     		movs	r0, #0
 4330 008c 10BD     		pop	{r4, pc}
 4331              	.L621:
 4332 008e 00BF     		.align	2
 4333              	.L620:
 4334 0090 002C0140 		.word	1073818624
 4336              		.section	.text.HAL_TIM_PWM_Start_DMA,"ax",%progbits
 4337              		.align	1
 4338              		.global	HAL_TIM_PWM_Start_DMA
 4339              		.thumb
 4340              		.thumb_func
 4342              	HAL_TIM_PWM_Start_DMA:
 4343              		@ args = 0, pretend = 0, frame = 0
 4344              		@ frame_needed = 0, uses_anonymous_args = 0
 4345 0000 38B5     		push	{r3, r4, r5, lr}
 4346 0002 0446     		mov	r4, r0
 4347 0004 90F83D00 		ldrb	r0, [r0, #61]	@ zero_extendqisi2
 4348 0008 0D46     		mov	r5, r1
 4349 000a C0B2     		uxtb	r0, r0
 4350 000c 0228     		cmp	r0, #2
 4351 000e 1146     		mov	r1, r2
 4352 0010 74D0     		beq	.L623
 4353 0012 94F83D20 		ldrb	r2, [r4, #61]	@ zero_extendqisi2
 4354 0016 012A     		cmp	r2, #1
 4355 0018 06D1     		bne	.L624
 4356 001a 11B9     		cbnz	r1, .L625
 4357 001c 0BB1     		cbz	r3, .L625
 4358              	.L632:
 4359 001e 0120     		movs	r0, #1
 4360 0020 38BD     		pop	{r3, r4, r5, pc}
 4361              	.L625:
 4362 0022 0222     		movs	r2, #2
ARM GAS  /tmp/ccGuF8yC.s 			page 74


 4363 0024 84F83D20 		strb	r2, [r4, #61]
 4364              	.L624:
 4365 0028 0C2D     		cmp	r5, #12
 4366 002a 50D8     		bhi	.L626
 4367 002c DFE805F0 		tbb	[pc, r5]
 4368              	.L628:
 4369 0030 07       		.byte	(.L627-.L628)/2
 4370 0031 4F       		.byte	(.L626-.L628)/2
 4371 0032 4F       		.byte	(.L626-.L628)/2
 4372 0033 4F       		.byte	(.L626-.L628)/2
 4373 0034 19       		.byte	(.L629-.L628)/2
 4374 0035 4F       		.byte	(.L626-.L628)/2
 4375 0036 4F       		.byte	(.L626-.L628)/2
 4376 0037 4F       		.byte	(.L626-.L628)/2
 4377 0038 2B       		.byte	(.L630-.L628)/2
 4378 0039 4F       		.byte	(.L626-.L628)/2
 4379 003a 4F       		.byte	(.L626-.L628)/2
 4380 003b 4F       		.byte	(.L626-.L628)/2
 4381 003c 3D       		.byte	(.L631-.L628)/2
 4382 003d 00       		.p2align 1
 4383              	.L627:
 4384 003e 606A     		ldr	r0, [r4, #36]
 4385 0040 2F4A     		ldr	r2, .L640
 4386 0042 8262     		str	r2, [r0, #40]
 4387 0044 2F4A     		ldr	r2, .L640+4
 4388 0046 C262     		str	r2, [r0, #44]
 4389 0048 2F4A     		ldr	r2, .L640+8
 4390 004a 0263     		str	r2, [r0, #48]
 4391 004c 2268     		ldr	r2, [r4]
 4392 004e 3432     		adds	r2, r2, #52
 4393 0050 FFF7FEFF 		bl	HAL_DMA_Start_IT
 4394 0054 0028     		cmp	r0, #0
 4395 0056 E2D1     		bne	.L632
 4396 0058 2268     		ldr	r2, [r4]
 4397 005a D368     		ldr	r3, [r2, #12]
 4398 005c 43F40073 		orr	r3, r3, #512
 4399 0060 34E0     		b	.L639
 4400              	.L629:
 4401 0062 A06A     		ldr	r0, [r4, #40]
 4402 0064 264A     		ldr	r2, .L640
 4403 0066 8262     		str	r2, [r0, #40]
 4404 0068 264A     		ldr	r2, .L640+4
 4405 006a C262     		str	r2, [r0, #44]
 4406 006c 264A     		ldr	r2, .L640+8
 4407 006e 0263     		str	r2, [r0, #48]
 4408 0070 2268     		ldr	r2, [r4]
 4409 0072 3832     		adds	r2, r2, #56
 4410 0074 FFF7FEFF 		bl	HAL_DMA_Start_IT
 4411 0078 0028     		cmp	r0, #0
 4412 007a D0D1     		bne	.L632
 4413 007c 2268     		ldr	r2, [r4]
 4414 007e D368     		ldr	r3, [r2, #12]
 4415 0080 43F48063 		orr	r3, r3, #1024
 4416 0084 22E0     		b	.L639
 4417              	.L630:
 4418 0086 E06A     		ldr	r0, [r4, #44]
 4419 0088 1D4A     		ldr	r2, .L640
ARM GAS  /tmp/ccGuF8yC.s 			page 75


 4420 008a 8262     		str	r2, [r0, #40]
 4421 008c 1D4A     		ldr	r2, .L640+4
 4422 008e C262     		str	r2, [r0, #44]
 4423 0090 1D4A     		ldr	r2, .L640+8
 4424 0092 0263     		str	r2, [r0, #48]
 4425 0094 2268     		ldr	r2, [r4]
 4426 0096 3C32     		adds	r2, r2, #60
 4427 0098 FFF7FEFF 		bl	HAL_DMA_Start_IT
 4428 009c 0028     		cmp	r0, #0
 4429 009e BED1     		bne	.L632
 4430 00a0 2268     		ldr	r2, [r4]
 4431 00a2 D368     		ldr	r3, [r2, #12]
 4432 00a4 43F40063 		orr	r3, r3, #2048
 4433 00a8 10E0     		b	.L639
 4434              	.L631:
 4435 00aa 206B     		ldr	r0, [r4, #48]
 4436 00ac 144A     		ldr	r2, .L640
 4437 00ae 8262     		str	r2, [r0, #40]
 4438 00b0 144A     		ldr	r2, .L640+4
 4439 00b2 C262     		str	r2, [r0, #44]
 4440 00b4 144A     		ldr	r2, .L640+8
 4441 00b6 0263     		str	r2, [r0, #48]
 4442 00b8 2268     		ldr	r2, [r4]
 4443 00ba 4032     		adds	r2, r2, #64
 4444 00bc FFF7FEFF 		bl	HAL_DMA_Start_IT
 4445 00c0 0028     		cmp	r0, #0
 4446 00c2 ACD1     		bne	.L632
 4447 00c4 2268     		ldr	r2, [r4]
 4448 00c6 D368     		ldr	r3, [r2, #12]
 4449 00c8 43F48053 		orr	r3, r3, #4096
 4450              	.L639:
 4451 00cc D360     		str	r3, [r2, #12]
 4452              	.L626:
 4453 00ce 2068     		ldr	r0, [r4]
 4454 00d0 0122     		movs	r2, #1
 4455 00d2 2946     		mov	r1, r5
 4456 00d4 FFF7FEFF 		bl	TIM_CCxChannelCmd
 4457 00d8 2368     		ldr	r3, [r4]
 4458 00da 0C4A     		ldr	r2, .L640+12
 4459 00dc 0020     		movs	r0, #0
 4460 00de 9342     		cmp	r3, r2
 4461 00e0 02BF     		ittt	eq
 4462 00e2 5A6C     		ldreq	r2, [r3, #68]
 4463 00e4 42F40042 		orreq	r2, r2, #32768
 4464 00e8 5A64     		streq	r2, [r3, #68]
 4465 00ea 9A68     		ldr	r2, [r3, #8]
 4466 00ec 02F00702 		and	r2, r2, #7
 4467 00f0 062A     		cmp	r2, #6
 4468 00f2 1EBF     		ittt	ne
 4469 00f4 1A68     		ldrne	r2, [r3]
 4470 00f6 42F00102 		orrne	r2, r2, #1
 4471 00fa 1A60     		strne	r2, [r3]
 4472              	.L623:
 4473 00fc 38BD     		pop	{r3, r4, r5, pc}
 4474              	.L641:
 4475 00fe 00BF     		.align	2
 4476              	.L640:
ARM GAS  /tmp/ccGuF8yC.s 			page 76


 4477 0100 00000000 		.word	TIM_DMADelayPulseCplt
 4478 0104 00000000 		.word	TIM_DMADelayPulseHalfCplt
 4479 0108 00000000 		.word	TIM_DMAError
 4480 010c 002C0140 		.word	1073818624
 4482              		.section	.text.HAL_TIM_PWM_Stop_DMA,"ax",%progbits
 4483              		.align	1
 4484              		.global	HAL_TIM_PWM_Stop_DMA
 4485              		.thumb
 4486              		.thumb_func
 4488              	HAL_TIM_PWM_Stop_DMA:
 4489              		@ args = 0, pretend = 0, frame = 0
 4490              		@ frame_needed = 0, uses_anonymous_args = 0
 4491 0000 38B5     		push	{r3, r4, r5, lr}
 4492 0002 0446     		mov	r4, r0
 4493 0004 0D46     		mov	r5, r1
 4494 0006 0C29     		cmp	r1, #12
 4495 0008 25D8     		bhi	.L643
 4496 000a DFE801F0 		tbb	[pc, r1]
 4497              	.L645:
 4498 000e 07       		.byte	(.L644-.L645)/2
 4499 000f 24       		.byte	(.L643-.L645)/2
 4500 0010 24       		.byte	(.L643-.L645)/2
 4501 0011 24       		.byte	(.L643-.L645)/2
 4502 0012 0E       		.byte	(.L646-.L645)/2
 4503 0013 24       		.byte	(.L643-.L645)/2
 4504 0014 24       		.byte	(.L643-.L645)/2
 4505 0015 24       		.byte	(.L643-.L645)/2
 4506 0016 15       		.byte	(.L647-.L645)/2
 4507 0017 24       		.byte	(.L643-.L645)/2
 4508 0018 24       		.byte	(.L643-.L645)/2
 4509 0019 24       		.byte	(.L643-.L645)/2
 4510 001a 1C       		.byte	(.L648-.L645)/2
 4511 001b 00       		.p2align 1
 4512              	.L644:
 4513 001c 0268     		ldr	r2, [r0]
 4514 001e 406A     		ldr	r0, [r0, #36]
 4515 0020 D368     		ldr	r3, [r2, #12]
 4516 0022 23F40073 		bic	r3, r3, #512
 4517 0026 D360     		str	r3, [r2, #12]
 4518 0028 13E0     		b	.L651
 4519              	.L646:
 4520 002a 0268     		ldr	r2, [r0]
 4521 002c 806A     		ldr	r0, [r0, #40]
 4522 002e D368     		ldr	r3, [r2, #12]
 4523 0030 23F48063 		bic	r3, r3, #1024
 4524 0034 D360     		str	r3, [r2, #12]
 4525 0036 0CE0     		b	.L651
 4526              	.L647:
 4527 0038 0268     		ldr	r2, [r0]
 4528 003a C06A     		ldr	r0, [r0, #44]
 4529 003c D368     		ldr	r3, [r2, #12]
 4530 003e 23F40063 		bic	r3, r3, #2048
 4531 0042 D360     		str	r3, [r2, #12]
 4532 0044 05E0     		b	.L651
 4533              	.L648:
 4534 0046 0268     		ldr	r2, [r0]
 4535 0048 006B     		ldr	r0, [r0, #48]
ARM GAS  /tmp/ccGuF8yC.s 			page 77


 4536 004a D368     		ldr	r3, [r2, #12]
 4537 004c 23F48053 		bic	r3, r3, #4096
 4538 0050 D360     		str	r3, [r2, #12]
 4539              	.L651:
 4540 0052 FFF7FEFF 		bl	HAL_DMA_Abort_IT
 4541              	.L643:
 4542 0056 0022     		movs	r2, #0
 4543 0058 2068     		ldr	r0, [r4]
 4544 005a 2946     		mov	r1, r5
 4545 005c FFF7FEFF 		bl	TIM_CCxChannelCmd
 4546 0060 2368     		ldr	r3, [r4]
 4547 0062 124A     		ldr	r2, .L652
 4548 0064 9342     		cmp	r3, r2
 4549 0066 0DD1     		bne	.L649
 4550 0068 41F21112 		movw	r2, #4369
 4551 006c 196A     		ldr	r1, [r3, #32]
 4552 006e 0A40     		ands	r2, r2, r1
 4553 0070 42B9     		cbnz	r2, .L649
 4554 0072 40F24442 		movw	r2, #1092
 4555 0076 196A     		ldr	r1, [r3, #32]
 4556 0078 0A40     		ands	r2, r2, r1
 4557 007a 1AB9     		cbnz	r2, .L649
 4558 007c 5A6C     		ldr	r2, [r3, #68]
 4559 007e 22F40042 		bic	r2, r2, #32768
 4560 0082 5A64     		str	r2, [r3, #68]
 4561              	.L649:
 4562 0084 41F21112 		movw	r2, #4369
 4563 0088 196A     		ldr	r1, [r3, #32]
 4564 008a 0A40     		ands	r2, r2, r1
 4565 008c 42B9     		cbnz	r2, .L650
 4566 008e 40F24442 		movw	r2, #1092
 4567 0092 196A     		ldr	r1, [r3, #32]
 4568 0094 0A40     		ands	r2, r2, r1
 4569 0096 1AB9     		cbnz	r2, .L650
 4570 0098 1A68     		ldr	r2, [r3]
 4571 009a 22F00102 		bic	r2, r2, #1
 4572 009e 1A60     		str	r2, [r3]
 4573              	.L650:
 4574 00a0 0123     		movs	r3, #1
 4575 00a2 84F83D30 		strb	r3, [r4, #61]
 4576 00a6 0020     		movs	r0, #0
 4577 00a8 38BD     		pop	{r3, r4, r5, pc}
 4578              	.L653:
 4579 00aa 00BF     		.align	2
 4580              	.L652:
 4581 00ac 002C0140 		.word	1073818624
 4583              		.section	.text.HAL_TIM_IC_Start,"ax",%progbits
 4584              		.align	1
 4585              		.global	HAL_TIM_IC_Start
 4586              		.thumb
 4587              		.thumb_func
 4589              	HAL_TIM_IC_Start:
 4590              		@ args = 0, pretend = 0, frame = 0
 4591              		@ frame_needed = 0, uses_anonymous_args = 0
 4592 0000 10B5     		push	{r4, lr}
 4593 0002 0446     		mov	r4, r0
 4594 0004 0122     		movs	r2, #1
ARM GAS  /tmp/ccGuF8yC.s 			page 78


 4595 0006 0068     		ldr	r0, [r0]
 4596 0008 FFF7FEFF 		bl	TIM_CCxChannelCmd
 4597 000c 2368     		ldr	r3, [r4]
 4598 000e 0020     		movs	r0, #0
 4599 0010 9A68     		ldr	r2, [r3, #8]
 4600 0012 02F00702 		and	r2, r2, #7
 4601 0016 062A     		cmp	r2, #6
 4602 0018 1EBF     		ittt	ne
 4603 001a 1A68     		ldrne	r2, [r3]
 4604 001c 42F00102 		orrne	r2, r2, #1
 4605 0020 1A60     		strne	r2, [r3]
 4606 0022 10BD     		pop	{r4, pc}
 4608              		.section	.text.HAL_TIM_IC_Stop,"ax",%progbits
 4609              		.align	1
 4610              		.global	HAL_TIM_IC_Stop
 4611              		.thumb
 4612              		.thumb_func
 4614              	HAL_TIM_IC_Stop:
 4615              		@ args = 0, pretend = 0, frame = 0
 4616              		@ frame_needed = 0, uses_anonymous_args = 0
 4617 0000 10B5     		push	{r4, lr}
 4618 0002 0446     		mov	r4, r0
 4619 0004 0022     		movs	r2, #0
 4620 0006 0068     		ldr	r0, [r0]
 4621 0008 FFF7FEFF 		bl	TIM_CCxChannelCmd
 4622 000c 41F21112 		movw	r2, #4369
 4623 0010 2368     		ldr	r3, [r4]
 4624 0012 196A     		ldr	r1, [r3, #32]
 4625 0014 0A40     		ands	r2, r2, r1
 4626 0016 42B9     		cbnz	r2, .L660
 4627 0018 40F24442 		movw	r2, #1092
 4628 001c 196A     		ldr	r1, [r3, #32]
 4629 001e 0A40     		ands	r2, r2, r1
 4630 0020 1AB9     		cbnz	r2, .L660
 4631 0022 1A68     		ldr	r2, [r3]
 4632 0024 22F00102 		bic	r2, r2, #1
 4633 0028 1A60     		str	r2, [r3]
 4634              	.L660:
 4635 002a 0020     		movs	r0, #0
 4636 002c 10BD     		pop	{r4, pc}
 4638              		.section	.text.HAL_TIM_IC_Start_IT,"ax",%progbits
 4639              		.align	1
 4640              		.global	HAL_TIM_IC_Start_IT
 4641              		.thumb
 4642              		.thumb_func
 4644              	HAL_TIM_IC_Start_IT:
 4645              		@ args = 0, pretend = 0, frame = 0
 4646              		@ frame_needed = 0, uses_anonymous_args = 0
 4647 0000 10B5     		push	{r4, lr}
 4648 0002 0446     		mov	r4, r0
 4649 0004 0C29     		cmp	r1, #12
 4650 0006 1CD8     		bhi	.L662
 4651 0008 DFE801F0 		tbb	[pc, r1]
 4652              	.L664:
 4653 000c 07       		.byte	(.L663-.L664)/2
 4654 000d 1B       		.byte	(.L662-.L664)/2
 4655 000e 1B       		.byte	(.L662-.L664)/2
ARM GAS  /tmp/ccGuF8yC.s 			page 79


 4656 000f 1B       		.byte	(.L662-.L664)/2
 4657 0010 0C       		.byte	(.L665-.L664)/2
 4658 0011 1B       		.byte	(.L662-.L664)/2
 4659 0012 1B       		.byte	(.L662-.L664)/2
 4660 0013 1B       		.byte	(.L662-.L664)/2
 4661 0014 11       		.byte	(.L666-.L664)/2
 4662 0015 1B       		.byte	(.L662-.L664)/2
 4663 0016 1B       		.byte	(.L662-.L664)/2
 4664 0017 1B       		.byte	(.L662-.L664)/2
 4665 0018 16       		.byte	(.L667-.L664)/2
 4666 0019 00       		.p2align 1
 4667              	.L663:
 4668 001a 0268     		ldr	r2, [r0]
 4669 001c D368     		ldr	r3, [r2, #12]
 4670 001e 43F00203 		orr	r3, r3, #2
 4671 0022 0DE0     		b	.L672
 4672              	.L665:
 4673 0024 0268     		ldr	r2, [r0]
 4674 0026 D368     		ldr	r3, [r2, #12]
 4675 0028 43F00403 		orr	r3, r3, #4
 4676 002c 08E0     		b	.L672
 4677              	.L666:
 4678 002e 0268     		ldr	r2, [r0]
 4679 0030 D368     		ldr	r3, [r2, #12]
 4680 0032 43F00803 		orr	r3, r3, #8
 4681 0036 03E0     		b	.L672
 4682              	.L667:
 4683 0038 0268     		ldr	r2, [r0]
 4684 003a D368     		ldr	r3, [r2, #12]
 4685 003c 43F01003 		orr	r3, r3, #16
 4686              	.L672:
 4687 0040 D360     		str	r3, [r2, #12]
 4688              	.L662:
 4689 0042 2068     		ldr	r0, [r4]
 4690 0044 0122     		movs	r2, #1
 4691 0046 FFF7FEFF 		bl	TIM_CCxChannelCmd
 4692 004a 2368     		ldr	r3, [r4]
 4693 004c 0020     		movs	r0, #0
 4694 004e 9A68     		ldr	r2, [r3, #8]
 4695 0050 02F00702 		and	r2, r2, #7
 4696 0054 062A     		cmp	r2, #6
 4697 0056 1EBF     		ittt	ne
 4698 0058 1A68     		ldrne	r2, [r3]
 4699 005a 42F00102 		orrne	r2, r2, #1
 4700 005e 1A60     		strne	r2, [r3]
 4701 0060 10BD     		pop	{r4, pc}
 4703              		.section	.text.HAL_TIM_IC_Stop_IT,"ax",%progbits
 4704              		.align	1
 4705              		.global	HAL_TIM_IC_Stop_IT
 4706              		.thumb
 4707              		.thumb_func
 4709              	HAL_TIM_IC_Stop_IT:
 4710              		@ args = 0, pretend = 0, frame = 0
 4711              		@ frame_needed = 0, uses_anonymous_args = 0
 4712 0000 10B5     		push	{r4, lr}
 4713 0002 0446     		mov	r4, r0
 4714 0004 0C29     		cmp	r1, #12
ARM GAS  /tmp/ccGuF8yC.s 			page 80


 4715 0006 1CD8     		bhi	.L674
 4716 0008 DFE801F0 		tbb	[pc, r1]
 4717              	.L676:
 4718 000c 07       		.byte	(.L675-.L676)/2
 4719 000d 1B       		.byte	(.L674-.L676)/2
 4720 000e 1B       		.byte	(.L674-.L676)/2
 4721 000f 1B       		.byte	(.L674-.L676)/2
 4722 0010 0C       		.byte	(.L677-.L676)/2
 4723 0011 1B       		.byte	(.L674-.L676)/2
 4724 0012 1B       		.byte	(.L674-.L676)/2
 4725 0013 1B       		.byte	(.L674-.L676)/2
 4726 0014 11       		.byte	(.L678-.L676)/2
 4727 0015 1B       		.byte	(.L674-.L676)/2
 4728 0016 1B       		.byte	(.L674-.L676)/2
 4729 0017 1B       		.byte	(.L674-.L676)/2
 4730 0018 16       		.byte	(.L679-.L676)/2
 4731 0019 00       		.p2align 1
 4732              	.L675:
 4733 001a 0268     		ldr	r2, [r0]
 4734 001c D368     		ldr	r3, [r2, #12]
 4735 001e 23F00203 		bic	r3, r3, #2
 4736 0022 0DE0     		b	.L681
 4737              	.L677:
 4738 0024 0268     		ldr	r2, [r0]
 4739 0026 D368     		ldr	r3, [r2, #12]
 4740 0028 23F00403 		bic	r3, r3, #4
 4741 002c 08E0     		b	.L681
 4742              	.L678:
 4743 002e 0268     		ldr	r2, [r0]
 4744 0030 D368     		ldr	r3, [r2, #12]
 4745 0032 23F00803 		bic	r3, r3, #8
 4746 0036 03E0     		b	.L681
 4747              	.L679:
 4748 0038 0268     		ldr	r2, [r0]
 4749 003a D368     		ldr	r3, [r2, #12]
 4750 003c 23F01003 		bic	r3, r3, #16
 4751              	.L681:
 4752 0040 D360     		str	r3, [r2, #12]
 4753              	.L674:
 4754 0042 0022     		movs	r2, #0
 4755 0044 2068     		ldr	r0, [r4]
 4756 0046 FFF7FEFF 		bl	TIM_CCxChannelCmd
 4757 004a 41F21112 		movw	r2, #4369
 4758 004e 2368     		ldr	r3, [r4]
 4759 0050 196A     		ldr	r1, [r3, #32]
 4760 0052 0A40     		ands	r2, r2, r1
 4761 0054 42B9     		cbnz	r2, .L680
 4762 0056 40F24442 		movw	r2, #1092
 4763 005a 196A     		ldr	r1, [r3, #32]
 4764 005c 0A40     		ands	r2, r2, r1
 4765 005e 1AB9     		cbnz	r2, .L680
 4766 0060 1A68     		ldr	r2, [r3]
 4767 0062 22F00102 		bic	r2, r2, #1
 4768 0066 1A60     		str	r2, [r3]
 4769              	.L680:
 4770 0068 0020     		movs	r0, #0
 4771 006a 10BD     		pop	{r4, pc}
ARM GAS  /tmp/ccGuF8yC.s 			page 81


 4773              		.section	.text.HAL_TIM_IC_Start_DMA,"ax",%progbits
 4774              		.align	1
 4775              		.global	HAL_TIM_IC_Start_DMA
 4776              		.thumb
 4777              		.thumb_func
 4779              	HAL_TIM_IC_Start_DMA:
 4780              		@ args = 0, pretend = 0, frame = 0
 4781              		@ frame_needed = 0, uses_anonymous_args = 0
 4782 0000 38B5     		push	{r3, r4, r5, lr}
 4783 0002 0446     		mov	r4, r0
 4784 0004 90F83D00 		ldrb	r0, [r0, #61]	@ zero_extendqisi2
 4785 0008 0D46     		mov	r5, r1
 4786 000a C0B2     		uxtb	r0, r0
 4787 000c 0228     		cmp	r0, #2
 4788 000e 6DD0     		beq	.L683
 4789 0010 94F83D10 		ldrb	r1, [r4, #61]	@ zero_extendqisi2
 4790 0014 0129     		cmp	r1, #1
 4791 0016 06D1     		bne	.L684
 4792 0018 12B9     		cbnz	r2, .L685
 4793 001a 0BB1     		cbz	r3, .L685
 4794              	.L692:
 4795 001c 0120     		movs	r0, #1
 4796 001e 38BD     		pop	{r3, r4, r5, pc}
 4797              	.L685:
 4798 0020 0221     		movs	r1, #2
 4799 0022 84F83D10 		strb	r1, [r4, #61]
 4800              	.L684:
 4801 0026 0C2D     		cmp	r5, #12
 4802 0028 50D8     		bhi	.L686
 4803 002a DFE805F0 		tbb	[pc, r5]
 4804              	.L688:
 4805 002e 07       		.byte	(.L687-.L688)/2
 4806 002f 4F       		.byte	(.L686-.L688)/2
 4807 0030 4F       		.byte	(.L686-.L688)/2
 4808 0031 4F       		.byte	(.L686-.L688)/2
 4809 0032 19       		.byte	(.L689-.L688)/2
 4810 0033 4F       		.byte	(.L686-.L688)/2
 4811 0034 4F       		.byte	(.L686-.L688)/2
 4812 0035 4F       		.byte	(.L686-.L688)/2
 4813 0036 2B       		.byte	(.L690-.L688)/2
 4814 0037 4F       		.byte	(.L686-.L688)/2
 4815 0038 4F       		.byte	(.L686-.L688)/2
 4816 0039 4F       		.byte	(.L686-.L688)/2
 4817 003a 3D       		.byte	(.L691-.L688)/2
 4818 003b 00       		.p2align 1
 4819              	.L687:
 4820 003c 606A     		ldr	r0, [r4, #36]
 4821 003e 2C49     		ldr	r1, .L699
 4822 0040 8162     		str	r1, [r0, #40]
 4823 0042 2C49     		ldr	r1, .L699+4
 4824 0044 C162     		str	r1, [r0, #44]
 4825 0046 2C49     		ldr	r1, .L699+8
 4826 0048 0163     		str	r1, [r0, #48]
 4827 004a 2168     		ldr	r1, [r4]
 4828 004c 3431     		adds	r1, r1, #52
 4829 004e FFF7FEFF 		bl	HAL_DMA_Start_IT
 4830 0052 0028     		cmp	r0, #0
ARM GAS  /tmp/ccGuF8yC.s 			page 82


 4831 0054 E2D1     		bne	.L692
 4832 0056 2268     		ldr	r2, [r4]
 4833 0058 D368     		ldr	r3, [r2, #12]
 4834 005a 43F40073 		orr	r3, r3, #512
 4835 005e 34E0     		b	.L698
 4836              	.L689:
 4837 0060 A06A     		ldr	r0, [r4, #40]
 4838 0062 2349     		ldr	r1, .L699
 4839 0064 8162     		str	r1, [r0, #40]
 4840 0066 2349     		ldr	r1, .L699+4
 4841 0068 C162     		str	r1, [r0, #44]
 4842 006a 2349     		ldr	r1, .L699+8
 4843 006c 0163     		str	r1, [r0, #48]
 4844 006e 2168     		ldr	r1, [r4]
 4845 0070 3831     		adds	r1, r1, #56
 4846 0072 FFF7FEFF 		bl	HAL_DMA_Start_IT
 4847 0076 0028     		cmp	r0, #0
 4848 0078 D0D1     		bne	.L692
 4849 007a 2268     		ldr	r2, [r4]
 4850 007c D368     		ldr	r3, [r2, #12]
 4851 007e 43F48063 		orr	r3, r3, #1024
 4852 0082 22E0     		b	.L698
 4853              	.L690:
 4854 0084 E06A     		ldr	r0, [r4, #44]
 4855 0086 1A49     		ldr	r1, .L699
 4856 0088 8162     		str	r1, [r0, #40]
 4857 008a 1A49     		ldr	r1, .L699+4
 4858 008c C162     		str	r1, [r0, #44]
 4859 008e 1A49     		ldr	r1, .L699+8
 4860 0090 0163     		str	r1, [r0, #48]
 4861 0092 2168     		ldr	r1, [r4]
 4862 0094 3C31     		adds	r1, r1, #60
 4863 0096 FFF7FEFF 		bl	HAL_DMA_Start_IT
 4864 009a 0028     		cmp	r0, #0
 4865 009c BED1     		bne	.L692
 4866 009e 2268     		ldr	r2, [r4]
 4867 00a0 D368     		ldr	r3, [r2, #12]
 4868 00a2 43F40063 		orr	r3, r3, #2048
 4869 00a6 10E0     		b	.L698
 4870              	.L691:
 4871 00a8 206B     		ldr	r0, [r4, #48]
 4872 00aa 1149     		ldr	r1, .L699
 4873 00ac 8162     		str	r1, [r0, #40]
 4874 00ae 1149     		ldr	r1, .L699+4
 4875 00b0 C162     		str	r1, [r0, #44]
 4876 00b2 1149     		ldr	r1, .L699+8
 4877 00b4 0163     		str	r1, [r0, #48]
 4878 00b6 2168     		ldr	r1, [r4]
 4879 00b8 4031     		adds	r1, r1, #64
 4880 00ba FFF7FEFF 		bl	HAL_DMA_Start_IT
 4881 00be 0028     		cmp	r0, #0
 4882 00c0 ACD1     		bne	.L692
 4883 00c2 2268     		ldr	r2, [r4]
 4884 00c4 D368     		ldr	r3, [r2, #12]
 4885 00c6 43F48053 		orr	r3, r3, #4096
 4886              	.L698:
 4887 00ca D360     		str	r3, [r2, #12]
ARM GAS  /tmp/ccGuF8yC.s 			page 83


 4888              	.L686:
 4889 00cc 2068     		ldr	r0, [r4]
 4890 00ce 0122     		movs	r2, #1
 4891 00d0 2946     		mov	r1, r5
 4892 00d2 FFF7FEFF 		bl	TIM_CCxChannelCmd
 4893 00d6 2368     		ldr	r3, [r4]
 4894 00d8 0020     		movs	r0, #0
 4895 00da 9A68     		ldr	r2, [r3, #8]
 4896 00dc 02F00702 		and	r2, r2, #7
 4897 00e0 062A     		cmp	r2, #6
 4898 00e2 1EBF     		ittt	ne
 4899 00e4 1A68     		ldrne	r2, [r3]
 4900 00e6 42F00102 		orrne	r2, r2, #1
 4901 00ea 1A60     		strne	r2, [r3]
 4902              	.L683:
 4903 00ec 38BD     		pop	{r3, r4, r5, pc}
 4904              	.L700:
 4905 00ee 00BF     		.align	2
 4906              	.L699:
 4907 00f0 00000000 		.word	TIM_DMACaptureCplt
 4908 00f4 00000000 		.word	TIM_DMACaptureHalfCplt
 4909 00f8 00000000 		.word	TIM_DMAError
 4911              		.section	.text.HAL_TIM_IC_Stop_DMA,"ax",%progbits
 4912              		.align	1
 4913              		.global	HAL_TIM_IC_Stop_DMA
 4914              		.thumb
 4915              		.thumb_func
 4917              	HAL_TIM_IC_Stop_DMA:
 4918              		@ args = 0, pretend = 0, frame = 0
 4919              		@ frame_needed = 0, uses_anonymous_args = 0
 4920 0000 38B5     		push	{r3, r4, r5, lr}
 4921 0002 0446     		mov	r4, r0
 4922 0004 0D46     		mov	r5, r1
 4923 0006 0C29     		cmp	r1, #12
 4924 0008 25D8     		bhi	.L702
 4925 000a DFE801F0 		tbb	[pc, r1]
 4926              	.L704:
 4927 000e 07       		.byte	(.L703-.L704)/2
 4928 000f 24       		.byte	(.L702-.L704)/2
 4929 0010 24       		.byte	(.L702-.L704)/2
 4930 0011 24       		.byte	(.L702-.L704)/2
 4931 0012 0E       		.byte	(.L705-.L704)/2
 4932 0013 24       		.byte	(.L702-.L704)/2
 4933 0014 24       		.byte	(.L702-.L704)/2
 4934 0015 24       		.byte	(.L702-.L704)/2
 4935 0016 15       		.byte	(.L706-.L704)/2
 4936 0017 24       		.byte	(.L702-.L704)/2
 4937 0018 24       		.byte	(.L702-.L704)/2
 4938 0019 24       		.byte	(.L702-.L704)/2
 4939 001a 1C       		.byte	(.L707-.L704)/2
 4940 001b 00       		.p2align 1
 4941              	.L703:
 4942 001c 0268     		ldr	r2, [r0]
 4943 001e 406A     		ldr	r0, [r0, #36]
 4944 0020 D368     		ldr	r3, [r2, #12]
 4945 0022 23F40073 		bic	r3, r3, #512
 4946 0026 D360     		str	r3, [r2, #12]
ARM GAS  /tmp/ccGuF8yC.s 			page 84


 4947 0028 13E0     		b	.L709
 4948              	.L705:
 4949 002a 0268     		ldr	r2, [r0]
 4950 002c 806A     		ldr	r0, [r0, #40]
 4951 002e D368     		ldr	r3, [r2, #12]
 4952 0030 23F48063 		bic	r3, r3, #1024
 4953 0034 D360     		str	r3, [r2, #12]
 4954 0036 0CE0     		b	.L709
 4955              	.L706:
 4956 0038 0268     		ldr	r2, [r0]
 4957 003a C06A     		ldr	r0, [r0, #44]
 4958 003c D368     		ldr	r3, [r2, #12]
 4959 003e 23F40063 		bic	r3, r3, #2048
 4960 0042 D360     		str	r3, [r2, #12]
 4961 0044 05E0     		b	.L709
 4962              	.L707:
 4963 0046 0268     		ldr	r2, [r0]
 4964 0048 006B     		ldr	r0, [r0, #48]
 4965 004a D368     		ldr	r3, [r2, #12]
 4966 004c 23F48053 		bic	r3, r3, #4096
 4967 0050 D360     		str	r3, [r2, #12]
 4968              	.L709:
 4969 0052 FFF7FEFF 		bl	HAL_DMA_Abort_IT
 4970              	.L702:
 4971 0056 2946     		mov	r1, r5
 4972 0058 0022     		movs	r2, #0
 4973 005a 2068     		ldr	r0, [r4]
 4974 005c FFF7FEFF 		bl	TIM_CCxChannelCmd
 4975 0060 41F21112 		movw	r2, #4369
 4976 0064 2368     		ldr	r3, [r4]
 4977 0066 196A     		ldr	r1, [r3, #32]
 4978 0068 0A40     		ands	r2, r2, r1
 4979 006a 42B9     		cbnz	r2, .L708
 4980 006c 40F24442 		movw	r2, #1092
 4981 0070 196A     		ldr	r1, [r3, #32]
 4982 0072 0A40     		ands	r2, r2, r1
 4983 0074 1AB9     		cbnz	r2, .L708
 4984 0076 1A68     		ldr	r2, [r3]
 4985 0078 22F00102 		bic	r2, r2, #1
 4986 007c 1A60     		str	r2, [r3]
 4987              	.L708:
 4988 007e 0123     		movs	r3, #1
 4989 0080 84F83D30 		strb	r3, [r4, #61]
 4990 0084 0020     		movs	r0, #0
 4991 0086 38BD     		pop	{r3, r4, r5, pc}
 4993              		.ident	"GCC: (15:4.9.3+svn231177-1) 4.9.3 20150529 (prerelease)"
ARM GAS  /tmp/ccGuF8yC.s 			page 85


DEFINED SYMBOLS
                            *ABS*:0000000000000000 stm32f1xx_hal_tim.c
     /tmp/ccGuF8yC.s:16     .text.TIM_OC1_SetConfig:0000000000000000 $t
     /tmp/ccGuF8yC.s:20     .text.TIM_OC1_SetConfig:0000000000000000 TIM_OC1_SetConfig
     /tmp/ccGuF8yC.s:58     .text.TIM_OC1_SetConfig:000000000000004c $d
     /tmp/ccGuF8yC.s:61     .text.TIM_OC3_SetConfig:0000000000000000 $t
     /tmp/ccGuF8yC.s:65     .text.TIM_OC3_SetConfig:0000000000000000 TIM_OC3_SetConfig
     /tmp/ccGuF8yC.s:103    .text.TIM_OC3_SetConfig:0000000000000054 $d
     /tmp/ccGuF8yC.s:106    .text.TIM_OC4_SetConfig:0000000000000000 $t
     /tmp/ccGuF8yC.s:110    .text.TIM_OC4_SetConfig:0000000000000000 TIM_OC4_SetConfig
     /tmp/ccGuF8yC.s:141    .text.TIM_OC4_SetConfig:0000000000000040 $d
     /tmp/ccGuF8yC.s:144    .text.HAL_TIM_Base_MspInit:0000000000000000 $t
     /tmp/ccGuF8yC.s:149    .text.HAL_TIM_Base_MspInit:0000000000000000 HAL_TIM_Base_MspInit
     /tmp/ccGuF8yC.s:156    .text.HAL_TIM_Base_MspDeInit:0000000000000000 $t
     /tmp/ccGuF8yC.s:161    .text.HAL_TIM_Base_MspDeInit:0000000000000000 HAL_TIM_Base_MspDeInit
     /tmp/ccGuF8yC.s:168    .text.HAL_TIM_Base_DeInit:0000000000000000 $t
     /tmp/ccGuF8yC.s:173    .text.HAL_TIM_Base_DeInit:0000000000000000 HAL_TIM_Base_DeInit
     /tmp/ccGuF8yC.s:201    .text.HAL_TIM_Base_Start:0000000000000000 $t
     /tmp/ccGuF8yC.s:206    .text.HAL_TIM_Base_Start:0000000000000000 HAL_TIM_Base_Start
     /tmp/ccGuF8yC.s:226    .text.HAL_TIM_Base_Stop:0000000000000000 $t
     /tmp/ccGuF8yC.s:231    .text.HAL_TIM_Base_Stop:0000000000000000 HAL_TIM_Base_Stop
     /tmp/ccGuF8yC.s:256    .text.HAL_TIM_Base_Start_IT:0000000000000000 $t
     /tmp/ccGuF8yC.s:261    .text.HAL_TIM_Base_Start_IT:0000000000000000 HAL_TIM_Base_Start_IT
     /tmp/ccGuF8yC.s:280    .text.HAL_TIM_Base_Stop_IT:0000000000000000 $t
     /tmp/ccGuF8yC.s:285    .text.HAL_TIM_Base_Stop_IT:0000000000000000 HAL_TIM_Base_Stop_IT
     /tmp/ccGuF8yC.s:309    .text.HAL_TIM_Base_Start_DMA:0000000000000000 $t
     /tmp/ccGuF8yC.s:314    .text.HAL_TIM_Base_Start_DMA:0000000000000000 HAL_TIM_Base_Start_DMA
     /tmp/ccGuF8yC.s:364    .text.HAL_TIM_Base_Start_DMA:0000000000000060 $d
     /tmp/ccGuF8yC.s:1769   .text.TIM_DMAPeriodElapsedCplt:0000000000000000 TIM_DMAPeriodElapsedCplt
     /tmp/ccGuF8yC.s:1796   .text.TIM_DMAPeriodElapsedHalfCplt:0000000000000000 TIM_DMAPeriodElapsedHalfCplt
     /tmp/ccGuF8yC.s:2263   .text.TIM_DMAError:0000000000000000 TIM_DMAError
     /tmp/ccGuF8yC.s:369    .text.HAL_TIM_Base_Stop_DMA:0000000000000000 $t
     /tmp/ccGuF8yC.s:374    .text.HAL_TIM_Base_Stop_DMA:0000000000000000 HAL_TIM_Base_Stop_DMA
     /tmp/ccGuF8yC.s:404    .text.HAL_TIM_OC_MspInit:0000000000000000 $t
     /tmp/ccGuF8yC.s:409    .text.HAL_TIM_OC_MspInit:0000000000000000 HAL_TIM_OC_MspInit
     /tmp/ccGuF8yC.s:416    .text.HAL_TIM_OC_MspDeInit:0000000000000000 $t
     /tmp/ccGuF8yC.s:421    .text.HAL_TIM_OC_MspDeInit:0000000000000000 HAL_TIM_OC_MspDeInit
     /tmp/ccGuF8yC.s:428    .text.HAL_TIM_OC_DeInit:0000000000000000 $t
     /tmp/ccGuF8yC.s:433    .text.HAL_TIM_OC_DeInit:0000000000000000 HAL_TIM_OC_DeInit
     /tmp/ccGuF8yC.s:461    .text.HAL_TIM_PWM_MspInit:0000000000000000 $t
     /tmp/ccGuF8yC.s:466    .text.HAL_TIM_PWM_MspInit:0000000000000000 HAL_TIM_PWM_MspInit
     /tmp/ccGuF8yC.s:473    .text.HAL_TIM_PWM_MspDeInit:0000000000000000 $t
     /tmp/ccGuF8yC.s:478    .text.HAL_TIM_PWM_MspDeInit:0000000000000000 HAL_TIM_PWM_MspDeInit
     /tmp/ccGuF8yC.s:485    .text.HAL_TIM_PWM_DeInit:0000000000000000 $t
     /tmp/ccGuF8yC.s:490    .text.HAL_TIM_PWM_DeInit:0000000000000000 HAL_TIM_PWM_DeInit
     /tmp/ccGuF8yC.s:518    .text.HAL_TIM_IC_MspInit:0000000000000000 $t
     /tmp/ccGuF8yC.s:523    .text.HAL_TIM_IC_MspInit:0000000000000000 HAL_TIM_IC_MspInit
     /tmp/ccGuF8yC.s:530    .text.HAL_TIM_IC_MspDeInit:0000000000000000 $t
     /tmp/ccGuF8yC.s:535    .text.HAL_TIM_IC_MspDeInit:0000000000000000 HAL_TIM_IC_MspDeInit
     /tmp/ccGuF8yC.s:542    .text.HAL_TIM_IC_DeInit:0000000000000000 $t
     /tmp/ccGuF8yC.s:547    .text.HAL_TIM_IC_DeInit:0000000000000000 HAL_TIM_IC_DeInit
     /tmp/ccGuF8yC.s:575    .text.HAL_TIM_OnePulse_MspInit:0000000000000000 $t
     /tmp/ccGuF8yC.s:580    .text.HAL_TIM_OnePulse_MspInit:0000000000000000 HAL_TIM_OnePulse_MspInit
     /tmp/ccGuF8yC.s:587    .text.HAL_TIM_OnePulse_MspDeInit:0000000000000000 $t
     /tmp/ccGuF8yC.s:592    .text.HAL_TIM_OnePulse_MspDeInit:0000000000000000 HAL_TIM_OnePulse_MspDeInit
     /tmp/ccGuF8yC.s:599    .text.HAL_TIM_OnePulse_DeInit:0000000000000000 $t
     /tmp/ccGuF8yC.s:604    .text.HAL_TIM_OnePulse_DeInit:0000000000000000 HAL_TIM_OnePulse_DeInit
ARM GAS  /tmp/ccGuF8yC.s 			page 86


     /tmp/ccGuF8yC.s:632    .text.HAL_TIM_OnePulse_Start:0000000000000000 $t
     /tmp/ccGuF8yC.s:637    .text.HAL_TIM_OnePulse_Start:0000000000000000 HAL_TIM_OnePulse_Start
     /tmp/ccGuF8yC.s:665    .text.HAL_TIM_OnePulse_Start:0000000000000034 $d
     /tmp/ccGuF8yC.s:668    .text.HAL_TIM_OnePulse_Stop:0000000000000000 $t
     /tmp/ccGuF8yC.s:673    .text.HAL_TIM_OnePulse_Stop:0000000000000000 HAL_TIM_OnePulse_Stop
     /tmp/ccGuF8yC.s:720    .text.HAL_TIM_OnePulse_Stop:000000000000005c $d
     /tmp/ccGuF8yC.s:723    .text.HAL_TIM_OnePulse_Start_IT:0000000000000000 $t
     /tmp/ccGuF8yC.s:728    .text.HAL_TIM_OnePulse_Start_IT:0000000000000000 HAL_TIM_OnePulse_Start_IT
     /tmp/ccGuF8yC.s:762    .text.HAL_TIM_OnePulse_Start_IT:0000000000000044 $d
     /tmp/ccGuF8yC.s:765    .text.HAL_TIM_OnePulse_Stop_IT:0000000000000000 $t
     /tmp/ccGuF8yC.s:770    .text.HAL_TIM_OnePulse_Stop_IT:0000000000000000 HAL_TIM_OnePulse_Stop_IT
     /tmp/ccGuF8yC.s:823    .text.HAL_TIM_OnePulse_Stop_IT:000000000000006c $d
     /tmp/ccGuF8yC.s:826    .text.HAL_TIM_Encoder_MspInit:0000000000000000 $t
     /tmp/ccGuF8yC.s:831    .text.HAL_TIM_Encoder_MspInit:0000000000000000 HAL_TIM_Encoder_MspInit
     /tmp/ccGuF8yC.s:838    .text.HAL_TIM_Encoder_MspDeInit:0000000000000000 $t
     /tmp/ccGuF8yC.s:843    .text.HAL_TIM_Encoder_MspDeInit:0000000000000000 HAL_TIM_Encoder_MspDeInit
     /tmp/ccGuF8yC.s:850    .text.HAL_TIM_Encoder_DeInit:0000000000000000 $t
     /tmp/ccGuF8yC.s:855    .text.HAL_TIM_Encoder_DeInit:0000000000000000 HAL_TIM_Encoder_DeInit
     /tmp/ccGuF8yC.s:883    .text.HAL_TIM_Encoder_Start:0000000000000000 $t
     /tmp/ccGuF8yC.s:888    .text.HAL_TIM_Encoder_Start:0000000000000000 HAL_TIM_Encoder_Start
     /tmp/ccGuF8yC.s:925    .text.HAL_TIM_Encoder_Stop:0000000000000000 $t
     /tmp/ccGuF8yC.s:930    .text.HAL_TIM_Encoder_Stop:0000000000000000 HAL_TIM_Encoder_Stop
     /tmp/ccGuF8yC.s:971    .text.HAL_TIM_Encoder_Start_IT:0000000000000000 $t
     /tmp/ccGuF8yC.s:976    .text.HAL_TIM_Encoder_Start_IT:0000000000000000 HAL_TIM_Encoder_Start_IT
     /tmp/ccGuF8yC.s:1029   .text.HAL_TIM_Encoder_Stop_IT:0000000000000000 $t
     /tmp/ccGuF8yC.s:1034   .text.HAL_TIM_Encoder_Stop_IT:0000000000000000 HAL_TIM_Encoder_Stop_IT
     /tmp/ccGuF8yC.s:1092   .text.HAL_TIM_Encoder_Start_DMA:0000000000000000 $t
     /tmp/ccGuF8yC.s:1097   .text.HAL_TIM_Encoder_Start_DMA:0000000000000000 HAL_TIM_Encoder_Start_DMA
     /tmp/ccGuF8yC.s:1239   .text.HAL_TIM_Encoder_Start_DMA:0000000000000144 $d
     /tmp/ccGuF8yC.s:1836   .text.TIM_DMACaptureCplt:0000000000000000 TIM_DMACaptureCplt
     /tmp/ccGuF8yC.s:1889   .text.TIM_DMACaptureHalfCplt:0000000000000000 TIM_DMACaptureHalfCplt
     /tmp/ccGuF8yC.s:1244   .text.HAL_TIM_Encoder_Stop_DMA:0000000000000000 $t
     /tmp/ccGuF8yC.s:1249   .text.HAL_TIM_Encoder_Stop_DMA:0000000000000000 HAL_TIM_Encoder_Stop_DMA
     /tmp/ccGuF8yC.s:1318   .text.HAL_TIM_DMABurst_WriteStart:0000000000000000 $t
     /tmp/ccGuF8yC.s:1323   .text.HAL_TIM_DMABurst_WriteStart:0000000000000000 HAL_TIM_DMABurst_WriteStart
     /tmp/ccGuF8yC.s:1421   .text.HAL_TIM_DMABurst_WriteStart:00000000000000b8 $d
     /tmp/ccGuF8yC.s:1942   .text.TIM_DMADelayPulseCplt:0000000000000000 TIM_DMADelayPulseCplt
     /tmp/ccGuF8yC.s:1995   .text.TIM_DMADelayPulseHalfCplt:0000000000000000 TIM_DMADelayPulseHalfCplt
     /tmp/ccGuF8yC.s:2208   .text.TIM_DMATriggerCplt:0000000000000000 TIM_DMATriggerCplt
     /tmp/ccGuF8yC.s:2235   .text.TIM_DMATriggerHalfCplt:0000000000000000 TIM_DMATriggerHalfCplt
     /tmp/ccGuF8yC.s:1432   .text.HAL_TIM_DMABurst_WriteStop:0000000000000000 $t
     /tmp/ccGuF8yC.s:1437   .text.HAL_TIM_DMABurst_WriteStop:0000000000000000 HAL_TIM_DMABurst_WriteStop
     /tmp/ccGuF8yC.s:1490   .text.HAL_TIM_DMABurst_ReadStart:0000000000000000 $t
     /tmp/ccGuF8yC.s:1495   .text.HAL_TIM_DMABurst_ReadStart:0000000000000000 HAL_TIM_DMABurst_ReadStart
     /tmp/ccGuF8yC.s:1593   .text.HAL_TIM_DMABurst_ReadStart:00000000000000b8 $d
     /tmp/ccGuF8yC.s:1604   .text.HAL_TIM_DMABurst_ReadStop:0000000000000000 $t
     /tmp/ccGuF8yC.s:1609   .text.HAL_TIM_DMABurst_ReadStop:0000000000000000 HAL_TIM_DMABurst_ReadStop
     /tmp/ccGuF8yC.s:1662   .text.HAL_TIM_GenerateEvent:0000000000000000 $t
     /tmp/ccGuF8yC.s:1667   .text.HAL_TIM_GenerateEvent:0000000000000000 HAL_TIM_GenerateEvent
     /tmp/ccGuF8yC.s:1687   .text.HAL_TIM_ConfigTI1Input:0000000000000000 $t
     /tmp/ccGuF8yC.s:1692   .text.HAL_TIM_ConfigTI1Input:0000000000000000 HAL_TIM_ConfigTI1Input
     /tmp/ccGuF8yC.s:1705   .text.HAL_TIM_ReadCapturedValue:0000000000000000 $t
     /tmp/ccGuF8yC.s:1710   .text.HAL_TIM_ReadCapturedValue:0000000000000000 HAL_TIM_ReadCapturedValue
     /tmp/ccGuF8yC.s:1718   .text.HAL_TIM_ReadCapturedValue:0000000000000008 $d
     /tmp/ccGuF8yC.s:1753   .text.HAL_TIM_PeriodElapsedCallback:0000000000000000 $t
     /tmp/ccGuF8yC.s:1758   .text.HAL_TIM_PeriodElapsedCallback:0000000000000000 HAL_TIM_PeriodElapsedCallback
     /tmp/ccGuF8yC.s:1765   .text.TIM_DMAPeriodElapsedCplt:0000000000000000 $t
ARM GAS  /tmp/ccGuF8yC.s 			page 87


     /tmp/ccGuF8yC.s:1780   .text.HAL_TIM_PeriodElapsedHalfCpltCallback:0000000000000000 $t
     /tmp/ccGuF8yC.s:1785   .text.HAL_TIM_PeriodElapsedHalfCpltCallback:0000000000000000 HAL_TIM_PeriodElapsedHalfCpltCallback
     /tmp/ccGuF8yC.s:1792   .text.TIM_DMAPeriodElapsedHalfCplt:0000000000000000 $t
     /tmp/ccGuF8yC.s:1807   .text.HAL_TIM_OC_DelayElapsedCallback:0000000000000000 $t
     /tmp/ccGuF8yC.s:1812   .text.HAL_TIM_OC_DelayElapsedCallback:0000000000000000 HAL_TIM_OC_DelayElapsedCallback
     /tmp/ccGuF8yC.s:1819   .text.HAL_TIM_IC_CaptureCallback:0000000000000000 $t
     /tmp/ccGuF8yC.s:1824   .text.HAL_TIM_IC_CaptureCallback:0000000000000000 HAL_TIM_IC_CaptureCallback
     /tmp/ccGuF8yC.s:1831   .text.TIM_DMACaptureCplt:0000000000000000 $t
     /tmp/ccGuF8yC.s:1872   .text.HAL_TIM_IC_CaptureHalfCpltCallback:0000000000000000 $t
     /tmp/ccGuF8yC.s:1877   .text.HAL_TIM_IC_CaptureHalfCpltCallback:0000000000000000 HAL_TIM_IC_CaptureHalfCpltCallback
     /tmp/ccGuF8yC.s:1884   .text.TIM_DMACaptureHalfCplt:0000000000000000 $t
     /tmp/ccGuF8yC.s:1925   .text.HAL_TIM_PWM_PulseFinishedCallback:0000000000000000 $t
     /tmp/ccGuF8yC.s:1930   .text.HAL_TIM_PWM_PulseFinishedCallback:0000000000000000 HAL_TIM_PWM_PulseFinishedCallback
     /tmp/ccGuF8yC.s:1937   .text.TIM_DMADelayPulseCplt:0000000000000000 $t
     /tmp/ccGuF8yC.s:1978   .text.HAL_TIM_PWM_PulseFinishedHalfCpltCallback:0000000000000000 $t
     /tmp/ccGuF8yC.s:1983   .text.HAL_TIM_PWM_PulseFinishedHalfCpltCallback:0000000000000000 HAL_TIM_PWM_PulseFinishedHalfCpltCallback
     /tmp/ccGuF8yC.s:1990   .text.TIM_DMADelayPulseHalfCplt:0000000000000000 $t
     /tmp/ccGuF8yC.s:2031   .text.HAL_TIM_TriggerCallback:0000000000000000 $t
     /tmp/ccGuF8yC.s:2036   .text.HAL_TIM_TriggerCallback:0000000000000000 HAL_TIM_TriggerCallback
     /tmp/ccGuF8yC.s:2043   .text.HAL_TIM_IRQHandler:0000000000000000 $t
     /tmp/ccGuF8yC.s:2048   .text.HAL_TIM_IRQHandler:0000000000000000 HAL_TIM_IRQHandler
     /tmp/ccGuF8yC.s:2204   .text.TIM_DMATriggerCplt:0000000000000000 $t
     /tmp/ccGuF8yC.s:2219   .text.HAL_TIM_TriggerHalfCpltCallback:0000000000000000 $t
     /tmp/ccGuF8yC.s:2224   .text.HAL_TIM_TriggerHalfCpltCallback:0000000000000000 HAL_TIM_TriggerHalfCpltCallback
     /tmp/ccGuF8yC.s:2231   .text.TIM_DMATriggerHalfCplt:0000000000000000 $t
     /tmp/ccGuF8yC.s:2246   .text.HAL_TIM_ErrorCallback:0000000000000000 $t
     /tmp/ccGuF8yC.s:2251   .text.HAL_TIM_ErrorCallback:0000000000000000 HAL_TIM_ErrorCallback
     /tmp/ccGuF8yC.s:2258   .text.TIM_DMAError:0000000000000000 $t
     /tmp/ccGuF8yC.s:2274   .text.HAL_TIM_Base_GetState:0000000000000000 $t
     /tmp/ccGuF8yC.s:2279   .text.HAL_TIM_Base_GetState:0000000000000000 HAL_TIM_Base_GetState
     /tmp/ccGuF8yC.s:2287   .text.HAL_TIM_OC_GetState:0000000000000000 $t
     /tmp/ccGuF8yC.s:2292   .text.HAL_TIM_OC_GetState:0000000000000000 HAL_TIM_OC_GetState
     /tmp/ccGuF8yC.s:2300   .text.HAL_TIM_PWM_GetState:0000000000000000 $t
     /tmp/ccGuF8yC.s:2305   .text.HAL_TIM_PWM_GetState:0000000000000000 HAL_TIM_PWM_GetState
     /tmp/ccGuF8yC.s:2313   .text.HAL_TIM_IC_GetState:0000000000000000 $t
     /tmp/ccGuF8yC.s:2318   .text.HAL_TIM_IC_GetState:0000000000000000 HAL_TIM_IC_GetState
     /tmp/ccGuF8yC.s:2326   .text.HAL_TIM_OnePulse_GetState:0000000000000000 $t
     /tmp/ccGuF8yC.s:2331   .text.HAL_TIM_OnePulse_GetState:0000000000000000 HAL_TIM_OnePulse_GetState
     /tmp/ccGuF8yC.s:2339   .text.HAL_TIM_Encoder_GetState:0000000000000000 $t
     /tmp/ccGuF8yC.s:2344   .text.HAL_TIM_Encoder_GetState:0000000000000000 HAL_TIM_Encoder_GetState
     /tmp/ccGuF8yC.s:2352   .text.TIM_Base_SetConfig:0000000000000000 $t
     /tmp/ccGuF8yC.s:2357   .text.TIM_Base_SetConfig:0000000000000000 TIM_Base_SetConfig
     /tmp/ccGuF8yC.s:2405   .text.TIM_Base_SetConfig:000000000000005c $d
     /tmp/ccGuF8yC.s:2409   .text.HAL_TIM_Base_Init:0000000000000000 $t
     /tmp/ccGuF8yC.s:2414   .text.HAL_TIM_Base_Init:0000000000000000 HAL_TIM_Base_Init
     /tmp/ccGuF8yC.s:2440   .text.HAL_TIM_OC_Init:0000000000000000 $t
     /tmp/ccGuF8yC.s:2445   .text.HAL_TIM_OC_Init:0000000000000000 HAL_TIM_OC_Init
     /tmp/ccGuF8yC.s:2471   .text.HAL_TIM_PWM_Init:0000000000000000 $t
     /tmp/ccGuF8yC.s:2476   .text.HAL_TIM_PWM_Init:0000000000000000 HAL_TIM_PWM_Init
     /tmp/ccGuF8yC.s:2502   .text.HAL_TIM_IC_Init:0000000000000000 $t
     /tmp/ccGuF8yC.s:2507   .text.HAL_TIM_IC_Init:0000000000000000 HAL_TIM_IC_Init
     /tmp/ccGuF8yC.s:2533   .text.HAL_TIM_OnePulse_Init:0000000000000000 $t
     /tmp/ccGuF8yC.s:2538   .text.HAL_TIM_OnePulse_Init:0000000000000000 HAL_TIM_OnePulse_Init
     /tmp/ccGuF8yC.s:2572   .text.HAL_TIM_Encoder_Init:0000000000000000 $t
     /tmp/ccGuF8yC.s:2577   .text.HAL_TIM_Encoder_Init:0000000000000000 HAL_TIM_Encoder_Init
     /tmp/ccGuF8yC.s:2640   .text.TIM_OC2_SetConfig:0000000000000000 $t
     /tmp/ccGuF8yC.s:2645   .text.TIM_OC2_SetConfig:0000000000000000 TIM_OC2_SetConfig
ARM GAS  /tmp/ccGuF8yC.s 			page 88


     /tmp/ccGuF8yC.s:2683   .text.TIM_OC2_SetConfig:0000000000000054 $d
     /tmp/ccGuF8yC.s:2686   .text.HAL_TIM_OC_ConfigChannel:0000000000000000 $t
     /tmp/ccGuF8yC.s:2691   .text.HAL_TIM_OC_ConfigChannel:0000000000000000 HAL_TIM_OC_ConfigChannel
     /tmp/ccGuF8yC.s:2708   .text.HAL_TIM_OC_ConfigChannel:0000000000000024 $d
     /tmp/ccGuF8yC.s:2745   .text.HAL_TIM_PWM_ConfigChannel:0000000000000000 $t
     /tmp/ccGuF8yC.s:2750   .text.HAL_TIM_PWM_ConfigChannel:0000000000000000 HAL_TIM_PWM_ConfigChannel
     /tmp/ccGuF8yC.s:2767   .text.HAL_TIM_PWM_ConfigChannel:0000000000000024 $d
     /tmp/ccGuF8yC.s:2849   .text.TIM_TI1_SetConfig:0000000000000000 $t
     /tmp/ccGuF8yC.s:2854   .text.TIM_TI1_SetConfig:0000000000000000 TIM_TI1_SetConfig
     /tmp/ccGuF8yC.s:2891   .text.TIM_TI1_SetConfig:0000000000000048 $d
     /tmp/ccGuF8yC.s:2894   .text.HAL_TIM_IC_ConfigChannel:0000000000000000 $t
     /tmp/ccGuF8yC.s:2899   .text.HAL_TIM_IC_ConfigChannel:0000000000000000 HAL_TIM_IC_ConfigChannel
     /tmp/ccGuF8yC.s:3016   .text.HAL_TIM_OnePulse_ConfigChannel:0000000000000000 $t
     /tmp/ccGuF8yC.s:3021   .text.HAL_TIM_OnePulse_ConfigChannel:0000000000000000 HAL_TIM_OnePulse_ConfigChannel
     /tmp/ccGuF8yC.s:3131   .text.TIM_ETR_SetConfig:0000000000000000 $t
     /tmp/ccGuF8yC.s:3136   .text.TIM_ETR_SetConfig:0000000000000000 TIM_ETR_SetConfig
     /tmp/ccGuF8yC.s:3149   .text.HAL_TIM_ConfigOCrefClear:0000000000000000 $t
     /tmp/ccGuF8yC.s:3154   .text.HAL_TIM_ConfigOCrefClear:0000000000000000 HAL_TIM_ConfigOCrefClear
     /tmp/ccGuF8yC.s:3196   .text.HAL_TIM_ConfigOCrefClear:0000000000000056 $d
     /tmp/ccGuF8yC.s:3266   .text.HAL_TIM_ConfigClockSource:0000000000000000 $t
     /tmp/ccGuF8yC.s:3271   .text.HAL_TIM_ConfigClockSource:0000000000000000 HAL_TIM_ConfigClockSource
     /tmp/ccGuF8yC.s:3405   .text.TIM_SlaveTimer_SetConfig:0000000000000000 $t
     /tmp/ccGuF8yC.s:3409   .text.TIM_SlaveTimer_SetConfig:0000000000000000 TIM_SlaveTimer_SetConfig
     /tmp/ccGuF8yC.s:3490   .text.HAL_TIM_SlaveConfigSynchro:0000000000000000 $t
     /tmp/ccGuF8yC.s:3495   .text.HAL_TIM_SlaveConfigSynchro:0000000000000000 HAL_TIM_SlaveConfigSynchro
     /tmp/ccGuF8yC.s:3530   .text.HAL_TIM_SlaveConfigSynchro_IT:0000000000000000 $t
     /tmp/ccGuF8yC.s:3535   .text.HAL_TIM_SlaveConfigSynchro_IT:0000000000000000 HAL_TIM_SlaveConfigSynchro_IT
     /tmp/ccGuF8yC.s:3570   .text.TIM_CCxChannelCmd:0000000000000000 $t
     /tmp/ccGuF8yC.s:3575   .text.TIM_CCxChannelCmd:0000000000000000 TIM_CCxChannelCmd
     /tmp/ccGuF8yC.s:3592   .text.HAL_TIM_OC_Start:0000000000000000 $t
     /tmp/ccGuF8yC.s:3597   .text.HAL_TIM_OC_Start:0000000000000000 HAL_TIM_OC_Start
     /tmp/ccGuF8yC.s:3624   .text.HAL_TIM_OC_Start:0000000000000034 $d
     /tmp/ccGuF8yC.s:3627   .text.HAL_TIM_OC_Stop:0000000000000000 $t
     /tmp/ccGuF8yC.s:3632   .text.HAL_TIM_OC_Stop:0000000000000000 HAL_TIM_OC_Stop
     /tmp/ccGuF8yC.s:3673   .text.HAL_TIM_OC_Stop:0000000000000050 $d
     /tmp/ccGuF8yC.s:3676   .text.HAL_TIM_OC_Start_IT:0000000000000000 $t
     /tmp/ccGuF8yC.s:3681   .text.HAL_TIM_OC_Start_IT:0000000000000000 HAL_TIM_OC_Start_IT
     /tmp/ccGuF8yC.s:3690   .text.HAL_TIM_OC_Start_IT:000000000000000c $d
     /tmp/ccGuF8yC.s:3748   .text.HAL_TIM_OC_Start_IT:0000000000000070 $d
     /tmp/ccGuF8yC.s:3751   .text.HAL_TIM_OC_Stop_IT:0000000000000000 $t
     /tmp/ccGuF8yC.s:3756   .text.HAL_TIM_OC_Stop_IT:0000000000000000 HAL_TIM_OC_Stop_IT
     /tmp/ccGuF8yC.s:3765   .text.HAL_TIM_OC_Stop_IT:000000000000000c $d
     /tmp/ccGuF8yC.s:3837   .text.HAL_TIM_OC_Stop_IT:0000000000000090 $d
     /tmp/ccGuF8yC.s:3840   .text.HAL_TIM_OC_Start_DMA:0000000000000000 $t
     /tmp/ccGuF8yC.s:3845   .text.HAL_TIM_OC_Start_DMA:0000000000000000 HAL_TIM_OC_Start_DMA
     /tmp/ccGuF8yC.s:3872   .text.HAL_TIM_OC_Start_DMA:0000000000000030 $d
     /tmp/ccGuF8yC.s:3980   .text.HAL_TIM_OC_Start_DMA:0000000000000100 $d
     /tmp/ccGuF8yC.s:3986   .text.HAL_TIM_OC_Stop_DMA:0000000000000000 $t
     /tmp/ccGuF8yC.s:3991   .text.HAL_TIM_OC_Stop_DMA:0000000000000000 HAL_TIM_OC_Stop_DMA
     /tmp/ccGuF8yC.s:4001   .text.HAL_TIM_OC_Stop_DMA:000000000000000e $d
     /tmp/ccGuF8yC.s:4084   .text.HAL_TIM_OC_Stop_DMA:00000000000000ac $d
     /tmp/ccGuF8yC.s:4087   .text.HAL_TIM_PWM_Start:0000000000000000 $t
     /tmp/ccGuF8yC.s:4092   .text.HAL_TIM_PWM_Start:0000000000000000 HAL_TIM_PWM_Start
     /tmp/ccGuF8yC.s:4119   .text.HAL_TIM_PWM_Start:0000000000000034 $d
     /tmp/ccGuF8yC.s:4122   .text.HAL_TIM_PWM_Stop:0000000000000000 $t
     /tmp/ccGuF8yC.s:4127   .text.HAL_TIM_PWM_Stop:0000000000000000 HAL_TIM_PWM_Stop
     /tmp/ccGuF8yC.s:4170   .text.HAL_TIM_PWM_Stop:0000000000000058 $d
ARM GAS  /tmp/ccGuF8yC.s 			page 89


     /tmp/ccGuF8yC.s:4173   .text.HAL_TIM_PWM_Start_IT:0000000000000000 $t
     /tmp/ccGuF8yC.s:4178   .text.HAL_TIM_PWM_Start_IT:0000000000000000 HAL_TIM_PWM_Start_IT
     /tmp/ccGuF8yC.s:4187   .text.HAL_TIM_PWM_Start_IT:000000000000000c $d
     /tmp/ccGuF8yC.s:4245   .text.HAL_TIM_PWM_Start_IT:0000000000000070 $d
     /tmp/ccGuF8yC.s:4248   .text.HAL_TIM_PWM_Stop_IT:0000000000000000 $t
     /tmp/ccGuF8yC.s:4253   .text.HAL_TIM_PWM_Stop_IT:0000000000000000 HAL_TIM_PWM_Stop_IT
     /tmp/ccGuF8yC.s:4262   .text.HAL_TIM_PWM_Stop_IT:000000000000000c $d
     /tmp/ccGuF8yC.s:4334   .text.HAL_TIM_PWM_Stop_IT:0000000000000090 $d
     /tmp/ccGuF8yC.s:4337   .text.HAL_TIM_PWM_Start_DMA:0000000000000000 $t
     /tmp/ccGuF8yC.s:4342   .text.HAL_TIM_PWM_Start_DMA:0000000000000000 HAL_TIM_PWM_Start_DMA
     /tmp/ccGuF8yC.s:4369   .text.HAL_TIM_PWM_Start_DMA:0000000000000030 $d
     /tmp/ccGuF8yC.s:4477   .text.HAL_TIM_PWM_Start_DMA:0000000000000100 $d
     /tmp/ccGuF8yC.s:4483   .text.HAL_TIM_PWM_Stop_DMA:0000000000000000 $t
     /tmp/ccGuF8yC.s:4488   .text.HAL_TIM_PWM_Stop_DMA:0000000000000000 HAL_TIM_PWM_Stop_DMA
     /tmp/ccGuF8yC.s:4498   .text.HAL_TIM_PWM_Stop_DMA:000000000000000e $d
     /tmp/ccGuF8yC.s:4581   .text.HAL_TIM_PWM_Stop_DMA:00000000000000ac $d
     /tmp/ccGuF8yC.s:4584   .text.HAL_TIM_IC_Start:0000000000000000 $t
     /tmp/ccGuF8yC.s:4589   .text.HAL_TIM_IC_Start:0000000000000000 HAL_TIM_IC_Start
     /tmp/ccGuF8yC.s:4609   .text.HAL_TIM_IC_Stop:0000000000000000 $t
     /tmp/ccGuF8yC.s:4614   .text.HAL_TIM_IC_Stop:0000000000000000 HAL_TIM_IC_Stop
     /tmp/ccGuF8yC.s:4639   .text.HAL_TIM_IC_Start_IT:0000000000000000 $t
     /tmp/ccGuF8yC.s:4644   .text.HAL_TIM_IC_Start_IT:0000000000000000 HAL_TIM_IC_Start_IT
     /tmp/ccGuF8yC.s:4653   .text.HAL_TIM_IC_Start_IT:000000000000000c $d
     /tmp/ccGuF8yC.s:4704   .text.HAL_TIM_IC_Stop_IT:0000000000000000 $t
     /tmp/ccGuF8yC.s:4709   .text.HAL_TIM_IC_Stop_IT:0000000000000000 HAL_TIM_IC_Stop_IT
     /tmp/ccGuF8yC.s:4718   .text.HAL_TIM_IC_Stop_IT:000000000000000c $d
     /tmp/ccGuF8yC.s:4774   .text.HAL_TIM_IC_Start_DMA:0000000000000000 $t
     /tmp/ccGuF8yC.s:4779   .text.HAL_TIM_IC_Start_DMA:0000000000000000 HAL_TIM_IC_Start_DMA
     /tmp/ccGuF8yC.s:4805   .text.HAL_TIM_IC_Start_DMA:000000000000002e $d
     /tmp/ccGuF8yC.s:4907   .text.HAL_TIM_IC_Start_DMA:00000000000000f0 $d
     /tmp/ccGuF8yC.s:4912   .text.HAL_TIM_IC_Stop_DMA:0000000000000000 $t
     /tmp/ccGuF8yC.s:4917   .text.HAL_TIM_IC_Stop_DMA:0000000000000000 HAL_TIM_IC_Stop_DMA
     /tmp/ccGuF8yC.s:4927   .text.HAL_TIM_IC_Stop_DMA:000000000000000e $d
     /tmp/ccGuF8yC.s:1731   .text.HAL_TIM_ReadCapturedValue:0000000000000015 $d
     /tmp/ccGuF8yC.s:1731   .text.HAL_TIM_ReadCapturedValue:0000000000000016 $t
     /tmp/ccGuF8yC.s:2721   .text.HAL_TIM_OC_ConfigChannel:0000000000000031 $d
     /tmp/ccGuF8yC.s:2721   .text.HAL_TIM_OC_ConfigChannel:0000000000000032 $t
     /tmp/ccGuF8yC.s:2780   .text.HAL_TIM_PWM_ConfigChannel:0000000000000031 $d
     /tmp/ccGuF8yC.s:2780   .text.HAL_TIM_PWM_ConfigChannel:0000000000000032 $t
     /tmp/ccGuF8yC.s:3209   .text.HAL_TIM_ConfigOCrefClear:0000000000000063 $d
     /tmp/ccGuF8yC.s:3209   .text.HAL_TIM_ConfigOCrefClear:0000000000000064 $t
     /tmp/ccGuF8yC.s:3703   .text.HAL_TIM_OC_Start_IT:0000000000000019 $d
     /tmp/ccGuF8yC.s:3703   .text.HAL_TIM_OC_Start_IT:000000000000001a $t
     /tmp/ccGuF8yC.s:3778   .text.HAL_TIM_OC_Stop_IT:0000000000000019 $d
     /tmp/ccGuF8yC.s:3778   .text.HAL_TIM_OC_Stop_IT:000000000000001a $t
     /tmp/ccGuF8yC.s:3885   .text.HAL_TIM_OC_Start_DMA:000000000000003d $d
     /tmp/ccGuF8yC.s:3885   .text.HAL_TIM_OC_Start_DMA:000000000000003e $t
     /tmp/ccGuF8yC.s:4014   .text.HAL_TIM_OC_Stop_DMA:000000000000001b $d
     /tmp/ccGuF8yC.s:4014   .text.HAL_TIM_OC_Stop_DMA:000000000000001c $t
     /tmp/ccGuF8yC.s:4200   .text.HAL_TIM_PWM_Start_IT:0000000000000019 $d
     /tmp/ccGuF8yC.s:4200   .text.HAL_TIM_PWM_Start_IT:000000000000001a $t
     /tmp/ccGuF8yC.s:4275   .text.HAL_TIM_PWM_Stop_IT:0000000000000019 $d
     /tmp/ccGuF8yC.s:4275   .text.HAL_TIM_PWM_Stop_IT:000000000000001a $t
     /tmp/ccGuF8yC.s:4382   .text.HAL_TIM_PWM_Start_DMA:000000000000003d $d
     /tmp/ccGuF8yC.s:4382   .text.HAL_TIM_PWM_Start_DMA:000000000000003e $t
     /tmp/ccGuF8yC.s:4511   .text.HAL_TIM_PWM_Stop_DMA:000000000000001b $d
     /tmp/ccGuF8yC.s:4511   .text.HAL_TIM_PWM_Stop_DMA:000000000000001c $t
ARM GAS  /tmp/ccGuF8yC.s 			page 90


     /tmp/ccGuF8yC.s:4666   .text.HAL_TIM_IC_Start_IT:0000000000000019 $d
     /tmp/ccGuF8yC.s:4666   .text.HAL_TIM_IC_Start_IT:000000000000001a $t
     /tmp/ccGuF8yC.s:4731   .text.HAL_TIM_IC_Stop_IT:0000000000000019 $d
     /tmp/ccGuF8yC.s:4731   .text.HAL_TIM_IC_Stop_IT:000000000000001a $t
     /tmp/ccGuF8yC.s:4818   .text.HAL_TIM_IC_Start_DMA:000000000000003b $d
     /tmp/ccGuF8yC.s:4818   .text.HAL_TIM_IC_Start_DMA:000000000000003c $t
     /tmp/ccGuF8yC.s:4940   .text.HAL_TIM_IC_Stop_DMA:000000000000001b $d
     /tmp/ccGuF8yC.s:4940   .text.HAL_TIM_IC_Stop_DMA:000000000000001c $t

UNDEFINED SYMBOLS
HAL_DMA_Start_IT
HAL_DMA_Abort_IT
TIMEx_DMACommutationCplt
TIMEx_DMACommutationHalfCplt
HAL_TIMEx_BreakCallback
HAL_TIMEx_CommutCallback
