ARM GAS  /tmp/ccEnBWAK.s 			page 1


   1              		.syntax unified
   2              		.cpu cortex-m3
   3              		.fpu softvfp
   4              		.eabi_attribute 20, 1
   5              		.eabi_attribute 21, 1
   6              		.eabi_attribute 23, 3
   7              		.eabi_attribute 24, 1
   8              		.eabi_attribute 25, 1
   9              		.eabi_attribute 26, 1
  10              		.eabi_attribute 30, 1
  11              		.eabi_attribute 34, 1
  12              		.eabi_attribute 18, 4
  13              		.thumb
  14              		.file	"stm32f1xx_hal_tim.c"
  15              		.section	.text.TIM_OC1_SetConfig,"ax",%progbits
  16              		.align	2
  17              		.thumb
  18              		.thumb_func
  20              	TIM_OC1_SetConfig:
  21              		@ args = 0, pretend = 0, frame = 0
  22              		@ frame_needed = 0, uses_anonymous_args = 0
  23              		@ link register save eliminated.
  24 0000 30B4     		push	{r4, r5}
  25 0002 036A     		ldr	r3, [r0, #32]
  26 0004 23F00103 		bic	r3, r3, #1
  27 0008 0362     		str	r3, [r0, #32]
  28 000a 036A     		ldr	r3, [r0, #32]
  29 000c 4468     		ldr	r4, [r0, #4]
  30 000e 8269     		ldr	r2, [r0, #24]
  31 0010 22F07302 		bic	r2, r2, #115
  32 0014 0D68     		ldr	r5, [r1]
  33 0016 2A43     		orrs	r2, r2, r5
  34 0018 23F00203 		bic	r3, r3, #2
  35 001c 8D68     		ldr	r5, [r1, #8]
  36 001e 2B43     		orrs	r3, r3, r5
  37 0020 0C4D     		ldr	r5, .L5
  38 0022 A842     		cmp	r0, r5
  39 0024 05D1     		bne	.L2
  40 0026 23F00803 		bic	r3, r3, #8
  41 002a CD68     		ldr	r5, [r1, #12]
  42 002c 2B43     		orrs	r3, r3, r5
  43 002e 23F00403 		bic	r3, r3, #4
  44              	.L2:
  45 0032 084D     		ldr	r5, .L5
  46 0034 A842     		cmp	r0, r5
  47 0036 05D1     		bne	.L3
  48 0038 24F44074 		bic	r4, r4, #768
  49 003c 4D69     		ldr	r5, [r1, #20]
  50 003e 2C43     		orrs	r4, r4, r5
  51 0040 8D69     		ldr	r5, [r1, #24]
  52 0042 2C43     		orrs	r4, r4, r5
  53              	.L3:
  54 0044 4460     		str	r4, [r0, #4]
  55 0046 8261     		str	r2, [r0, #24]
  56 0048 4A68     		ldr	r2, [r1, #4]
  57 004a 4263     		str	r2, [r0, #52]
  58 004c 0362     		str	r3, [r0, #32]
ARM GAS  /tmp/ccEnBWAK.s 			page 2


  59 004e 30BC     		pop	{r4, r5}
  60 0050 7047     		bx	lr
  61              	.L6:
  62 0052 00BF     		.align	2
  63              	.L5:
  64 0054 002C0140 		.word	1073818624
  66              		.section	.text.TIM_OC3_SetConfig,"ax",%progbits
  67              		.align	2
  68              		.thumb
  69              		.thumb_func
  71              	TIM_OC3_SetConfig:
  72              		@ args = 0, pretend = 0, frame = 0
  73              		@ frame_needed = 0, uses_anonymous_args = 0
  74              		@ link register save eliminated.
  75 0000 30B4     		push	{r4, r5}
  76 0002 036A     		ldr	r3, [r0, #32]
  77 0004 23F48073 		bic	r3, r3, #256
  78 0008 0362     		str	r3, [r0, #32]
  79 000a 036A     		ldr	r3, [r0, #32]
  80 000c 4468     		ldr	r4, [r0, #4]
  81 000e C269     		ldr	r2, [r0, #28]
  82 0010 22F07302 		bic	r2, r2, #115
  83 0014 0D68     		ldr	r5, [r1]
  84 0016 2A43     		orrs	r2, r2, r5
  85 0018 23F40073 		bic	r3, r3, #512
  86 001c 8D68     		ldr	r5, [r1, #8]
  87 001e 43EA0523 		orr	r3, r3, r5, lsl #8
  88 0022 0E4D     		ldr	r5, .L11
  89 0024 A842     		cmp	r0, r5
  90 0026 06D1     		bne	.L8
  91 0028 23F40063 		bic	r3, r3, #2048
  92 002c CD68     		ldr	r5, [r1, #12]
  93 002e 43EA0523 		orr	r3, r3, r5, lsl #8
  94 0032 23F48063 		bic	r3, r3, #1024
  95              	.L8:
  96 0036 094D     		ldr	r5, .L11
  97 0038 A842     		cmp	r0, r5
  98 003a 07D1     		bne	.L9
  99 003c 24F44054 		bic	r4, r4, #12288
 100 0040 4D69     		ldr	r5, [r1, #20]
 101 0042 44EA0514 		orr	r4, r4, r5, lsl #4
 102 0046 8D69     		ldr	r5, [r1, #24]
 103 0048 44EA0514 		orr	r4, r4, r5, lsl #4
 104              	.L9:
 105 004c 4460     		str	r4, [r0, #4]
 106 004e C261     		str	r2, [r0, #28]
 107 0050 4A68     		ldr	r2, [r1, #4]
 108 0052 C263     		str	r2, [r0, #60]
 109 0054 0362     		str	r3, [r0, #32]
 110 0056 30BC     		pop	{r4, r5}
 111 0058 7047     		bx	lr
 112              	.L12:
 113 005a 00BF     		.align	2
 114              	.L11:
 115 005c 002C0140 		.word	1073818624
 117              		.section	.text.TIM_OC4_SetConfig,"ax",%progbits
 118              		.align	2
ARM GAS  /tmp/ccEnBWAK.s 			page 3


 119              		.thumb
 120              		.thumb_func
 122              	TIM_OC4_SetConfig:
 123              		@ args = 0, pretend = 0, frame = 0
 124              		@ frame_needed = 0, uses_anonymous_args = 0
 125              		@ link register save eliminated.
 126 0000 30B4     		push	{r4, r5}
 127 0002 036A     		ldr	r3, [r0, #32]
 128 0004 23F48053 		bic	r3, r3, #4096
 129 0008 0362     		str	r3, [r0, #32]
 130 000a 036A     		ldr	r3, [r0, #32]
 131 000c 4468     		ldr	r4, [r0, #4]
 132 000e C269     		ldr	r2, [r0, #28]
 133 0010 22F4E642 		bic	r2, r2, #29440
 134 0014 0D68     		ldr	r5, [r1]
 135 0016 42EA0522 		orr	r2, r2, r5, lsl #8
 136 001a 23F40053 		bic	r3, r3, #8192
 137 001e 8D68     		ldr	r5, [r1, #8]
 138 0020 43EA0533 		orr	r3, r3, r5, lsl #12
 139 0024 074D     		ldr	r5, .L16
 140 0026 A842     		cmp	r0, r5
 141 0028 04D1     		bne	.L14
 142 002a 24F48044 		bic	r4, r4, #16384
 143 002e 4D69     		ldr	r5, [r1, #20]
 144 0030 44EA8514 		orr	r4, r4, r5, lsl #6
 145              	.L14:
 146 0034 4460     		str	r4, [r0, #4]
 147 0036 C261     		str	r2, [r0, #28]
 148 0038 4A68     		ldr	r2, [r1, #4]
 149 003a 0264     		str	r2, [r0, #64]
 150 003c 0362     		str	r3, [r0, #32]
 151 003e 30BC     		pop	{r4, r5}
 152 0040 7047     		bx	lr
 153              	.L17:
 154 0042 00BF     		.align	2
 155              	.L16:
 156 0044 002C0140 		.word	1073818624
 158              		.section	.text.TIM_TI1_ConfigInputStage,"ax",%progbits
 159              		.align	2
 160              		.thumb
 161              		.thumb_func
 163              	TIM_TI1_ConfigInputStage:
 164              		@ args = 0, pretend = 0, frame = 0
 165              		@ frame_needed = 0, uses_anonymous_args = 0
 166              		@ link register save eliminated.
 167 0000 10B4     		push	{r4}
 168 0002 036A     		ldr	r3, [r0, #32]
 169 0004 046A     		ldr	r4, [r0, #32]
 170 0006 24F00104 		bic	r4, r4, #1
 171 000a 0462     		str	r4, [r0, #32]
 172 000c 8469     		ldr	r4, [r0, #24]
 173 000e 24F0F004 		bic	r4, r4, #240
 174 0012 44EA0212 		orr	r2, r4, r2, lsl #4
 175 0016 23F00A03 		bic	r3, r3, #10
 176 001a 1943     		orrs	r1, r1, r3
 177 001c 8261     		str	r2, [r0, #24]
 178 001e 0162     		str	r1, [r0, #32]
ARM GAS  /tmp/ccEnBWAK.s 			page 4


 179 0020 5DF8044B 		ldr	r4, [sp], #4
 180 0024 7047     		bx	lr
 182 0026 00BF     		.section	.text.TIM_TI2_SetConfig,"ax",%progbits
 183              		.align	2
 184              		.thumb
 185              		.thumb_func
 187              	TIM_TI2_SetConfig:
 188              		@ args = 0, pretend = 0, frame = 0
 189              		@ frame_needed = 0, uses_anonymous_args = 0
 190              		@ link register save eliminated.
 191 0000 30B4     		push	{r4, r5}
 192 0002 046A     		ldr	r4, [r0, #32]
 193 0004 24F01004 		bic	r4, r4, #16
 194 0008 0462     		str	r4, [r0, #32]
 195 000a 8469     		ldr	r4, [r0, #24]
 196 000c 056A     		ldr	r5, [r0, #32]
 197 000e 24F44074 		bic	r4, r4, #768
 198 0012 44EA0222 		orr	r2, r4, r2, lsl #8
 199 0016 22F47042 		bic	r2, r2, #61440
 200 001a 1B03     		lsls	r3, r3, #12
 201 001c 9BB2     		uxth	r3, r3
 202 001e 1A43     		orrs	r2, r2, r3
 203 0020 25F0A005 		bic	r5, r5, #160
 204 0024 0901     		lsls	r1, r1, #4
 205 0026 01F0A001 		and	r1, r1, #160
 206 002a 0D43     		orrs	r5, r5, r1
 207 002c 8261     		str	r2, [r0, #24]
 208 002e 0562     		str	r5, [r0, #32]
 209 0030 30BC     		pop	{r4, r5}
 210 0032 7047     		bx	lr
 212              		.section	.text.TIM_TI2_ConfigInputStage,"ax",%progbits
 213              		.align	2
 214              		.thumb
 215              		.thumb_func
 217              	TIM_TI2_ConfigInputStage:
 218              		@ args = 0, pretend = 0, frame = 0
 219              		@ frame_needed = 0, uses_anonymous_args = 0
 220              		@ link register save eliminated.
 221 0000 10B4     		push	{r4}
 222 0002 036A     		ldr	r3, [r0, #32]
 223 0004 23F01003 		bic	r3, r3, #16
 224 0008 0362     		str	r3, [r0, #32]
 225 000a 8469     		ldr	r4, [r0, #24]
 226 000c 036A     		ldr	r3, [r0, #32]
 227 000e 24F47044 		bic	r4, r4, #61440
 228 0012 44EA0232 		orr	r2, r4, r2, lsl #12
 229 0016 23F0A003 		bic	r3, r3, #160
 230 001a 43EA0111 		orr	r1, r3, r1, lsl #4
 231 001e 8261     		str	r2, [r0, #24]
 232 0020 0162     		str	r1, [r0, #32]
 233 0022 5DF8044B 		ldr	r4, [sp], #4
 234 0026 7047     		bx	lr
 236              		.section	.text.TIM_TI3_SetConfig,"ax",%progbits
 237              		.align	2
 238              		.thumb
 239              		.thumb_func
 241              	TIM_TI3_SetConfig:
ARM GAS  /tmp/ccEnBWAK.s 			page 5


 242              		@ args = 0, pretend = 0, frame = 0
 243              		@ frame_needed = 0, uses_anonymous_args = 0
 244              		@ link register save eliminated.
 245 0000 30B4     		push	{r4, r5}
 246 0002 046A     		ldr	r4, [r0, #32]
 247 0004 24F48074 		bic	r4, r4, #256
 248 0008 0462     		str	r4, [r0, #32]
 249 000a C469     		ldr	r4, [r0, #28]
 250 000c 056A     		ldr	r5, [r0, #32]
 251 000e 24F00304 		bic	r4, r4, #3
 252 0012 2243     		orrs	r2, r2, r4
 253 0014 22F0F002 		bic	r2, r2, #240
 254 0018 1B01     		lsls	r3, r3, #4
 255 001a DBB2     		uxtb	r3, r3
 256 001c 1A43     		orrs	r2, r2, r3
 257 001e 25F40075 		bic	r5, r5, #512
 258 0022 0902     		lsls	r1, r1, #8
 259 0024 01F40071 		and	r1, r1, #512
 260 0028 0D43     		orrs	r5, r5, r1
 261 002a C261     		str	r2, [r0, #28]
 262 002c 0562     		str	r5, [r0, #32]
 263 002e 30BC     		pop	{r4, r5}
 264 0030 7047     		bx	lr
 266 0032 00BF     		.section	.text.TIM_TI4_SetConfig,"ax",%progbits
 267              		.align	2
 268              		.thumb
 269              		.thumb_func
 271              	TIM_TI4_SetConfig:
 272              		@ args = 0, pretend = 0, frame = 0
 273              		@ frame_needed = 0, uses_anonymous_args = 0
 274              		@ link register save eliminated.
 275 0000 30B4     		push	{r4, r5}
 276 0002 046A     		ldr	r4, [r0, #32]
 277 0004 24F48054 		bic	r4, r4, #4096
 278 0008 0462     		str	r4, [r0, #32]
 279 000a C469     		ldr	r4, [r0, #28]
 280 000c 056A     		ldr	r5, [r0, #32]
 281 000e 24F44074 		bic	r4, r4, #768
 282 0012 44EA0222 		orr	r2, r4, r2, lsl #8
 283 0016 22F47042 		bic	r2, r2, #61440
 284 001a 1B03     		lsls	r3, r3, #12
 285 001c 9BB2     		uxth	r3, r3
 286 001e 1A43     		orrs	r2, r2, r3
 287 0020 25F40055 		bic	r5, r5, #8192
 288 0024 0903     		lsls	r1, r1, #12
 289 0026 01F40051 		and	r1, r1, #8192
 290 002a 0D43     		orrs	r5, r5, r1
 291 002c C261     		str	r2, [r0, #28]
 292 002e 0562     		str	r5, [r0, #32]
 293 0030 30BC     		pop	{r4, r5}
 294 0032 7047     		bx	lr
 296              		.section	.text.TIM_ITRx_SetConfig,"ax",%progbits
 297              		.align	2
 298              		.thumb
 299              		.thumb_func
 301              	TIM_ITRx_SetConfig:
 302              		@ args = 0, pretend = 0, frame = 0
ARM GAS  /tmp/ccEnBWAK.s 			page 6


 303              		@ frame_needed = 0, uses_anonymous_args = 0
 304              		@ link register save eliminated.
 305 0000 8368     		ldr	r3, [r0, #8]
 306 0002 23F07003 		bic	r3, r3, #112
 307 0006 1943     		orrs	r1, r1, r3
 308 0008 41F00701 		orr	r1, r1, #7
 309 000c 8160     		str	r1, [r0, #8]
 310 000e 7047     		bx	lr
 312              		.section	.text.HAL_TIM_Base_MspInit,"ax",%progbits
 313              		.align	2
 314              		.weak	HAL_TIM_Base_MspInit
 315              		.thumb
 316              		.thumb_func
 318              	HAL_TIM_Base_MspInit:
 319              		@ args = 0, pretend = 0, frame = 0
 320              		@ frame_needed = 0, uses_anonymous_args = 0
 321              		@ link register save eliminated.
 322 0000 7047     		bx	lr
 324 0002 00BF     		.section	.text.HAL_TIM_Base_MspDeInit,"ax",%progbits
 325              		.align	2
 326              		.weak	HAL_TIM_Base_MspDeInit
 327              		.thumb
 328              		.thumb_func
 330              	HAL_TIM_Base_MspDeInit:
 331              		@ args = 0, pretend = 0, frame = 0
 332              		@ frame_needed = 0, uses_anonymous_args = 0
 333              		@ link register save eliminated.
 334 0000 7047     		bx	lr
 336 0002 00BF     		.section	.text.HAL_TIM_Base_DeInit,"ax",%progbits
 337              		.align	2
 338              		.global	HAL_TIM_Base_DeInit
 339              		.thumb
 340              		.thumb_func
 342              	HAL_TIM_Base_DeInit:
 343              		@ args = 0, pretend = 0, frame = 0
 344              		@ frame_needed = 0, uses_anonymous_args = 0
 345 0000 10B5     		push	{r4, lr}
 346 0002 0446     		mov	r4, r0
 347 0004 0223     		movs	r3, #2
 348 0006 80F83D30 		strb	r3, [r0, #61]
 349 000a 0368     		ldr	r3, [r0]
 350 000c 196A     		ldr	r1, [r3, #32]
 351 000e 41F21112 		movw	r2, #4369
 352 0012 1142     		tst	r1, r2
 353 0014 08D1     		bne	.L32
 354 0016 196A     		ldr	r1, [r3, #32]
 355 0018 40F24442 		movw	r2, #1092
 356 001c 1142     		tst	r1, r2
 357 001e 03D1     		bne	.L32
 358 0020 1A68     		ldr	r2, [r3]
 359 0022 22F00102 		bic	r2, r2, #1
 360 0026 1A60     		str	r2, [r3]
 361              	.L32:
 362 0028 2046     		mov	r0, r4
 363 002a FFF7FEFF 		bl	HAL_TIM_Base_MspDeInit
 364 002e 0020     		movs	r0, #0
 365 0030 84F83D00 		strb	r0, [r4, #61]
ARM GAS  /tmp/ccEnBWAK.s 			page 7


 366 0034 84F83C00 		strb	r0, [r4, #60]
 367 0038 10BD     		pop	{r4, pc}
 369 003a 00BF     		.section	.text.HAL_TIM_Base_Start,"ax",%progbits
 370              		.align	2
 371              		.global	HAL_TIM_Base_Start
 372              		.thumb
 373              		.thumb_func
 375              	HAL_TIM_Base_Start:
 376              		@ args = 0, pretend = 0, frame = 0
 377              		@ frame_needed = 0, uses_anonymous_args = 0
 378              		@ link register save eliminated.
 379 0000 0223     		movs	r3, #2
 380 0002 80F83D30 		strb	r3, [r0, #61]
 381 0006 0268     		ldr	r2, [r0]
 382 0008 9368     		ldr	r3, [r2, #8]
 383 000a 03F00703 		and	r3, r3, #7
 384 000e 062B     		cmp	r3, #6
 385 0010 03D0     		beq	.L35
 386 0012 1368     		ldr	r3, [r2]
 387 0014 43F00103 		orr	r3, r3, #1
 388 0018 1360     		str	r3, [r2]
 389              	.L35:
 390 001a 0123     		movs	r3, #1
 391 001c 80F83D30 		strb	r3, [r0, #61]
 392 0020 0020     		movs	r0, #0
 393 0022 7047     		bx	lr
 395              		.section	.text.HAL_TIM_Base_Stop,"ax",%progbits
 396              		.align	2
 397              		.global	HAL_TIM_Base_Stop
 398              		.thumb
 399              		.thumb_func
 401              	HAL_TIM_Base_Stop:
 402              		@ args = 0, pretend = 0, frame = 0
 403              		@ frame_needed = 0, uses_anonymous_args = 0
 404              		@ link register save eliminated.
 405 0000 0223     		movs	r3, #2
 406 0002 80F83D30 		strb	r3, [r0, #61]
 407 0006 0368     		ldr	r3, [r0]
 408 0008 196A     		ldr	r1, [r3, #32]
 409 000a 41F21112 		movw	r2, #4369
 410 000e 1142     		tst	r1, r2
 411 0010 08D1     		bne	.L37
 412 0012 196A     		ldr	r1, [r3, #32]
 413 0014 40F24442 		movw	r2, #1092
 414 0018 1142     		tst	r1, r2
 415 001a 03D1     		bne	.L37
 416 001c 1A68     		ldr	r2, [r3]
 417 001e 22F00102 		bic	r2, r2, #1
 418 0022 1A60     		str	r2, [r3]
 419              	.L37:
 420 0024 0123     		movs	r3, #1
 421 0026 80F83D30 		strb	r3, [r0, #61]
 422 002a 0020     		movs	r0, #0
 423 002c 7047     		bx	lr
 425 002e 00BF     		.section	.text.HAL_TIM_Base_Start_IT,"ax",%progbits
 426              		.align	2
 427              		.global	HAL_TIM_Base_Start_IT
ARM GAS  /tmp/ccEnBWAK.s 			page 8


 428              		.thumb
 429              		.thumb_func
 431              	HAL_TIM_Base_Start_IT:
 432              		@ args = 0, pretend = 0, frame = 0
 433              		@ frame_needed = 0, uses_anonymous_args = 0
 434              		@ link register save eliminated.
 435 0000 0268     		ldr	r2, [r0]
 436 0002 D368     		ldr	r3, [r2, #12]
 437 0004 43F00103 		orr	r3, r3, #1
 438 0008 D360     		str	r3, [r2, #12]
 439 000a 0268     		ldr	r2, [r0]
 440 000c 9368     		ldr	r3, [r2, #8]
 441 000e 03F00703 		and	r3, r3, #7
 442 0012 062B     		cmp	r3, #6
 443 0014 03D0     		beq	.L39
 444 0016 1368     		ldr	r3, [r2]
 445 0018 43F00103 		orr	r3, r3, #1
 446 001c 1360     		str	r3, [r2]
 447              	.L39:
 448 001e 0020     		movs	r0, #0
 449 0020 7047     		bx	lr
 451 0022 00BF     		.section	.text.HAL_TIM_Base_Stop_IT,"ax",%progbits
 452              		.align	2
 453              		.global	HAL_TIM_Base_Stop_IT
 454              		.thumb
 455              		.thumb_func
 457              	HAL_TIM_Base_Stop_IT:
 458              		@ args = 0, pretend = 0, frame = 0
 459              		@ frame_needed = 0, uses_anonymous_args = 0
 460              		@ link register save eliminated.
 461 0000 0268     		ldr	r2, [r0]
 462 0002 D368     		ldr	r3, [r2, #12]
 463 0004 23F00103 		bic	r3, r3, #1
 464 0008 D360     		str	r3, [r2, #12]
 465 000a 0368     		ldr	r3, [r0]
 466 000c 196A     		ldr	r1, [r3, #32]
 467 000e 41F21112 		movw	r2, #4369
 468 0012 1142     		tst	r1, r2
 469 0014 08D1     		bne	.L41
 470 0016 196A     		ldr	r1, [r3, #32]
 471 0018 40F24442 		movw	r2, #1092
 472 001c 1142     		tst	r1, r2
 473 001e 03D1     		bne	.L41
 474 0020 1A68     		ldr	r2, [r3]
 475 0022 22F00102 		bic	r2, r2, #1
 476 0026 1A60     		str	r2, [r3]
 477              	.L41:
 478 0028 0020     		movs	r0, #0
 479 002a 7047     		bx	lr
 481              		.section	.text.HAL_TIM_Base_Start_DMA,"ax",%progbits
 482              		.align	2
 483              		.global	HAL_TIM_Base_Start_DMA
 484              		.thumb
 485              		.thumb_func
 487              	HAL_TIM_Base_Start_DMA:
 488              		@ args = 0, pretend = 0, frame = 0
 489              		@ frame_needed = 0, uses_anonymous_args = 0
ARM GAS  /tmp/ccEnBWAK.s 			page 9


 490 0000 38B5     		push	{r3, r4, r5, lr}
 491 0002 90F83D50 		ldrb	r5, [r0, #61]	@ zero_extendqisi2
 492 0006 EDB2     		uxtb	r5, r5
 493 0008 022D     		cmp	r5, #2
 494 000a 2BD0     		beq	.L46
 495 000c 90F83D40 		ldrb	r4, [r0, #61]	@ zero_extendqisi2
 496 0010 E4B2     		uxtb	r4, r4
 497 0012 012C     		cmp	r4, #1
 498 0014 04D1     		bne	.L44
 499 0016 01B9     		cbnz	r1, .L45
 500 0018 32BB     		cbnz	r2, .L47
 501              	.L45:
 502 001a 0223     		movs	r3, #2
 503 001c 80F83D30 		strb	r3, [r0, #61]
 504              	.L44:
 505 0020 1346     		mov	r3, r2
 506 0022 0446     		mov	r4, r0
 507 0024 026A     		ldr	r2, [r0, #32]
 508 0026 1348     		ldr	r0, .L50
 509 0028 9062     		str	r0, [r2, #40]
 510 002a 226A     		ldr	r2, [r4, #32]
 511 002c 1248     		ldr	r0, .L50+4
 512 002e D062     		str	r0, [r2, #44]
 513 0030 226A     		ldr	r2, [r4, #32]
 514 0032 1248     		ldr	r0, .L50+8
 515 0034 1063     		str	r0, [r2, #48]
 516 0036 2268     		ldr	r2, [r4]
 517 0038 206A     		ldr	r0, [r4, #32]
 518 003a 2C32     		adds	r2, r2, #44
 519 003c FFF7FEFF 		bl	HAL_DMA_Start_IT
 520 0040 0346     		mov	r3, r0
 521 0042 98B9     		cbnz	r0, .L48
 522 0044 2168     		ldr	r1, [r4]
 523 0046 CA68     		ldr	r2, [r1, #12]
 524 0048 42F48072 		orr	r2, r2, #256
 525 004c CA60     		str	r2, [r1, #12]
 526 004e 2168     		ldr	r1, [r4]
 527 0050 8A68     		ldr	r2, [r1, #8]
 528 0052 02F00702 		and	r2, r2, #7
 529 0056 062A     		cmp	r2, #6
 530 0058 09D0     		beq	.L43
 531 005a 0A68     		ldr	r2, [r1]
 532 005c 42F00102 		orr	r2, r2, #1
 533 0060 0A60     		str	r2, [r1]
 534 0062 04E0     		b	.L43
 535              	.L46:
 536 0064 0223     		movs	r3, #2
 537 0066 02E0     		b	.L43
 538              	.L47:
 539 0068 0123     		movs	r3, #1
 540 006a 00E0     		b	.L43
 541              	.L48:
 542 006c 0123     		movs	r3, #1
 543              	.L43:
 544 006e 1846     		mov	r0, r3
 545 0070 38BD     		pop	{r3, r4, r5, pc}
 546              	.L51:
ARM GAS  /tmp/ccEnBWAK.s 			page 10


 547 0072 00BF     		.align	2
 548              	.L50:
 549 0074 00000000 		.word	TIM_DMAPeriodElapsedCplt
 550 0078 00000000 		.word	TIM_DMAPeriodElapsedHalfCplt
 551 007c 00000000 		.word	TIM_DMAError
 553              		.section	.text.HAL_TIM_Base_Stop_DMA,"ax",%progbits
 554              		.align	2
 555              		.global	HAL_TIM_Base_Stop_DMA
 556              		.thumb
 557              		.thumb_func
 559              	HAL_TIM_Base_Stop_DMA:
 560              		@ args = 0, pretend = 0, frame = 0
 561              		@ frame_needed = 0, uses_anonymous_args = 0
 562 0000 10B5     		push	{r4, lr}
 563 0002 0446     		mov	r4, r0
 564 0004 0268     		ldr	r2, [r0]
 565 0006 D368     		ldr	r3, [r2, #12]
 566 0008 23F48073 		bic	r3, r3, #256
 567 000c D360     		str	r3, [r2, #12]
 568 000e 006A     		ldr	r0, [r0, #32]
 569 0010 FFF7FEFF 		bl	HAL_DMA_Abort_IT
 570 0014 2368     		ldr	r3, [r4]
 571 0016 196A     		ldr	r1, [r3, #32]
 572 0018 41F21112 		movw	r2, #4369
 573 001c 1142     		tst	r1, r2
 574 001e 08D1     		bne	.L53
 575 0020 196A     		ldr	r1, [r3, #32]
 576 0022 40F24442 		movw	r2, #1092
 577 0026 1142     		tst	r1, r2
 578 0028 03D1     		bne	.L53
 579 002a 1A68     		ldr	r2, [r3]
 580 002c 22F00102 		bic	r2, r2, #1
 581 0030 1A60     		str	r2, [r3]
 582              	.L53:
 583 0032 0123     		movs	r3, #1
 584 0034 84F83D30 		strb	r3, [r4, #61]
 585 0038 0020     		movs	r0, #0
 586 003a 10BD     		pop	{r4, pc}
 588              		.section	.text.HAL_TIM_OC_MspInit,"ax",%progbits
 589              		.align	2
 590              		.weak	HAL_TIM_OC_MspInit
 591              		.thumb
 592              		.thumb_func
 594              	HAL_TIM_OC_MspInit:
 595              		@ args = 0, pretend = 0, frame = 0
 596              		@ frame_needed = 0, uses_anonymous_args = 0
 597              		@ link register save eliminated.
 598 0000 7047     		bx	lr
 600 0002 00BF     		.section	.text.HAL_TIM_OC_MspDeInit,"ax",%progbits
 601              		.align	2
 602              		.weak	HAL_TIM_OC_MspDeInit
 603              		.thumb
 604              		.thumb_func
 606              	HAL_TIM_OC_MspDeInit:
 607              		@ args = 0, pretend = 0, frame = 0
 608              		@ frame_needed = 0, uses_anonymous_args = 0
 609              		@ link register save eliminated.
ARM GAS  /tmp/ccEnBWAK.s 			page 11


 610 0000 7047     		bx	lr
 612 0002 00BF     		.section	.text.HAL_TIM_OC_DeInit,"ax",%progbits
 613              		.align	2
 614              		.global	HAL_TIM_OC_DeInit
 615              		.thumb
 616              		.thumb_func
 618              	HAL_TIM_OC_DeInit:
 619              		@ args = 0, pretend = 0, frame = 0
 620              		@ frame_needed = 0, uses_anonymous_args = 0
 621 0000 10B5     		push	{r4, lr}
 622 0002 0446     		mov	r4, r0
 623 0004 0223     		movs	r3, #2
 624 0006 80F83D30 		strb	r3, [r0, #61]
 625 000a 0368     		ldr	r3, [r0]
 626 000c 196A     		ldr	r1, [r3, #32]
 627 000e 41F21112 		movw	r2, #4369
 628 0012 1142     		tst	r1, r2
 629 0014 08D1     		bne	.L58
 630 0016 196A     		ldr	r1, [r3, #32]
 631 0018 40F24442 		movw	r2, #1092
 632 001c 1142     		tst	r1, r2
 633 001e 03D1     		bne	.L58
 634 0020 1A68     		ldr	r2, [r3]
 635 0022 22F00102 		bic	r2, r2, #1
 636 0026 1A60     		str	r2, [r3]
 637              	.L58:
 638 0028 2046     		mov	r0, r4
 639 002a FFF7FEFF 		bl	HAL_TIM_OC_MspDeInit
 640 002e 0020     		movs	r0, #0
 641 0030 84F83D00 		strb	r0, [r4, #61]
 642 0034 84F83C00 		strb	r0, [r4, #60]
 643 0038 10BD     		pop	{r4, pc}
 645 003a 00BF     		.section	.text.HAL_TIM_PWM_MspInit,"ax",%progbits
 646              		.align	2
 647              		.weak	HAL_TIM_PWM_MspInit
 648              		.thumb
 649              		.thumb_func
 651              	HAL_TIM_PWM_MspInit:
 652              		@ args = 0, pretend = 0, frame = 0
 653              		@ frame_needed = 0, uses_anonymous_args = 0
 654              		@ link register save eliminated.
 655 0000 7047     		bx	lr
 657 0002 00BF     		.section	.text.HAL_TIM_PWM_MspDeInit,"ax",%progbits
 658              		.align	2
 659              		.weak	HAL_TIM_PWM_MspDeInit
 660              		.thumb
 661              		.thumb_func
 663              	HAL_TIM_PWM_MspDeInit:
 664              		@ args = 0, pretend = 0, frame = 0
 665              		@ frame_needed = 0, uses_anonymous_args = 0
 666              		@ link register save eliminated.
 667 0000 7047     		bx	lr
 669 0002 00BF     		.section	.text.HAL_TIM_PWM_DeInit,"ax",%progbits
 670              		.align	2
 671              		.global	HAL_TIM_PWM_DeInit
 672              		.thumb
 673              		.thumb_func
ARM GAS  /tmp/ccEnBWAK.s 			page 12


 675              	HAL_TIM_PWM_DeInit:
 676              		@ args = 0, pretend = 0, frame = 0
 677              		@ frame_needed = 0, uses_anonymous_args = 0
 678 0000 10B5     		push	{r4, lr}
 679 0002 0446     		mov	r4, r0
 680 0004 0223     		movs	r3, #2
 681 0006 80F83D30 		strb	r3, [r0, #61]
 682 000a 0368     		ldr	r3, [r0]
 683 000c 196A     		ldr	r1, [r3, #32]
 684 000e 41F21112 		movw	r2, #4369
 685 0012 1142     		tst	r1, r2
 686 0014 08D1     		bne	.L63
 687 0016 196A     		ldr	r1, [r3, #32]
 688 0018 40F24442 		movw	r2, #1092
 689 001c 1142     		tst	r1, r2
 690 001e 03D1     		bne	.L63
 691 0020 1A68     		ldr	r2, [r3]
 692 0022 22F00102 		bic	r2, r2, #1
 693 0026 1A60     		str	r2, [r3]
 694              	.L63:
 695 0028 2046     		mov	r0, r4
 696 002a FFF7FEFF 		bl	HAL_TIM_PWM_MspDeInit
 697 002e 0020     		movs	r0, #0
 698 0030 84F83D00 		strb	r0, [r4, #61]
 699 0034 84F83C00 		strb	r0, [r4, #60]
 700 0038 10BD     		pop	{r4, pc}
 702 003a 00BF     		.section	.text.HAL_TIM_IC_MspInit,"ax",%progbits
 703              		.align	2
 704              		.weak	HAL_TIM_IC_MspInit
 705              		.thumb
 706              		.thumb_func
 708              	HAL_TIM_IC_MspInit:
 709              		@ args = 0, pretend = 0, frame = 0
 710              		@ frame_needed = 0, uses_anonymous_args = 0
 711              		@ link register save eliminated.
 712 0000 7047     		bx	lr
 714 0002 00BF     		.section	.text.HAL_TIM_IC_MspDeInit,"ax",%progbits
 715              		.align	2
 716              		.weak	HAL_TIM_IC_MspDeInit
 717              		.thumb
 718              		.thumb_func
 720              	HAL_TIM_IC_MspDeInit:
 721              		@ args = 0, pretend = 0, frame = 0
 722              		@ frame_needed = 0, uses_anonymous_args = 0
 723              		@ link register save eliminated.
 724 0000 7047     		bx	lr
 726 0002 00BF     		.section	.text.HAL_TIM_IC_DeInit,"ax",%progbits
 727              		.align	2
 728              		.global	HAL_TIM_IC_DeInit
 729              		.thumb
 730              		.thumb_func
 732              	HAL_TIM_IC_DeInit:
 733              		@ args = 0, pretend = 0, frame = 0
 734              		@ frame_needed = 0, uses_anonymous_args = 0
 735 0000 10B5     		push	{r4, lr}
 736 0002 0446     		mov	r4, r0
 737 0004 0223     		movs	r3, #2
ARM GAS  /tmp/ccEnBWAK.s 			page 13


 738 0006 80F83D30 		strb	r3, [r0, #61]
 739 000a 0368     		ldr	r3, [r0]
 740 000c 196A     		ldr	r1, [r3, #32]
 741 000e 41F21112 		movw	r2, #4369
 742 0012 1142     		tst	r1, r2
 743 0014 08D1     		bne	.L68
 744 0016 196A     		ldr	r1, [r3, #32]
 745 0018 40F24442 		movw	r2, #1092
 746 001c 1142     		tst	r1, r2
 747 001e 03D1     		bne	.L68
 748 0020 1A68     		ldr	r2, [r3]
 749 0022 22F00102 		bic	r2, r2, #1
 750 0026 1A60     		str	r2, [r3]
 751              	.L68:
 752 0028 2046     		mov	r0, r4
 753 002a FFF7FEFF 		bl	HAL_TIM_IC_MspDeInit
 754 002e 0020     		movs	r0, #0
 755 0030 84F83D00 		strb	r0, [r4, #61]
 756 0034 84F83C00 		strb	r0, [r4, #60]
 757 0038 10BD     		pop	{r4, pc}
 759 003a 00BF     		.section	.text.HAL_TIM_OnePulse_MspInit,"ax",%progbits
 760              		.align	2
 761              		.weak	HAL_TIM_OnePulse_MspInit
 762              		.thumb
 763              		.thumb_func
 765              	HAL_TIM_OnePulse_MspInit:
 766              		@ args = 0, pretend = 0, frame = 0
 767              		@ frame_needed = 0, uses_anonymous_args = 0
 768              		@ link register save eliminated.
 769 0000 7047     		bx	lr
 771 0002 00BF     		.section	.text.HAL_TIM_OnePulse_MspDeInit,"ax",%progbits
 772              		.align	2
 773              		.weak	HAL_TIM_OnePulse_MspDeInit
 774              		.thumb
 775              		.thumb_func
 777              	HAL_TIM_OnePulse_MspDeInit:
 778              		@ args = 0, pretend = 0, frame = 0
 779              		@ frame_needed = 0, uses_anonymous_args = 0
 780              		@ link register save eliminated.
 781 0000 7047     		bx	lr
 783 0002 00BF     		.section	.text.HAL_TIM_OnePulse_DeInit,"ax",%progbits
 784              		.align	2
 785              		.global	HAL_TIM_OnePulse_DeInit
 786              		.thumb
 787              		.thumb_func
 789              	HAL_TIM_OnePulse_DeInit:
 790              		@ args = 0, pretend = 0, frame = 0
 791              		@ frame_needed = 0, uses_anonymous_args = 0
 792 0000 10B5     		push	{r4, lr}
 793 0002 0446     		mov	r4, r0
 794 0004 0223     		movs	r3, #2
 795 0006 80F83D30 		strb	r3, [r0, #61]
 796 000a 0368     		ldr	r3, [r0]
 797 000c 196A     		ldr	r1, [r3, #32]
 798 000e 41F21112 		movw	r2, #4369
 799 0012 1142     		tst	r1, r2
 800 0014 08D1     		bne	.L73
ARM GAS  /tmp/ccEnBWAK.s 			page 14


 801 0016 196A     		ldr	r1, [r3, #32]
 802 0018 40F24442 		movw	r2, #1092
 803 001c 1142     		tst	r1, r2
 804 001e 03D1     		bne	.L73
 805 0020 1A68     		ldr	r2, [r3]
 806 0022 22F00102 		bic	r2, r2, #1
 807 0026 1A60     		str	r2, [r3]
 808              	.L73:
 809 0028 2046     		mov	r0, r4
 810 002a FFF7FEFF 		bl	HAL_TIM_OnePulse_MspDeInit
 811 002e 0020     		movs	r0, #0
 812 0030 84F83D00 		strb	r0, [r4, #61]
 813 0034 84F83C00 		strb	r0, [r4, #60]
 814 0038 10BD     		pop	{r4, pc}
 816 003a 00BF     		.section	.text.HAL_TIM_Encoder_MspInit,"ax",%progbits
 817              		.align	2
 818              		.weak	HAL_TIM_Encoder_MspInit
 819              		.thumb
 820              		.thumb_func
 822              	HAL_TIM_Encoder_MspInit:
 823              		@ args = 0, pretend = 0, frame = 0
 824              		@ frame_needed = 0, uses_anonymous_args = 0
 825              		@ link register save eliminated.
 826 0000 7047     		bx	lr
 828 0002 00BF     		.section	.text.HAL_TIM_Encoder_MspDeInit,"ax",%progbits
 829              		.align	2
 830              		.weak	HAL_TIM_Encoder_MspDeInit
 831              		.thumb
 832              		.thumb_func
 834              	HAL_TIM_Encoder_MspDeInit:
 835              		@ args = 0, pretend = 0, frame = 0
 836              		@ frame_needed = 0, uses_anonymous_args = 0
 837              		@ link register save eliminated.
 838 0000 7047     		bx	lr
 840 0002 00BF     		.section	.text.HAL_TIM_Encoder_DeInit,"ax",%progbits
 841              		.align	2
 842              		.global	HAL_TIM_Encoder_DeInit
 843              		.thumb
 844              		.thumb_func
 846              	HAL_TIM_Encoder_DeInit:
 847              		@ args = 0, pretend = 0, frame = 0
 848              		@ frame_needed = 0, uses_anonymous_args = 0
 849 0000 10B5     		push	{r4, lr}
 850 0002 0446     		mov	r4, r0
 851 0004 0223     		movs	r3, #2
 852 0006 80F83D30 		strb	r3, [r0, #61]
 853 000a 0368     		ldr	r3, [r0]
 854 000c 196A     		ldr	r1, [r3, #32]
 855 000e 41F21112 		movw	r2, #4369
 856 0012 1142     		tst	r1, r2
 857 0014 08D1     		bne	.L78
 858 0016 196A     		ldr	r1, [r3, #32]
 859 0018 40F24442 		movw	r2, #1092
 860 001c 1142     		tst	r1, r2
 861 001e 03D1     		bne	.L78
 862 0020 1A68     		ldr	r2, [r3]
 863 0022 22F00102 		bic	r2, r2, #1
ARM GAS  /tmp/ccEnBWAK.s 			page 15


 864 0026 1A60     		str	r2, [r3]
 865              	.L78:
 866 0028 2046     		mov	r0, r4
 867 002a FFF7FEFF 		bl	HAL_TIM_Encoder_MspDeInit
 868 002e 0020     		movs	r0, #0
 869 0030 84F83D00 		strb	r0, [r4, #61]
 870 0034 84F83C00 		strb	r0, [r4, #60]
 871 0038 10BD     		pop	{r4, pc}
 873 003a 00BF     		.section	.text.HAL_TIM_DMABurst_WriteStart,"ax",%progbits
 874              		.align	2
 875              		.global	HAL_TIM_DMABurst_WriteStart
 876              		.thumb
 877              		.thumb_func
 879              	HAL_TIM_DMABurst_WriteStart:
 880              		@ args = 4, pretend = 0, frame = 0
 881              		@ frame_needed = 0, uses_anonymous_args = 0
 882 0000 F8B5     		push	{r3, r4, r5, r6, r7, lr}
 883 0002 90F83D50 		ldrb	r5, [r0, #61]	@ zero_extendqisi2
 884 0006 EDB2     		uxtb	r5, r5
 885 0008 022D     		cmp	r5, #2
 886 000a 00F0C880 		beq	.L93
 887 000e 90F83D40 		ldrb	r4, [r0, #61]	@ zero_extendqisi2
 888 0012 E4B2     		uxtb	r4, r4
 889 0014 012C     		cmp	r4, #1
 890 0016 07D1     		bne	.L82
 891 0018 1BB9     		cbnz	r3, .L83
 892 001a 069C     		ldr	r4, [sp, #24]
 893 001c 002C     		cmp	r4, #0
 894 001e 40F0C080 		bne	.L94
 895              	.L83:
 896 0022 0224     		movs	r4, #2
 897 0024 80F83D40 		strb	r4, [r0, #61]
 898              	.L82:
 899 0028 1546     		mov	r5, r2
 900 002a 0E46     		mov	r6, r1
 901 002c 0446     		mov	r4, r0
 902 002e B2F5006F 		cmp	r2, #2048
 903 0032 56D0     		beq	.L85
 904 0034 0AD8     		bhi	.L86
 905 0036 B2F5007F 		cmp	r2, #512
 906 003a 28D0     		beq	.L87
 907 003c B2F5806F 		cmp	r2, #1024
 908 0040 3AD0     		beq	.L88
 909 0042 B2F5807F 		cmp	r2, #256
 910 0046 40F09C80 		bne	.L84
 911 004a 0BE0     		b	.L89
 912              	.L86:
 913 004c B2F5005F 		cmp	r2, #8192
 914 0050 70D0     		beq	.L90
 915 0052 B2F5804F 		cmp	r2, #16384
 916 0056 00F08180 		beq	.L91
 917 005a B2F5805F 		cmp	r2, #4096
 918 005e 40F09080 		bne	.L84
 919 0062 53E0     		b	.L92
 920              	.L89:
 921 0064 026A     		ldr	r2, [r0, #32]
 922 0066 5749     		ldr	r1, .L103
ARM GAS  /tmp/ccEnBWAK.s 			page 16


 923 0068 9162     		str	r1, [r2, #40]
 924 006a 026A     		ldr	r2, [r0, #32]
 925 006c 5649     		ldr	r1, .L103+4
 926 006e D162     		str	r1, [r2, #44]
 927 0070 026A     		ldr	r2, [r0, #32]
 928 0072 5649     		ldr	r1, .L103+8
 929 0074 1163     		str	r1, [r2, #48]
 930 0076 0268     		ldr	r2, [r0]
 931 0078 0699     		ldr	r1, [sp, #24]
 932 007a 0F0A     		lsrs	r7, r1, #8
 933 007c 006A     		ldr	r0, [r0, #32]
 934 007e 1946     		mov	r1, r3
 935 0080 4C32     		adds	r2, r2, #76
 936 0082 7B1C     		adds	r3, r7, #1
 937 0084 FFF7FEFF 		bl	HAL_DMA_Start_IT
 938 0088 0028     		cmp	r0, #0
 939 008a 7AD0     		beq	.L84
 940 008c 8BE0     		b	.L95
 941              	.L87:
 942 008e 426A     		ldr	r2, [r0, #36]
 943 0090 4F49     		ldr	r1, .L103+12
 944 0092 9162     		str	r1, [r2, #40]
 945 0094 426A     		ldr	r2, [r0, #36]
 946 0096 4F49     		ldr	r1, .L103+16
 947 0098 D162     		str	r1, [r2, #44]
 948 009a 426A     		ldr	r2, [r0, #36]
 949 009c 4B49     		ldr	r1, .L103+8
 950 009e 1163     		str	r1, [r2, #48]
 951 00a0 0268     		ldr	r2, [r0]
 952 00a2 0699     		ldr	r1, [sp, #24]
 953 00a4 0F0A     		lsrs	r7, r1, #8
 954 00a6 406A     		ldr	r0, [r0, #36]
 955 00a8 1946     		mov	r1, r3
 956 00aa 4C32     		adds	r2, r2, #76
 957 00ac 7B1C     		adds	r3, r7, #1
 958 00ae FFF7FEFF 		bl	HAL_DMA_Start_IT
 959 00b2 0028     		cmp	r0, #0
 960 00b4 65D0     		beq	.L84
 961 00b6 78E0     		b	.L96
 962              	.L88:
 963 00b8 826A     		ldr	r2, [r0, #40]
 964 00ba 4549     		ldr	r1, .L103+12
 965 00bc 9162     		str	r1, [r2, #40]
 966 00be 826A     		ldr	r2, [r0, #40]
 967 00c0 4449     		ldr	r1, .L103+16
 968 00c2 D162     		str	r1, [r2, #44]
 969 00c4 826A     		ldr	r2, [r0, #40]
 970 00c6 4149     		ldr	r1, .L103+8
 971 00c8 1163     		str	r1, [r2, #48]
 972 00ca 0268     		ldr	r2, [r0]
 973 00cc 0699     		ldr	r1, [sp, #24]
 974 00ce 0F0A     		lsrs	r7, r1, #8
 975 00d0 806A     		ldr	r0, [r0, #40]
 976 00d2 1946     		mov	r1, r3
 977 00d4 4C32     		adds	r2, r2, #76
 978 00d6 7B1C     		adds	r3, r7, #1
 979 00d8 FFF7FEFF 		bl	HAL_DMA_Start_IT
ARM GAS  /tmp/ccEnBWAK.s 			page 17


 980 00dc 0028     		cmp	r0, #0
 981 00de 50D0     		beq	.L84
 982 00e0 65E0     		b	.L97
 983              	.L85:
 984 00e2 C26A     		ldr	r2, [r0, #44]
 985 00e4 3A49     		ldr	r1, .L103+12
 986 00e6 9162     		str	r1, [r2, #40]
 987 00e8 C26A     		ldr	r2, [r0, #44]
 988 00ea 3A49     		ldr	r1, .L103+16
 989 00ec D162     		str	r1, [r2, #44]
 990 00ee C26A     		ldr	r2, [r0, #44]
 991 00f0 3649     		ldr	r1, .L103+8
 992 00f2 1163     		str	r1, [r2, #48]
 993 00f4 0268     		ldr	r2, [r0]
 994 00f6 0699     		ldr	r1, [sp, #24]
 995 00f8 0F0A     		lsrs	r7, r1, #8
 996 00fa C06A     		ldr	r0, [r0, #44]
 997 00fc 1946     		mov	r1, r3
 998 00fe 4C32     		adds	r2, r2, #76
 999 0100 7B1C     		adds	r3, r7, #1
 1000 0102 FFF7FEFF 		bl	HAL_DMA_Start_IT
 1001 0106 0028     		cmp	r0, #0
 1002 0108 3BD0     		beq	.L84
 1003 010a 52E0     		b	.L98
 1004              	.L92:
 1005 010c 026B     		ldr	r2, [r0, #48]
 1006 010e 3049     		ldr	r1, .L103+12
 1007 0110 9162     		str	r1, [r2, #40]
 1008 0112 026B     		ldr	r2, [r0, #48]
 1009 0114 2F49     		ldr	r1, .L103+16
 1010 0116 D162     		str	r1, [r2, #44]
 1011 0118 026B     		ldr	r2, [r0, #48]
 1012 011a 2C49     		ldr	r1, .L103+8
 1013 011c 1163     		str	r1, [r2, #48]
 1014 011e 0268     		ldr	r2, [r0]
 1015 0120 0699     		ldr	r1, [sp, #24]
 1016 0122 0F0A     		lsrs	r7, r1, #8
 1017 0124 006B     		ldr	r0, [r0, #48]
 1018 0126 1946     		mov	r1, r3
 1019 0128 4C32     		adds	r2, r2, #76
 1020 012a 7B1C     		adds	r3, r7, #1
 1021 012c FFF7FEFF 		bl	HAL_DMA_Start_IT
 1022 0130 38B3     		cbz	r0, .L84
 1023 0132 40E0     		b	.L99
 1024              	.L90:
 1025 0134 426B     		ldr	r2, [r0, #52]
 1026 0136 2849     		ldr	r1, .L103+20
 1027 0138 9162     		str	r1, [r2, #40]
 1028 013a 426B     		ldr	r2, [r0, #52]
 1029 013c 2749     		ldr	r1, .L103+24
 1030 013e D162     		str	r1, [r2, #44]
 1031 0140 426B     		ldr	r2, [r0, #52]
 1032 0142 2249     		ldr	r1, .L103+8
 1033 0144 1163     		str	r1, [r2, #48]
 1034 0146 0268     		ldr	r2, [r0]
 1035 0148 0699     		ldr	r1, [sp, #24]
 1036 014a 0F0A     		lsrs	r7, r1, #8
ARM GAS  /tmp/ccEnBWAK.s 			page 18


 1037 014c 406B     		ldr	r0, [r0, #52]
 1038 014e 1946     		mov	r1, r3
 1039 0150 4C32     		adds	r2, r2, #76
 1040 0152 7B1C     		adds	r3, r7, #1
 1041 0154 FFF7FEFF 		bl	HAL_DMA_Start_IT
 1042 0158 98B1     		cbz	r0, .L84
 1043 015a 2EE0     		b	.L100
 1044              	.L91:
 1045 015c 826B     		ldr	r2, [r0, #56]
 1046 015e 2049     		ldr	r1, .L103+28
 1047 0160 9162     		str	r1, [r2, #40]
 1048 0162 826B     		ldr	r2, [r0, #56]
 1049 0164 1F49     		ldr	r1, .L103+32
 1050 0166 D162     		str	r1, [r2, #44]
 1051 0168 826B     		ldr	r2, [r0, #56]
 1052 016a 1849     		ldr	r1, .L103+8
 1053 016c 1163     		str	r1, [r2, #48]
 1054 016e 0268     		ldr	r2, [r0]
 1055 0170 0699     		ldr	r1, [sp, #24]
 1056 0172 0F0A     		lsrs	r7, r1, #8
 1057 0174 806B     		ldr	r0, [r0, #56]
 1058 0176 1946     		mov	r1, r3
 1059 0178 4C32     		adds	r2, r2, #76
 1060 017a 7B1C     		adds	r3, r7, #1
 1061 017c FFF7FEFF 		bl	HAL_DMA_Start_IT
 1062 0180 E8B9     		cbnz	r0, .L101
 1063              	.L84:
 1064 0182 2368     		ldr	r3, [r4]
 1065 0184 069A     		ldr	r2, [sp, #24]
 1066 0186 46EA0201 		orr	r1, r6, r2
 1067 018a 9964     		str	r1, [r3, #72]
 1068 018c 2368     		ldr	r3, [r4]
 1069 018e DA68     		ldr	r2, [r3, #12]
 1070 0190 2A43     		orrs	r2, r2, r5
 1071 0192 DA60     		str	r2, [r3, #12]
 1072 0194 0123     		movs	r3, #1
 1073 0196 84F83D30 		strb	r3, [r4, #61]
 1074 019a 0020     		movs	r0, #0
 1075 019c F8BD     		pop	{r3, r4, r5, r6, r7, pc}
 1076              	.L93:
 1077 019e 0220     		movs	r0, #2
 1078 01a0 F8BD     		pop	{r3, r4, r5, r6, r7, pc}
 1079              	.L94:
 1080 01a2 0120     		movs	r0, #1
 1081 01a4 F8BD     		pop	{r3, r4, r5, r6, r7, pc}
 1082              	.L95:
 1083 01a6 0120     		movs	r0, #1
 1084 01a8 F8BD     		pop	{r3, r4, r5, r6, r7, pc}
 1085              	.L96:
 1086 01aa 0120     		movs	r0, #1
 1087 01ac F8BD     		pop	{r3, r4, r5, r6, r7, pc}
 1088              	.L97:
 1089 01ae 0120     		movs	r0, #1
 1090 01b0 F8BD     		pop	{r3, r4, r5, r6, r7, pc}
 1091              	.L98:
 1092 01b2 0120     		movs	r0, #1
 1093 01b4 F8BD     		pop	{r3, r4, r5, r6, r7, pc}
ARM GAS  /tmp/ccEnBWAK.s 			page 19


 1094              	.L99:
 1095 01b6 0120     		movs	r0, #1
 1096 01b8 F8BD     		pop	{r3, r4, r5, r6, r7, pc}
 1097              	.L100:
 1098 01ba 0120     		movs	r0, #1
 1099 01bc F8BD     		pop	{r3, r4, r5, r6, r7, pc}
 1100              	.L101:
 1101 01be 0120     		movs	r0, #1
 1102 01c0 F8BD     		pop	{r3, r4, r5, r6, r7, pc}
 1103              	.L104:
 1104 01c2 00BF     		.align	2
 1105              	.L103:
 1106 01c4 00000000 		.word	TIM_DMAPeriodElapsedCplt
 1107 01c8 00000000 		.word	TIM_DMAPeriodElapsedHalfCplt
 1108 01cc 00000000 		.word	TIM_DMAError
 1109 01d0 00000000 		.word	TIM_DMADelayPulseCplt
 1110 01d4 00000000 		.word	TIM_DMADelayPulseHalfCplt
 1111 01d8 00000000 		.word	TIMEx_DMACommutationCplt
 1112 01dc 00000000 		.word	TIMEx_DMACommutationHalfCplt
 1113 01e0 00000000 		.word	TIM_DMATriggerCplt
 1114 01e4 00000000 		.word	TIM_DMATriggerHalfCplt
 1116              		.section	.text.HAL_TIM_DMABurst_WriteStop,"ax",%progbits
 1117              		.align	2
 1118              		.global	HAL_TIM_DMABurst_WriteStop
 1119              		.thumb
 1120              		.thumb_func
 1122              	HAL_TIM_DMABurst_WriteStop:
 1123              		@ args = 0, pretend = 0, frame = 0
 1124              		@ frame_needed = 0, uses_anonymous_args = 0
 1125 0000 38B5     		push	{r3, r4, r5, lr}
 1126 0002 0546     		mov	r5, r0
 1127 0004 0C46     		mov	r4, r1
 1128 0006 B1F5006F 		cmp	r1, #2048
 1129 000a 20D0     		beq	.L107
 1130 000c 09D8     		bhi	.L108
 1131 000e B1F5007F 		cmp	r1, #512
 1132 0012 14D0     		beq	.L109
 1133 0014 B1F5806F 		cmp	r1, #1024
 1134 0018 15D0     		beq	.L110
 1135 001a B1F5807F 		cmp	r1, #256
 1136 001e 26D1     		bne	.L116
 1137 0020 09E0     		b	.L111
 1138              	.L108:
 1139 0022 B1F5005F 		cmp	r1, #8192
 1140 0026 1AD0     		beq	.L112
 1141 0028 B1F5804F 		cmp	r1, #16384
 1142 002c 1BD0     		beq	.L113
 1143 002e B1F5805F 		cmp	r1, #4096
 1144 0032 1CD1     		bne	.L116
 1145 0034 0FE0     		b	.L114
 1146              	.L111:
 1147 0036 006A     		ldr	r0, [r0, #32]
 1148 0038 FFF7FEFF 		bl	HAL_DMA_Abort_IT
 1149 003c 18E0     		b	.L106
 1150              	.L109:
 1151 003e 406A     		ldr	r0, [r0, #36]
 1152 0040 FFF7FEFF 		bl	HAL_DMA_Abort_IT
ARM GAS  /tmp/ccEnBWAK.s 			page 20


 1153 0044 14E0     		b	.L106
 1154              	.L110:
 1155 0046 806A     		ldr	r0, [r0, #40]
 1156 0048 FFF7FEFF 		bl	HAL_DMA_Abort_IT
 1157 004c 10E0     		b	.L106
 1158              	.L107:
 1159 004e C06A     		ldr	r0, [r0, #44]
 1160 0050 FFF7FEFF 		bl	HAL_DMA_Abort_IT
 1161 0054 0CE0     		b	.L106
 1162              	.L114:
 1163 0056 006B     		ldr	r0, [r0, #48]
 1164 0058 FFF7FEFF 		bl	HAL_DMA_Abort_IT
 1165 005c 08E0     		b	.L106
 1166              	.L112:
 1167 005e 406B     		ldr	r0, [r0, #52]
 1168 0060 FFF7FEFF 		bl	HAL_DMA_Abort_IT
 1169 0064 04E0     		b	.L106
 1170              	.L113:
 1171 0066 806B     		ldr	r0, [r0, #56]
 1172 0068 FFF7FEFF 		bl	HAL_DMA_Abort_IT
 1173 006c 00E0     		b	.L106
 1174              	.L116:
 1175 006e 0020     		movs	r0, #0
 1176              	.L106:
 1177 0070 20B9     		cbnz	r0, .L115
 1178 0072 2A68     		ldr	r2, [r5]
 1179 0074 D368     		ldr	r3, [r2, #12]
 1180 0076 23EA0404 		bic	r4, r3, r4
 1181 007a D460     		str	r4, [r2, #12]
 1182              	.L115:
 1183 007c 38BD     		pop	{r3, r4, r5, pc}
 1185 007e 00BF     		.section	.text.HAL_TIM_DMABurst_ReadStart,"ax",%progbits
 1186              		.align	2
 1187              		.global	HAL_TIM_DMABurst_ReadStart
 1188              		.thumb
 1189              		.thumb_func
 1191              	HAL_TIM_DMABurst_ReadStart:
 1192              		@ args = 4, pretend = 0, frame = 0
 1193              		@ frame_needed = 0, uses_anonymous_args = 0
 1194 0000 F8B5     		push	{r3, r4, r5, r6, r7, lr}
 1195 0002 90F83D50 		ldrb	r5, [r0, #61]	@ zero_extendqisi2
 1196 0006 EDB2     		uxtb	r5, r5
 1197 0008 022D     		cmp	r5, #2
 1198 000a 00F0C880 		beq	.L131
 1199 000e 90F83D40 		ldrb	r4, [r0, #61]	@ zero_extendqisi2
 1200 0012 E4B2     		uxtb	r4, r4
 1201 0014 012C     		cmp	r4, #1
 1202 0016 07D1     		bne	.L120
 1203 0018 1BB9     		cbnz	r3, .L121
 1204 001a 069C     		ldr	r4, [sp, #24]
 1205 001c 002C     		cmp	r4, #0
 1206 001e 40F0C080 		bne	.L132
 1207              	.L121:
 1208 0022 0224     		movs	r4, #2
 1209 0024 80F83D40 		strb	r4, [r0, #61]
 1210              	.L120:
 1211 0028 1546     		mov	r5, r2
ARM GAS  /tmp/ccEnBWAK.s 			page 21


 1212 002a 0E46     		mov	r6, r1
 1213 002c 0446     		mov	r4, r0
 1214 002e B2F5006F 		cmp	r2, #2048
 1215 0032 56D0     		beq	.L123
 1216 0034 0AD8     		bhi	.L124
 1217 0036 B2F5007F 		cmp	r2, #512
 1218 003a 28D0     		beq	.L125
 1219 003c B2F5806F 		cmp	r2, #1024
 1220 0040 3AD0     		beq	.L126
 1221 0042 B2F5807F 		cmp	r2, #256
 1222 0046 40F09C80 		bne	.L122
 1223 004a 0BE0     		b	.L127
 1224              	.L124:
 1225 004c B2F5005F 		cmp	r2, #8192
 1226 0050 70D0     		beq	.L128
 1227 0052 B2F5804F 		cmp	r2, #16384
 1228 0056 00F08180 		beq	.L129
 1229 005a B2F5805F 		cmp	r2, #4096
 1230 005e 40F09080 		bne	.L122
 1231 0062 53E0     		b	.L130
 1232              	.L127:
 1233 0064 026A     		ldr	r2, [r0, #32]
 1234 0066 5749     		ldr	r1, .L141
 1235 0068 9162     		str	r1, [r2, #40]
 1236 006a 026A     		ldr	r2, [r0, #32]
 1237 006c 5649     		ldr	r1, .L141+4
 1238 006e D162     		str	r1, [r2, #44]
 1239 0070 026A     		ldr	r2, [r0, #32]
 1240 0072 5649     		ldr	r1, .L141+8
 1241 0074 1163     		str	r1, [r2, #48]
 1242 0076 0168     		ldr	r1, [r0]
 1243 0078 069A     		ldr	r2, [sp, #24]
 1244 007a 170A     		lsrs	r7, r2, #8
 1245 007c 006A     		ldr	r0, [r0, #32]
 1246 007e 4C31     		adds	r1, r1, #76
 1247 0080 1A46     		mov	r2, r3
 1248 0082 7B1C     		adds	r3, r7, #1
 1249 0084 FFF7FEFF 		bl	HAL_DMA_Start_IT
 1250 0088 0028     		cmp	r0, #0
 1251 008a 7AD0     		beq	.L122
 1252 008c 8BE0     		b	.L133
 1253              	.L125:
 1254 008e 426A     		ldr	r2, [r0, #36]
 1255 0090 4F49     		ldr	r1, .L141+12
 1256 0092 9162     		str	r1, [r2, #40]
 1257 0094 426A     		ldr	r2, [r0, #36]
 1258 0096 4F49     		ldr	r1, .L141+16
 1259 0098 D162     		str	r1, [r2, #44]
 1260 009a 426A     		ldr	r2, [r0, #36]
 1261 009c 4B49     		ldr	r1, .L141+8
 1262 009e 1163     		str	r1, [r2, #48]
 1263 00a0 0168     		ldr	r1, [r0]
 1264 00a2 069A     		ldr	r2, [sp, #24]
 1265 00a4 170A     		lsrs	r7, r2, #8
 1266 00a6 406A     		ldr	r0, [r0, #36]
 1267 00a8 4C31     		adds	r1, r1, #76
 1268 00aa 1A46     		mov	r2, r3
ARM GAS  /tmp/ccEnBWAK.s 			page 22


 1269 00ac 7B1C     		adds	r3, r7, #1
 1270 00ae FFF7FEFF 		bl	HAL_DMA_Start_IT
 1271 00b2 0028     		cmp	r0, #0
 1272 00b4 65D0     		beq	.L122
 1273 00b6 78E0     		b	.L134
 1274              	.L126:
 1275 00b8 826A     		ldr	r2, [r0, #40]
 1276 00ba 4549     		ldr	r1, .L141+12
 1277 00bc 9162     		str	r1, [r2, #40]
 1278 00be 826A     		ldr	r2, [r0, #40]
 1279 00c0 4449     		ldr	r1, .L141+16
 1280 00c2 D162     		str	r1, [r2, #44]
 1281 00c4 826A     		ldr	r2, [r0, #40]
 1282 00c6 4149     		ldr	r1, .L141+8
 1283 00c8 1163     		str	r1, [r2, #48]
 1284 00ca 0168     		ldr	r1, [r0]
 1285 00cc 069A     		ldr	r2, [sp, #24]
 1286 00ce 170A     		lsrs	r7, r2, #8
 1287 00d0 806A     		ldr	r0, [r0, #40]
 1288 00d2 4C31     		adds	r1, r1, #76
 1289 00d4 1A46     		mov	r2, r3
 1290 00d6 7B1C     		adds	r3, r7, #1
 1291 00d8 FFF7FEFF 		bl	HAL_DMA_Start_IT
 1292 00dc 0028     		cmp	r0, #0
 1293 00de 50D0     		beq	.L122
 1294 00e0 65E0     		b	.L135
 1295              	.L123:
 1296 00e2 C26A     		ldr	r2, [r0, #44]
 1297 00e4 3A49     		ldr	r1, .L141+12
 1298 00e6 9162     		str	r1, [r2, #40]
 1299 00e8 C26A     		ldr	r2, [r0, #44]
 1300 00ea 3A49     		ldr	r1, .L141+16
 1301 00ec D162     		str	r1, [r2, #44]
 1302 00ee C26A     		ldr	r2, [r0, #44]
 1303 00f0 3649     		ldr	r1, .L141+8
 1304 00f2 1163     		str	r1, [r2, #48]
 1305 00f4 0168     		ldr	r1, [r0]
 1306 00f6 069A     		ldr	r2, [sp, #24]
 1307 00f8 170A     		lsrs	r7, r2, #8
 1308 00fa C06A     		ldr	r0, [r0, #44]
 1309 00fc 4C31     		adds	r1, r1, #76
 1310 00fe 1A46     		mov	r2, r3
 1311 0100 7B1C     		adds	r3, r7, #1
 1312 0102 FFF7FEFF 		bl	HAL_DMA_Start_IT
 1313 0106 0028     		cmp	r0, #0
 1314 0108 3BD0     		beq	.L122
 1315 010a 52E0     		b	.L136
 1316              	.L130:
 1317 010c 026B     		ldr	r2, [r0, #48]
 1318 010e 3049     		ldr	r1, .L141+12
 1319 0110 9162     		str	r1, [r2, #40]
 1320 0112 026B     		ldr	r2, [r0, #48]
 1321 0114 2F49     		ldr	r1, .L141+16
 1322 0116 D162     		str	r1, [r2, #44]
 1323 0118 026B     		ldr	r2, [r0, #48]
 1324 011a 2C49     		ldr	r1, .L141+8
 1325 011c 1163     		str	r1, [r2, #48]
ARM GAS  /tmp/ccEnBWAK.s 			page 23


 1326 011e 0168     		ldr	r1, [r0]
 1327 0120 069A     		ldr	r2, [sp, #24]
 1328 0122 170A     		lsrs	r7, r2, #8
 1329 0124 006B     		ldr	r0, [r0, #48]
 1330 0126 4C31     		adds	r1, r1, #76
 1331 0128 1A46     		mov	r2, r3
 1332 012a 7B1C     		adds	r3, r7, #1
 1333 012c FFF7FEFF 		bl	HAL_DMA_Start_IT
 1334 0130 38B3     		cbz	r0, .L122
 1335 0132 40E0     		b	.L137
 1336              	.L128:
 1337 0134 426B     		ldr	r2, [r0, #52]
 1338 0136 2849     		ldr	r1, .L141+20
 1339 0138 9162     		str	r1, [r2, #40]
 1340 013a 426B     		ldr	r2, [r0, #52]
 1341 013c 2749     		ldr	r1, .L141+24
 1342 013e D162     		str	r1, [r2, #44]
 1343 0140 426B     		ldr	r2, [r0, #52]
 1344 0142 2249     		ldr	r1, .L141+8
 1345 0144 1163     		str	r1, [r2, #48]
 1346 0146 0168     		ldr	r1, [r0]
 1347 0148 069A     		ldr	r2, [sp, #24]
 1348 014a 170A     		lsrs	r7, r2, #8
 1349 014c 406B     		ldr	r0, [r0, #52]
 1350 014e 4C31     		adds	r1, r1, #76
 1351 0150 1A46     		mov	r2, r3
 1352 0152 7B1C     		adds	r3, r7, #1
 1353 0154 FFF7FEFF 		bl	HAL_DMA_Start_IT
 1354 0158 98B1     		cbz	r0, .L122
 1355 015a 2EE0     		b	.L138
 1356              	.L129:
 1357 015c 826B     		ldr	r2, [r0, #56]
 1358 015e 2049     		ldr	r1, .L141+28
 1359 0160 9162     		str	r1, [r2, #40]
 1360 0162 826B     		ldr	r2, [r0, #56]
 1361 0164 1F49     		ldr	r1, .L141+32
 1362 0166 D162     		str	r1, [r2, #44]
 1363 0168 826B     		ldr	r2, [r0, #56]
 1364 016a 1849     		ldr	r1, .L141+8
 1365 016c 1163     		str	r1, [r2, #48]
 1366 016e 0168     		ldr	r1, [r0]
 1367 0170 069A     		ldr	r2, [sp, #24]
 1368 0172 170A     		lsrs	r7, r2, #8
 1369 0174 806B     		ldr	r0, [r0, #56]
 1370 0176 4C31     		adds	r1, r1, #76
 1371 0178 1A46     		mov	r2, r3
 1372 017a 7B1C     		adds	r3, r7, #1
 1373 017c FFF7FEFF 		bl	HAL_DMA_Start_IT
 1374 0180 E8B9     		cbnz	r0, .L139
 1375              	.L122:
 1376 0182 2368     		ldr	r3, [r4]
 1377 0184 069A     		ldr	r2, [sp, #24]
 1378 0186 46EA0201 		orr	r1, r6, r2
 1379 018a 9964     		str	r1, [r3, #72]
 1380 018c 2368     		ldr	r3, [r4]
 1381 018e DA68     		ldr	r2, [r3, #12]
 1382 0190 2A43     		orrs	r2, r2, r5
ARM GAS  /tmp/ccEnBWAK.s 			page 24


 1383 0192 DA60     		str	r2, [r3, #12]
 1384 0194 0123     		movs	r3, #1
 1385 0196 84F83D30 		strb	r3, [r4, #61]
 1386 019a 0020     		movs	r0, #0
 1387 019c F8BD     		pop	{r3, r4, r5, r6, r7, pc}
 1388              	.L131:
 1389 019e 0220     		movs	r0, #2
 1390 01a0 F8BD     		pop	{r3, r4, r5, r6, r7, pc}
 1391              	.L132:
 1392 01a2 0120     		movs	r0, #1
 1393 01a4 F8BD     		pop	{r3, r4, r5, r6, r7, pc}
 1394              	.L133:
 1395 01a6 0120     		movs	r0, #1
 1396 01a8 F8BD     		pop	{r3, r4, r5, r6, r7, pc}
 1397              	.L134:
 1398 01aa 0120     		movs	r0, #1
 1399 01ac F8BD     		pop	{r3, r4, r5, r6, r7, pc}
 1400              	.L135:
 1401 01ae 0120     		movs	r0, #1
 1402 01b0 F8BD     		pop	{r3, r4, r5, r6, r7, pc}
 1403              	.L136:
 1404 01b2 0120     		movs	r0, #1
 1405 01b4 F8BD     		pop	{r3, r4, r5, r6, r7, pc}
 1406              	.L137:
 1407 01b6 0120     		movs	r0, #1
 1408 01b8 F8BD     		pop	{r3, r4, r5, r6, r7, pc}
 1409              	.L138:
 1410 01ba 0120     		movs	r0, #1
 1411 01bc F8BD     		pop	{r3, r4, r5, r6, r7, pc}
 1412              	.L139:
 1413 01be 0120     		movs	r0, #1
 1414 01c0 F8BD     		pop	{r3, r4, r5, r6, r7, pc}
 1415              	.L142:
 1416 01c2 00BF     		.align	2
 1417              	.L141:
 1418 01c4 00000000 		.word	TIM_DMAPeriodElapsedCplt
 1419 01c8 00000000 		.word	TIM_DMAPeriodElapsedHalfCplt
 1420 01cc 00000000 		.word	TIM_DMAError
 1421 01d0 00000000 		.word	TIM_DMACaptureCplt
 1422 01d4 00000000 		.word	TIM_DMACaptureHalfCplt
 1423 01d8 00000000 		.word	TIMEx_DMACommutationCplt
 1424 01dc 00000000 		.word	TIMEx_DMACommutationHalfCplt
 1425 01e0 00000000 		.word	TIM_DMATriggerCplt
 1426 01e4 00000000 		.word	TIM_DMATriggerHalfCplt
 1428              		.section	.text.HAL_TIM_DMABurst_ReadStop,"ax",%progbits
 1429              		.align	2
 1430              		.global	HAL_TIM_DMABurst_ReadStop
 1431              		.thumb
 1432              		.thumb_func
 1434              	HAL_TIM_DMABurst_ReadStop:
 1435              		@ args = 0, pretend = 0, frame = 0
 1436              		@ frame_needed = 0, uses_anonymous_args = 0
 1437 0000 38B5     		push	{r3, r4, r5, lr}
 1438 0002 0546     		mov	r5, r0
 1439 0004 0C46     		mov	r4, r1
 1440 0006 B1F5006F 		cmp	r1, #2048
 1441 000a 20D0     		beq	.L145
ARM GAS  /tmp/ccEnBWAK.s 			page 25


 1442 000c 09D8     		bhi	.L146
 1443 000e B1F5007F 		cmp	r1, #512
 1444 0012 14D0     		beq	.L147
 1445 0014 B1F5806F 		cmp	r1, #1024
 1446 0018 15D0     		beq	.L148
 1447 001a B1F5807F 		cmp	r1, #256
 1448 001e 26D1     		bne	.L154
 1449 0020 09E0     		b	.L149
 1450              	.L146:
 1451 0022 B1F5005F 		cmp	r1, #8192
 1452 0026 1AD0     		beq	.L150
 1453 0028 B1F5804F 		cmp	r1, #16384
 1454 002c 1BD0     		beq	.L151
 1455 002e B1F5805F 		cmp	r1, #4096
 1456 0032 1CD1     		bne	.L154
 1457 0034 0FE0     		b	.L152
 1458              	.L149:
 1459 0036 006A     		ldr	r0, [r0, #32]
 1460 0038 FFF7FEFF 		bl	HAL_DMA_Abort_IT
 1461 003c 18E0     		b	.L144
 1462              	.L147:
 1463 003e 406A     		ldr	r0, [r0, #36]
 1464 0040 FFF7FEFF 		bl	HAL_DMA_Abort_IT
 1465 0044 14E0     		b	.L144
 1466              	.L148:
 1467 0046 806A     		ldr	r0, [r0, #40]
 1468 0048 FFF7FEFF 		bl	HAL_DMA_Abort_IT
 1469 004c 10E0     		b	.L144
 1470              	.L145:
 1471 004e C06A     		ldr	r0, [r0, #44]
 1472 0050 FFF7FEFF 		bl	HAL_DMA_Abort_IT
 1473 0054 0CE0     		b	.L144
 1474              	.L152:
 1475 0056 006B     		ldr	r0, [r0, #48]
 1476 0058 FFF7FEFF 		bl	HAL_DMA_Abort_IT
 1477 005c 08E0     		b	.L144
 1478              	.L150:
 1479 005e 406B     		ldr	r0, [r0, #52]
 1480 0060 FFF7FEFF 		bl	HAL_DMA_Abort_IT
 1481 0064 04E0     		b	.L144
 1482              	.L151:
 1483 0066 806B     		ldr	r0, [r0, #56]
 1484 0068 FFF7FEFF 		bl	HAL_DMA_Abort_IT
 1485 006c 00E0     		b	.L144
 1486              	.L154:
 1487 006e 0020     		movs	r0, #0
 1488              	.L144:
 1489 0070 20B9     		cbnz	r0, .L153
 1490 0072 2A68     		ldr	r2, [r5]
 1491 0074 D368     		ldr	r3, [r2, #12]
 1492 0076 23EA0404 		bic	r4, r3, r4
 1493 007a D460     		str	r4, [r2, #12]
 1494              	.L153:
 1495 007c 38BD     		pop	{r3, r4, r5, pc}
 1497 007e 00BF     		.section	.text.HAL_TIM_GenerateEvent,"ax",%progbits
 1498              		.align	2
 1499              		.global	HAL_TIM_GenerateEvent
ARM GAS  /tmp/ccEnBWAK.s 			page 26


 1500              		.thumb
 1501              		.thumb_func
 1503              	HAL_TIM_GenerateEvent:
 1504              		@ args = 0, pretend = 0, frame = 0
 1505              		@ frame_needed = 0, uses_anonymous_args = 0
 1506              		@ link register save eliminated.
 1507 0000 90F83C30 		ldrb	r3, [r0, #60]	@ zero_extendqisi2
 1508 0004 012B     		cmp	r3, #1
 1509 0006 0CD0     		beq	.L158
 1510 0008 0223     		movs	r3, #2
 1511 000a 80F83D30 		strb	r3, [r0, #61]
 1512 000e 0368     		ldr	r3, [r0]
 1513 0010 5961     		str	r1, [r3, #20]
 1514 0012 0123     		movs	r3, #1
 1515 0014 80F83D30 		strb	r3, [r0, #61]
 1516 0018 0023     		movs	r3, #0
 1517 001a 80F83C30 		strb	r3, [r0, #60]
 1518 001e 1846     		mov	r0, r3
 1519 0020 7047     		bx	lr
 1520              	.L158:
 1521 0022 0220     		movs	r0, #2
 1522 0024 7047     		bx	lr
 1524 0026 00BF     		.section	.text.HAL_TIM_ConfigTI1Input,"ax",%progbits
 1525              		.align	2
 1526              		.global	HAL_TIM_ConfigTI1Input
 1527              		.thumb
 1528              		.thumb_func
 1530              	HAL_TIM_ConfigTI1Input:
 1531              		@ args = 0, pretend = 0, frame = 0
 1532              		@ frame_needed = 0, uses_anonymous_args = 0
 1533              		@ link register save eliminated.
 1534 0000 0268     		ldr	r2, [r0]
 1535 0002 5368     		ldr	r3, [r2, #4]
 1536 0004 23F08003 		bic	r3, r3, #128
 1537 0008 1943     		orrs	r1, r1, r3
 1538 000a 5160     		str	r1, [r2, #4]
 1539 000c 0020     		movs	r0, #0
 1540 000e 7047     		bx	lr
 1542              		.section	.text.HAL_TIM_ReadCapturedValue,"ax",%progbits
 1543              		.align	2
 1544              		.global	HAL_TIM_ReadCapturedValue
 1545              		.thumb
 1546              		.thumb_func
 1548              	HAL_TIM_ReadCapturedValue:
 1549              		@ args = 0, pretend = 0, frame = 0
 1550              		@ frame_needed = 0, uses_anonymous_args = 0
 1551              		@ link register save eliminated.
 1552 0000 0C29     		cmp	r1, #12
 1553 0002 14D8     		bhi	.L167
 1554 0004 DFE801F0 		tbb	[pc, r1]
 1555              	.L163:
 1556 0008 07       		.byte	(.L162-.L163)/2
 1557 0009 13       		.byte	(.L167-.L163)/2
 1558 000a 13       		.byte	(.L167-.L163)/2
 1559 000b 13       		.byte	(.L167-.L163)/2
 1560 000c 0A       		.byte	(.L164-.L163)/2
 1561 000d 13       		.byte	(.L167-.L163)/2
ARM GAS  /tmp/ccEnBWAK.s 			page 27


 1562 000e 13       		.byte	(.L167-.L163)/2
 1563 000f 13       		.byte	(.L167-.L163)/2
 1564 0010 0D       		.byte	(.L165-.L163)/2
 1565 0011 13       		.byte	(.L167-.L163)/2
 1566 0012 13       		.byte	(.L167-.L163)/2
 1567 0013 13       		.byte	(.L167-.L163)/2
 1568 0014 10       		.byte	(.L166-.L163)/2
 1569 0015 00       		.p2align 1
 1570              	.L162:
 1571 0016 0368     		ldr	r3, [r0]
 1572 0018 586B     		ldr	r0, [r3, #52]
 1573 001a 7047     		bx	lr
 1574              	.L164:
 1575 001c 0368     		ldr	r3, [r0]
 1576 001e 986B     		ldr	r0, [r3, #56]
 1577 0020 7047     		bx	lr
 1578              	.L165:
 1579 0022 0368     		ldr	r3, [r0]
 1580 0024 D86B     		ldr	r0, [r3, #60]
 1581 0026 7047     		bx	lr
 1582              	.L166:
 1583 0028 0368     		ldr	r3, [r0]
 1584 002a 186C     		ldr	r0, [r3, #64]
 1585 002c 7047     		bx	lr
 1586              	.L167:
 1587 002e 0020     		movs	r0, #0
 1588 0030 7047     		bx	lr
 1590 0032 00BF     		.section	.text.HAL_TIM_PeriodElapsedCallback,"ax",%progbits
 1591              		.align	2
 1592              		.weak	HAL_TIM_PeriodElapsedCallback
 1593              		.thumb
 1594              		.thumb_func
 1596              	HAL_TIM_PeriodElapsedCallback:
 1597              		@ args = 0, pretend = 0, frame = 0
 1598              		@ frame_needed = 0, uses_anonymous_args = 0
 1599              		@ link register save eliminated.
 1600 0000 7047     		bx	lr
 1602 0002 00BF     		.section	.text.TIM_DMAPeriodElapsedCplt,"ax",%progbits
 1603              		.align	2
 1604              		.thumb
 1605              		.thumb_func
 1607              	TIM_DMAPeriodElapsedCplt:
 1608              		@ args = 0, pretend = 0, frame = 0
 1609              		@ frame_needed = 0, uses_anonymous_args = 0
 1610 0000 08B5     		push	{r3, lr}
 1611 0002 406A     		ldr	r0, [r0, #36]
 1612 0004 0123     		movs	r3, #1
 1613 0006 80F83D30 		strb	r3, [r0, #61]
 1614 000a FFF7FEFF 		bl	HAL_TIM_PeriodElapsedCallback
 1615 000e 08BD     		pop	{r3, pc}
 1617              		.section	.text.HAL_TIM_PeriodElapsedHalfCpltCallback,"ax",%progbits
 1618              		.align	2
 1619              		.weak	HAL_TIM_PeriodElapsedHalfCpltCallback
 1620              		.thumb
 1621              		.thumb_func
 1623              	HAL_TIM_PeriodElapsedHalfCpltCallback:
 1624              		@ args = 0, pretend = 0, frame = 0
ARM GAS  /tmp/ccEnBWAK.s 			page 28


 1625              		@ frame_needed = 0, uses_anonymous_args = 0
 1626              		@ link register save eliminated.
 1627 0000 7047     		bx	lr
 1629 0002 00BF     		.section	.text.TIM_DMAPeriodElapsedHalfCplt,"ax",%progbits
 1630              		.align	2
 1631              		.thumb
 1632              		.thumb_func
 1634              	TIM_DMAPeriodElapsedHalfCplt:
 1635              		@ args = 0, pretend = 0, frame = 0
 1636              		@ frame_needed = 0, uses_anonymous_args = 0
 1637 0000 08B5     		push	{r3, lr}
 1638 0002 406A     		ldr	r0, [r0, #36]
 1639 0004 0123     		movs	r3, #1
 1640 0006 80F83D30 		strb	r3, [r0, #61]
 1641 000a FFF7FEFF 		bl	HAL_TIM_PeriodElapsedHalfCpltCallback
 1642 000e 08BD     		pop	{r3, pc}
 1644              		.section	.text.HAL_TIM_OC_DelayElapsedCallback,"ax",%progbits
 1645              		.align	2
 1646              		.weak	HAL_TIM_OC_DelayElapsedCallback
 1647              		.thumb
 1648              		.thumb_func
 1650              	HAL_TIM_OC_DelayElapsedCallback:
 1651              		@ args = 0, pretend = 0, frame = 0
 1652              		@ frame_needed = 0, uses_anonymous_args = 0
 1653              		@ link register save eliminated.
 1654 0000 7047     		bx	lr
 1656 0002 00BF     		.section	.text.HAL_TIM_IC_CaptureCallback,"ax",%progbits
 1657              		.align	2
 1658              		.weak	HAL_TIM_IC_CaptureCallback
 1659              		.thumb
 1660              		.thumb_func
 1662              	HAL_TIM_IC_CaptureCallback:
 1663              		@ args = 0, pretend = 0, frame = 0
 1664              		@ frame_needed = 0, uses_anonymous_args = 0
 1665              		@ link register save eliminated.
 1666 0000 7047     		bx	lr
 1668 0002 00BF     		.section	.text.TIM_DMACaptureCplt,"ax",%progbits
 1669              		.align	2
 1670              		.global	TIM_DMACaptureCplt
 1671              		.thumb
 1672              		.thumb_func
 1674              	TIM_DMACaptureCplt:
 1675              		@ args = 0, pretend = 0, frame = 0
 1676              		@ frame_needed = 0, uses_anonymous_args = 0
 1677 0000 10B5     		push	{r4, lr}
 1678 0002 446A     		ldr	r4, [r0, #36]
 1679 0004 0123     		movs	r3, #1
 1680 0006 84F83D30 		strb	r3, [r4, #61]
 1681 000a 636A     		ldr	r3, [r4, #36]
 1682 000c 8342     		cmp	r3, r0
 1683 000e 02D1     		bne	.L177
 1684 0010 0123     		movs	r3, #1
 1685 0012 2377     		strb	r3, [r4, #28]
 1686 0014 10E0     		b	.L178
 1687              	.L177:
 1688 0016 A36A     		ldr	r3, [r4, #40]
 1689 0018 8342     		cmp	r3, r0
ARM GAS  /tmp/ccEnBWAK.s 			page 29


 1690 001a 02D1     		bne	.L179
 1691 001c 0223     		movs	r3, #2
 1692 001e 2377     		strb	r3, [r4, #28]
 1693 0020 0AE0     		b	.L178
 1694              	.L179:
 1695 0022 E36A     		ldr	r3, [r4, #44]
 1696 0024 8342     		cmp	r3, r0
 1697 0026 02D1     		bne	.L180
 1698 0028 0423     		movs	r3, #4
 1699 002a 2377     		strb	r3, [r4, #28]
 1700 002c 04E0     		b	.L178
 1701              	.L180:
 1702 002e 236B     		ldr	r3, [r4, #48]
 1703 0030 8342     		cmp	r3, r0
 1704 0032 01D1     		bne	.L178
 1705 0034 0823     		movs	r3, #8
 1706 0036 2377     		strb	r3, [r4, #28]
 1707              	.L178:
 1708 0038 2046     		mov	r0, r4
 1709 003a FFF7FEFF 		bl	HAL_TIM_IC_CaptureCallback
 1710 003e 0023     		movs	r3, #0
 1711 0040 2377     		strb	r3, [r4, #28]
 1712 0042 10BD     		pop	{r4, pc}
 1714              		.section	.text.HAL_TIM_IC_CaptureHalfCpltCallback,"ax",%progbits
 1715              		.align	2
 1716              		.weak	HAL_TIM_IC_CaptureHalfCpltCallback
 1717              		.thumb
 1718              		.thumb_func
 1720              	HAL_TIM_IC_CaptureHalfCpltCallback:
 1721              		@ args = 0, pretend = 0, frame = 0
 1722              		@ frame_needed = 0, uses_anonymous_args = 0
 1723              		@ link register save eliminated.
 1724 0000 7047     		bx	lr
 1726 0002 00BF     		.section	.text.TIM_DMACaptureHalfCplt,"ax",%progbits
 1727              		.align	2
 1728              		.global	TIM_DMACaptureHalfCplt
 1729              		.thumb
 1730              		.thumb_func
 1732              	TIM_DMACaptureHalfCplt:
 1733              		@ args = 0, pretend = 0, frame = 0
 1734              		@ frame_needed = 0, uses_anonymous_args = 0
 1735 0000 10B5     		push	{r4, lr}
 1736 0002 446A     		ldr	r4, [r0, #36]
 1737 0004 0123     		movs	r3, #1
 1738 0006 84F83D30 		strb	r3, [r4, #61]
 1739 000a 636A     		ldr	r3, [r4, #36]
 1740 000c 8342     		cmp	r3, r0
 1741 000e 02D1     		bne	.L184
 1742 0010 0123     		movs	r3, #1
 1743 0012 2377     		strb	r3, [r4, #28]
 1744 0014 10E0     		b	.L185
 1745              	.L184:
 1746 0016 A36A     		ldr	r3, [r4, #40]
 1747 0018 8342     		cmp	r3, r0
 1748 001a 02D1     		bne	.L186
 1749 001c 0223     		movs	r3, #2
 1750 001e 2377     		strb	r3, [r4, #28]
ARM GAS  /tmp/ccEnBWAK.s 			page 30


 1751 0020 0AE0     		b	.L185
 1752              	.L186:
 1753 0022 E36A     		ldr	r3, [r4, #44]
 1754 0024 8342     		cmp	r3, r0
 1755 0026 02D1     		bne	.L187
 1756 0028 0423     		movs	r3, #4
 1757 002a 2377     		strb	r3, [r4, #28]
 1758 002c 04E0     		b	.L185
 1759              	.L187:
 1760 002e 236B     		ldr	r3, [r4, #48]
 1761 0030 8342     		cmp	r3, r0
 1762 0032 01D1     		bne	.L185
 1763 0034 0823     		movs	r3, #8
 1764 0036 2377     		strb	r3, [r4, #28]
 1765              	.L185:
 1766 0038 2046     		mov	r0, r4
 1767 003a FFF7FEFF 		bl	HAL_TIM_IC_CaptureHalfCpltCallback
 1768 003e 0023     		movs	r3, #0
 1769 0040 2377     		strb	r3, [r4, #28]
 1770 0042 10BD     		pop	{r4, pc}
 1772              		.section	.text.HAL_TIM_PWM_PulseFinishedCallback,"ax",%progbits
 1773              		.align	2
 1774              		.weak	HAL_TIM_PWM_PulseFinishedCallback
 1775              		.thumb
 1776              		.thumb_func
 1778              	HAL_TIM_PWM_PulseFinishedCallback:
 1779              		@ args = 0, pretend = 0, frame = 0
 1780              		@ frame_needed = 0, uses_anonymous_args = 0
 1781              		@ link register save eliminated.
 1782 0000 7047     		bx	lr
 1784 0002 00BF     		.section	.text.TIM_DMADelayPulseCplt,"ax",%progbits
 1785              		.align	2
 1786              		.global	TIM_DMADelayPulseCplt
 1787              		.thumb
 1788              		.thumb_func
 1790              	TIM_DMADelayPulseCplt:
 1791              		@ args = 0, pretend = 0, frame = 0
 1792              		@ frame_needed = 0, uses_anonymous_args = 0
 1793 0000 10B5     		push	{r4, lr}
 1794 0002 446A     		ldr	r4, [r0, #36]
 1795 0004 0123     		movs	r3, #1
 1796 0006 84F83D30 		strb	r3, [r4, #61]
 1797 000a 636A     		ldr	r3, [r4, #36]
 1798 000c 8342     		cmp	r3, r0
 1799 000e 02D1     		bne	.L191
 1800 0010 0123     		movs	r3, #1
 1801 0012 2377     		strb	r3, [r4, #28]
 1802 0014 10E0     		b	.L192
 1803              	.L191:
 1804 0016 A36A     		ldr	r3, [r4, #40]
 1805 0018 8342     		cmp	r3, r0
 1806 001a 02D1     		bne	.L193
 1807 001c 0223     		movs	r3, #2
 1808 001e 2377     		strb	r3, [r4, #28]
 1809 0020 0AE0     		b	.L192
 1810              	.L193:
 1811 0022 E36A     		ldr	r3, [r4, #44]
ARM GAS  /tmp/ccEnBWAK.s 			page 31


 1812 0024 8342     		cmp	r3, r0
 1813 0026 02D1     		bne	.L194
 1814 0028 0423     		movs	r3, #4
 1815 002a 2377     		strb	r3, [r4, #28]
 1816 002c 04E0     		b	.L192
 1817              	.L194:
 1818 002e 236B     		ldr	r3, [r4, #48]
 1819 0030 8342     		cmp	r3, r0
 1820 0032 01D1     		bne	.L192
 1821 0034 0823     		movs	r3, #8
 1822 0036 2377     		strb	r3, [r4, #28]
 1823              	.L192:
 1824 0038 2046     		mov	r0, r4
 1825 003a FFF7FEFF 		bl	HAL_TIM_PWM_PulseFinishedCallback
 1826 003e 0023     		movs	r3, #0
 1827 0040 2377     		strb	r3, [r4, #28]
 1828 0042 10BD     		pop	{r4, pc}
 1830              		.section	.text.HAL_TIM_PWM_PulseFinishedHalfCpltCallback,"ax",%progbits
 1831              		.align	2
 1832              		.weak	HAL_TIM_PWM_PulseFinishedHalfCpltCallback
 1833              		.thumb
 1834              		.thumb_func
 1836              	HAL_TIM_PWM_PulseFinishedHalfCpltCallback:
 1837              		@ args = 0, pretend = 0, frame = 0
 1838              		@ frame_needed = 0, uses_anonymous_args = 0
 1839              		@ link register save eliminated.
 1840 0000 7047     		bx	lr
 1842 0002 00BF     		.section	.text.TIM_DMADelayPulseHalfCplt,"ax",%progbits
 1843              		.align	2
 1844              		.global	TIM_DMADelayPulseHalfCplt
 1845              		.thumb
 1846              		.thumb_func
 1848              	TIM_DMADelayPulseHalfCplt:
 1849              		@ args = 0, pretend = 0, frame = 0
 1850              		@ frame_needed = 0, uses_anonymous_args = 0
 1851 0000 10B5     		push	{r4, lr}
 1852 0002 446A     		ldr	r4, [r0, #36]
 1853 0004 0123     		movs	r3, #1
 1854 0006 84F83D30 		strb	r3, [r4, #61]
 1855 000a 636A     		ldr	r3, [r4, #36]
 1856 000c 8342     		cmp	r3, r0
 1857 000e 02D1     		bne	.L198
 1858 0010 0123     		movs	r3, #1
 1859 0012 2377     		strb	r3, [r4, #28]
 1860 0014 10E0     		b	.L199
 1861              	.L198:
 1862 0016 A36A     		ldr	r3, [r4, #40]
 1863 0018 8342     		cmp	r3, r0
 1864 001a 02D1     		bne	.L200
 1865 001c 0223     		movs	r3, #2
 1866 001e 2377     		strb	r3, [r4, #28]
 1867 0020 0AE0     		b	.L199
 1868              	.L200:
 1869 0022 E36A     		ldr	r3, [r4, #44]
 1870 0024 8342     		cmp	r3, r0
 1871 0026 02D1     		bne	.L201
 1872 0028 0423     		movs	r3, #4
ARM GAS  /tmp/ccEnBWAK.s 			page 32


 1873 002a 2377     		strb	r3, [r4, #28]
 1874 002c 04E0     		b	.L199
 1875              	.L201:
 1876 002e 236B     		ldr	r3, [r4, #48]
 1877 0030 8342     		cmp	r3, r0
 1878 0032 01D1     		bne	.L199
 1879 0034 0823     		movs	r3, #8
 1880 0036 2377     		strb	r3, [r4, #28]
 1881              	.L199:
 1882 0038 2046     		mov	r0, r4
 1883 003a FFF7FEFF 		bl	HAL_TIM_PWM_PulseFinishedHalfCpltCallback
 1884 003e 0023     		movs	r3, #0
 1885 0040 2377     		strb	r3, [r4, #28]
 1886 0042 10BD     		pop	{r4, pc}
 1888              		.section	.text.HAL_TIM_TriggerCallback,"ax",%progbits
 1889              		.align	2
 1890              		.weak	HAL_TIM_TriggerCallback
 1891              		.thumb
 1892              		.thumb_func
 1894              	HAL_TIM_TriggerCallback:
 1895              		@ args = 0, pretend = 0, frame = 0
 1896              		@ frame_needed = 0, uses_anonymous_args = 0
 1897              		@ link register save eliminated.
 1898 0000 7047     		bx	lr
 1900 0002 00BF     		.section	.text.HAL_TIM_IRQHandler,"ax",%progbits
 1901              		.align	2
 1902              		.global	HAL_TIM_IRQHandler
 1903              		.thumb
 1904              		.thumb_func
 1906              	HAL_TIM_IRQHandler:
 1907              		@ args = 0, pretend = 0, frame = 0
 1908              		@ frame_needed = 0, uses_anonymous_args = 0
 1909 0000 10B5     		push	{r4, lr}
 1910 0002 0446     		mov	r4, r0
 1911 0004 0368     		ldr	r3, [r0]
 1912 0006 1A69     		ldr	r2, [r3, #16]
 1913 0008 12F0020F 		tst	r2, #2
 1914 000c 17D0     		beq	.L205
 1915 000e DA68     		ldr	r2, [r3, #12]
 1916 0010 12F0020F 		tst	r2, #2
 1917 0014 13D0     		beq	.L205
 1918 0016 6FF00202 		mvn	r2, #2
 1919 001a 1A61     		str	r2, [r3, #16]
 1920 001c 0123     		movs	r3, #1
 1921 001e 0377     		strb	r3, [r0, #28]
 1922 0020 0368     		ldr	r3, [r0]
 1923 0022 9B69     		ldr	r3, [r3, #24]
 1924 0024 13F0030F 		tst	r3, #3
 1925 0028 02D0     		beq	.L206
 1926 002a FFF7FEFF 		bl	HAL_TIM_IC_CaptureCallback
 1927 002e 04E0     		b	.L207
 1928              	.L206:
 1929 0030 FFF7FEFF 		bl	HAL_TIM_OC_DelayElapsedCallback
 1930 0034 2046     		mov	r0, r4
 1931 0036 FFF7FEFF 		bl	HAL_TIM_PWM_PulseFinishedCallback
 1932              	.L207:
 1933 003a 0023     		movs	r3, #0
ARM GAS  /tmp/ccEnBWAK.s 			page 33


 1934 003c 2377     		strb	r3, [r4, #28]
 1935              	.L205:
 1936 003e 2368     		ldr	r3, [r4]
 1937 0040 1A69     		ldr	r2, [r3, #16]
 1938 0042 12F0040F 		tst	r2, #4
 1939 0046 19D0     		beq	.L208
 1940 0048 DA68     		ldr	r2, [r3, #12]
 1941 004a 12F0040F 		tst	r2, #4
 1942 004e 15D0     		beq	.L208
 1943 0050 6FF00402 		mvn	r2, #4
 1944 0054 1A61     		str	r2, [r3, #16]
 1945 0056 0223     		movs	r3, #2
 1946 0058 2377     		strb	r3, [r4, #28]
 1947 005a 2368     		ldr	r3, [r4]
 1948 005c 9B69     		ldr	r3, [r3, #24]
 1949 005e 13F4407F 		tst	r3, #768
 1950 0062 03D0     		beq	.L209
 1951 0064 2046     		mov	r0, r4
 1952 0066 FFF7FEFF 		bl	HAL_TIM_IC_CaptureCallback
 1953 006a 05E0     		b	.L210
 1954              	.L209:
 1955 006c 2046     		mov	r0, r4
 1956 006e FFF7FEFF 		bl	HAL_TIM_OC_DelayElapsedCallback
 1957 0072 2046     		mov	r0, r4
 1958 0074 FFF7FEFF 		bl	HAL_TIM_PWM_PulseFinishedCallback
 1959              	.L210:
 1960 0078 0023     		movs	r3, #0
 1961 007a 2377     		strb	r3, [r4, #28]
 1962              	.L208:
 1963 007c 2368     		ldr	r3, [r4]
 1964 007e 1A69     		ldr	r2, [r3, #16]
 1965 0080 12F0080F 		tst	r2, #8
 1966 0084 19D0     		beq	.L211
 1967 0086 DA68     		ldr	r2, [r3, #12]
 1968 0088 12F0080F 		tst	r2, #8
 1969 008c 15D0     		beq	.L211
 1970 008e 6FF00802 		mvn	r2, #8
 1971 0092 1A61     		str	r2, [r3, #16]
 1972 0094 0423     		movs	r3, #4
 1973 0096 2377     		strb	r3, [r4, #28]
 1974 0098 2368     		ldr	r3, [r4]
 1975 009a DB69     		ldr	r3, [r3, #28]
 1976 009c 13F0030F 		tst	r3, #3
 1977 00a0 03D0     		beq	.L212
 1978 00a2 2046     		mov	r0, r4
 1979 00a4 FFF7FEFF 		bl	HAL_TIM_IC_CaptureCallback
 1980 00a8 05E0     		b	.L213
 1981              	.L212:
 1982 00aa 2046     		mov	r0, r4
 1983 00ac FFF7FEFF 		bl	HAL_TIM_OC_DelayElapsedCallback
 1984 00b0 2046     		mov	r0, r4
 1985 00b2 FFF7FEFF 		bl	HAL_TIM_PWM_PulseFinishedCallback
 1986              	.L213:
 1987 00b6 0023     		movs	r3, #0
 1988 00b8 2377     		strb	r3, [r4, #28]
 1989              	.L211:
 1990 00ba 2368     		ldr	r3, [r4]
ARM GAS  /tmp/ccEnBWAK.s 			page 34


 1991 00bc 1A69     		ldr	r2, [r3, #16]
 1992 00be 12F0100F 		tst	r2, #16
 1993 00c2 19D0     		beq	.L214
 1994 00c4 DA68     		ldr	r2, [r3, #12]
 1995 00c6 12F0100F 		tst	r2, #16
 1996 00ca 15D0     		beq	.L214
 1997 00cc 6FF01002 		mvn	r2, #16
 1998 00d0 1A61     		str	r2, [r3, #16]
 1999 00d2 0823     		movs	r3, #8
 2000 00d4 2377     		strb	r3, [r4, #28]
 2001 00d6 2368     		ldr	r3, [r4]
 2002 00d8 DB69     		ldr	r3, [r3, #28]
 2003 00da 13F4407F 		tst	r3, #768
 2004 00de 03D0     		beq	.L215
 2005 00e0 2046     		mov	r0, r4
 2006 00e2 FFF7FEFF 		bl	HAL_TIM_IC_CaptureCallback
 2007 00e6 05E0     		b	.L216
 2008              	.L215:
 2009 00e8 2046     		mov	r0, r4
 2010 00ea FFF7FEFF 		bl	HAL_TIM_OC_DelayElapsedCallback
 2011 00ee 2046     		mov	r0, r4
 2012 00f0 FFF7FEFF 		bl	HAL_TIM_PWM_PulseFinishedCallback
 2013              	.L216:
 2014 00f4 0023     		movs	r3, #0
 2015 00f6 2377     		strb	r3, [r4, #28]
 2016              	.L214:
 2017 00f8 2368     		ldr	r3, [r4]
 2018 00fa 1A69     		ldr	r2, [r3, #16]
 2019 00fc 12F0010F 		tst	r2, #1
 2020 0100 09D0     		beq	.L217
 2021 0102 DA68     		ldr	r2, [r3, #12]
 2022 0104 12F0010F 		tst	r2, #1
 2023 0108 05D0     		beq	.L217
 2024 010a 6FF00102 		mvn	r2, #1
 2025 010e 1A61     		str	r2, [r3, #16]
 2026 0110 2046     		mov	r0, r4
 2027 0112 FFF7FEFF 		bl	HAL_TIM_PeriodElapsedCallback
 2028              	.L217:
 2029 0116 2368     		ldr	r3, [r4]
 2030 0118 1A69     		ldr	r2, [r3, #16]
 2031 011a 12F0800F 		tst	r2, #128
 2032 011e 09D0     		beq	.L218
 2033 0120 DA68     		ldr	r2, [r3, #12]
 2034 0122 12F0800F 		tst	r2, #128
 2035 0126 05D0     		beq	.L218
 2036 0128 6FF08002 		mvn	r2, #128
 2037 012c 1A61     		str	r2, [r3, #16]
 2038 012e 2046     		mov	r0, r4
 2039 0130 FFF7FEFF 		bl	HAL_TIMEx_BreakCallback
 2040              	.L218:
 2041 0134 2368     		ldr	r3, [r4]
 2042 0136 1A69     		ldr	r2, [r3, #16]
 2043 0138 12F0400F 		tst	r2, #64
 2044 013c 09D0     		beq	.L219
 2045 013e DA68     		ldr	r2, [r3, #12]
 2046 0140 12F0400F 		tst	r2, #64
 2047 0144 05D0     		beq	.L219
ARM GAS  /tmp/ccEnBWAK.s 			page 35


 2048 0146 6FF04002 		mvn	r2, #64
 2049 014a 1A61     		str	r2, [r3, #16]
 2050 014c 2046     		mov	r0, r4
 2051 014e FFF7FEFF 		bl	HAL_TIM_TriggerCallback
 2052              	.L219:
 2053 0152 2368     		ldr	r3, [r4]
 2054 0154 1A69     		ldr	r2, [r3, #16]
 2055 0156 12F0200F 		tst	r2, #32
 2056 015a 09D0     		beq	.L204
 2057 015c DA68     		ldr	r2, [r3, #12]
 2058 015e 12F0200F 		tst	r2, #32
 2059 0162 05D0     		beq	.L204
 2060 0164 6FF02002 		mvn	r2, #32
 2061 0168 1A61     		str	r2, [r3, #16]
 2062 016a 2046     		mov	r0, r4
 2063 016c FFF7FEFF 		bl	HAL_TIMEx_CommutCallback
 2064              	.L204:
 2065 0170 10BD     		pop	{r4, pc}
 2067 0172 00BF     		.section	.text.TIM_DMATriggerCplt,"ax",%progbits
 2068              		.align	2
 2069              		.thumb
 2070              		.thumb_func
 2072              	TIM_DMATriggerCplt:
 2073              		@ args = 0, pretend = 0, frame = 0
 2074              		@ frame_needed = 0, uses_anonymous_args = 0
 2075 0000 08B5     		push	{r3, lr}
 2076 0002 406A     		ldr	r0, [r0, #36]
 2077 0004 0123     		movs	r3, #1
 2078 0006 80F83D30 		strb	r3, [r0, #61]
 2079 000a FFF7FEFF 		bl	HAL_TIM_TriggerCallback
 2080 000e 08BD     		pop	{r3, pc}
 2082              		.section	.text.HAL_TIM_TriggerHalfCpltCallback,"ax",%progbits
 2083              		.align	2
 2084              		.weak	HAL_TIM_TriggerHalfCpltCallback
 2085              		.thumb
 2086              		.thumb_func
 2088              	HAL_TIM_TriggerHalfCpltCallback:
 2089              		@ args = 0, pretend = 0, frame = 0
 2090              		@ frame_needed = 0, uses_anonymous_args = 0
 2091              		@ link register save eliminated.
 2092 0000 7047     		bx	lr
 2094 0002 00BF     		.section	.text.TIM_DMATriggerHalfCplt,"ax",%progbits
 2095              		.align	2
 2096              		.thumb
 2097              		.thumb_func
 2099              	TIM_DMATriggerHalfCplt:
 2100              		@ args = 0, pretend = 0, frame = 0
 2101              		@ frame_needed = 0, uses_anonymous_args = 0
 2102 0000 08B5     		push	{r3, lr}
 2103 0002 406A     		ldr	r0, [r0, #36]
 2104 0004 0123     		movs	r3, #1
 2105 0006 80F83D30 		strb	r3, [r0, #61]
 2106 000a FFF7FEFF 		bl	HAL_TIM_TriggerHalfCpltCallback
 2107 000e 08BD     		pop	{r3, pc}
 2109              		.section	.text.HAL_TIM_ErrorCallback,"ax",%progbits
 2110              		.align	2
 2111              		.weak	HAL_TIM_ErrorCallback
ARM GAS  /tmp/ccEnBWAK.s 			page 36


 2112              		.thumb
 2113              		.thumb_func
 2115              	HAL_TIM_ErrorCallback:
 2116              		@ args = 0, pretend = 0, frame = 0
 2117              		@ frame_needed = 0, uses_anonymous_args = 0
 2118              		@ link register save eliminated.
 2119 0000 7047     		bx	lr
 2121 0002 00BF     		.section	.text.TIM_DMAError,"ax",%progbits
 2122              		.align	2
 2123              		.global	TIM_DMAError
 2124              		.thumb
 2125              		.thumb_func
 2127              	TIM_DMAError:
 2128              		@ args = 0, pretend = 0, frame = 0
 2129              		@ frame_needed = 0, uses_anonymous_args = 0
 2130 0000 08B5     		push	{r3, lr}
 2131 0002 406A     		ldr	r0, [r0, #36]
 2132 0004 0123     		movs	r3, #1
 2133 0006 80F83D30 		strb	r3, [r0, #61]
 2134 000a FFF7FEFF 		bl	HAL_TIM_ErrorCallback
 2135 000e 08BD     		pop	{r3, pc}
 2137              		.section	.text.HAL_TIM_Base_GetState,"ax",%progbits
 2138              		.align	2
 2139              		.global	HAL_TIM_Base_GetState
 2140              		.thumb
 2141              		.thumb_func
 2143              	HAL_TIM_Base_GetState:
 2144              		@ args = 0, pretend = 0, frame = 0
 2145              		@ frame_needed = 0, uses_anonymous_args = 0
 2146              		@ link register save eliminated.
 2147 0000 90F83D00 		ldrb	r0, [r0, #61]	@ zero_extendqisi2
 2148 0004 7047     		bx	lr
 2150 0006 00BF     		.section	.text.HAL_TIM_OC_GetState,"ax",%progbits
 2151              		.align	2
 2152              		.global	HAL_TIM_OC_GetState
 2153              		.thumb
 2154              		.thumb_func
 2156              	HAL_TIM_OC_GetState:
 2157              		@ args = 0, pretend = 0, frame = 0
 2158              		@ frame_needed = 0, uses_anonymous_args = 0
 2159              		@ link register save eliminated.
 2160 0000 90F83D00 		ldrb	r0, [r0, #61]	@ zero_extendqisi2
 2161 0004 7047     		bx	lr
 2163 0006 00BF     		.section	.text.HAL_TIM_PWM_GetState,"ax",%progbits
 2164              		.align	2
 2165              		.global	HAL_TIM_PWM_GetState
 2166              		.thumb
 2167              		.thumb_func
 2169              	HAL_TIM_PWM_GetState:
 2170              		@ args = 0, pretend = 0, frame = 0
 2171              		@ frame_needed = 0, uses_anonymous_args = 0
 2172              		@ link register save eliminated.
 2173 0000 90F83D00 		ldrb	r0, [r0, #61]	@ zero_extendqisi2
 2174 0004 7047     		bx	lr
 2176 0006 00BF     		.section	.text.HAL_TIM_IC_GetState,"ax",%progbits
 2177              		.align	2
 2178              		.global	HAL_TIM_IC_GetState
ARM GAS  /tmp/ccEnBWAK.s 			page 37


 2179              		.thumb
 2180              		.thumb_func
 2182              	HAL_TIM_IC_GetState:
 2183              		@ args = 0, pretend = 0, frame = 0
 2184              		@ frame_needed = 0, uses_anonymous_args = 0
 2185              		@ link register save eliminated.
 2186 0000 90F83D00 		ldrb	r0, [r0, #61]	@ zero_extendqisi2
 2187 0004 7047     		bx	lr
 2189 0006 00BF     		.section	.text.HAL_TIM_OnePulse_GetState,"ax",%progbits
 2190              		.align	2
 2191              		.global	HAL_TIM_OnePulse_GetState
 2192              		.thumb
 2193              		.thumb_func
 2195              	HAL_TIM_OnePulse_GetState:
 2196              		@ args = 0, pretend = 0, frame = 0
 2197              		@ frame_needed = 0, uses_anonymous_args = 0
 2198              		@ link register save eliminated.
 2199 0000 90F83D00 		ldrb	r0, [r0, #61]	@ zero_extendqisi2
 2200 0004 7047     		bx	lr
 2202 0006 00BF     		.section	.text.HAL_TIM_Encoder_GetState,"ax",%progbits
 2203              		.align	2
 2204              		.global	HAL_TIM_Encoder_GetState
 2205              		.thumb
 2206              		.thumb_func
 2208              	HAL_TIM_Encoder_GetState:
 2209              		@ args = 0, pretend = 0, frame = 0
 2210              		@ frame_needed = 0, uses_anonymous_args = 0
 2211              		@ link register save eliminated.
 2212 0000 90F83D00 		ldrb	r0, [r0, #61]	@ zero_extendqisi2
 2213 0004 7047     		bx	lr
 2215 0006 00BF     		.section	.text.TIM_Base_SetConfig,"ax",%progbits
 2216              		.align	2
 2217              		.global	TIM_Base_SetConfig
 2218              		.thumb
 2219              		.thumb_func
 2221              	TIM_Base_SetConfig:
 2222              		@ args = 0, pretend = 0, frame = 0
 2223              		@ frame_needed = 0, uses_anonymous_args = 0
 2224              		@ link register save eliminated.
 2225 0000 0368     		ldr	r3, [r0]
 2226 0002 164A     		ldr	r2, .L242
 2227 0004 9042     		cmp	r0, r2
 2228 0006 06D0     		beq	.L237
 2229 0008 B0F1804F 		cmp	r0, #1073741824
 2230 000c 03D0     		beq	.L237
 2231 000e A2F59432 		sub	r2, r2, #75776
 2232 0012 9042     		cmp	r0, r2
 2233 0014 03D1     		bne	.L238
 2234              	.L237:
 2235 0016 23F07003 		bic	r3, r3, #112
 2236 001a 4A68     		ldr	r2, [r1, #4]
 2237 001c 1343     		orrs	r3, r3, r2
 2238              	.L238:
 2239 001e 0F4A     		ldr	r2, .L242
 2240 0020 9042     		cmp	r0, r2
 2241 0022 06D0     		beq	.L239
 2242 0024 B0F1804F 		cmp	r0, #1073741824
ARM GAS  /tmp/ccEnBWAK.s 			page 38


 2243 0028 03D0     		beq	.L239
 2244 002a A2F59432 		sub	r2, r2, #75776
 2245 002e 9042     		cmp	r0, r2
 2246 0030 03D1     		bne	.L240
 2247              	.L239:
 2248 0032 23F44073 		bic	r3, r3, #768
 2249 0036 CA68     		ldr	r2, [r1, #12]
 2250 0038 1343     		orrs	r3, r3, r2
 2251              	.L240:
 2252 003a 23F08003 		bic	r3, r3, #128
 2253 003e 4A69     		ldr	r2, [r1, #20]
 2254 0040 1343     		orrs	r3, r3, r2
 2255 0042 0360     		str	r3, [r0]
 2256 0044 8B68     		ldr	r3, [r1, #8]
 2257 0046 C362     		str	r3, [r0, #44]
 2258 0048 0B68     		ldr	r3, [r1]
 2259 004a 8362     		str	r3, [r0, #40]
 2260 004c 034B     		ldr	r3, .L242
 2261 004e 9842     		cmp	r0, r3
 2262 0050 01D1     		bne	.L241
 2263 0052 0B69     		ldr	r3, [r1, #16]
 2264 0054 0363     		str	r3, [r0, #48]
 2265              	.L241:
 2266 0056 0123     		movs	r3, #1
 2267 0058 4361     		str	r3, [r0, #20]
 2268 005a 7047     		bx	lr
 2269              	.L243:
 2270              		.align	2
 2271              	.L242:
 2272 005c 002C0140 		.word	1073818624
 2274              		.section	.text.HAL_TIM_Base_Init,"ax",%progbits
 2275              		.align	2
 2276              		.global	HAL_TIM_Base_Init
 2277              		.thumb
 2278              		.thumb_func
 2280              	HAL_TIM_Base_Init:
 2281              		@ args = 0, pretend = 0, frame = 0
 2282              		@ frame_needed = 0, uses_anonymous_args = 0
 2283 0000 C0B1     		cbz	r0, .L247
 2284 0002 10B5     		push	{r4, lr}
 2285 0004 0446     		mov	r4, r0
 2286 0006 90F83D30 		ldrb	r3, [r0, #61]	@ zero_extendqisi2
 2287 000a 13F0FF0F 		tst	r3, #255
 2288 000e 04D1     		bne	.L246
 2289 0010 0023     		movs	r3, #0
 2290 0012 80F83C30 		strb	r3, [r0, #60]
 2291 0016 FFF7FEFF 		bl	HAL_TIM_Base_MspInit
 2292              	.L246:
 2293 001a 0223     		movs	r3, #2
 2294 001c 84F83D30 		strb	r3, [r4, #61]
 2295 0020 2146     		mov	r1, r4
 2296 0022 51F8040B 		ldr	r0, [r1], #4
 2297 0026 FFF7FEFF 		bl	TIM_Base_SetConfig
 2298 002a 0123     		movs	r3, #1
 2299 002c 84F83D30 		strb	r3, [r4, #61]
 2300 0030 0020     		movs	r0, #0
 2301 0032 10BD     		pop	{r4, pc}
ARM GAS  /tmp/ccEnBWAK.s 			page 39


 2302              	.L247:
 2303 0034 0120     		movs	r0, #1
 2304 0036 7047     		bx	lr
 2306              		.section	.text.HAL_TIM_OC_Init,"ax",%progbits
 2307              		.align	2
 2308              		.global	HAL_TIM_OC_Init
 2309              		.thumb
 2310              		.thumb_func
 2312              	HAL_TIM_OC_Init:
 2313              		@ args = 0, pretend = 0, frame = 0
 2314              		@ frame_needed = 0, uses_anonymous_args = 0
 2315 0000 C0B1     		cbz	r0, .L253
 2316 0002 10B5     		push	{r4, lr}
 2317 0004 0446     		mov	r4, r0
 2318 0006 90F83D30 		ldrb	r3, [r0, #61]	@ zero_extendqisi2
 2319 000a 13F0FF0F 		tst	r3, #255
 2320 000e 04D1     		bne	.L252
 2321 0010 0023     		movs	r3, #0
 2322 0012 80F83C30 		strb	r3, [r0, #60]
 2323 0016 FFF7FEFF 		bl	HAL_TIM_OC_MspInit
 2324              	.L252:
 2325 001a 0223     		movs	r3, #2
 2326 001c 84F83D30 		strb	r3, [r4, #61]
 2327 0020 2146     		mov	r1, r4
 2328 0022 51F8040B 		ldr	r0, [r1], #4
 2329 0026 FFF7FEFF 		bl	TIM_Base_SetConfig
 2330 002a 0123     		movs	r3, #1
 2331 002c 84F83D30 		strb	r3, [r4, #61]
 2332 0030 0020     		movs	r0, #0
 2333 0032 10BD     		pop	{r4, pc}
 2334              	.L253:
 2335 0034 0120     		movs	r0, #1
 2336 0036 7047     		bx	lr
 2338              		.section	.text.HAL_TIM_PWM_Init,"ax",%progbits
 2339              		.align	2
 2340              		.global	HAL_TIM_PWM_Init
 2341              		.thumb
 2342              		.thumb_func
 2344              	HAL_TIM_PWM_Init:
 2345              		@ args = 0, pretend = 0, frame = 0
 2346              		@ frame_needed = 0, uses_anonymous_args = 0
 2347 0000 C0B1     		cbz	r0, .L259
 2348 0002 10B5     		push	{r4, lr}
 2349 0004 0446     		mov	r4, r0
 2350 0006 90F83D30 		ldrb	r3, [r0, #61]	@ zero_extendqisi2
 2351 000a 13F0FF0F 		tst	r3, #255
 2352 000e 04D1     		bne	.L258
 2353 0010 0023     		movs	r3, #0
 2354 0012 80F83C30 		strb	r3, [r0, #60]
 2355 0016 FFF7FEFF 		bl	HAL_TIM_PWM_MspInit
 2356              	.L258:
 2357 001a 0223     		movs	r3, #2
 2358 001c 84F83D30 		strb	r3, [r4, #61]
 2359 0020 2146     		mov	r1, r4
 2360 0022 51F8040B 		ldr	r0, [r1], #4
 2361 0026 FFF7FEFF 		bl	TIM_Base_SetConfig
 2362 002a 0123     		movs	r3, #1
ARM GAS  /tmp/ccEnBWAK.s 			page 40


 2363 002c 84F83D30 		strb	r3, [r4, #61]
 2364 0030 0020     		movs	r0, #0
 2365 0032 10BD     		pop	{r4, pc}
 2366              	.L259:
 2367 0034 0120     		movs	r0, #1
 2368 0036 7047     		bx	lr
 2370              		.section	.text.HAL_TIM_IC_Init,"ax",%progbits
 2371              		.align	2
 2372              		.global	HAL_TIM_IC_Init
 2373              		.thumb
 2374              		.thumb_func
 2376              	HAL_TIM_IC_Init:
 2377              		@ args = 0, pretend = 0, frame = 0
 2378              		@ frame_needed = 0, uses_anonymous_args = 0
 2379 0000 C0B1     		cbz	r0, .L265
 2380 0002 10B5     		push	{r4, lr}
 2381 0004 0446     		mov	r4, r0
 2382 0006 90F83D30 		ldrb	r3, [r0, #61]	@ zero_extendqisi2
 2383 000a 13F0FF0F 		tst	r3, #255
 2384 000e 04D1     		bne	.L264
 2385 0010 0023     		movs	r3, #0
 2386 0012 80F83C30 		strb	r3, [r0, #60]
 2387 0016 FFF7FEFF 		bl	HAL_TIM_IC_MspInit
 2388              	.L264:
 2389 001a 0223     		movs	r3, #2
 2390 001c 84F83D30 		strb	r3, [r4, #61]
 2391 0020 2146     		mov	r1, r4
 2392 0022 51F8040B 		ldr	r0, [r1], #4
 2393 0026 FFF7FEFF 		bl	TIM_Base_SetConfig
 2394 002a 0123     		movs	r3, #1
 2395 002c 84F83D30 		strb	r3, [r4, #61]
 2396 0030 0020     		movs	r0, #0
 2397 0032 10BD     		pop	{r4, pc}
 2398              	.L265:
 2399 0034 0120     		movs	r0, #1
 2400 0036 7047     		bx	lr
 2402              		.section	.text.HAL_TIM_OnePulse_Init,"ax",%progbits
 2403              		.align	2
 2404              		.global	HAL_TIM_OnePulse_Init
 2405              		.thumb
 2406              		.thumb_func
 2408              	HAL_TIM_OnePulse_Init:
 2409              		@ args = 0, pretend = 0, frame = 0
 2410              		@ frame_needed = 0, uses_anonymous_args = 0
 2411 0000 10B3     		cbz	r0, .L271
 2412 0002 38B5     		push	{r3, r4, r5, lr}
 2413 0004 0446     		mov	r4, r0
 2414 0006 0D46     		mov	r5, r1
 2415 0008 90F83D30 		ldrb	r3, [r0, #61]	@ zero_extendqisi2
 2416 000c 13F0FF0F 		tst	r3, #255
 2417 0010 04D1     		bne	.L270
 2418 0012 0023     		movs	r3, #0
 2419 0014 80F83C30 		strb	r3, [r0, #60]
 2420 0018 FFF7FEFF 		bl	HAL_TIM_OnePulse_MspInit
 2421              	.L270:
 2422 001c 0223     		movs	r3, #2
 2423 001e 84F83D30 		strb	r3, [r4, #61]
ARM GAS  /tmp/ccEnBWAK.s 			page 41


 2424 0022 2146     		mov	r1, r4
 2425 0024 51F8040B 		ldr	r0, [r1], #4
 2426 0028 FFF7FEFF 		bl	TIM_Base_SetConfig
 2427 002c 2268     		ldr	r2, [r4]
 2428 002e 1368     		ldr	r3, [r2]
 2429 0030 23F00803 		bic	r3, r3, #8
 2430 0034 1360     		str	r3, [r2]
 2431 0036 2368     		ldr	r3, [r4]
 2432 0038 1968     		ldr	r1, [r3]
 2433 003a 2943     		orrs	r1, r1, r5
 2434 003c 1960     		str	r1, [r3]
 2435 003e 0123     		movs	r3, #1
 2436 0040 84F83D30 		strb	r3, [r4, #61]
 2437 0044 0020     		movs	r0, #0
 2438 0046 38BD     		pop	{r3, r4, r5, pc}
 2439              	.L271:
 2440 0048 0120     		movs	r0, #1
 2441 004a 7047     		bx	lr
 2443              		.section	.text.HAL_TIM_Encoder_Init,"ax",%progbits
 2444              		.align	2
 2445              		.global	HAL_TIM_Encoder_Init
 2446              		.thumb
 2447              		.thumb_func
 2449              	HAL_TIM_Encoder_Init:
 2450              		@ args = 0, pretend = 0, frame = 0
 2451              		@ frame_needed = 0, uses_anonymous_args = 0
 2452 0000 0028     		cmp	r0, #0
 2453 0002 4AD0     		beq	.L277
 2454 0004 F8B5     		push	{r3, r4, r5, r6, r7, lr}
 2455 0006 0546     		mov	r5, r0
 2456 0008 0C46     		mov	r4, r1
 2457 000a 90F83D30 		ldrb	r3, [r0, #61]	@ zero_extendqisi2
 2458 000e 13F0FF0F 		tst	r3, #255
 2459 0012 04D1     		bne	.L276
 2460 0014 0023     		movs	r3, #0
 2461 0016 80F83C30 		strb	r3, [r0, #60]
 2462 001a FFF7FEFF 		bl	HAL_TIM_Encoder_MspInit
 2463              	.L276:
 2464 001e 0223     		movs	r3, #2
 2465 0020 85F83D30 		strb	r3, [r5, #61]
 2466 0024 2A68     		ldr	r2, [r5]
 2467 0026 9368     		ldr	r3, [r2, #8]
 2468 0028 23F48043 		bic	r3, r3, #16384
 2469 002c 23F00703 		bic	r3, r3, #7
 2470 0030 9360     		str	r3, [r2, #8]
 2471 0032 2946     		mov	r1, r5
 2472 0034 51F8040B 		ldr	r0, [r1], #4
 2473 0038 FFF7FEFF 		bl	TIM_Base_SetConfig
 2474 003c 2868     		ldr	r0, [r5]
 2475 003e 8368     		ldr	r3, [r0, #8]
 2476 0040 8269     		ldr	r2, [r0, #24]
 2477 0042 016A     		ldr	r1, [r0, #32]
 2478 0044 2668     		ldr	r6, [r4]
 2479 0046 1E43     		orrs	r6, r6, r3
 2480 0048 22F44072 		bic	r2, r2, #768
 2481 004c 22F00302 		bic	r2, r2, #3
 2482 0050 A368     		ldr	r3, [r4, #8]
ARM GAS  /tmp/ccEnBWAK.s 			page 42


 2483 0052 A769     		ldr	r7, [r4, #24]
 2484 0054 43EA0723 		orr	r3, r3, r7, lsl #8
 2485 0058 1343     		orrs	r3, r3, r2
 2486 005a 23F47C43 		bic	r3, r3, #64512
 2487 005e 23F0FC03 		bic	r3, r3, #252
 2488 0062 E268     		ldr	r2, [r4, #12]
 2489 0064 E769     		ldr	r7, [r4, #28]
 2490 0066 42EA0722 		orr	r2, r2, r7, lsl #8
 2491 006a 1343     		orrs	r3, r3, r2
 2492 006c 2769     		ldr	r7, [r4, #16]
 2493 006e 226A     		ldr	r2, [r4, #32]
 2494 0070 1203     		lsls	r2, r2, #12
 2495 0072 42EA0712 		orr	r2, r2, r7, lsl #4
 2496 0076 1343     		orrs	r3, r3, r2
 2497 0078 21F02201 		bic	r1, r1, #34
 2498 007c 6268     		ldr	r2, [r4, #4]
 2499 007e 6469     		ldr	r4, [r4, #20]
 2500 0080 42EA0412 		orr	r2, r2, r4, lsl #4
 2501 0084 0A43     		orrs	r2, r2, r1
 2502 0086 8660     		str	r6, [r0, #8]
 2503 0088 2968     		ldr	r1, [r5]
 2504 008a 8B61     		str	r3, [r1, #24]
 2505 008c 2B68     		ldr	r3, [r5]
 2506 008e 1A62     		str	r2, [r3, #32]
 2507 0090 0123     		movs	r3, #1
 2508 0092 85F83D30 		strb	r3, [r5, #61]
 2509 0096 0020     		movs	r0, #0
 2510 0098 F8BD     		pop	{r3, r4, r5, r6, r7, pc}
 2511              	.L277:
 2512 009a 0120     		movs	r0, #1
 2513 009c 7047     		bx	lr
 2515 009e 00BF     		.section	.text.TIM_OC2_SetConfig,"ax",%progbits
 2516              		.align	2
 2517              		.global	TIM_OC2_SetConfig
 2518              		.thumb
 2519              		.thumb_func
 2521              	TIM_OC2_SetConfig:
 2522              		@ args = 0, pretend = 0, frame = 0
 2523              		@ frame_needed = 0, uses_anonymous_args = 0
 2524              		@ link register save eliminated.
 2525 0000 30B4     		push	{r4, r5}
 2526 0002 036A     		ldr	r3, [r0, #32]
 2527 0004 23F01003 		bic	r3, r3, #16
 2528 0008 0362     		str	r3, [r0, #32]
 2529 000a 036A     		ldr	r3, [r0, #32]
 2530 000c 4468     		ldr	r4, [r0, #4]
 2531 000e 8269     		ldr	r2, [r0, #24]
 2532 0010 22F4E642 		bic	r2, r2, #29440
 2533 0014 0D68     		ldr	r5, [r1]
 2534 0016 42EA0522 		orr	r2, r2, r5, lsl #8
 2535 001a 23F02003 		bic	r3, r3, #32
 2536 001e 8D68     		ldr	r5, [r1, #8]
 2537 0020 43EA0513 		orr	r3, r3, r5, lsl #4
 2538 0024 0D4D     		ldr	r5, .L284
 2539 0026 A842     		cmp	r0, r5
 2540 0028 06D1     		bne	.L281
 2541 002a 23F08003 		bic	r3, r3, #128
ARM GAS  /tmp/ccEnBWAK.s 			page 43


 2542 002e CD68     		ldr	r5, [r1, #12]
 2543 0030 43EA0513 		orr	r3, r3, r5, lsl #4
 2544 0034 23F04003 		bic	r3, r3, #64
 2545              	.L281:
 2546 0038 084D     		ldr	r5, .L284
 2547 003a A842     		cmp	r0, r5
 2548 003c 07D1     		bne	.L282
 2549 003e 24F44064 		bic	r4, r4, #3072
 2550 0042 4D69     		ldr	r5, [r1, #20]
 2551 0044 44EA8504 		orr	r4, r4, r5, lsl #2
 2552 0048 8D69     		ldr	r5, [r1, #24]
 2553 004a 44EA8504 		orr	r4, r4, r5, lsl #2
 2554              	.L282:
 2555 004e 4460     		str	r4, [r0, #4]
 2556 0050 8261     		str	r2, [r0, #24]
 2557 0052 4A68     		ldr	r2, [r1, #4]
 2558 0054 8263     		str	r2, [r0, #56]
 2559 0056 0362     		str	r3, [r0, #32]
 2560 0058 30BC     		pop	{r4, r5}
 2561 005a 7047     		bx	lr
 2562              	.L285:
 2563              		.align	2
 2564              	.L284:
 2565 005c 002C0140 		.word	1073818624
 2567              		.section	.text.HAL_TIM_OC_ConfigChannel,"ax",%progbits
 2568              		.align	2
 2569              		.global	HAL_TIM_OC_ConfigChannel
 2570              		.thumb
 2571              		.thumb_func
 2573              	HAL_TIM_OC_ConfigChannel:
 2574              		@ args = 0, pretend = 0, frame = 0
 2575              		@ frame_needed = 0, uses_anonymous_args = 0
 2576 0000 90F83C30 		ldrb	r3, [r0, #60]	@ zero_extendqisi2
 2577 0004 012B     		cmp	r3, #1
 2578 0006 28D0     		beq	.L294
 2579 0008 10B5     		push	{r4, lr}
 2580 000a 0446     		mov	r4, r0
 2581 000c 0123     		movs	r3, #1
 2582 000e 80F83C30 		strb	r3, [r0, #60]
 2583 0012 0223     		movs	r3, #2
 2584 0014 80F83D30 		strb	r3, [r0, #61]
 2585 0018 0C2A     		cmp	r2, #12
 2586 001a 17D8     		bhi	.L288
 2587 001c DFE802F0 		tbb	[pc, r2]
 2588              	.L290:
 2589 0020 07       		.byte	(.L289-.L290)/2
 2590 0021 16       		.byte	(.L288-.L290)/2
 2591 0022 16       		.byte	(.L288-.L290)/2
 2592 0023 16       		.byte	(.L288-.L290)/2
 2593 0024 0B       		.byte	(.L291-.L290)/2
 2594 0025 16       		.byte	(.L288-.L290)/2
 2595 0026 16       		.byte	(.L288-.L290)/2
 2596 0027 16       		.byte	(.L288-.L290)/2
 2597 0028 0F       		.byte	(.L292-.L290)/2
 2598 0029 16       		.byte	(.L288-.L290)/2
 2599 002a 16       		.byte	(.L288-.L290)/2
 2600 002b 16       		.byte	(.L288-.L290)/2
ARM GAS  /tmp/ccEnBWAK.s 			page 44


 2601 002c 13       		.byte	(.L293-.L290)/2
 2602 002d 00       		.p2align 1
 2603              	.L289:
 2604 002e 0068     		ldr	r0, [r0]
 2605 0030 FFF7FEFF 		bl	TIM_OC1_SetConfig
 2606 0034 0AE0     		b	.L288
 2607              	.L291:
 2608 0036 0068     		ldr	r0, [r0]
 2609 0038 FFF7FEFF 		bl	TIM_OC2_SetConfig
 2610 003c 06E0     		b	.L288
 2611              	.L292:
 2612 003e 0068     		ldr	r0, [r0]
 2613 0040 FFF7FEFF 		bl	TIM_OC3_SetConfig
 2614 0044 02E0     		b	.L288
 2615              	.L293:
 2616 0046 0068     		ldr	r0, [r0]
 2617 0048 FFF7FEFF 		bl	TIM_OC4_SetConfig
 2618              	.L288:
 2619 004c 0123     		movs	r3, #1
 2620 004e 84F83D30 		strb	r3, [r4, #61]
 2621 0052 0020     		movs	r0, #0
 2622 0054 84F83C00 		strb	r0, [r4, #60]
 2623 0058 10BD     		pop	{r4, pc}
 2624              	.L294:
 2625 005a 0220     		movs	r0, #2
 2626 005c 7047     		bx	lr
 2628 005e 00BF     		.section	.text.HAL_TIM_PWM_ConfigChannel,"ax",%progbits
 2629              		.align	2
 2630              		.global	HAL_TIM_PWM_ConfigChannel
 2631              		.thumb
 2632              		.thumb_func
 2634              	HAL_TIM_PWM_ConfigChannel:
 2635              		@ args = 0, pretend = 0, frame = 0
 2636              		@ frame_needed = 0, uses_anonymous_args = 0
 2637 0000 38B5     		push	{r3, r4, r5, lr}
 2638 0002 90F83C30 		ldrb	r3, [r0, #60]	@ zero_extendqisi2
 2639 0006 012B     		cmp	r3, #1
 2640 0008 66D0     		beq	.L305
 2641 000a 0D46     		mov	r5, r1
 2642 000c 0446     		mov	r4, r0
 2643 000e 0123     		movs	r3, #1
 2644 0010 80F83C30 		strb	r3, [r0, #60]
 2645 0014 0223     		movs	r3, #2
 2646 0016 80F83D30 		strb	r3, [r0, #61]
 2647 001a 0C2A     		cmp	r2, #12
 2648 001c 55D8     		bhi	.L299
 2649 001e DFE802F0 		tbb	[pc, r2]
 2650              	.L301:
 2651 0022 07       		.byte	(.L300-.L301)/2
 2652 0023 54       		.byte	(.L299-.L301)/2
 2653 0024 54       		.byte	(.L299-.L301)/2
 2654 0025 54       		.byte	(.L299-.L301)/2
 2655 0026 1A       		.byte	(.L302-.L301)/2
 2656 0027 54       		.byte	(.L299-.L301)/2
 2657 0028 54       		.byte	(.L299-.L301)/2
 2658 0029 54       		.byte	(.L299-.L301)/2
 2659 002a 2E       		.byte	(.L303-.L301)/2
ARM GAS  /tmp/ccEnBWAK.s 			page 45


 2660 002b 54       		.byte	(.L299-.L301)/2
 2661 002c 54       		.byte	(.L299-.L301)/2
 2662 002d 54       		.byte	(.L299-.L301)/2
 2663 002e 41       		.byte	(.L304-.L301)/2
 2664 002f 00       		.p2align 1
 2665              	.L300:
 2666 0030 0068     		ldr	r0, [r0]
 2667 0032 FFF7FEFF 		bl	TIM_OC1_SetConfig
 2668 0036 2268     		ldr	r2, [r4]
 2669 0038 9369     		ldr	r3, [r2, #24]
 2670 003a 43F00803 		orr	r3, r3, #8
 2671 003e 9361     		str	r3, [r2, #24]
 2672 0040 2268     		ldr	r2, [r4]
 2673 0042 9369     		ldr	r3, [r2, #24]
 2674 0044 23F00403 		bic	r3, r3, #4
 2675 0048 9361     		str	r3, [r2, #24]
 2676 004a 2268     		ldr	r2, [r4]
 2677 004c 9169     		ldr	r1, [r2, #24]
 2678 004e 2B69     		ldr	r3, [r5, #16]
 2679 0050 0B43     		orrs	r3, r3, r1
 2680 0052 9361     		str	r3, [r2, #24]
 2681 0054 39E0     		b	.L299
 2682              	.L302:
 2683 0056 0068     		ldr	r0, [r0]
 2684 0058 FFF7FEFF 		bl	TIM_OC2_SetConfig
 2685 005c 2268     		ldr	r2, [r4]
 2686 005e 9369     		ldr	r3, [r2, #24]
 2687 0060 43F40063 		orr	r3, r3, #2048
 2688 0064 9361     		str	r3, [r2, #24]
 2689 0066 2268     		ldr	r2, [r4]
 2690 0068 9369     		ldr	r3, [r2, #24]
 2691 006a 23F48063 		bic	r3, r3, #1024
 2692 006e 9361     		str	r3, [r2, #24]
 2693 0070 2268     		ldr	r2, [r4]
 2694 0072 9369     		ldr	r3, [r2, #24]
 2695 0074 2969     		ldr	r1, [r5, #16]
 2696 0076 43EA0123 		orr	r3, r3, r1, lsl #8
 2697 007a 9361     		str	r3, [r2, #24]
 2698 007c 25E0     		b	.L299
 2699              	.L303:
 2700 007e 0068     		ldr	r0, [r0]
 2701 0080 FFF7FEFF 		bl	TIM_OC3_SetConfig
 2702 0084 2268     		ldr	r2, [r4]
 2703 0086 D369     		ldr	r3, [r2, #28]
 2704 0088 43F00803 		orr	r3, r3, #8
 2705 008c D361     		str	r3, [r2, #28]
 2706 008e 2268     		ldr	r2, [r4]
 2707 0090 D369     		ldr	r3, [r2, #28]
 2708 0092 23F00403 		bic	r3, r3, #4
 2709 0096 D361     		str	r3, [r2, #28]
 2710 0098 2268     		ldr	r2, [r4]
 2711 009a D169     		ldr	r1, [r2, #28]
 2712 009c 2B69     		ldr	r3, [r5, #16]
 2713 009e 0B43     		orrs	r3, r3, r1
 2714 00a0 D361     		str	r3, [r2, #28]
 2715 00a2 12E0     		b	.L299
 2716              	.L304:
ARM GAS  /tmp/ccEnBWAK.s 			page 46


 2717 00a4 0068     		ldr	r0, [r0]
 2718 00a6 FFF7FEFF 		bl	TIM_OC4_SetConfig
 2719 00aa 2268     		ldr	r2, [r4]
 2720 00ac D369     		ldr	r3, [r2, #28]
 2721 00ae 43F40063 		orr	r3, r3, #2048
 2722 00b2 D361     		str	r3, [r2, #28]
 2723 00b4 2268     		ldr	r2, [r4]
 2724 00b6 D369     		ldr	r3, [r2, #28]
 2725 00b8 23F48063 		bic	r3, r3, #1024
 2726 00bc D361     		str	r3, [r2, #28]
 2727 00be 2268     		ldr	r2, [r4]
 2728 00c0 D369     		ldr	r3, [r2, #28]
 2729 00c2 2969     		ldr	r1, [r5, #16]
 2730 00c4 43EA0123 		orr	r3, r3, r1, lsl #8
 2731 00c8 D361     		str	r3, [r2, #28]
 2732              	.L299:
 2733 00ca 0123     		movs	r3, #1
 2734 00cc 84F83D30 		strb	r3, [r4, #61]
 2735 00d0 0020     		movs	r0, #0
 2736 00d2 84F83C00 		strb	r0, [r4, #60]
 2737 00d6 38BD     		pop	{r3, r4, r5, pc}
 2738              	.L305:
 2739 00d8 0220     		movs	r0, #2
 2740 00da 38BD     		pop	{r3, r4, r5, pc}
 2742              		.section	.text.TIM_TI1_SetConfig,"ax",%progbits
 2743              		.align	2
 2744              		.global	TIM_TI1_SetConfig
 2745              		.thumb
 2746              		.thumb_func
 2748              	TIM_TI1_SetConfig:
 2749              		@ args = 0, pretend = 0, frame = 0
 2750              		@ frame_needed = 0, uses_anonymous_args = 0
 2751              		@ link register save eliminated.
 2752 0000 70B4     		push	{r4, r5, r6}
 2753 0002 046A     		ldr	r4, [r0, #32]
 2754 0004 24F00104 		bic	r4, r4, #1
 2755 0008 0462     		str	r4, [r0, #32]
 2756 000a 8469     		ldr	r4, [r0, #24]
 2757 000c 056A     		ldr	r5, [r0, #32]
 2758 000e 134E     		ldr	r6, .L315
 2759 0010 B042     		cmp	r0, r6
 2760 0012 08D0     		beq	.L311
 2761 0014 B0F1804F 		cmp	r0, #1073741824
 2762 0018 07D0     		beq	.L312
 2763 001a A6F59436 		sub	r6, r6, #75776
 2764 001e B042     		cmp	r0, r6
 2765 0020 05D1     		bne	.L313
 2766 0022 0126     		movs	r6, #1
 2767 0024 04E0     		b	.L308
 2768              	.L311:
 2769 0026 0126     		movs	r6, #1
 2770 0028 02E0     		b	.L308
 2771              	.L312:
 2772 002a 0126     		movs	r6, #1
 2773 002c 00E0     		b	.L308
 2774              	.L313:
 2775 002e 0026     		movs	r6, #0
ARM GAS  /tmp/ccEnBWAK.s 			page 47


 2776              	.L308:
 2777 0030 1EB1     		cbz	r6, .L309
 2778 0032 24F00304 		bic	r4, r4, #3
 2779 0036 2243     		orrs	r2, r2, r4
 2780 0038 01E0     		b	.L310
 2781              	.L309:
 2782 003a 44F00102 		orr	r2, r4, #1
 2783              	.L310:
 2784 003e 22F0F002 		bic	r2, r2, #240
 2785 0042 1B01     		lsls	r3, r3, #4
 2786 0044 DBB2     		uxtb	r3, r3
 2787 0046 1343     		orrs	r3, r3, r2
 2788 0048 25F00A02 		bic	r2, r5, #10
 2789 004c 01F00A01 		and	r1, r1, #10
 2790 0050 1143     		orrs	r1, r1, r2
 2791 0052 8361     		str	r3, [r0, #24]
 2792 0054 0162     		str	r1, [r0, #32]
 2793 0056 70BC     		pop	{r4, r5, r6}
 2794 0058 7047     		bx	lr
 2795              	.L316:
 2796 005a 00BF     		.align	2
 2797              	.L315:
 2798 005c 002C0140 		.word	1073818624
 2800              		.section	.text.HAL_TIM_IC_ConfigChannel,"ax",%progbits
 2801              		.align	2
 2802              		.global	HAL_TIM_IC_ConfigChannel
 2803              		.thumb
 2804              		.thumb_func
 2806              	HAL_TIM_IC_ConfigChannel:
 2807              		@ args = 0, pretend = 0, frame = 0
 2808              		@ frame_needed = 0, uses_anonymous_args = 0
 2809 0000 38B5     		push	{r3, r4, r5, lr}
 2810 0002 90F83C30 		ldrb	r3, [r0, #60]	@ zero_extendqisi2
 2811 0006 012B     		cmp	r3, #1
 2812 0008 58D0     		beq	.L323
 2813 000a 0D46     		mov	r5, r1
 2814 000c 0446     		mov	r4, r0
 2815 000e 0123     		movs	r3, #1
 2816 0010 80F83C30 		strb	r3, [r0, #60]
 2817 0014 0223     		movs	r3, #2
 2818 0016 80F83D30 		strb	r3, [r0, #61]
 2819 001a 82B9     		cbnz	r2, .L319
 2820 001c 0068     		ldr	r0, [r0]
 2821 001e 0968     		ldr	r1, [r1]
 2822 0020 6A68     		ldr	r2, [r5, #4]
 2823 0022 EB68     		ldr	r3, [r5, #12]
 2824 0024 FFF7FEFF 		bl	TIM_TI1_SetConfig
 2825 0028 2268     		ldr	r2, [r4]
 2826 002a 9369     		ldr	r3, [r2, #24]
 2827 002c 23F00C03 		bic	r3, r3, #12
 2828 0030 9361     		str	r3, [r2, #24]
 2829 0032 2268     		ldr	r2, [r4]
 2830 0034 9169     		ldr	r1, [r2, #24]
 2831 0036 AB68     		ldr	r3, [r5, #8]
 2832 0038 0B43     		orrs	r3, r3, r1
 2833 003a 9361     		str	r3, [r2, #24]
 2834 003c 37E0     		b	.L320
ARM GAS  /tmp/ccEnBWAK.s 			page 48


 2835              	.L319:
 2836 003e 042A     		cmp	r2, #4
 2837 0040 11D1     		bne	.L321
 2838 0042 0068     		ldr	r0, [r0]
 2839 0044 0968     		ldr	r1, [r1]
 2840 0046 6A68     		ldr	r2, [r5, #4]
 2841 0048 EB68     		ldr	r3, [r5, #12]
 2842 004a FFF7FEFF 		bl	TIM_TI2_SetConfig
 2843 004e 2268     		ldr	r2, [r4]
 2844 0050 9369     		ldr	r3, [r2, #24]
 2845 0052 23F44063 		bic	r3, r3, #3072
 2846 0056 9361     		str	r3, [r2, #24]
 2847 0058 2268     		ldr	r2, [r4]
 2848 005a 9369     		ldr	r3, [r2, #24]
 2849 005c A968     		ldr	r1, [r5, #8]
 2850 005e 43EA0123 		orr	r3, r3, r1, lsl #8
 2851 0062 9361     		str	r3, [r2, #24]
 2852 0064 23E0     		b	.L320
 2853              	.L321:
 2854 0066 082A     		cmp	r2, #8
 2855 0068 10D1     		bne	.L322
 2856 006a 0068     		ldr	r0, [r0]
 2857 006c 0968     		ldr	r1, [r1]
 2858 006e 6A68     		ldr	r2, [r5, #4]
 2859 0070 EB68     		ldr	r3, [r5, #12]
 2860 0072 FFF7FEFF 		bl	TIM_TI3_SetConfig
 2861 0076 2268     		ldr	r2, [r4]
 2862 0078 D369     		ldr	r3, [r2, #28]
 2863 007a 23F00C03 		bic	r3, r3, #12
 2864 007e D361     		str	r3, [r2, #28]
 2865 0080 2268     		ldr	r2, [r4]
 2866 0082 D169     		ldr	r1, [r2, #28]
 2867 0084 AB68     		ldr	r3, [r5, #8]
 2868 0086 0B43     		orrs	r3, r3, r1
 2869 0088 D361     		str	r3, [r2, #28]
 2870 008a 10E0     		b	.L320
 2871              	.L322:
 2872 008c 0068     		ldr	r0, [r0]
 2873 008e 0968     		ldr	r1, [r1]
 2874 0090 6A68     		ldr	r2, [r5, #4]
 2875 0092 EB68     		ldr	r3, [r5, #12]
 2876 0094 FFF7FEFF 		bl	TIM_TI4_SetConfig
 2877 0098 2268     		ldr	r2, [r4]
 2878 009a D369     		ldr	r3, [r2, #28]
 2879 009c 23F44063 		bic	r3, r3, #3072
 2880 00a0 D361     		str	r3, [r2, #28]
 2881 00a2 2268     		ldr	r2, [r4]
 2882 00a4 D369     		ldr	r3, [r2, #28]
 2883 00a6 A968     		ldr	r1, [r5, #8]
 2884 00a8 43EA0123 		orr	r3, r3, r1, lsl #8
 2885 00ac D361     		str	r3, [r2, #28]
 2886              	.L320:
 2887 00ae 0123     		movs	r3, #1
 2888 00b0 84F83D30 		strb	r3, [r4, #61]
 2889 00b4 0020     		movs	r0, #0
 2890 00b6 84F83C00 		strb	r0, [r4, #60]
 2891 00ba 38BD     		pop	{r3, r4, r5, pc}
ARM GAS  /tmp/ccEnBWAK.s 			page 49


 2892              	.L323:
 2893 00bc 0220     		movs	r0, #2
 2894 00be 38BD     		pop	{r3, r4, r5, pc}
 2896              		.section	.text.HAL_TIM_OnePulse_ConfigChannel,"ax",%progbits
 2897              		.align	2
 2898              		.global	HAL_TIM_OnePulse_ConfigChannel
 2899              		.thumb
 2900              		.thumb_func
 2902              	HAL_TIM_OnePulse_ConfigChannel:
 2903              		@ args = 0, pretend = 0, frame = 32
 2904              		@ frame_needed = 0, uses_anonymous_args = 0
 2905 0000 9A42     		cmp	r2, r3
 2906 0002 71D0     		beq	.L333
 2907 0004 70B5     		push	{r4, r5, r6, lr}
 2908 0006 88B0     		sub	sp, sp, #32
 2909 0008 90F83C40 		ldrb	r4, [r0, #60]	@ zero_extendqisi2
 2910 000c 012C     		cmp	r4, #1
 2911 000e 6DD0     		beq	.L334
 2912 0010 1E46     		mov	r6, r3
 2913 0012 0D46     		mov	r5, r1
 2914 0014 0446     		mov	r4, r0
 2915 0016 0123     		movs	r3, #1
 2916 0018 80F83C30 		strb	r3, [r0, #60]
 2917 001c 0223     		movs	r3, #2
 2918 001e 80F83D30 		strb	r3, [r0, #61]
 2919 0022 0B68     		ldr	r3, [r1]
 2920 0024 0193     		str	r3, [sp, #4]
 2921 0026 4B68     		ldr	r3, [r1, #4]
 2922 0028 0293     		str	r3, [sp, #8]
 2923 002a 8B68     		ldr	r3, [r1, #8]
 2924 002c 0393     		str	r3, [sp, #12]
 2925 002e CB68     		ldr	r3, [r1, #12]
 2926 0030 0493     		str	r3, [sp, #16]
 2927 0032 0B69     		ldr	r3, [r1, #16]
 2928 0034 0693     		str	r3, [sp, #24]
 2929 0036 4B69     		ldr	r3, [r1, #20]
 2930 0038 0793     		str	r3, [sp, #28]
 2931 003a 12B1     		cbz	r2, .L328
 2932 003c 042A     		cmp	r2, #4
 2933 003e 05D0     		beq	.L329
 2934 0040 08E0     		b	.L327
 2935              	.L328:
 2936 0042 0068     		ldr	r0, [r0]
 2937 0044 01A9     		add	r1, sp, #4
 2938 0046 FFF7FEFF 		bl	TIM_OC1_SetConfig
 2939 004a 03E0     		b	.L327
 2940              	.L329:
 2941 004c 0068     		ldr	r0, [r0]
 2942 004e 01A9     		add	r1, sp, #4
 2943 0050 FFF7FEFF 		bl	TIM_OC2_SetConfig
 2944              	.L327:
 2945 0054 16B1     		cbz	r6, .L331
 2946 0056 042E     		cmp	r6, #4
 2947 0058 20D0     		beq	.L332
 2948 005a 3EE0     		b	.L330
 2949              	.L331:
 2950 005c 2068     		ldr	r0, [r4]
ARM GAS  /tmp/ccEnBWAK.s 			page 50


 2951 005e A969     		ldr	r1, [r5, #24]
 2952 0060 EA69     		ldr	r2, [r5, #28]
 2953 0062 2B6A     		ldr	r3, [r5, #32]
 2954 0064 FFF7FEFF 		bl	TIM_TI1_SetConfig
 2955 0068 2268     		ldr	r2, [r4]
 2956 006a 9369     		ldr	r3, [r2, #24]
 2957 006c 23F00C03 		bic	r3, r3, #12
 2958 0070 9361     		str	r3, [r2, #24]
 2959 0072 2268     		ldr	r2, [r4]
 2960 0074 9368     		ldr	r3, [r2, #8]
 2961 0076 23F07003 		bic	r3, r3, #112
 2962 007a 9360     		str	r3, [r2, #8]
 2963 007c 2268     		ldr	r2, [r4]
 2964 007e 9368     		ldr	r3, [r2, #8]
 2965 0080 43F05003 		orr	r3, r3, #80
 2966 0084 9360     		str	r3, [r2, #8]
 2967 0086 2268     		ldr	r2, [r4]
 2968 0088 9368     		ldr	r3, [r2, #8]
 2969 008a 23F00703 		bic	r3, r3, #7
 2970 008e 9360     		str	r3, [r2, #8]
 2971 0090 2268     		ldr	r2, [r4]
 2972 0092 9368     		ldr	r3, [r2, #8]
 2973 0094 43F00603 		orr	r3, r3, #6
 2974 0098 9360     		str	r3, [r2, #8]
 2975 009a 1EE0     		b	.L330
 2976              	.L332:
 2977 009c 2068     		ldr	r0, [r4]
 2978 009e A969     		ldr	r1, [r5, #24]
 2979 00a0 EA69     		ldr	r2, [r5, #28]
 2980 00a2 2B6A     		ldr	r3, [r5, #32]
 2981 00a4 FFF7FEFF 		bl	TIM_TI2_SetConfig
 2982 00a8 2268     		ldr	r2, [r4]
 2983 00aa 9369     		ldr	r3, [r2, #24]
 2984 00ac 23F44063 		bic	r3, r3, #3072
 2985 00b0 9361     		str	r3, [r2, #24]
 2986 00b2 2268     		ldr	r2, [r4]
 2987 00b4 9368     		ldr	r3, [r2, #8]
 2988 00b6 23F07003 		bic	r3, r3, #112
 2989 00ba 9360     		str	r3, [r2, #8]
 2990 00bc 2268     		ldr	r2, [r4]
 2991 00be 9368     		ldr	r3, [r2, #8]
 2992 00c0 43F06003 		orr	r3, r3, #96
 2993 00c4 9360     		str	r3, [r2, #8]
 2994 00c6 2268     		ldr	r2, [r4]
 2995 00c8 9368     		ldr	r3, [r2, #8]
 2996 00ca 23F00703 		bic	r3, r3, #7
 2997 00ce 9360     		str	r3, [r2, #8]
 2998 00d0 2268     		ldr	r2, [r4]
 2999 00d2 9368     		ldr	r3, [r2, #8]
 3000 00d4 43F00603 		orr	r3, r3, #6
 3001 00d8 9360     		str	r3, [r2, #8]
 3002              	.L330:
 3003 00da 0123     		movs	r3, #1
 3004 00dc 84F83D30 		strb	r3, [r4, #61]
 3005 00e0 0020     		movs	r0, #0
 3006 00e2 84F83C00 		strb	r0, [r4, #60]
 3007 00e6 02E0     		b	.L326
ARM GAS  /tmp/ccEnBWAK.s 			page 51


 3008              	.L333:
 3009 00e8 0120     		movs	r0, #1
 3010 00ea 7047     		bx	lr
 3011              	.L334:
 3012 00ec 0220     		movs	r0, #2
 3013              	.L326:
 3014 00ee 08B0     		add	sp, sp, #32
 3015              		@ sp needed
 3016 00f0 70BD     		pop	{r4, r5, r6, pc}
 3018 00f2 00BF     		.section	.text.TIM_ETR_SetConfig,"ax",%progbits
 3019              		.align	2
 3020              		.global	TIM_ETR_SetConfig
 3021              		.thumb
 3022              		.thumb_func
 3024              	TIM_ETR_SetConfig:
 3025              		@ args = 0, pretend = 0, frame = 0
 3026              		@ frame_needed = 0, uses_anonymous_args = 0
 3027              		@ link register save eliminated.
 3028 0000 10B4     		push	{r4}
 3029 0002 8468     		ldr	r4, [r0, #8]
 3030 0004 24F47F44 		bic	r4, r4, #65280
 3031 0008 42EA0323 		orr	r3, r2, r3, lsl #8
 3032 000c 1943     		orrs	r1, r1, r3
 3033 000e 0C43     		orrs	r4, r4, r1
 3034 0010 8460     		str	r4, [r0, #8]
 3035 0012 5DF8044B 		ldr	r4, [sp], #4
 3036 0016 7047     		bx	lr
 3038              		.section	.text.HAL_TIM_ConfigOCrefClear,"ax",%progbits
 3039              		.align	2
 3040              		.global	HAL_TIM_ConfigOCrefClear
 3041              		.thumb
 3042              		.thumb_func
 3044              	HAL_TIM_ConfigOCrefClear:
 3045              		@ args = 0, pretend = 0, frame = 0
 3046              		@ frame_needed = 0, uses_anonymous_args = 0
 3047 0000 90F83C30 		ldrb	r3, [r0, #60]	@ zero_extendqisi2
 3048 0004 012B     		cmp	r3, #1
 3049 0006 6BD0     		beq	.L354
 3050 0008 70B5     		push	{r4, r5, r6, lr}
 3051 000a 1646     		mov	r6, r2
 3052 000c 0D46     		mov	r5, r1
 3053 000e 0446     		mov	r4, r0
 3054 0010 0123     		movs	r3, #1
 3055 0012 80F83C30 		strb	r3, [r0, #60]
 3056 0016 0223     		movs	r3, #2
 3057 0018 80F83D30 		strb	r3, [r0, #61]
 3058 001c 4B68     		ldr	r3, [r1, #4]
 3059 001e 13B1     		cbz	r3, .L341
 3060 0020 012B     		cmp	r3, #1
 3061 0022 06D0     		beq	.L342
 3062 0024 13E0     		b	.L340
 3063              	.L341:
 3064 0026 0268     		ldr	r2, [r0]
 3065 0028 9368     		ldr	r3, [r2, #8]
 3066 002a 23F47F43 		bic	r3, r3, #65280
 3067 002e 9360     		str	r3, [r2, #8]
 3068 0030 0DE0     		b	.L340
ARM GAS  /tmp/ccEnBWAK.s 			page 52


 3069              	.L342:
 3070 0032 C968     		ldr	r1, [r1, #12]
 3071 0034 31B1     		cbz	r1, .L343
 3072 0036 0120     		movs	r0, #1
 3073 0038 84F83D00 		strb	r0, [r4, #61]
 3074 003c 0023     		movs	r3, #0
 3075 003e 84F83C30 		strb	r3, [r4, #60]
 3076 0042 70BD     		pop	{r4, r5, r6, pc}
 3077              	.L343:
 3078 0044 0068     		ldr	r0, [r0]
 3079 0046 AA68     		ldr	r2, [r5, #8]
 3080 0048 2B69     		ldr	r3, [r5, #16]
 3081 004a FFF7FEFF 		bl	TIM_ETR_SetConfig
 3082              	.L340:
 3083 004e 0C2E     		cmp	r6, #12
 3084 0050 3FD8     		bhi	.L344
 3085 0052 DFE806F0 		tbb	[pc, r6]
 3086              	.L346:
 3087 0056 07       		.byte	(.L345-.L346)/2
 3088 0057 3E       		.byte	(.L344-.L346)/2
 3089 0058 3E       		.byte	(.L344-.L346)/2
 3090 0059 3E       		.byte	(.L344-.L346)/2
 3091 005a 15       		.byte	(.L347-.L346)/2
 3092 005b 3E       		.byte	(.L344-.L346)/2
 3093 005c 3E       		.byte	(.L344-.L346)/2
 3094 005d 3E       		.byte	(.L344-.L346)/2
 3095 005e 23       		.byte	(.L348-.L346)/2
 3096 005f 3E       		.byte	(.L344-.L346)/2
 3097 0060 3E       		.byte	(.L344-.L346)/2
 3098 0061 3E       		.byte	(.L344-.L346)/2
 3099 0062 31       		.byte	(.L349-.L346)/2
 3100 0063 00       		.p2align 1
 3101              	.L345:
 3102 0064 2B68     		ldr	r3, [r5]
 3103 0066 2BB1     		cbz	r3, .L350
 3104 0068 2268     		ldr	r2, [r4]
 3105 006a 9369     		ldr	r3, [r2, #24]
 3106 006c 43F08003 		orr	r3, r3, #128
 3107 0070 9361     		str	r3, [r2, #24]
 3108 0072 2EE0     		b	.L344
 3109              	.L350:
 3110 0074 2268     		ldr	r2, [r4]
 3111 0076 9369     		ldr	r3, [r2, #24]
 3112 0078 23F08003 		bic	r3, r3, #128
 3113 007c 9361     		str	r3, [r2, #24]
 3114 007e 28E0     		b	.L344
 3115              	.L347:
 3116 0080 2B68     		ldr	r3, [r5]
 3117 0082 2BB1     		cbz	r3, .L351
 3118 0084 2268     		ldr	r2, [r4]
 3119 0086 9369     		ldr	r3, [r2, #24]
 3120 0088 43F40043 		orr	r3, r3, #32768
 3121 008c 9361     		str	r3, [r2, #24]
 3122 008e 20E0     		b	.L344
 3123              	.L351:
 3124 0090 2268     		ldr	r2, [r4]
 3125 0092 9369     		ldr	r3, [r2, #24]
ARM GAS  /tmp/ccEnBWAK.s 			page 53


 3126 0094 23F40043 		bic	r3, r3, #32768
 3127 0098 9361     		str	r3, [r2, #24]
 3128 009a 1AE0     		b	.L344
 3129              	.L348:
 3130 009c 2B68     		ldr	r3, [r5]
 3131 009e 2BB1     		cbz	r3, .L352
 3132 00a0 2268     		ldr	r2, [r4]
 3133 00a2 D369     		ldr	r3, [r2, #28]
 3134 00a4 43F08003 		orr	r3, r3, #128
 3135 00a8 D361     		str	r3, [r2, #28]
 3136 00aa 12E0     		b	.L344
 3137              	.L352:
 3138 00ac 2268     		ldr	r2, [r4]
 3139 00ae D369     		ldr	r3, [r2, #28]
 3140 00b0 23F08003 		bic	r3, r3, #128
 3141 00b4 D361     		str	r3, [r2, #28]
 3142 00b6 0CE0     		b	.L344
 3143              	.L349:
 3144 00b8 2B68     		ldr	r3, [r5]
 3145 00ba 2BB1     		cbz	r3, .L353
 3146 00bc 2268     		ldr	r2, [r4]
 3147 00be D369     		ldr	r3, [r2, #28]
 3148 00c0 43F40043 		orr	r3, r3, #32768
 3149 00c4 D361     		str	r3, [r2, #28]
 3150 00c6 04E0     		b	.L344
 3151              	.L353:
 3152 00c8 2268     		ldr	r2, [r4]
 3153 00ca D369     		ldr	r3, [r2, #28]
 3154 00cc 23F40043 		bic	r3, r3, #32768
 3155 00d0 D361     		str	r3, [r2, #28]
 3156              	.L344:
 3157 00d2 0123     		movs	r3, #1
 3158 00d4 84F83D30 		strb	r3, [r4, #61]
 3159 00d8 0020     		movs	r0, #0
 3160 00da 84F83C00 		strb	r0, [r4, #60]
 3161 00de 70BD     		pop	{r4, r5, r6, pc}
 3162              	.L354:
 3163 00e0 0220     		movs	r0, #2
 3164 00e2 7047     		bx	lr
 3166              		.section	.text.HAL_TIM_ConfigClockSource,"ax",%progbits
 3167              		.align	2
 3168              		.global	HAL_TIM_ConfigClockSource
 3169              		.thumb
 3170              		.thumb_func
 3172              	HAL_TIM_ConfigClockSource:
 3173              		@ args = 0, pretend = 0, frame = 0
 3174              		@ frame_needed = 0, uses_anonymous_args = 0
 3175 0000 90F83C30 		ldrb	r3, [r0, #60]	@ zero_extendqisi2
 3176 0004 012B     		cmp	r3, #1
 3177 0006 6AD0     		beq	.L369
 3178 0008 10B5     		push	{r4, lr}
 3179 000a 0B46     		mov	r3, r1
 3180 000c 0446     		mov	r4, r0
 3181 000e 0122     		movs	r2, #1
 3182 0010 80F83C20 		strb	r2, [r0, #60]
 3183 0014 0222     		movs	r2, #2
 3184 0016 80F83D20 		strb	r2, [r0, #61]
ARM GAS  /tmp/ccEnBWAK.s 			page 54


 3185 001a 0168     		ldr	r1, [r0]
 3186 001c 8A68     		ldr	r2, [r1, #8]
 3187 001e 22F47F42 		bic	r2, r2, #65280
 3188 0022 22F07702 		bic	r2, r2, #119
 3189 0026 8A60     		str	r2, [r1, #8]
 3190 0028 1968     		ldr	r1, [r3]
 3191 002a 4029     		cmp	r1, #64
 3192 002c 43D0     		beq	.L360
 3193 002e 0AD8     		bhi	.L361
 3194 0030 1029     		cmp	r1, #16
 3195 0032 4AD0     		beq	.L362
 3196 0034 02D8     		bhi	.L363
 3197 0036 0029     		cmp	r1, #0
 3198 0038 47D0     		beq	.L362
 3199 003a 49E0     		b	.L359
 3200              	.L363:
 3201 003c 2029     		cmp	r1, #32
 3202 003e 44D0     		beq	.L362
 3203 0040 3029     		cmp	r1, #48
 3204 0042 42D0     		beq	.L362
 3205 0044 44E0     		b	.L359
 3206              	.L361:
 3207 0046 6029     		cmp	r1, #96
 3208 0048 2BD0     		beq	.L364
 3209 004a 02D8     		bhi	.L365
 3210 004c 5029     		cmp	r1, #80
 3211 004e 1ED0     		beq	.L366
 3212 0050 3EE0     		b	.L359
 3213              	.L365:
 3214 0052 7029     		cmp	r1, #112
 3215 0054 03D0     		beq	.L367
 3216 0056 B1F5005F 		cmp	r1, #8192
 3217 005a 0CD0     		beq	.L368
 3218 005c 38E0     		b	.L359
 3219              	.L367:
 3220 005e 0068     		ldr	r0, [r0]
 3221 0060 9968     		ldr	r1, [r3, #8]
 3222 0062 5A68     		ldr	r2, [r3, #4]
 3223 0064 DB68     		ldr	r3, [r3, #12]
 3224 0066 FFF7FEFF 		bl	TIM_ETR_SetConfig
 3225 006a 2268     		ldr	r2, [r4]
 3226 006c 9368     		ldr	r3, [r2, #8]
 3227 006e 43F07703 		orr	r3, r3, #119
 3228 0072 9360     		str	r3, [r2, #8]
 3229 0074 2CE0     		b	.L359
 3230              	.L368:
 3231 0076 0068     		ldr	r0, [r0]
 3232 0078 9968     		ldr	r1, [r3, #8]
 3233 007a 5A68     		ldr	r2, [r3, #4]
 3234 007c DB68     		ldr	r3, [r3, #12]
 3235 007e FFF7FEFF 		bl	TIM_ETR_SetConfig
 3236 0082 2268     		ldr	r2, [r4]
 3237 0084 9368     		ldr	r3, [r2, #8]
 3238 0086 43F48043 		orr	r3, r3, #16384
 3239 008a 9360     		str	r3, [r2, #8]
 3240 008c 20E0     		b	.L359
 3241              	.L366:
ARM GAS  /tmp/ccEnBWAK.s 			page 55


 3242 008e 0068     		ldr	r0, [r0]
 3243 0090 5968     		ldr	r1, [r3, #4]
 3244 0092 DA68     		ldr	r2, [r3, #12]
 3245 0094 FFF7FEFF 		bl	TIM_TI1_ConfigInputStage
 3246 0098 2068     		ldr	r0, [r4]
 3247 009a 5021     		movs	r1, #80
 3248 009c FFF7FEFF 		bl	TIM_ITRx_SetConfig
 3249 00a0 16E0     		b	.L359
 3250              	.L364:
 3251 00a2 0068     		ldr	r0, [r0]
 3252 00a4 5968     		ldr	r1, [r3, #4]
 3253 00a6 DA68     		ldr	r2, [r3, #12]
 3254 00a8 FFF7FEFF 		bl	TIM_TI2_ConfigInputStage
 3255 00ac 2068     		ldr	r0, [r4]
 3256 00ae 6021     		movs	r1, #96
 3257 00b0 FFF7FEFF 		bl	TIM_ITRx_SetConfig
 3258 00b4 0CE0     		b	.L359
 3259              	.L360:
 3260 00b6 0068     		ldr	r0, [r0]
 3261 00b8 5968     		ldr	r1, [r3, #4]
 3262 00ba DA68     		ldr	r2, [r3, #12]
 3263 00bc FFF7FEFF 		bl	TIM_TI1_ConfigInputStage
 3264 00c0 2068     		ldr	r0, [r4]
 3265 00c2 4021     		movs	r1, #64
 3266 00c4 FFF7FEFF 		bl	TIM_ITRx_SetConfig
 3267 00c8 02E0     		b	.L359
 3268              	.L362:
 3269 00ca 2068     		ldr	r0, [r4]
 3270 00cc FFF7FEFF 		bl	TIM_ITRx_SetConfig
 3271              	.L359:
 3272 00d0 0123     		movs	r3, #1
 3273 00d2 84F83D30 		strb	r3, [r4, #61]
 3274 00d6 0020     		movs	r0, #0
 3275 00d8 84F83C00 		strb	r0, [r4, #60]
 3276 00dc 10BD     		pop	{r4, pc}
 3277              	.L369:
 3278 00de 0220     		movs	r0, #2
 3279 00e0 7047     		bx	lr
 3281 00e2 00BF     		.section	.text.TIM_SlaveTimer_SetConfig,"ax",%progbits
 3282              		.align	2
 3283              		.thumb
 3284              		.thumb_func
 3286              	TIM_SlaveTimer_SetConfig:
 3287              		@ args = 0, pretend = 0, frame = 0
 3288              		@ frame_needed = 0, uses_anonymous_args = 0
 3289 0000 10B5     		push	{r4, lr}
 3290 0002 0C46     		mov	r4, r1
 3291 0004 0268     		ldr	r2, [r0]
 3292 0006 9368     		ldr	r3, [r2, #8]
 3293 0008 23F07003 		bic	r3, r3, #112
 3294 000c 4968     		ldr	r1, [r1, #4]
 3295 000e 0B43     		orrs	r3, r3, r1
 3296 0010 23F00703 		bic	r3, r3, #7
 3297 0014 2168     		ldr	r1, [r4]
 3298 0016 0B43     		orrs	r3, r3, r1
 3299 0018 9360     		str	r3, [r2, #8]
 3300 001a 6368     		ldr	r3, [r4, #4]
ARM GAS  /tmp/ccEnBWAK.s 			page 56


 3301 001c 502B     		cmp	r3, #80
 3302 001e 24D0     		beq	.L374
 3303 0020 02D8     		bhi	.L375
 3304 0022 402B     		cmp	r3, #64
 3305 0024 0CD0     		beq	.L376
 3306 0026 2EE0     		b	.L379
 3307              	.L375:
 3308 0028 602B     		cmp	r3, #96
 3309 002a 25D0     		beq	.L377
 3310 002c 702B     		cmp	r3, #112
 3311 002e 2AD1     		bne	.L379
 3312 0030 0068     		ldr	r0, [r0]
 3313 0032 E168     		ldr	r1, [r4, #12]
 3314 0034 A268     		ldr	r2, [r4, #8]
 3315 0036 2369     		ldr	r3, [r4, #16]
 3316 0038 FFF7FEFF 		bl	TIM_ETR_SetConfig
 3317 003c 0020     		movs	r0, #0
 3318 003e 10BD     		pop	{r4, pc}
 3319              	.L376:
 3320 0040 2368     		ldr	r3, [r4]
 3321 0042 052B     		cmp	r3, #5
 3322 0044 21D0     		beq	.L380
 3323 0046 0368     		ldr	r3, [r0]
 3324 0048 196A     		ldr	r1, [r3, #32]
 3325 004a 1A6A     		ldr	r2, [r3, #32]
 3326 004c 22F00102 		bic	r2, r2, #1
 3327 0050 1A62     		str	r2, [r3, #32]
 3328 0052 0268     		ldr	r2, [r0]
 3329 0054 9369     		ldr	r3, [r2, #24]
 3330 0056 23F0F003 		bic	r3, r3, #240
 3331 005a 2469     		ldr	r4, [r4, #16]
 3332 005c 43EA0413 		orr	r3, r3, r4, lsl #4
 3333 0060 9361     		str	r3, [r2, #24]
 3334 0062 0368     		ldr	r3, [r0]
 3335 0064 1962     		str	r1, [r3, #32]
 3336 0066 0020     		movs	r0, #0
 3337 0068 10BD     		pop	{r4, pc}
 3338              	.L374:
 3339 006a 0068     		ldr	r0, [r0]
 3340 006c A168     		ldr	r1, [r4, #8]
 3341 006e 2269     		ldr	r2, [r4, #16]
 3342 0070 FFF7FEFF 		bl	TIM_TI1_ConfigInputStage
 3343 0074 0020     		movs	r0, #0
 3344 0076 10BD     		pop	{r4, pc}
 3345              	.L377:
 3346 0078 0068     		ldr	r0, [r0]
 3347 007a A168     		ldr	r1, [r4, #8]
 3348 007c 2269     		ldr	r2, [r4, #16]
 3349 007e FFF7FEFF 		bl	TIM_TI2_ConfigInputStage
 3350 0082 0020     		movs	r0, #0
 3351 0084 10BD     		pop	{r4, pc}
 3352              	.L379:
 3353 0086 0020     		movs	r0, #0
 3354 0088 10BD     		pop	{r4, pc}
 3355              	.L380:
 3356 008a 0120     		movs	r0, #1
 3357 008c 10BD     		pop	{r4, pc}
ARM GAS  /tmp/ccEnBWAK.s 			page 57


 3359 008e 00BF     		.section	.text.HAL_TIM_SlaveConfigSynchro,"ax",%progbits
 3360              		.align	2
 3361              		.global	HAL_TIM_SlaveConfigSynchro
 3362              		.thumb
 3363              		.thumb_func
 3365              	HAL_TIM_SlaveConfigSynchro:
 3366              		@ args = 0, pretend = 0, frame = 0
 3367              		@ frame_needed = 0, uses_anonymous_args = 0
 3368 0000 90F83C30 		ldrb	r3, [r0, #60]	@ zero_extendqisi2
 3369 0004 012B     		cmp	r3, #1
 3370 0006 23D0     		beq	.L385
 3371 0008 10B5     		push	{r4, lr}
 3372 000a 0446     		mov	r4, r0
 3373 000c 0123     		movs	r3, #1
 3374 000e 80F83C30 		strb	r3, [r0, #60]
 3375 0012 0223     		movs	r3, #2
 3376 0014 80F83D30 		strb	r3, [r0, #61]
 3377 0018 FFF7FEFF 		bl	TIM_SlaveTimer_SetConfig
 3378 001c 0346     		mov	r3, r0
 3379 001e 30B1     		cbz	r0, .L384
 3380 0020 0123     		movs	r3, #1
 3381 0022 84F83D30 		strb	r3, [r4, #61]
 3382 0026 0022     		movs	r2, #0
 3383 0028 84F83C20 		strb	r2, [r4, #60]
 3384 002c 13E0     		b	.L383
 3385              	.L384:
 3386 002e 2168     		ldr	r1, [r4]
 3387 0030 CA68     		ldr	r2, [r1, #12]
 3388 0032 22F04002 		bic	r2, r2, #64
 3389 0036 CA60     		str	r2, [r1, #12]
 3390 0038 2168     		ldr	r1, [r4]
 3391 003a CA68     		ldr	r2, [r1, #12]
 3392 003c 22F48042 		bic	r2, r2, #16384
 3393 0040 CA60     		str	r2, [r1, #12]
 3394 0042 0122     		movs	r2, #1
 3395 0044 84F83D20 		strb	r2, [r4, #61]
 3396 0048 0022     		movs	r2, #0
 3397 004a 84F83C20 		strb	r2, [r4, #60]
 3398 004e 02E0     		b	.L383
 3399              	.L385:
 3400 0050 0223     		movs	r3, #2
 3401 0052 1846     		mov	r0, r3
 3402 0054 7047     		bx	lr
 3403              	.L383:
 3404 0056 1846     		mov	r0, r3
 3405 0058 10BD     		pop	{r4, pc}
 3407              		.section	.text.HAL_TIM_SlaveConfigSynchro_IT,"ax",%progbits
 3408              		.align	2
 3409              		.global	HAL_TIM_SlaveConfigSynchro_IT
 3410              		.thumb
 3411              		.thumb_func
 3413              	HAL_TIM_SlaveConfigSynchro_IT:
 3414              		@ args = 0, pretend = 0, frame = 0
 3415              		@ frame_needed = 0, uses_anonymous_args = 0
 3416 0000 90F83C30 		ldrb	r3, [r0, #60]	@ zero_extendqisi2
 3417 0004 012B     		cmp	r3, #1
 3418 0006 23D0     		beq	.L391
ARM GAS  /tmp/ccEnBWAK.s 			page 58


 3419 0008 10B5     		push	{r4, lr}
 3420 000a 0446     		mov	r4, r0
 3421 000c 0123     		movs	r3, #1
 3422 000e 80F83C30 		strb	r3, [r0, #60]
 3423 0012 0223     		movs	r3, #2
 3424 0014 80F83D30 		strb	r3, [r0, #61]
 3425 0018 FFF7FEFF 		bl	TIM_SlaveTimer_SetConfig
 3426 001c 0346     		mov	r3, r0
 3427 001e 30B1     		cbz	r0, .L390
 3428 0020 0123     		movs	r3, #1
 3429 0022 84F83D30 		strb	r3, [r4, #61]
 3430 0026 0022     		movs	r2, #0
 3431 0028 84F83C20 		strb	r2, [r4, #60]
 3432 002c 13E0     		b	.L389
 3433              	.L390:
 3434 002e 2168     		ldr	r1, [r4]
 3435 0030 CA68     		ldr	r2, [r1, #12]
 3436 0032 42F04002 		orr	r2, r2, #64
 3437 0036 CA60     		str	r2, [r1, #12]
 3438 0038 2168     		ldr	r1, [r4]
 3439 003a CA68     		ldr	r2, [r1, #12]
 3440 003c 22F48042 		bic	r2, r2, #16384
 3441 0040 CA60     		str	r2, [r1, #12]
 3442 0042 0122     		movs	r2, #1
 3443 0044 84F83D20 		strb	r2, [r4, #61]
 3444 0048 0022     		movs	r2, #0
 3445 004a 84F83C20 		strb	r2, [r4, #60]
 3446 004e 02E0     		b	.L389
 3447              	.L391:
 3448 0050 0223     		movs	r3, #2
 3449 0052 1846     		mov	r0, r3
 3450 0054 7047     		bx	lr
 3451              	.L389:
 3452 0056 1846     		mov	r0, r3
 3453 0058 10BD     		pop	{r4, pc}
 3455              		.section	.text.TIM_CCxChannelCmd,"ax",%progbits
 3456              		.align	2
 3457              		.global	TIM_CCxChannelCmd
 3458              		.thumb
 3459              		.thumb_func
 3461              	TIM_CCxChannelCmd:
 3462              		@ args = 0, pretend = 0, frame = 0
 3463              		@ frame_needed = 0, uses_anonymous_args = 0
 3464              		@ link register save eliminated.
 3465 0000 10B4     		push	{r4}
 3466 0002 01F01F01 		and	r1, r1, #31
 3467 0006 0123     		movs	r3, #1
 3468 0008 8B40     		lsls	r3, r3, r1
 3469 000a 046A     		ldr	r4, [r0, #32]
 3470 000c 24EA0303 		bic	r3, r4, r3
 3471 0010 0362     		str	r3, [r0, #32]
 3472 0012 036A     		ldr	r3, [r0, #32]
 3473 0014 8A40     		lsls	r2, r2, r1
 3474 0016 1A43     		orrs	r2, r2, r3
 3475 0018 0262     		str	r2, [r0, #32]
 3476 001a 5DF8044B 		ldr	r4, [sp], #4
 3477 001e 7047     		bx	lr
ARM GAS  /tmp/ccEnBWAK.s 			page 59


 3479              		.section	.text.HAL_TIM_OC_Start,"ax",%progbits
 3480              		.align	2
 3481              		.global	HAL_TIM_OC_Start
 3482              		.thumb
 3483              		.thumb_func
 3485              	HAL_TIM_OC_Start:
 3486              		@ args = 0, pretend = 0, frame = 0
 3487              		@ frame_needed = 0, uses_anonymous_args = 0
 3488 0000 10B5     		push	{r4, lr}
 3489 0002 0446     		mov	r4, r0
 3490 0004 0068     		ldr	r0, [r0]
 3491 0006 0122     		movs	r2, #1
 3492 0008 FFF7FEFF 		bl	TIM_CCxChannelCmd
 3493 000c 2368     		ldr	r3, [r4]
 3494 000e 094A     		ldr	r2, .L400
 3495 0010 9342     		cmp	r3, r2
 3496 0012 03D1     		bne	.L397
 3497 0014 5A6C     		ldr	r2, [r3, #68]
 3498 0016 42F40042 		orr	r2, r2, #32768
 3499 001a 5A64     		str	r2, [r3, #68]
 3500              	.L397:
 3501 001c 2268     		ldr	r2, [r4]
 3502 001e 9368     		ldr	r3, [r2, #8]
 3503 0020 03F00703 		and	r3, r3, #7
 3504 0024 062B     		cmp	r3, #6
 3505 0026 03D0     		beq	.L398
 3506 0028 1368     		ldr	r3, [r2]
 3507 002a 43F00103 		orr	r3, r3, #1
 3508 002e 1360     		str	r3, [r2]
 3509              	.L398:
 3510 0030 0020     		movs	r0, #0
 3511 0032 10BD     		pop	{r4, pc}
 3512              	.L401:
 3513              		.align	2
 3514              	.L400:
 3515 0034 002C0140 		.word	1073818624
 3517              		.section	.text.HAL_TIM_OC_Stop,"ax",%progbits
 3518              		.align	2
 3519              		.global	HAL_TIM_OC_Stop
 3520              		.thumb
 3521              		.thumb_func
 3523              	HAL_TIM_OC_Stop:
 3524              		@ args = 0, pretend = 0, frame = 0
 3525              		@ frame_needed = 0, uses_anonymous_args = 0
 3526 0000 10B5     		push	{r4, lr}
 3527 0002 0446     		mov	r4, r0
 3528 0004 0068     		ldr	r0, [r0]
 3529 0006 0022     		movs	r2, #0
 3530 0008 FFF7FEFF 		bl	TIM_CCxChannelCmd
 3531 000c 2368     		ldr	r3, [r4]
 3532 000e 114A     		ldr	r2, .L406
 3533 0010 9342     		cmp	r3, r2
 3534 0012 0DD1     		bne	.L403
 3535 0014 196A     		ldr	r1, [r3, #32]
 3536 0016 41F21112 		movw	r2, #4369
 3537 001a 1142     		tst	r1, r2
 3538 001c 08D1     		bne	.L403
ARM GAS  /tmp/ccEnBWAK.s 			page 60


 3539 001e 196A     		ldr	r1, [r3, #32]
 3540 0020 40F24442 		movw	r2, #1092
 3541 0024 1142     		tst	r1, r2
 3542 0026 03D1     		bne	.L403
 3543 0028 5A6C     		ldr	r2, [r3, #68]
 3544 002a 22F40042 		bic	r2, r2, #32768
 3545 002e 5A64     		str	r2, [r3, #68]
 3546              	.L403:
 3547 0030 2368     		ldr	r3, [r4]
 3548 0032 196A     		ldr	r1, [r3, #32]
 3549 0034 41F21112 		movw	r2, #4369
 3550 0038 1142     		tst	r1, r2
 3551 003a 08D1     		bne	.L404
 3552 003c 196A     		ldr	r1, [r3, #32]
 3553 003e 40F24442 		movw	r2, #1092
 3554 0042 1142     		tst	r1, r2
 3555 0044 03D1     		bne	.L404
 3556 0046 1A68     		ldr	r2, [r3]
 3557 0048 22F00102 		bic	r2, r2, #1
 3558 004c 1A60     		str	r2, [r3]
 3559              	.L404:
 3560 004e 0020     		movs	r0, #0
 3561 0050 10BD     		pop	{r4, pc}
 3562              	.L407:
 3563 0052 00BF     		.align	2
 3564              	.L406:
 3565 0054 002C0140 		.word	1073818624
 3567              		.section	.text.HAL_TIM_OC_Start_IT,"ax",%progbits
 3568              		.align	2
 3569              		.global	HAL_TIM_OC_Start_IT
 3570              		.thumb
 3571              		.thumb_func
 3573              	HAL_TIM_OC_Start_IT:
 3574              		@ args = 0, pretend = 0, frame = 0
 3575              		@ frame_needed = 0, uses_anonymous_args = 0
 3576 0000 10B5     		push	{r4, lr}
 3577 0002 0446     		mov	r4, r0
 3578 0004 0C29     		cmp	r1, #12
 3579 0006 1FD8     		bhi	.L409
 3580 0008 DFE801F0 		tbb	[pc, r1]
 3581              	.L411:
 3582 000c 07       		.byte	(.L410-.L411)/2
 3583 000d 1E       		.byte	(.L409-.L411)/2
 3584 000e 1E       		.byte	(.L409-.L411)/2
 3585 000f 1E       		.byte	(.L409-.L411)/2
 3586 0010 0D       		.byte	(.L412-.L411)/2
 3587 0011 1E       		.byte	(.L409-.L411)/2
 3588 0012 1E       		.byte	(.L409-.L411)/2
 3589 0013 1E       		.byte	(.L409-.L411)/2
 3590 0014 13       		.byte	(.L413-.L411)/2
 3591 0015 1E       		.byte	(.L409-.L411)/2
 3592 0016 1E       		.byte	(.L409-.L411)/2
 3593 0017 1E       		.byte	(.L409-.L411)/2
 3594 0018 19       		.byte	(.L414-.L411)/2
 3595 0019 00       		.p2align 1
 3596              	.L410:
 3597 001a 0268     		ldr	r2, [r0]
ARM GAS  /tmp/ccEnBWAK.s 			page 61


 3598 001c D368     		ldr	r3, [r2, #12]
 3599 001e 43F00203 		orr	r3, r3, #2
 3600 0022 D360     		str	r3, [r2, #12]
 3601 0024 10E0     		b	.L409
 3602              	.L412:
 3603 0026 0268     		ldr	r2, [r0]
 3604 0028 D368     		ldr	r3, [r2, #12]
 3605 002a 43F00403 		orr	r3, r3, #4
 3606 002e D360     		str	r3, [r2, #12]
 3607 0030 0AE0     		b	.L409
 3608              	.L413:
 3609 0032 0268     		ldr	r2, [r0]
 3610 0034 D368     		ldr	r3, [r2, #12]
 3611 0036 43F00803 		orr	r3, r3, #8
 3612 003a D360     		str	r3, [r2, #12]
 3613 003c 04E0     		b	.L409
 3614              	.L414:
 3615 003e 0268     		ldr	r2, [r0]
 3616 0040 D368     		ldr	r3, [r2, #12]
 3617 0042 43F01003 		orr	r3, r3, #16
 3618 0046 D360     		str	r3, [r2, #12]
 3619              	.L409:
 3620 0048 2068     		ldr	r0, [r4]
 3621 004a 0122     		movs	r2, #1
 3622 004c FFF7FEFF 		bl	TIM_CCxChannelCmd
 3623 0050 2368     		ldr	r3, [r4]
 3624 0052 094A     		ldr	r2, .L418
 3625 0054 9342     		cmp	r3, r2
 3626 0056 03D1     		bne	.L415
 3627 0058 5A6C     		ldr	r2, [r3, #68]
 3628 005a 42F40042 		orr	r2, r2, #32768
 3629 005e 5A64     		str	r2, [r3, #68]
 3630              	.L415:
 3631 0060 2268     		ldr	r2, [r4]
 3632 0062 9368     		ldr	r3, [r2, #8]
 3633 0064 03F00703 		and	r3, r3, #7
 3634 0068 062B     		cmp	r3, #6
 3635 006a 03D0     		beq	.L416
 3636 006c 1368     		ldr	r3, [r2]
 3637 006e 43F00103 		orr	r3, r3, #1
 3638 0072 1360     		str	r3, [r2]
 3639              	.L416:
 3640 0074 0020     		movs	r0, #0
 3641 0076 10BD     		pop	{r4, pc}
 3642              	.L419:
 3643              		.align	2
 3644              	.L418:
 3645 0078 002C0140 		.word	1073818624
 3647              		.section	.text.HAL_TIM_OC_Stop_IT,"ax",%progbits
 3648              		.align	2
 3649              		.global	HAL_TIM_OC_Stop_IT
 3650              		.thumb
 3651              		.thumb_func
 3653              	HAL_TIM_OC_Stop_IT:
 3654              		@ args = 0, pretend = 0, frame = 0
 3655              		@ frame_needed = 0, uses_anonymous_args = 0
 3656 0000 10B5     		push	{r4, lr}
ARM GAS  /tmp/ccEnBWAK.s 			page 62


 3657 0002 0446     		mov	r4, r0
 3658 0004 0C29     		cmp	r1, #12
 3659 0006 1FD8     		bhi	.L421
 3660 0008 DFE801F0 		tbb	[pc, r1]
 3661              	.L423:
 3662 000c 07       		.byte	(.L422-.L423)/2
 3663 000d 1E       		.byte	(.L421-.L423)/2
 3664 000e 1E       		.byte	(.L421-.L423)/2
 3665 000f 1E       		.byte	(.L421-.L423)/2
 3666 0010 0D       		.byte	(.L424-.L423)/2
 3667 0011 1E       		.byte	(.L421-.L423)/2
 3668 0012 1E       		.byte	(.L421-.L423)/2
 3669 0013 1E       		.byte	(.L421-.L423)/2
 3670 0014 13       		.byte	(.L425-.L423)/2
 3671 0015 1E       		.byte	(.L421-.L423)/2
 3672 0016 1E       		.byte	(.L421-.L423)/2
 3673 0017 1E       		.byte	(.L421-.L423)/2
 3674 0018 19       		.byte	(.L426-.L423)/2
 3675 0019 00       		.p2align 1
 3676              	.L422:
 3677 001a 0268     		ldr	r2, [r0]
 3678 001c D368     		ldr	r3, [r2, #12]
 3679 001e 23F00203 		bic	r3, r3, #2
 3680 0022 D360     		str	r3, [r2, #12]
 3681 0024 10E0     		b	.L421
 3682              	.L424:
 3683 0026 0268     		ldr	r2, [r0]
 3684 0028 D368     		ldr	r3, [r2, #12]
 3685 002a 23F00403 		bic	r3, r3, #4
 3686 002e D360     		str	r3, [r2, #12]
 3687 0030 0AE0     		b	.L421
 3688              	.L425:
 3689 0032 0268     		ldr	r2, [r0]
 3690 0034 D368     		ldr	r3, [r2, #12]
 3691 0036 23F00803 		bic	r3, r3, #8
 3692 003a D360     		str	r3, [r2, #12]
 3693 003c 04E0     		b	.L421
 3694              	.L426:
 3695 003e 0268     		ldr	r2, [r0]
 3696 0040 D368     		ldr	r3, [r2, #12]
 3697 0042 23F01003 		bic	r3, r3, #16
 3698 0046 D360     		str	r3, [r2, #12]
 3699              	.L421:
 3700 0048 2068     		ldr	r0, [r4]
 3701 004a 0022     		movs	r2, #0
 3702 004c FFF7FEFF 		bl	TIM_CCxChannelCmd
 3703 0050 2368     		ldr	r3, [r4]
 3704 0052 114A     		ldr	r2, .L430
 3705 0054 9342     		cmp	r3, r2
 3706 0056 0DD1     		bne	.L427
 3707 0058 196A     		ldr	r1, [r3, #32]
 3708 005a 41F21112 		movw	r2, #4369
 3709 005e 1142     		tst	r1, r2
 3710 0060 08D1     		bne	.L427
 3711 0062 196A     		ldr	r1, [r3, #32]
 3712 0064 40F24442 		movw	r2, #1092
 3713 0068 1142     		tst	r1, r2
ARM GAS  /tmp/ccEnBWAK.s 			page 63


 3714 006a 03D1     		bne	.L427
 3715 006c 5A6C     		ldr	r2, [r3, #68]
 3716 006e 22F40042 		bic	r2, r2, #32768
 3717 0072 5A64     		str	r2, [r3, #68]
 3718              	.L427:
 3719 0074 2368     		ldr	r3, [r4]
 3720 0076 196A     		ldr	r1, [r3, #32]
 3721 0078 41F21112 		movw	r2, #4369
 3722 007c 1142     		tst	r1, r2
 3723 007e 08D1     		bne	.L428
 3724 0080 196A     		ldr	r1, [r3, #32]
 3725 0082 40F24442 		movw	r2, #1092
 3726 0086 1142     		tst	r1, r2
 3727 0088 03D1     		bne	.L428
 3728 008a 1A68     		ldr	r2, [r3]
 3729 008c 22F00102 		bic	r2, r2, #1
 3730 0090 1A60     		str	r2, [r3]
 3731              	.L428:
 3732 0092 0020     		movs	r0, #0
 3733 0094 10BD     		pop	{r4, pc}
 3734              	.L431:
 3735 0096 00BF     		.align	2
 3736              	.L430:
 3737 0098 002C0140 		.word	1073818624
 3739              		.section	.text.HAL_TIM_OC_Start_DMA,"ax",%progbits
 3740              		.align	2
 3741              		.global	HAL_TIM_OC_Start_DMA
 3742              		.thumb
 3743              		.thumb_func
 3745              	HAL_TIM_OC_Start_DMA:
 3746              		@ args = 0, pretend = 0, frame = 0
 3747              		@ frame_needed = 0, uses_anonymous_args = 0
 3748 0000 70B5     		push	{r4, r5, r6, lr}
 3749 0002 90F83D40 		ldrb	r4, [r0, #61]	@ zero_extendqisi2
 3750 0006 E4B2     		uxtb	r4, r4
 3751 0008 022C     		cmp	r4, #2
 3752 000a 00F09080 		beq	.L443
 3753 000e 90F83D40 		ldrb	r4, [r0, #61]	@ zero_extendqisi2
 3754 0012 E4B2     		uxtb	r4, r4
 3755 0014 012C     		cmp	r4, #1
 3756 0016 06D1     		bne	.L434
 3757 0018 12B9     		cbnz	r2, .L435
 3758 001a 002B     		cmp	r3, #0
 3759 001c 40F08980 		bne	.L444
 3760              	.L435:
 3761 0020 0224     		movs	r4, #2
 3762 0022 80F83D40 		strb	r4, [r0, #61]
 3763              	.L434:
 3764 0026 0D46     		mov	r5, r1
 3765 0028 0446     		mov	r4, r0
 3766 002a 0C2D     		cmp	r5, #12
 3767 002c 66D8     		bhi	.L436
 3768 002e DFE805F0 		tbb	[pc, r5]
 3769              	.L438:
 3770 0032 07       		.byte	(.L437-.L438)/2
 3771 0033 65       		.byte	(.L436-.L438)/2
 3772 0034 65       		.byte	(.L436-.L438)/2
ARM GAS  /tmp/ccEnBWAK.s 			page 64


 3773 0035 65       		.byte	(.L436-.L438)/2
 3774 0036 1F       		.byte	(.L439-.L438)/2
 3775 0037 65       		.byte	(.L436-.L438)/2
 3776 0038 65       		.byte	(.L436-.L438)/2
 3777 0039 65       		.byte	(.L436-.L438)/2
 3778 003a 37       		.byte	(.L440-.L438)/2
 3779 003b 65       		.byte	(.L436-.L438)/2
 3780 003c 65       		.byte	(.L436-.L438)/2
 3781 003d 65       		.byte	(.L436-.L438)/2
 3782 003e 4F       		.byte	(.L441-.L438)/2
 3783 003f 00       		.p2align 1
 3784              	.L437:
 3785 0040 416A     		ldr	r1, [r0, #36]
 3786 0042 4248     		ldr	r0, .L451
 3787 0044 8862     		str	r0, [r1, #40]
 3788 0046 616A     		ldr	r1, [r4, #36]
 3789 0048 4148     		ldr	r0, .L451+4
 3790 004a C862     		str	r0, [r1, #44]
 3791 004c 616A     		ldr	r1, [r4, #36]
 3792 004e 4148     		ldr	r0, .L451+8
 3793 0050 0863     		str	r0, [r1, #48]
 3794 0052 2668     		ldr	r6, [r4]
 3795 0054 606A     		ldr	r0, [r4, #36]
 3796 0056 1146     		mov	r1, r2
 3797 0058 06F13402 		add	r2, r6, #52
 3798 005c FFF7FEFF 		bl	HAL_DMA_Start_IT
 3799 0060 0028     		cmp	r0, #0
 3800 0062 68D1     		bne	.L445
 3801 0064 2268     		ldr	r2, [r4]
 3802 0066 D368     		ldr	r3, [r2, #12]
 3803 0068 43F40073 		orr	r3, r3, #512
 3804 006c D360     		str	r3, [r2, #12]
 3805 006e 45E0     		b	.L436
 3806              	.L439:
 3807 0070 816A     		ldr	r1, [r0, #40]
 3808 0072 3648     		ldr	r0, .L451
 3809 0074 8862     		str	r0, [r1, #40]
 3810 0076 A16A     		ldr	r1, [r4, #40]
 3811 0078 3548     		ldr	r0, .L451+4
 3812 007a C862     		str	r0, [r1, #44]
 3813 007c A16A     		ldr	r1, [r4, #40]
 3814 007e 3548     		ldr	r0, .L451+8
 3815 0080 0863     		str	r0, [r1, #48]
 3816 0082 2668     		ldr	r6, [r4]
 3817 0084 A06A     		ldr	r0, [r4, #40]
 3818 0086 1146     		mov	r1, r2
 3819 0088 06F13802 		add	r2, r6, #56
 3820 008c FFF7FEFF 		bl	HAL_DMA_Start_IT
 3821 0090 0028     		cmp	r0, #0
 3822 0092 52D1     		bne	.L446
 3823 0094 2268     		ldr	r2, [r4]
 3824 0096 D368     		ldr	r3, [r2, #12]
 3825 0098 43F48063 		orr	r3, r3, #1024
 3826 009c D360     		str	r3, [r2, #12]
 3827 009e 2DE0     		b	.L436
 3828              	.L440:
 3829 00a0 C16A     		ldr	r1, [r0, #44]
ARM GAS  /tmp/ccEnBWAK.s 			page 65


 3830 00a2 2A48     		ldr	r0, .L451
 3831 00a4 8862     		str	r0, [r1, #40]
 3832 00a6 E16A     		ldr	r1, [r4, #44]
 3833 00a8 2948     		ldr	r0, .L451+4
 3834 00aa C862     		str	r0, [r1, #44]
 3835 00ac E16A     		ldr	r1, [r4, #44]
 3836 00ae 2948     		ldr	r0, .L451+8
 3837 00b0 0863     		str	r0, [r1, #48]
 3838 00b2 2668     		ldr	r6, [r4]
 3839 00b4 E06A     		ldr	r0, [r4, #44]
 3840 00b6 1146     		mov	r1, r2
 3841 00b8 06F13C02 		add	r2, r6, #60
 3842 00bc FFF7FEFF 		bl	HAL_DMA_Start_IT
 3843 00c0 0028     		cmp	r0, #0
 3844 00c2 3CD1     		bne	.L447
 3845 00c4 2268     		ldr	r2, [r4]
 3846 00c6 D368     		ldr	r3, [r2, #12]
 3847 00c8 43F40063 		orr	r3, r3, #2048
 3848 00cc D360     		str	r3, [r2, #12]
 3849 00ce 15E0     		b	.L436
 3850              	.L441:
 3851 00d0 016B     		ldr	r1, [r0, #48]
 3852 00d2 1E48     		ldr	r0, .L451
 3853 00d4 8862     		str	r0, [r1, #40]
 3854 00d6 216B     		ldr	r1, [r4, #48]
 3855 00d8 1D48     		ldr	r0, .L451+4
 3856 00da C862     		str	r0, [r1, #44]
 3857 00dc 216B     		ldr	r1, [r4, #48]
 3858 00de 1D48     		ldr	r0, .L451+8
 3859 00e0 0863     		str	r0, [r1, #48]
 3860 00e2 2668     		ldr	r6, [r4]
 3861 00e4 206B     		ldr	r0, [r4, #48]
 3862 00e6 1146     		mov	r1, r2
 3863 00e8 06F14002 		add	r2, r6, #64
 3864 00ec FFF7FEFF 		bl	HAL_DMA_Start_IT
 3865 00f0 38BB     		cbnz	r0, .L448
 3866 00f2 2268     		ldr	r2, [r4]
 3867 00f4 D368     		ldr	r3, [r2, #12]
 3868 00f6 43F48053 		orr	r3, r3, #4096
 3869 00fa D360     		str	r3, [r2, #12]
 3870              	.L436:
 3871 00fc 2068     		ldr	r0, [r4]
 3872 00fe 2946     		mov	r1, r5
 3873 0100 0122     		movs	r2, #1
 3874 0102 FFF7FEFF 		bl	TIM_CCxChannelCmd
 3875 0106 2368     		ldr	r3, [r4]
 3876 0108 134A     		ldr	r2, .L451+12
 3877 010a 9342     		cmp	r3, r2
 3878 010c 03D1     		bne	.L442
 3879 010e 5A6C     		ldr	r2, [r3, #68]
 3880 0110 42F40042 		orr	r2, r2, #32768
 3881 0114 5A64     		str	r2, [r3, #68]
 3882              	.L442:
 3883 0116 2268     		ldr	r2, [r4]
 3884 0118 9368     		ldr	r3, [r2, #8]
 3885 011a 03F00703 		and	r3, r3, #7
 3886 011e 062B     		cmp	r3, #6
ARM GAS  /tmp/ccEnBWAK.s 			page 66


 3887 0120 11D0     		beq	.L449
 3888 0122 1368     		ldr	r3, [r2]
 3889 0124 43F00103 		orr	r3, r3, #1
 3890 0128 1360     		str	r3, [r2]
 3891 012a 0020     		movs	r0, #0
 3892 012c 70BD     		pop	{r4, r5, r6, pc}
 3893              	.L443:
 3894 012e 0220     		movs	r0, #2
 3895 0130 70BD     		pop	{r4, r5, r6, pc}
 3896              	.L444:
 3897 0132 0120     		movs	r0, #1
 3898 0134 70BD     		pop	{r4, r5, r6, pc}
 3899              	.L445:
 3900 0136 0120     		movs	r0, #1
 3901 0138 70BD     		pop	{r4, r5, r6, pc}
 3902              	.L446:
 3903 013a 0120     		movs	r0, #1
 3904 013c 70BD     		pop	{r4, r5, r6, pc}
 3905              	.L447:
 3906 013e 0120     		movs	r0, #1
 3907 0140 70BD     		pop	{r4, r5, r6, pc}
 3908              	.L448:
 3909 0142 0120     		movs	r0, #1
 3910 0144 70BD     		pop	{r4, r5, r6, pc}
 3911              	.L449:
 3912 0146 0020     		movs	r0, #0
 3913 0148 70BD     		pop	{r4, r5, r6, pc}
 3914              	.L452:
 3915 014a 00BF     		.align	2
 3916              	.L451:
 3917 014c 00000000 		.word	TIM_DMADelayPulseCplt
 3918 0150 00000000 		.word	TIM_DMADelayPulseHalfCplt
 3919 0154 00000000 		.word	TIM_DMAError
 3920 0158 002C0140 		.word	1073818624
 3922              		.section	.text.HAL_TIM_OC_Stop_DMA,"ax",%progbits
 3923              		.align	2
 3924              		.global	HAL_TIM_OC_Stop_DMA
 3925              		.thumb
 3926              		.thumb_func
 3928              	HAL_TIM_OC_Stop_DMA:
 3929              		@ args = 0, pretend = 0, frame = 0
 3930              		@ frame_needed = 0, uses_anonymous_args = 0
 3931 0000 38B5     		push	{r3, r4, r5, lr}
 3932 0002 0446     		mov	r4, r0
 3933 0004 0D46     		mov	r5, r1
 3934 0006 0C29     		cmp	r1, #12
 3935 0008 2BD8     		bhi	.L454
 3936 000a DFE801F0 		tbb	[pc, r1]
 3937              	.L456:
 3938 000e 07       		.byte	(.L455-.L456)/2
 3939 000f 2A       		.byte	(.L454-.L456)/2
 3940 0010 2A       		.byte	(.L454-.L456)/2
 3941 0011 2A       		.byte	(.L454-.L456)/2
 3942 0012 10       		.byte	(.L457-.L456)/2
 3943 0013 2A       		.byte	(.L454-.L456)/2
 3944 0014 2A       		.byte	(.L454-.L456)/2
 3945 0015 2A       		.byte	(.L454-.L456)/2
ARM GAS  /tmp/ccEnBWAK.s 			page 67


 3946 0016 19       		.byte	(.L458-.L456)/2
 3947 0017 2A       		.byte	(.L454-.L456)/2
 3948 0018 2A       		.byte	(.L454-.L456)/2
 3949 0019 2A       		.byte	(.L454-.L456)/2
 3950 001a 22       		.byte	(.L459-.L456)/2
 3951 001b 00       		.p2align 1
 3952              	.L455:
 3953 001c 0268     		ldr	r2, [r0]
 3954 001e D368     		ldr	r3, [r2, #12]
 3955 0020 23F40073 		bic	r3, r3, #512
 3956 0024 D360     		str	r3, [r2, #12]
 3957 0026 406A     		ldr	r0, [r0, #36]
 3958 0028 FFF7FEFF 		bl	HAL_DMA_Abort_IT
 3959 002c 19E0     		b	.L454
 3960              	.L457:
 3961 002e 0268     		ldr	r2, [r0]
 3962 0030 D368     		ldr	r3, [r2, #12]
 3963 0032 23F48063 		bic	r3, r3, #1024
 3964 0036 D360     		str	r3, [r2, #12]
 3965 0038 806A     		ldr	r0, [r0, #40]
 3966 003a FFF7FEFF 		bl	HAL_DMA_Abort_IT
 3967 003e 10E0     		b	.L454
 3968              	.L458:
 3969 0040 0268     		ldr	r2, [r0]
 3970 0042 D368     		ldr	r3, [r2, #12]
 3971 0044 23F40063 		bic	r3, r3, #2048
 3972 0048 D360     		str	r3, [r2, #12]
 3973 004a C06A     		ldr	r0, [r0, #44]
 3974 004c FFF7FEFF 		bl	HAL_DMA_Abort_IT
 3975 0050 07E0     		b	.L454
 3976              	.L459:
 3977 0052 0268     		ldr	r2, [r0]
 3978 0054 D368     		ldr	r3, [r2, #12]
 3979 0056 23F48053 		bic	r3, r3, #4096
 3980 005a D360     		str	r3, [r2, #12]
 3981 005c 006B     		ldr	r0, [r0, #48]
 3982 005e FFF7FEFF 		bl	HAL_DMA_Abort_IT
 3983              	.L454:
 3984 0062 2068     		ldr	r0, [r4]
 3985 0064 2946     		mov	r1, r5
 3986 0066 0022     		movs	r2, #0
 3987 0068 FFF7FEFF 		bl	TIM_CCxChannelCmd
 3988 006c 2368     		ldr	r3, [r4]
 3989 006e 124A     		ldr	r2, .L463
 3990 0070 9342     		cmp	r3, r2
 3991 0072 0DD1     		bne	.L460
 3992 0074 196A     		ldr	r1, [r3, #32]
 3993 0076 41F21112 		movw	r2, #4369
 3994 007a 1142     		tst	r1, r2
 3995 007c 08D1     		bne	.L460
 3996 007e 196A     		ldr	r1, [r3, #32]
 3997 0080 40F24442 		movw	r2, #1092
 3998 0084 1142     		tst	r1, r2
 3999 0086 03D1     		bne	.L460
 4000 0088 5A6C     		ldr	r2, [r3, #68]
 4001 008a 22F40042 		bic	r2, r2, #32768
 4002 008e 5A64     		str	r2, [r3, #68]
ARM GAS  /tmp/ccEnBWAK.s 			page 68


 4003              	.L460:
 4004 0090 2368     		ldr	r3, [r4]
 4005 0092 196A     		ldr	r1, [r3, #32]
 4006 0094 41F21112 		movw	r2, #4369
 4007 0098 1142     		tst	r1, r2
 4008 009a 08D1     		bne	.L461
 4009 009c 196A     		ldr	r1, [r3, #32]
 4010 009e 40F24442 		movw	r2, #1092
 4011 00a2 1142     		tst	r1, r2
 4012 00a4 03D1     		bne	.L461
 4013 00a6 1A68     		ldr	r2, [r3]
 4014 00a8 22F00102 		bic	r2, r2, #1
 4015 00ac 1A60     		str	r2, [r3]
 4016              	.L461:
 4017 00ae 0123     		movs	r3, #1
 4018 00b0 84F83D30 		strb	r3, [r4, #61]
 4019 00b4 0020     		movs	r0, #0
 4020 00b6 38BD     		pop	{r3, r4, r5, pc}
 4021              	.L464:
 4022              		.align	2
 4023              	.L463:
 4024 00b8 002C0140 		.word	1073818624
 4026              		.section	.text.HAL_TIM_PWM_Start,"ax",%progbits
 4027              		.align	2
 4028              		.global	HAL_TIM_PWM_Start
 4029              		.thumb
 4030              		.thumb_func
 4032              	HAL_TIM_PWM_Start:
 4033              		@ args = 0, pretend = 0, frame = 0
 4034              		@ frame_needed = 0, uses_anonymous_args = 0
 4035 0000 10B5     		push	{r4, lr}
 4036 0002 0446     		mov	r4, r0
 4037 0004 0068     		ldr	r0, [r0]
 4038 0006 0122     		movs	r2, #1
 4039 0008 FFF7FEFF 		bl	TIM_CCxChannelCmd
 4040 000c 2368     		ldr	r3, [r4]
 4041 000e 094A     		ldr	r2, .L469
 4042 0010 9342     		cmp	r3, r2
 4043 0012 03D1     		bne	.L466
 4044 0014 5A6C     		ldr	r2, [r3, #68]
 4045 0016 42F40042 		orr	r2, r2, #32768
 4046 001a 5A64     		str	r2, [r3, #68]
 4047              	.L466:
 4048 001c 2268     		ldr	r2, [r4]
 4049 001e 9368     		ldr	r3, [r2, #8]
 4050 0020 03F00703 		and	r3, r3, #7
 4051 0024 062B     		cmp	r3, #6
 4052 0026 03D0     		beq	.L467
 4053 0028 1368     		ldr	r3, [r2]
 4054 002a 43F00103 		orr	r3, r3, #1
 4055 002e 1360     		str	r3, [r2]
 4056              	.L467:
 4057 0030 0020     		movs	r0, #0
 4058 0032 10BD     		pop	{r4, pc}
 4059              	.L470:
 4060              		.align	2
 4061              	.L469:
ARM GAS  /tmp/ccEnBWAK.s 			page 69


 4062 0034 002C0140 		.word	1073818624
 4064              		.section	.text.HAL_TIM_PWM_Stop,"ax",%progbits
 4065              		.align	2
 4066              		.global	HAL_TIM_PWM_Stop
 4067              		.thumb
 4068              		.thumb_func
 4070              	HAL_TIM_PWM_Stop:
 4071              		@ args = 0, pretend = 0, frame = 0
 4072              		@ frame_needed = 0, uses_anonymous_args = 0
 4073 0000 10B5     		push	{r4, lr}
 4074 0002 0446     		mov	r4, r0
 4075 0004 0068     		ldr	r0, [r0]
 4076 0006 0022     		movs	r2, #0
 4077 0008 FFF7FEFF 		bl	TIM_CCxChannelCmd
 4078 000c 2368     		ldr	r3, [r4]
 4079 000e 124A     		ldr	r2, .L475
 4080 0010 9342     		cmp	r3, r2
 4081 0012 0DD1     		bne	.L472
 4082 0014 196A     		ldr	r1, [r3, #32]
 4083 0016 41F21112 		movw	r2, #4369
 4084 001a 1142     		tst	r1, r2
 4085 001c 08D1     		bne	.L472
 4086 001e 196A     		ldr	r1, [r3, #32]
 4087 0020 40F24442 		movw	r2, #1092
 4088 0024 1142     		tst	r1, r2
 4089 0026 03D1     		bne	.L472
 4090 0028 5A6C     		ldr	r2, [r3, #68]
 4091 002a 22F40042 		bic	r2, r2, #32768
 4092 002e 5A64     		str	r2, [r3, #68]
 4093              	.L472:
 4094 0030 2368     		ldr	r3, [r4]
 4095 0032 196A     		ldr	r1, [r3, #32]
 4096 0034 41F21112 		movw	r2, #4369
 4097 0038 1142     		tst	r1, r2
 4098 003a 08D1     		bne	.L473
 4099 003c 196A     		ldr	r1, [r3, #32]
 4100 003e 40F24442 		movw	r2, #1092
 4101 0042 1142     		tst	r1, r2
 4102 0044 03D1     		bne	.L473
 4103 0046 1A68     		ldr	r2, [r3]
 4104 0048 22F00102 		bic	r2, r2, #1
 4105 004c 1A60     		str	r2, [r3]
 4106              	.L473:
 4107 004e 0123     		movs	r3, #1
 4108 0050 84F83D30 		strb	r3, [r4, #61]
 4109 0054 0020     		movs	r0, #0
 4110 0056 10BD     		pop	{r4, pc}
 4111              	.L476:
 4112              		.align	2
 4113              	.L475:
 4114 0058 002C0140 		.word	1073818624
 4116              		.section	.text.HAL_TIM_PWM_Start_IT,"ax",%progbits
 4117              		.align	2
 4118              		.global	HAL_TIM_PWM_Start_IT
 4119              		.thumb
 4120              		.thumb_func
 4122              	HAL_TIM_PWM_Start_IT:
ARM GAS  /tmp/ccEnBWAK.s 			page 70


 4123              		@ args = 0, pretend = 0, frame = 0
 4124              		@ frame_needed = 0, uses_anonymous_args = 0
 4125 0000 10B5     		push	{r4, lr}
 4126 0002 0446     		mov	r4, r0
 4127 0004 0C29     		cmp	r1, #12
 4128 0006 1FD8     		bhi	.L478
 4129 0008 DFE801F0 		tbb	[pc, r1]
 4130              	.L480:
 4131 000c 07       		.byte	(.L479-.L480)/2
 4132 000d 1E       		.byte	(.L478-.L480)/2
 4133 000e 1E       		.byte	(.L478-.L480)/2
 4134 000f 1E       		.byte	(.L478-.L480)/2
 4135 0010 0D       		.byte	(.L481-.L480)/2
 4136 0011 1E       		.byte	(.L478-.L480)/2
 4137 0012 1E       		.byte	(.L478-.L480)/2
 4138 0013 1E       		.byte	(.L478-.L480)/2
 4139 0014 13       		.byte	(.L482-.L480)/2
 4140 0015 1E       		.byte	(.L478-.L480)/2
 4141 0016 1E       		.byte	(.L478-.L480)/2
 4142 0017 1E       		.byte	(.L478-.L480)/2
 4143 0018 19       		.byte	(.L483-.L480)/2
 4144 0019 00       		.p2align 1
 4145              	.L479:
 4146 001a 0268     		ldr	r2, [r0]
 4147 001c D368     		ldr	r3, [r2, #12]
 4148 001e 43F00203 		orr	r3, r3, #2
 4149 0022 D360     		str	r3, [r2, #12]
 4150 0024 10E0     		b	.L478
 4151              	.L481:
 4152 0026 0268     		ldr	r2, [r0]
 4153 0028 D368     		ldr	r3, [r2, #12]
 4154 002a 43F00403 		orr	r3, r3, #4
 4155 002e D360     		str	r3, [r2, #12]
 4156 0030 0AE0     		b	.L478
 4157              	.L482:
 4158 0032 0268     		ldr	r2, [r0]
 4159 0034 D368     		ldr	r3, [r2, #12]
 4160 0036 43F00803 		orr	r3, r3, #8
 4161 003a D360     		str	r3, [r2, #12]
 4162 003c 04E0     		b	.L478
 4163              	.L483:
 4164 003e 0268     		ldr	r2, [r0]
 4165 0040 D368     		ldr	r3, [r2, #12]
 4166 0042 43F01003 		orr	r3, r3, #16
 4167 0046 D360     		str	r3, [r2, #12]
 4168              	.L478:
 4169 0048 2068     		ldr	r0, [r4]
 4170 004a 0122     		movs	r2, #1
 4171 004c FFF7FEFF 		bl	TIM_CCxChannelCmd
 4172 0050 2368     		ldr	r3, [r4]
 4173 0052 094A     		ldr	r2, .L487
 4174 0054 9342     		cmp	r3, r2
 4175 0056 03D1     		bne	.L484
 4176 0058 5A6C     		ldr	r2, [r3, #68]
 4177 005a 42F40042 		orr	r2, r2, #32768
 4178 005e 5A64     		str	r2, [r3, #68]
 4179              	.L484:
ARM GAS  /tmp/ccEnBWAK.s 			page 71


 4180 0060 2268     		ldr	r2, [r4]
 4181 0062 9368     		ldr	r3, [r2, #8]
 4182 0064 03F00703 		and	r3, r3, #7
 4183 0068 062B     		cmp	r3, #6
 4184 006a 03D0     		beq	.L485
 4185 006c 1368     		ldr	r3, [r2]
 4186 006e 43F00103 		orr	r3, r3, #1
 4187 0072 1360     		str	r3, [r2]
 4188              	.L485:
 4189 0074 0020     		movs	r0, #0
 4190 0076 10BD     		pop	{r4, pc}
 4191              	.L488:
 4192              		.align	2
 4193              	.L487:
 4194 0078 002C0140 		.word	1073818624
 4196              		.section	.text.HAL_TIM_PWM_Stop_IT,"ax",%progbits
 4197              		.align	2
 4198              		.global	HAL_TIM_PWM_Stop_IT
 4199              		.thumb
 4200              		.thumb_func
 4202              	HAL_TIM_PWM_Stop_IT:
 4203              		@ args = 0, pretend = 0, frame = 0
 4204              		@ frame_needed = 0, uses_anonymous_args = 0
 4205 0000 10B5     		push	{r4, lr}
 4206 0002 0446     		mov	r4, r0
 4207 0004 0C29     		cmp	r1, #12
 4208 0006 1FD8     		bhi	.L490
 4209 0008 DFE801F0 		tbb	[pc, r1]
 4210              	.L492:
 4211 000c 07       		.byte	(.L491-.L492)/2
 4212 000d 1E       		.byte	(.L490-.L492)/2
 4213 000e 1E       		.byte	(.L490-.L492)/2
 4214 000f 1E       		.byte	(.L490-.L492)/2
 4215 0010 0D       		.byte	(.L493-.L492)/2
 4216 0011 1E       		.byte	(.L490-.L492)/2
 4217 0012 1E       		.byte	(.L490-.L492)/2
 4218 0013 1E       		.byte	(.L490-.L492)/2
 4219 0014 13       		.byte	(.L494-.L492)/2
 4220 0015 1E       		.byte	(.L490-.L492)/2
 4221 0016 1E       		.byte	(.L490-.L492)/2
 4222 0017 1E       		.byte	(.L490-.L492)/2
 4223 0018 19       		.byte	(.L495-.L492)/2
 4224 0019 00       		.p2align 1
 4225              	.L491:
 4226 001a 0268     		ldr	r2, [r0]
 4227 001c D368     		ldr	r3, [r2, #12]
 4228 001e 23F00203 		bic	r3, r3, #2
 4229 0022 D360     		str	r3, [r2, #12]
 4230 0024 10E0     		b	.L490
 4231              	.L493:
 4232 0026 0268     		ldr	r2, [r0]
 4233 0028 D368     		ldr	r3, [r2, #12]
 4234 002a 23F00403 		bic	r3, r3, #4
 4235 002e D360     		str	r3, [r2, #12]
 4236 0030 0AE0     		b	.L490
 4237              	.L494:
 4238 0032 0268     		ldr	r2, [r0]
ARM GAS  /tmp/ccEnBWAK.s 			page 72


 4239 0034 D368     		ldr	r3, [r2, #12]
 4240 0036 23F00803 		bic	r3, r3, #8
 4241 003a D360     		str	r3, [r2, #12]
 4242 003c 04E0     		b	.L490
 4243              	.L495:
 4244 003e 0268     		ldr	r2, [r0]
 4245 0040 D368     		ldr	r3, [r2, #12]
 4246 0042 23F01003 		bic	r3, r3, #16
 4247 0046 D360     		str	r3, [r2, #12]
 4248              	.L490:
 4249 0048 2068     		ldr	r0, [r4]
 4250 004a 0022     		movs	r2, #0
 4251 004c FFF7FEFF 		bl	TIM_CCxChannelCmd
 4252 0050 2368     		ldr	r3, [r4]
 4253 0052 114A     		ldr	r2, .L499
 4254 0054 9342     		cmp	r3, r2
 4255 0056 0DD1     		bne	.L496
 4256 0058 196A     		ldr	r1, [r3, #32]
 4257 005a 41F21112 		movw	r2, #4369
 4258 005e 1142     		tst	r1, r2
 4259 0060 08D1     		bne	.L496
 4260 0062 196A     		ldr	r1, [r3, #32]
 4261 0064 40F24442 		movw	r2, #1092
 4262 0068 1142     		tst	r1, r2
 4263 006a 03D1     		bne	.L496
 4264 006c 5A6C     		ldr	r2, [r3, #68]
 4265 006e 22F40042 		bic	r2, r2, #32768
 4266 0072 5A64     		str	r2, [r3, #68]
 4267              	.L496:
 4268 0074 2368     		ldr	r3, [r4]
 4269 0076 196A     		ldr	r1, [r3, #32]
 4270 0078 41F21112 		movw	r2, #4369
 4271 007c 1142     		tst	r1, r2
 4272 007e 08D1     		bne	.L497
 4273 0080 196A     		ldr	r1, [r3, #32]
 4274 0082 40F24442 		movw	r2, #1092
 4275 0086 1142     		tst	r1, r2
 4276 0088 03D1     		bne	.L497
 4277 008a 1A68     		ldr	r2, [r3]
 4278 008c 22F00102 		bic	r2, r2, #1
 4279 0090 1A60     		str	r2, [r3]
 4280              	.L497:
 4281 0092 0020     		movs	r0, #0
 4282 0094 10BD     		pop	{r4, pc}
 4283              	.L500:
 4284 0096 00BF     		.align	2
 4285              	.L499:
 4286 0098 002C0140 		.word	1073818624
 4288              		.section	.text.HAL_TIM_PWM_Start_DMA,"ax",%progbits
 4289              		.align	2
 4290              		.global	HAL_TIM_PWM_Start_DMA
 4291              		.thumb
 4292              		.thumb_func
 4294              	HAL_TIM_PWM_Start_DMA:
 4295              		@ args = 0, pretend = 0, frame = 0
 4296              		@ frame_needed = 0, uses_anonymous_args = 0
 4297 0000 70B5     		push	{r4, r5, r6, lr}
ARM GAS  /tmp/ccEnBWAK.s 			page 73


 4298 0002 90F83D40 		ldrb	r4, [r0, #61]	@ zero_extendqisi2
 4299 0006 E4B2     		uxtb	r4, r4
 4300 0008 022C     		cmp	r4, #2
 4301 000a 00F09080 		beq	.L512
 4302 000e 90F83D40 		ldrb	r4, [r0, #61]	@ zero_extendqisi2
 4303 0012 E4B2     		uxtb	r4, r4
 4304 0014 012C     		cmp	r4, #1
 4305 0016 06D1     		bne	.L503
 4306 0018 12B9     		cbnz	r2, .L504
 4307 001a 002B     		cmp	r3, #0
 4308 001c 40F08980 		bne	.L513
 4309              	.L504:
 4310 0020 0224     		movs	r4, #2
 4311 0022 80F83D40 		strb	r4, [r0, #61]
 4312              	.L503:
 4313 0026 0D46     		mov	r5, r1
 4314 0028 0446     		mov	r4, r0
 4315 002a 0C2D     		cmp	r5, #12
 4316 002c 66D8     		bhi	.L505
 4317 002e DFE805F0 		tbb	[pc, r5]
 4318              	.L507:
 4319 0032 07       		.byte	(.L506-.L507)/2
 4320 0033 65       		.byte	(.L505-.L507)/2
 4321 0034 65       		.byte	(.L505-.L507)/2
 4322 0035 65       		.byte	(.L505-.L507)/2
 4323 0036 1F       		.byte	(.L508-.L507)/2
 4324 0037 65       		.byte	(.L505-.L507)/2
 4325 0038 65       		.byte	(.L505-.L507)/2
 4326 0039 65       		.byte	(.L505-.L507)/2
 4327 003a 37       		.byte	(.L509-.L507)/2
 4328 003b 65       		.byte	(.L505-.L507)/2
 4329 003c 65       		.byte	(.L505-.L507)/2
 4330 003d 65       		.byte	(.L505-.L507)/2
 4331 003e 4F       		.byte	(.L510-.L507)/2
 4332 003f 00       		.p2align 1
 4333              	.L506:
 4334 0040 416A     		ldr	r1, [r0, #36]
 4335 0042 4248     		ldr	r0, .L520
 4336 0044 8862     		str	r0, [r1, #40]
 4337 0046 616A     		ldr	r1, [r4, #36]
 4338 0048 4148     		ldr	r0, .L520+4
 4339 004a C862     		str	r0, [r1, #44]
 4340 004c 616A     		ldr	r1, [r4, #36]
 4341 004e 4148     		ldr	r0, .L520+8
 4342 0050 0863     		str	r0, [r1, #48]
 4343 0052 2668     		ldr	r6, [r4]
 4344 0054 606A     		ldr	r0, [r4, #36]
 4345 0056 1146     		mov	r1, r2
 4346 0058 06F13402 		add	r2, r6, #52
 4347 005c FFF7FEFF 		bl	HAL_DMA_Start_IT
 4348 0060 0028     		cmp	r0, #0
 4349 0062 68D1     		bne	.L514
 4350 0064 2268     		ldr	r2, [r4]
 4351 0066 D368     		ldr	r3, [r2, #12]
 4352 0068 43F40073 		orr	r3, r3, #512
 4353 006c D360     		str	r3, [r2, #12]
 4354 006e 45E0     		b	.L505
ARM GAS  /tmp/ccEnBWAK.s 			page 74


 4355              	.L508:
 4356 0070 816A     		ldr	r1, [r0, #40]
 4357 0072 3648     		ldr	r0, .L520
 4358 0074 8862     		str	r0, [r1, #40]
 4359 0076 A16A     		ldr	r1, [r4, #40]
 4360 0078 3548     		ldr	r0, .L520+4
 4361 007a C862     		str	r0, [r1, #44]
 4362 007c A16A     		ldr	r1, [r4, #40]
 4363 007e 3548     		ldr	r0, .L520+8
 4364 0080 0863     		str	r0, [r1, #48]
 4365 0082 2668     		ldr	r6, [r4]
 4366 0084 A06A     		ldr	r0, [r4, #40]
 4367 0086 1146     		mov	r1, r2
 4368 0088 06F13802 		add	r2, r6, #56
 4369 008c FFF7FEFF 		bl	HAL_DMA_Start_IT
 4370 0090 0028     		cmp	r0, #0
 4371 0092 52D1     		bne	.L515
 4372 0094 2268     		ldr	r2, [r4]
 4373 0096 D368     		ldr	r3, [r2, #12]
 4374 0098 43F48063 		orr	r3, r3, #1024
 4375 009c D360     		str	r3, [r2, #12]
 4376 009e 2DE0     		b	.L505
 4377              	.L509:
 4378 00a0 C16A     		ldr	r1, [r0, #44]
 4379 00a2 2A48     		ldr	r0, .L520
 4380 00a4 8862     		str	r0, [r1, #40]
 4381 00a6 E16A     		ldr	r1, [r4, #44]
 4382 00a8 2948     		ldr	r0, .L520+4
 4383 00aa C862     		str	r0, [r1, #44]
 4384 00ac E16A     		ldr	r1, [r4, #44]
 4385 00ae 2948     		ldr	r0, .L520+8
 4386 00b0 0863     		str	r0, [r1, #48]
 4387 00b2 2668     		ldr	r6, [r4]
 4388 00b4 E06A     		ldr	r0, [r4, #44]
 4389 00b6 1146     		mov	r1, r2
 4390 00b8 06F13C02 		add	r2, r6, #60
 4391 00bc FFF7FEFF 		bl	HAL_DMA_Start_IT
 4392 00c0 0028     		cmp	r0, #0
 4393 00c2 3CD1     		bne	.L516
 4394 00c4 2268     		ldr	r2, [r4]
 4395 00c6 D368     		ldr	r3, [r2, #12]
 4396 00c8 43F40063 		orr	r3, r3, #2048
 4397 00cc D360     		str	r3, [r2, #12]
 4398 00ce 15E0     		b	.L505
 4399              	.L510:
 4400 00d0 016B     		ldr	r1, [r0, #48]
 4401 00d2 1E48     		ldr	r0, .L520
 4402 00d4 8862     		str	r0, [r1, #40]
 4403 00d6 216B     		ldr	r1, [r4, #48]
 4404 00d8 1D48     		ldr	r0, .L520+4
 4405 00da C862     		str	r0, [r1, #44]
 4406 00dc 216B     		ldr	r1, [r4, #48]
 4407 00de 1D48     		ldr	r0, .L520+8
 4408 00e0 0863     		str	r0, [r1, #48]
 4409 00e2 2668     		ldr	r6, [r4]
 4410 00e4 206B     		ldr	r0, [r4, #48]
 4411 00e6 1146     		mov	r1, r2
ARM GAS  /tmp/ccEnBWAK.s 			page 75


 4412 00e8 06F14002 		add	r2, r6, #64
 4413 00ec FFF7FEFF 		bl	HAL_DMA_Start_IT
 4414 00f0 38BB     		cbnz	r0, .L517
 4415 00f2 2268     		ldr	r2, [r4]
 4416 00f4 D368     		ldr	r3, [r2, #12]
 4417 00f6 43F48053 		orr	r3, r3, #4096
 4418 00fa D360     		str	r3, [r2, #12]
 4419              	.L505:
 4420 00fc 2068     		ldr	r0, [r4]
 4421 00fe 2946     		mov	r1, r5
 4422 0100 0122     		movs	r2, #1
 4423 0102 FFF7FEFF 		bl	TIM_CCxChannelCmd
 4424 0106 2368     		ldr	r3, [r4]
 4425 0108 134A     		ldr	r2, .L520+12
 4426 010a 9342     		cmp	r3, r2
 4427 010c 03D1     		bne	.L511
 4428 010e 5A6C     		ldr	r2, [r3, #68]
 4429 0110 42F40042 		orr	r2, r2, #32768
 4430 0114 5A64     		str	r2, [r3, #68]
 4431              	.L511:
 4432 0116 2268     		ldr	r2, [r4]
 4433 0118 9368     		ldr	r3, [r2, #8]
 4434 011a 03F00703 		and	r3, r3, #7
 4435 011e 062B     		cmp	r3, #6
 4436 0120 11D0     		beq	.L518
 4437 0122 1368     		ldr	r3, [r2]
 4438 0124 43F00103 		orr	r3, r3, #1
 4439 0128 1360     		str	r3, [r2]
 4440 012a 0020     		movs	r0, #0
 4441 012c 70BD     		pop	{r4, r5, r6, pc}
 4442              	.L512:
 4443 012e 0220     		movs	r0, #2
 4444 0130 70BD     		pop	{r4, r5, r6, pc}
 4445              	.L513:
 4446 0132 0120     		movs	r0, #1
 4447 0134 70BD     		pop	{r4, r5, r6, pc}
 4448              	.L514:
 4449 0136 0120     		movs	r0, #1
 4450 0138 70BD     		pop	{r4, r5, r6, pc}
 4451              	.L515:
 4452 013a 0120     		movs	r0, #1
 4453 013c 70BD     		pop	{r4, r5, r6, pc}
 4454              	.L516:
 4455 013e 0120     		movs	r0, #1
 4456 0140 70BD     		pop	{r4, r5, r6, pc}
 4457              	.L517:
 4458 0142 0120     		movs	r0, #1
 4459 0144 70BD     		pop	{r4, r5, r6, pc}
 4460              	.L518:
 4461 0146 0020     		movs	r0, #0
 4462 0148 70BD     		pop	{r4, r5, r6, pc}
 4463              	.L521:
 4464 014a 00BF     		.align	2
 4465              	.L520:
 4466 014c 00000000 		.word	TIM_DMADelayPulseCplt
 4467 0150 00000000 		.word	TIM_DMADelayPulseHalfCplt
 4468 0154 00000000 		.word	TIM_DMAError
ARM GAS  /tmp/ccEnBWAK.s 			page 76


 4469 0158 002C0140 		.word	1073818624
 4471              		.section	.text.HAL_TIM_PWM_Stop_DMA,"ax",%progbits
 4472              		.align	2
 4473              		.global	HAL_TIM_PWM_Stop_DMA
 4474              		.thumb
 4475              		.thumb_func
 4477              	HAL_TIM_PWM_Stop_DMA:
 4478              		@ args = 0, pretend = 0, frame = 0
 4479              		@ frame_needed = 0, uses_anonymous_args = 0
 4480 0000 38B5     		push	{r3, r4, r5, lr}
 4481 0002 0446     		mov	r4, r0
 4482 0004 0D46     		mov	r5, r1
 4483 0006 0C29     		cmp	r1, #12
 4484 0008 2BD8     		bhi	.L523
 4485 000a DFE801F0 		tbb	[pc, r1]
 4486              	.L525:
 4487 000e 07       		.byte	(.L524-.L525)/2
 4488 000f 2A       		.byte	(.L523-.L525)/2
 4489 0010 2A       		.byte	(.L523-.L525)/2
 4490 0011 2A       		.byte	(.L523-.L525)/2
 4491 0012 10       		.byte	(.L526-.L525)/2
 4492 0013 2A       		.byte	(.L523-.L525)/2
 4493 0014 2A       		.byte	(.L523-.L525)/2
 4494 0015 2A       		.byte	(.L523-.L525)/2
 4495 0016 19       		.byte	(.L527-.L525)/2
 4496 0017 2A       		.byte	(.L523-.L525)/2
 4497 0018 2A       		.byte	(.L523-.L525)/2
 4498 0019 2A       		.byte	(.L523-.L525)/2
 4499 001a 22       		.byte	(.L528-.L525)/2
 4500 001b 00       		.p2align 1
 4501              	.L524:
 4502 001c 0268     		ldr	r2, [r0]
 4503 001e D368     		ldr	r3, [r2, #12]
 4504 0020 23F40073 		bic	r3, r3, #512
 4505 0024 D360     		str	r3, [r2, #12]
 4506 0026 406A     		ldr	r0, [r0, #36]
 4507 0028 FFF7FEFF 		bl	HAL_DMA_Abort_IT
 4508 002c 19E0     		b	.L523
 4509              	.L526:
 4510 002e 0268     		ldr	r2, [r0]
 4511 0030 D368     		ldr	r3, [r2, #12]
 4512 0032 23F48063 		bic	r3, r3, #1024
 4513 0036 D360     		str	r3, [r2, #12]
 4514 0038 806A     		ldr	r0, [r0, #40]
 4515 003a FFF7FEFF 		bl	HAL_DMA_Abort_IT
 4516 003e 10E0     		b	.L523
 4517              	.L527:
 4518 0040 0268     		ldr	r2, [r0]
 4519 0042 D368     		ldr	r3, [r2, #12]
 4520 0044 23F40063 		bic	r3, r3, #2048
 4521 0048 D360     		str	r3, [r2, #12]
 4522 004a C06A     		ldr	r0, [r0, #44]
 4523 004c FFF7FEFF 		bl	HAL_DMA_Abort_IT
 4524 0050 07E0     		b	.L523
 4525              	.L528:
 4526 0052 0268     		ldr	r2, [r0]
 4527 0054 D368     		ldr	r3, [r2, #12]
ARM GAS  /tmp/ccEnBWAK.s 			page 77


 4528 0056 23F48053 		bic	r3, r3, #4096
 4529 005a D360     		str	r3, [r2, #12]
 4530 005c 006B     		ldr	r0, [r0, #48]
 4531 005e FFF7FEFF 		bl	HAL_DMA_Abort_IT
 4532              	.L523:
 4533 0062 2068     		ldr	r0, [r4]
 4534 0064 2946     		mov	r1, r5
 4535 0066 0022     		movs	r2, #0
 4536 0068 FFF7FEFF 		bl	TIM_CCxChannelCmd
 4537 006c 2368     		ldr	r3, [r4]
 4538 006e 124A     		ldr	r2, .L532
 4539 0070 9342     		cmp	r3, r2
 4540 0072 0DD1     		bne	.L529
 4541 0074 196A     		ldr	r1, [r3, #32]
 4542 0076 41F21112 		movw	r2, #4369
 4543 007a 1142     		tst	r1, r2
 4544 007c 08D1     		bne	.L529
 4545 007e 196A     		ldr	r1, [r3, #32]
 4546 0080 40F24442 		movw	r2, #1092
 4547 0084 1142     		tst	r1, r2
 4548 0086 03D1     		bne	.L529
 4549 0088 5A6C     		ldr	r2, [r3, #68]
 4550 008a 22F40042 		bic	r2, r2, #32768
 4551 008e 5A64     		str	r2, [r3, #68]
 4552              	.L529:
 4553 0090 2368     		ldr	r3, [r4]
 4554 0092 196A     		ldr	r1, [r3, #32]
 4555 0094 41F21112 		movw	r2, #4369
 4556 0098 1142     		tst	r1, r2
 4557 009a 08D1     		bne	.L530
 4558 009c 196A     		ldr	r1, [r3, #32]
 4559 009e 40F24442 		movw	r2, #1092
 4560 00a2 1142     		tst	r1, r2
 4561 00a4 03D1     		bne	.L530
 4562 00a6 1A68     		ldr	r2, [r3]
 4563 00a8 22F00102 		bic	r2, r2, #1
 4564 00ac 1A60     		str	r2, [r3]
 4565              	.L530:
 4566 00ae 0123     		movs	r3, #1
 4567 00b0 84F83D30 		strb	r3, [r4, #61]
 4568 00b4 0020     		movs	r0, #0
 4569 00b6 38BD     		pop	{r3, r4, r5, pc}
 4570              	.L533:
 4571              		.align	2
 4572              	.L532:
 4573 00b8 002C0140 		.word	1073818624
 4575              		.section	.text.HAL_TIM_IC_Start,"ax",%progbits
 4576              		.align	2
 4577              		.global	HAL_TIM_IC_Start
 4578              		.thumb
 4579              		.thumb_func
 4581              	HAL_TIM_IC_Start:
 4582              		@ args = 0, pretend = 0, frame = 0
 4583              		@ frame_needed = 0, uses_anonymous_args = 0
 4584 0000 10B5     		push	{r4, lr}
 4585 0002 0446     		mov	r4, r0
 4586 0004 0068     		ldr	r0, [r0]
ARM GAS  /tmp/ccEnBWAK.s 			page 78


 4587 0006 0122     		movs	r2, #1
 4588 0008 FFF7FEFF 		bl	TIM_CCxChannelCmd
 4589 000c 2268     		ldr	r2, [r4]
 4590 000e 9368     		ldr	r3, [r2, #8]
 4591 0010 03F00703 		and	r3, r3, #7
 4592 0014 062B     		cmp	r3, #6
 4593 0016 03D0     		beq	.L535
 4594 0018 1368     		ldr	r3, [r2]
 4595 001a 43F00103 		orr	r3, r3, #1
 4596 001e 1360     		str	r3, [r2]
 4597              	.L535:
 4598 0020 0020     		movs	r0, #0
 4599 0022 10BD     		pop	{r4, pc}
 4601              		.section	.text.HAL_TIM_IC_Stop,"ax",%progbits
 4602              		.align	2
 4603              		.global	HAL_TIM_IC_Stop
 4604              		.thumb
 4605              		.thumb_func
 4607              	HAL_TIM_IC_Stop:
 4608              		@ args = 0, pretend = 0, frame = 0
 4609              		@ frame_needed = 0, uses_anonymous_args = 0
 4610 0000 10B5     		push	{r4, lr}
 4611 0002 0446     		mov	r4, r0
 4612 0004 0068     		ldr	r0, [r0]
 4613 0006 0022     		movs	r2, #0
 4614 0008 FFF7FEFF 		bl	TIM_CCxChannelCmd
 4615 000c 2368     		ldr	r3, [r4]
 4616 000e 196A     		ldr	r1, [r3, #32]
 4617 0010 41F21112 		movw	r2, #4369
 4618 0014 1142     		tst	r1, r2
 4619 0016 08D1     		bne	.L538
 4620 0018 196A     		ldr	r1, [r3, #32]
 4621 001a 40F24442 		movw	r2, #1092
 4622 001e 1142     		tst	r1, r2
 4623 0020 03D1     		bne	.L538
 4624 0022 1A68     		ldr	r2, [r3]
 4625 0024 22F00102 		bic	r2, r2, #1
 4626 0028 1A60     		str	r2, [r3]
 4627              	.L538:
 4628 002a 0020     		movs	r0, #0
 4629 002c 10BD     		pop	{r4, pc}
 4631 002e 00BF     		.section	.text.HAL_TIM_IC_Start_IT,"ax",%progbits
 4632              		.align	2
 4633              		.global	HAL_TIM_IC_Start_IT
 4634              		.thumb
 4635              		.thumb_func
 4637              	HAL_TIM_IC_Start_IT:
 4638              		@ args = 0, pretend = 0, frame = 0
 4639              		@ frame_needed = 0, uses_anonymous_args = 0
 4640 0000 10B5     		push	{r4, lr}
 4641 0002 0446     		mov	r4, r0
 4642 0004 0C29     		cmp	r1, #12
 4643 0006 1FD8     		bhi	.L541
 4644 0008 DFE801F0 		tbb	[pc, r1]
 4645              	.L543:
 4646 000c 07       		.byte	(.L542-.L543)/2
 4647 000d 1E       		.byte	(.L541-.L543)/2
ARM GAS  /tmp/ccEnBWAK.s 			page 79


 4648 000e 1E       		.byte	(.L541-.L543)/2
 4649 000f 1E       		.byte	(.L541-.L543)/2
 4650 0010 0D       		.byte	(.L544-.L543)/2
 4651 0011 1E       		.byte	(.L541-.L543)/2
 4652 0012 1E       		.byte	(.L541-.L543)/2
 4653 0013 1E       		.byte	(.L541-.L543)/2
 4654 0014 13       		.byte	(.L545-.L543)/2
 4655 0015 1E       		.byte	(.L541-.L543)/2
 4656 0016 1E       		.byte	(.L541-.L543)/2
 4657 0017 1E       		.byte	(.L541-.L543)/2
 4658 0018 19       		.byte	(.L546-.L543)/2
 4659 0019 00       		.p2align 1
 4660              	.L542:
 4661 001a 0268     		ldr	r2, [r0]
 4662 001c D368     		ldr	r3, [r2, #12]
 4663 001e 43F00203 		orr	r3, r3, #2
 4664 0022 D360     		str	r3, [r2, #12]
 4665 0024 10E0     		b	.L541
 4666              	.L544:
 4667 0026 0268     		ldr	r2, [r0]
 4668 0028 D368     		ldr	r3, [r2, #12]
 4669 002a 43F00403 		orr	r3, r3, #4
 4670 002e D360     		str	r3, [r2, #12]
 4671 0030 0AE0     		b	.L541
 4672              	.L545:
 4673 0032 0268     		ldr	r2, [r0]
 4674 0034 D368     		ldr	r3, [r2, #12]
 4675 0036 43F00803 		orr	r3, r3, #8
 4676 003a D360     		str	r3, [r2, #12]
 4677 003c 04E0     		b	.L541
 4678              	.L546:
 4679 003e 0268     		ldr	r2, [r0]
 4680 0040 D368     		ldr	r3, [r2, #12]
 4681 0042 43F01003 		orr	r3, r3, #16
 4682 0046 D360     		str	r3, [r2, #12]
 4683              	.L541:
 4684 0048 2068     		ldr	r0, [r4]
 4685 004a 0122     		movs	r2, #1
 4686 004c FFF7FEFF 		bl	TIM_CCxChannelCmd
 4687 0050 2268     		ldr	r2, [r4]
 4688 0052 9368     		ldr	r3, [r2, #8]
 4689 0054 03F00703 		and	r3, r3, #7
 4690 0058 062B     		cmp	r3, #6
 4691 005a 03D0     		beq	.L547
 4692 005c 1368     		ldr	r3, [r2]
 4693 005e 43F00103 		orr	r3, r3, #1
 4694 0062 1360     		str	r3, [r2]
 4695              	.L547:
 4696 0064 0020     		movs	r0, #0
 4697 0066 10BD     		pop	{r4, pc}
 4699              		.section	.text.HAL_TIM_IC_Stop_IT,"ax",%progbits
 4700              		.align	2
 4701              		.global	HAL_TIM_IC_Stop_IT
 4702              		.thumb
 4703              		.thumb_func
 4705              	HAL_TIM_IC_Stop_IT:
 4706              		@ args = 0, pretend = 0, frame = 0
ARM GAS  /tmp/ccEnBWAK.s 			page 80


 4707              		@ frame_needed = 0, uses_anonymous_args = 0
 4708 0000 10B5     		push	{r4, lr}
 4709 0002 0446     		mov	r4, r0
 4710 0004 0C29     		cmp	r1, #12
 4711 0006 1FD8     		bhi	.L550
 4712 0008 DFE801F0 		tbb	[pc, r1]
 4713              	.L552:
 4714 000c 07       		.byte	(.L551-.L552)/2
 4715 000d 1E       		.byte	(.L550-.L552)/2
 4716 000e 1E       		.byte	(.L550-.L552)/2
 4717 000f 1E       		.byte	(.L550-.L552)/2
 4718 0010 0D       		.byte	(.L553-.L552)/2
 4719 0011 1E       		.byte	(.L550-.L552)/2
 4720 0012 1E       		.byte	(.L550-.L552)/2
 4721 0013 1E       		.byte	(.L550-.L552)/2
 4722 0014 13       		.byte	(.L554-.L552)/2
 4723 0015 1E       		.byte	(.L550-.L552)/2
 4724 0016 1E       		.byte	(.L550-.L552)/2
 4725 0017 1E       		.byte	(.L550-.L552)/2
 4726 0018 19       		.byte	(.L555-.L552)/2
 4727 0019 00       		.p2align 1
 4728              	.L551:
 4729 001a 0268     		ldr	r2, [r0]
 4730 001c D368     		ldr	r3, [r2, #12]
 4731 001e 23F00203 		bic	r3, r3, #2
 4732 0022 D360     		str	r3, [r2, #12]
 4733 0024 10E0     		b	.L550
 4734              	.L553:
 4735 0026 0268     		ldr	r2, [r0]
 4736 0028 D368     		ldr	r3, [r2, #12]
 4737 002a 23F00403 		bic	r3, r3, #4
 4738 002e D360     		str	r3, [r2, #12]
 4739 0030 0AE0     		b	.L550
 4740              	.L554:
 4741 0032 0268     		ldr	r2, [r0]
 4742 0034 D368     		ldr	r3, [r2, #12]
 4743 0036 23F00803 		bic	r3, r3, #8
 4744 003a D360     		str	r3, [r2, #12]
 4745 003c 04E0     		b	.L550
 4746              	.L555:
 4747 003e 0268     		ldr	r2, [r0]
 4748 0040 D368     		ldr	r3, [r2, #12]
 4749 0042 23F01003 		bic	r3, r3, #16
 4750 0046 D360     		str	r3, [r2, #12]
 4751              	.L550:
 4752 0048 2068     		ldr	r0, [r4]
 4753 004a 0022     		movs	r2, #0
 4754 004c FFF7FEFF 		bl	TIM_CCxChannelCmd
 4755 0050 2368     		ldr	r3, [r4]
 4756 0052 196A     		ldr	r1, [r3, #32]
 4757 0054 41F21112 		movw	r2, #4369
 4758 0058 1142     		tst	r1, r2
 4759 005a 08D1     		bne	.L556
 4760 005c 196A     		ldr	r1, [r3, #32]
 4761 005e 40F24442 		movw	r2, #1092
 4762 0062 1142     		tst	r1, r2
 4763 0064 03D1     		bne	.L556
ARM GAS  /tmp/ccEnBWAK.s 			page 81


 4764 0066 1A68     		ldr	r2, [r3]
 4765 0068 22F00102 		bic	r2, r2, #1
 4766 006c 1A60     		str	r2, [r3]
 4767              	.L556:
 4768 006e 0020     		movs	r0, #0
 4769 0070 10BD     		pop	{r4, pc}
 4771 0072 00BF     		.section	.text.HAL_TIM_IC_Start_DMA,"ax",%progbits
 4772              		.align	2
 4773              		.global	HAL_TIM_IC_Start_DMA
 4774              		.thumb
 4775              		.thumb_func
 4777              	HAL_TIM_IC_Start_DMA:
 4778              		@ args = 0, pretend = 0, frame = 0
 4779              		@ frame_needed = 0, uses_anonymous_args = 0
 4780 0000 38B5     		push	{r3, r4, r5, lr}
 4781 0002 90F83D40 		ldrb	r4, [r0, #61]	@ zero_extendqisi2
 4782 0006 E4B2     		uxtb	r4, r4
 4783 0008 022C     		cmp	r4, #2
 4784 000a 7ED0     		beq	.L568
 4785 000c 90F83D40 		ldrb	r4, [r0, #61]	@ zero_extendqisi2
 4786 0010 E4B2     		uxtb	r4, r4
 4787 0012 012C     		cmp	r4, #1
 4788 0014 05D1     		bne	.L560
 4789 0016 0AB9     		cbnz	r2, .L561
 4790 0018 002B     		cmp	r3, #0
 4791 001a 78D1     		bne	.L569
 4792              	.L561:
 4793 001c 0224     		movs	r4, #2
 4794 001e 80F83D40 		strb	r4, [r0, #61]
 4795              	.L560:
 4796 0022 0D46     		mov	r5, r1
 4797 0024 0446     		mov	r4, r0
 4798 0026 0C2D     		cmp	r5, #12
 4799 0028 5ED8     		bhi	.L562
 4800 002a DFE805F0 		tbb	[pc, r5]
 4801              	.L564:
 4802 002e 07       		.byte	(.L563-.L564)/2
 4803 002f 5D       		.byte	(.L562-.L564)/2
 4804 0030 5D       		.byte	(.L562-.L564)/2
 4805 0031 5D       		.byte	(.L562-.L564)/2
 4806 0032 1D       		.byte	(.L565-.L564)/2
 4807 0033 5D       		.byte	(.L562-.L564)/2
 4808 0034 5D       		.byte	(.L562-.L564)/2
 4809 0035 5D       		.byte	(.L562-.L564)/2
 4810 0036 33       		.byte	(.L566-.L564)/2
 4811 0037 5D       		.byte	(.L562-.L564)/2
 4812 0038 5D       		.byte	(.L562-.L564)/2
 4813 0039 5D       		.byte	(.L562-.L564)/2
 4814 003a 49       		.byte	(.L567-.L564)/2
 4815 003b 00       		.p2align 1
 4816              	.L563:
 4817 003c 416A     		ldr	r1, [r0, #36]
 4818 003e 3A48     		ldr	r0, .L576
 4819 0040 8862     		str	r0, [r1, #40]
 4820 0042 616A     		ldr	r1, [r4, #36]
 4821 0044 3948     		ldr	r0, .L576+4
 4822 0046 C862     		str	r0, [r1, #44]
ARM GAS  /tmp/ccEnBWAK.s 			page 82


 4823 0048 616A     		ldr	r1, [r4, #36]
 4824 004a 3948     		ldr	r0, .L576+8
 4825 004c 0863     		str	r0, [r1, #48]
 4826 004e 2168     		ldr	r1, [r4]
 4827 0050 606A     		ldr	r0, [r4, #36]
 4828 0052 3431     		adds	r1, r1, #52
 4829 0054 FFF7FEFF 		bl	HAL_DMA_Start_IT
 4830 0058 0028     		cmp	r0, #0
 4831 005a 5AD1     		bne	.L570
 4832 005c 2268     		ldr	r2, [r4]
 4833 005e D368     		ldr	r3, [r2, #12]
 4834 0060 43F40073 		orr	r3, r3, #512
 4835 0064 D360     		str	r3, [r2, #12]
 4836 0066 3FE0     		b	.L562
 4837              	.L565:
 4838 0068 816A     		ldr	r1, [r0, #40]
 4839 006a 2F48     		ldr	r0, .L576
 4840 006c 8862     		str	r0, [r1, #40]
 4841 006e A16A     		ldr	r1, [r4, #40]
 4842 0070 2E48     		ldr	r0, .L576+4
 4843 0072 C862     		str	r0, [r1, #44]
 4844 0074 A16A     		ldr	r1, [r4, #40]
 4845 0076 2E48     		ldr	r0, .L576+8
 4846 0078 0863     		str	r0, [r1, #48]
 4847 007a 2168     		ldr	r1, [r4]
 4848 007c A06A     		ldr	r0, [r4, #40]
 4849 007e 3831     		adds	r1, r1, #56
 4850 0080 FFF7FEFF 		bl	HAL_DMA_Start_IT
 4851 0084 0028     		cmp	r0, #0
 4852 0086 46D1     		bne	.L571
 4853 0088 2268     		ldr	r2, [r4]
 4854 008a D368     		ldr	r3, [r2, #12]
 4855 008c 43F48063 		orr	r3, r3, #1024
 4856 0090 D360     		str	r3, [r2, #12]
 4857 0092 29E0     		b	.L562
 4858              	.L566:
 4859 0094 C16A     		ldr	r1, [r0, #44]
 4860 0096 2448     		ldr	r0, .L576
 4861 0098 8862     		str	r0, [r1, #40]
 4862 009a E16A     		ldr	r1, [r4, #44]
 4863 009c 2348     		ldr	r0, .L576+4
 4864 009e C862     		str	r0, [r1, #44]
 4865 00a0 E16A     		ldr	r1, [r4, #44]
 4866 00a2 2348     		ldr	r0, .L576+8
 4867 00a4 0863     		str	r0, [r1, #48]
 4868 00a6 2168     		ldr	r1, [r4]
 4869 00a8 E06A     		ldr	r0, [r4, #44]
 4870 00aa 3C31     		adds	r1, r1, #60
 4871 00ac FFF7FEFF 		bl	HAL_DMA_Start_IT
 4872 00b0 0028     		cmp	r0, #0
 4873 00b2 32D1     		bne	.L572
 4874 00b4 2268     		ldr	r2, [r4]
 4875 00b6 D368     		ldr	r3, [r2, #12]
 4876 00b8 43F40063 		orr	r3, r3, #2048
 4877 00bc D360     		str	r3, [r2, #12]
 4878 00be 13E0     		b	.L562
 4879              	.L567:
ARM GAS  /tmp/ccEnBWAK.s 			page 83


 4880 00c0 016B     		ldr	r1, [r0, #48]
 4881 00c2 1948     		ldr	r0, .L576
 4882 00c4 8862     		str	r0, [r1, #40]
 4883 00c6 216B     		ldr	r1, [r4, #48]
 4884 00c8 1848     		ldr	r0, .L576+4
 4885 00ca C862     		str	r0, [r1, #44]
 4886 00cc 216B     		ldr	r1, [r4, #48]
 4887 00ce 1848     		ldr	r0, .L576+8
 4888 00d0 0863     		str	r0, [r1, #48]
 4889 00d2 2168     		ldr	r1, [r4]
 4890 00d4 206B     		ldr	r0, [r4, #48]
 4891 00d6 4031     		adds	r1, r1, #64
 4892 00d8 FFF7FEFF 		bl	HAL_DMA_Start_IT
 4893 00dc F8B9     		cbnz	r0, .L573
 4894 00de 2268     		ldr	r2, [r4]
 4895 00e0 D368     		ldr	r3, [r2, #12]
 4896 00e2 43F48053 		orr	r3, r3, #4096
 4897 00e6 D360     		str	r3, [r2, #12]
 4898              	.L562:
 4899 00e8 2068     		ldr	r0, [r4]
 4900 00ea 2946     		mov	r1, r5
 4901 00ec 0122     		movs	r2, #1
 4902 00ee FFF7FEFF 		bl	TIM_CCxChannelCmd
 4903 00f2 2268     		ldr	r2, [r4]
 4904 00f4 9368     		ldr	r3, [r2, #8]
 4905 00f6 03F00703 		and	r3, r3, #7
 4906 00fa 062B     		cmp	r3, #6
 4907 00fc 11D0     		beq	.L574
 4908 00fe 1368     		ldr	r3, [r2]
 4909 0100 43F00103 		orr	r3, r3, #1
 4910 0104 1360     		str	r3, [r2]
 4911 0106 0020     		movs	r0, #0
 4912 0108 38BD     		pop	{r3, r4, r5, pc}
 4913              	.L568:
 4914 010a 0220     		movs	r0, #2
 4915 010c 38BD     		pop	{r3, r4, r5, pc}
 4916              	.L569:
 4917 010e 0120     		movs	r0, #1
 4918 0110 38BD     		pop	{r3, r4, r5, pc}
 4919              	.L570:
 4920 0112 0120     		movs	r0, #1
 4921 0114 38BD     		pop	{r3, r4, r5, pc}
 4922              	.L571:
 4923 0116 0120     		movs	r0, #1
 4924 0118 38BD     		pop	{r3, r4, r5, pc}
 4925              	.L572:
 4926 011a 0120     		movs	r0, #1
 4927 011c 38BD     		pop	{r3, r4, r5, pc}
 4928              	.L573:
 4929 011e 0120     		movs	r0, #1
 4930 0120 38BD     		pop	{r3, r4, r5, pc}
 4931              	.L574:
 4932 0122 0020     		movs	r0, #0
 4933 0124 38BD     		pop	{r3, r4, r5, pc}
 4934              	.L577:
 4935 0126 00BF     		.align	2
 4936              	.L576:
ARM GAS  /tmp/ccEnBWAK.s 			page 84


 4937 0128 00000000 		.word	TIM_DMACaptureCplt
 4938 012c 00000000 		.word	TIM_DMACaptureHalfCplt
 4939 0130 00000000 		.word	TIM_DMAError
 4941              		.section	.text.HAL_TIM_IC_Stop_DMA,"ax",%progbits
 4942              		.align	2
 4943              		.global	HAL_TIM_IC_Stop_DMA
 4944              		.thumb
 4945              		.thumb_func
 4947              	HAL_TIM_IC_Stop_DMA:
 4948              		@ args = 0, pretend = 0, frame = 0
 4949              		@ frame_needed = 0, uses_anonymous_args = 0
 4950 0000 38B5     		push	{r3, r4, r5, lr}
 4951 0002 0446     		mov	r4, r0
 4952 0004 0D46     		mov	r5, r1
 4953 0006 0C29     		cmp	r1, #12
 4954 0008 2BD8     		bhi	.L579
 4955 000a DFE801F0 		tbb	[pc, r1]
 4956              	.L581:
 4957 000e 07       		.byte	(.L580-.L581)/2
 4958 000f 2A       		.byte	(.L579-.L581)/2
 4959 0010 2A       		.byte	(.L579-.L581)/2
 4960 0011 2A       		.byte	(.L579-.L581)/2
 4961 0012 10       		.byte	(.L582-.L581)/2
 4962 0013 2A       		.byte	(.L579-.L581)/2
 4963 0014 2A       		.byte	(.L579-.L581)/2
 4964 0015 2A       		.byte	(.L579-.L581)/2
 4965 0016 19       		.byte	(.L583-.L581)/2
 4966 0017 2A       		.byte	(.L579-.L581)/2
 4967 0018 2A       		.byte	(.L579-.L581)/2
 4968 0019 2A       		.byte	(.L579-.L581)/2
 4969 001a 22       		.byte	(.L584-.L581)/2
 4970 001b 00       		.p2align 1
 4971              	.L580:
 4972 001c 0268     		ldr	r2, [r0]
 4973 001e D368     		ldr	r3, [r2, #12]
 4974 0020 23F40073 		bic	r3, r3, #512
 4975 0024 D360     		str	r3, [r2, #12]
 4976 0026 406A     		ldr	r0, [r0, #36]
 4977 0028 FFF7FEFF 		bl	HAL_DMA_Abort_IT
 4978 002c 19E0     		b	.L579
 4979              	.L582:
 4980 002e 0268     		ldr	r2, [r0]
 4981 0030 D368     		ldr	r3, [r2, #12]
 4982 0032 23F48063 		bic	r3, r3, #1024
 4983 0036 D360     		str	r3, [r2, #12]
 4984 0038 806A     		ldr	r0, [r0, #40]
 4985 003a FFF7FEFF 		bl	HAL_DMA_Abort_IT
 4986 003e 10E0     		b	.L579
 4987              	.L583:
 4988 0040 0268     		ldr	r2, [r0]
 4989 0042 D368     		ldr	r3, [r2, #12]
 4990 0044 23F40063 		bic	r3, r3, #2048
 4991 0048 D360     		str	r3, [r2, #12]
 4992 004a C06A     		ldr	r0, [r0, #44]
 4993 004c FFF7FEFF 		bl	HAL_DMA_Abort_IT
 4994 0050 07E0     		b	.L579
 4995              	.L584:
ARM GAS  /tmp/ccEnBWAK.s 			page 85


 4996 0052 0268     		ldr	r2, [r0]
 4997 0054 D368     		ldr	r3, [r2, #12]
 4998 0056 23F48053 		bic	r3, r3, #4096
 4999 005a D360     		str	r3, [r2, #12]
 5000 005c 006B     		ldr	r0, [r0, #48]
 5001 005e FFF7FEFF 		bl	HAL_DMA_Abort_IT
 5002              	.L579:
 5003 0062 2068     		ldr	r0, [r4]
 5004 0064 2946     		mov	r1, r5
 5005 0066 0022     		movs	r2, #0
 5006 0068 FFF7FEFF 		bl	TIM_CCxChannelCmd
 5007 006c 2368     		ldr	r3, [r4]
 5008 006e 196A     		ldr	r1, [r3, #32]
 5009 0070 41F21112 		movw	r2, #4369
 5010 0074 1142     		tst	r1, r2
 5011 0076 08D1     		bne	.L585
 5012 0078 196A     		ldr	r1, [r3, #32]
 5013 007a 40F24442 		movw	r2, #1092
 5014 007e 1142     		tst	r1, r2
 5015 0080 03D1     		bne	.L585
 5016 0082 1A68     		ldr	r2, [r3]
 5017 0084 22F00102 		bic	r2, r2, #1
 5018 0088 1A60     		str	r2, [r3]
 5019              	.L585:
 5020 008a 0123     		movs	r3, #1
 5021 008c 84F83D30 		strb	r3, [r4, #61]
 5022 0090 0020     		movs	r0, #0
 5023 0092 38BD     		pop	{r3, r4, r5, pc}
 5025              		.section	.text.HAL_TIM_OnePulse_Start,"ax",%progbits
 5026              		.align	2
 5027              		.global	HAL_TIM_OnePulse_Start
 5028              		.thumb
 5029              		.thumb_func
 5031              	HAL_TIM_OnePulse_Start:
 5032              		@ args = 0, pretend = 0, frame = 0
 5033              		@ frame_needed = 0, uses_anonymous_args = 0
 5034 0000 10B5     		push	{r4, lr}
 5035 0002 0446     		mov	r4, r0
 5036 0004 0068     		ldr	r0, [r0]
 5037 0006 0021     		movs	r1, #0
 5038 0008 0122     		movs	r2, #1
 5039 000a FFF7FEFF 		bl	TIM_CCxChannelCmd
 5040 000e 2068     		ldr	r0, [r4]
 5041 0010 0421     		movs	r1, #4
 5042 0012 0122     		movs	r2, #1
 5043 0014 FFF7FEFF 		bl	TIM_CCxChannelCmd
 5044 0018 2368     		ldr	r3, [r4]
 5045 001a 044A     		ldr	r2, .L590
 5046 001c 9342     		cmp	r3, r2
 5047 001e 03D1     		bne	.L588
 5048 0020 5A6C     		ldr	r2, [r3, #68]
 5049 0022 42F40042 		orr	r2, r2, #32768
 5050 0026 5A64     		str	r2, [r3, #68]
 5051              	.L588:
 5052 0028 0020     		movs	r0, #0
 5053 002a 10BD     		pop	{r4, pc}
 5054              	.L591:
ARM GAS  /tmp/ccEnBWAK.s 			page 86


 5055              		.align	2
 5056              	.L590:
 5057 002c 002C0140 		.word	1073818624
 5059              		.section	.text.HAL_TIM_OnePulse_Stop,"ax",%progbits
 5060              		.align	2
 5061              		.global	HAL_TIM_OnePulse_Stop
 5062              		.thumb
 5063              		.thumb_func
 5065              	HAL_TIM_OnePulse_Stop:
 5066              		@ args = 0, pretend = 0, frame = 0
 5067              		@ frame_needed = 0, uses_anonymous_args = 0
 5068 0000 10B5     		push	{r4, lr}
 5069 0002 0446     		mov	r4, r0
 5070 0004 0068     		ldr	r0, [r0]
 5071 0006 0021     		movs	r1, #0
 5072 0008 0A46     		mov	r2, r1
 5073 000a FFF7FEFF 		bl	TIM_CCxChannelCmd
 5074 000e 2068     		ldr	r0, [r4]
 5075 0010 0421     		movs	r1, #4
 5076 0012 0022     		movs	r2, #0
 5077 0014 FFF7FEFF 		bl	TIM_CCxChannelCmd
 5078 0018 2368     		ldr	r3, [r4]
 5079 001a 114A     		ldr	r2, .L596
 5080 001c 9342     		cmp	r3, r2
 5081 001e 0DD1     		bne	.L593
 5082 0020 196A     		ldr	r1, [r3, #32]
 5083 0022 41F21112 		movw	r2, #4369
 5084 0026 1142     		tst	r1, r2
 5085 0028 08D1     		bne	.L593
 5086 002a 196A     		ldr	r1, [r3, #32]
 5087 002c 40F24442 		movw	r2, #1092
 5088 0030 1142     		tst	r1, r2
 5089 0032 03D1     		bne	.L593
 5090 0034 5A6C     		ldr	r2, [r3, #68]
 5091 0036 22F40042 		bic	r2, r2, #32768
 5092 003a 5A64     		str	r2, [r3, #68]
 5093              	.L593:
 5094 003c 2368     		ldr	r3, [r4]
 5095 003e 196A     		ldr	r1, [r3, #32]
 5096 0040 41F21112 		movw	r2, #4369
 5097 0044 1142     		tst	r1, r2
 5098 0046 08D1     		bne	.L594
 5099 0048 196A     		ldr	r1, [r3, #32]
 5100 004a 40F24442 		movw	r2, #1092
 5101 004e 1142     		tst	r1, r2
 5102 0050 03D1     		bne	.L594
 5103 0052 1A68     		ldr	r2, [r3]
 5104 0054 22F00102 		bic	r2, r2, #1
 5105 0058 1A60     		str	r2, [r3]
 5106              	.L594:
 5107 005a 0020     		movs	r0, #0
 5108 005c 10BD     		pop	{r4, pc}
 5109              	.L597:
 5110 005e 00BF     		.align	2
 5111              	.L596:
 5112 0060 002C0140 		.word	1073818624
 5114              		.section	.text.HAL_TIM_OnePulse_Start_IT,"ax",%progbits
ARM GAS  /tmp/ccEnBWAK.s 			page 87


 5115              		.align	2
 5116              		.global	HAL_TIM_OnePulse_Start_IT
 5117              		.thumb
 5118              		.thumb_func
 5120              	HAL_TIM_OnePulse_Start_IT:
 5121              		@ args = 0, pretend = 0, frame = 0
 5122              		@ frame_needed = 0, uses_anonymous_args = 0
 5123 0000 10B5     		push	{r4, lr}
 5124 0002 0446     		mov	r4, r0
 5125 0004 0268     		ldr	r2, [r0]
 5126 0006 D368     		ldr	r3, [r2, #12]
 5127 0008 43F00203 		orr	r3, r3, #2
 5128 000c D360     		str	r3, [r2, #12]
 5129 000e 0268     		ldr	r2, [r0]
 5130 0010 D368     		ldr	r3, [r2, #12]
 5131 0012 43F00403 		orr	r3, r3, #4
 5132 0016 D360     		str	r3, [r2, #12]
 5133 0018 0068     		ldr	r0, [r0]
 5134 001a 0021     		movs	r1, #0
 5135 001c 0122     		movs	r2, #1
 5136 001e FFF7FEFF 		bl	TIM_CCxChannelCmd
 5137 0022 2068     		ldr	r0, [r4]
 5138 0024 0421     		movs	r1, #4
 5139 0026 0122     		movs	r2, #1
 5140 0028 FFF7FEFF 		bl	TIM_CCxChannelCmd
 5141 002c 2368     		ldr	r3, [r4]
 5142 002e 044A     		ldr	r2, .L601
 5143 0030 9342     		cmp	r3, r2
 5144 0032 03D1     		bne	.L599
 5145 0034 5A6C     		ldr	r2, [r3, #68]
 5146 0036 42F40042 		orr	r2, r2, #32768
 5147 003a 5A64     		str	r2, [r3, #68]
 5148              	.L599:
 5149 003c 0020     		movs	r0, #0
 5150 003e 10BD     		pop	{r4, pc}
 5151              	.L602:
 5152              		.align	2
 5153              	.L601:
 5154 0040 002C0140 		.word	1073818624
 5156              		.section	.text.HAL_TIM_OnePulse_Stop_IT,"ax",%progbits
 5157              		.align	2
 5158              		.global	HAL_TIM_OnePulse_Stop_IT
 5159              		.thumb
 5160              		.thumb_func
 5162              	HAL_TIM_OnePulse_Stop_IT:
 5163              		@ args = 0, pretend = 0, frame = 0
 5164              		@ frame_needed = 0, uses_anonymous_args = 0
 5165 0000 10B5     		push	{r4, lr}
 5166 0002 0446     		mov	r4, r0
 5167 0004 0268     		ldr	r2, [r0]
 5168 0006 D368     		ldr	r3, [r2, #12]
 5169 0008 23F00203 		bic	r3, r3, #2
 5170 000c D360     		str	r3, [r2, #12]
 5171 000e 0268     		ldr	r2, [r0]
 5172 0010 D368     		ldr	r3, [r2, #12]
 5173 0012 23F00403 		bic	r3, r3, #4
 5174 0016 D360     		str	r3, [r2, #12]
ARM GAS  /tmp/ccEnBWAK.s 			page 88


 5175 0018 0068     		ldr	r0, [r0]
 5176 001a 0021     		movs	r1, #0
 5177 001c 0A46     		mov	r2, r1
 5178 001e FFF7FEFF 		bl	TIM_CCxChannelCmd
 5179 0022 2068     		ldr	r0, [r4]
 5180 0024 0421     		movs	r1, #4
 5181 0026 0022     		movs	r2, #0
 5182 0028 FFF7FEFF 		bl	TIM_CCxChannelCmd
 5183 002c 2368     		ldr	r3, [r4]
 5184 002e 114A     		ldr	r2, .L607
 5185 0030 9342     		cmp	r3, r2
 5186 0032 0DD1     		bne	.L604
 5187 0034 196A     		ldr	r1, [r3, #32]
 5188 0036 41F21112 		movw	r2, #4369
 5189 003a 1142     		tst	r1, r2
 5190 003c 08D1     		bne	.L604
 5191 003e 196A     		ldr	r1, [r3, #32]
 5192 0040 40F24442 		movw	r2, #1092
 5193 0044 1142     		tst	r1, r2
 5194 0046 03D1     		bne	.L604
 5195 0048 5A6C     		ldr	r2, [r3, #68]
 5196 004a 22F40042 		bic	r2, r2, #32768
 5197 004e 5A64     		str	r2, [r3, #68]
 5198              	.L604:
 5199 0050 2368     		ldr	r3, [r4]
 5200 0052 196A     		ldr	r1, [r3, #32]
 5201 0054 41F21112 		movw	r2, #4369
 5202 0058 1142     		tst	r1, r2
 5203 005a 08D1     		bne	.L605
 5204 005c 196A     		ldr	r1, [r3, #32]
 5205 005e 40F24442 		movw	r2, #1092
 5206 0062 1142     		tst	r1, r2
 5207 0064 03D1     		bne	.L605
 5208 0066 1A68     		ldr	r2, [r3]
 5209 0068 22F00102 		bic	r2, r2, #1
 5210 006c 1A60     		str	r2, [r3]
 5211              	.L605:
 5212 006e 0020     		movs	r0, #0
 5213 0070 10BD     		pop	{r4, pc}
 5214              	.L608:
 5215 0072 00BF     		.align	2
 5216              	.L607:
 5217 0074 002C0140 		.word	1073818624
 5219              		.section	.text.HAL_TIM_Encoder_Start,"ax",%progbits
 5220              		.align	2
 5221              		.global	HAL_TIM_Encoder_Start
 5222              		.thumb
 5223              		.thumb_func
 5225              	HAL_TIM_Encoder_Start:
 5226              		@ args = 0, pretend = 0, frame = 0
 5227              		@ frame_needed = 0, uses_anonymous_args = 0
 5228 0000 10B5     		push	{r4, lr}
 5229 0002 0446     		mov	r4, r0
 5230 0004 11B1     		cbz	r1, .L611
 5231 0006 0429     		cmp	r1, #4
 5232 0008 06D0     		beq	.L612
 5233 000a 0BE0     		b	.L614
ARM GAS  /tmp/ccEnBWAK.s 			page 89


 5234              	.L611:
 5235 000c 0068     		ldr	r0, [r0]
 5236 000e 0021     		movs	r1, #0
 5237 0010 0122     		movs	r2, #1
 5238 0012 FFF7FEFF 		bl	TIM_CCxChannelCmd
 5239 0016 0FE0     		b	.L613
 5240              	.L612:
 5241 0018 0068     		ldr	r0, [r0]
 5242 001a 0421     		movs	r1, #4
 5243 001c 0122     		movs	r2, #1
 5244 001e FFF7FEFF 		bl	TIM_CCxChannelCmd
 5245 0022 09E0     		b	.L613
 5246              	.L614:
 5247 0024 0068     		ldr	r0, [r0]
 5248 0026 0021     		movs	r1, #0
 5249 0028 0122     		movs	r2, #1
 5250 002a FFF7FEFF 		bl	TIM_CCxChannelCmd
 5251 002e 2068     		ldr	r0, [r4]
 5252 0030 0421     		movs	r1, #4
 5253 0032 0122     		movs	r2, #1
 5254 0034 FFF7FEFF 		bl	TIM_CCxChannelCmd
 5255              	.L613:
 5256 0038 2268     		ldr	r2, [r4]
 5257 003a 1368     		ldr	r3, [r2]
 5258 003c 43F00103 		orr	r3, r3, #1
 5259 0040 1360     		str	r3, [r2]
 5260 0042 0020     		movs	r0, #0
 5261 0044 10BD     		pop	{r4, pc}
 5263 0046 00BF     		.section	.text.HAL_TIM_Encoder_Stop,"ax",%progbits
 5264              		.align	2
 5265              		.global	HAL_TIM_Encoder_Stop
 5266              		.thumb
 5267              		.thumb_func
 5269              	HAL_TIM_Encoder_Stop:
 5270              		@ args = 0, pretend = 0, frame = 0
 5271              		@ frame_needed = 0, uses_anonymous_args = 0
 5272 0000 10B5     		push	{r4, lr}
 5273 0002 0446     		mov	r4, r0
 5274 0004 11B1     		cbz	r1, .L618
 5275 0006 0429     		cmp	r1, #4
 5276 0008 06D0     		beq	.L619
 5277 000a 0BE0     		b	.L622
 5278              	.L618:
 5279 000c 0068     		ldr	r0, [r0]
 5280 000e 0021     		movs	r1, #0
 5281 0010 0A46     		mov	r2, r1
 5282 0012 FFF7FEFF 		bl	TIM_CCxChannelCmd
 5283 0016 0FE0     		b	.L620
 5284              	.L619:
 5285 0018 0068     		ldr	r0, [r0]
 5286 001a 0421     		movs	r1, #4
 5287 001c 0022     		movs	r2, #0
 5288 001e FFF7FEFF 		bl	TIM_CCxChannelCmd
 5289 0022 09E0     		b	.L620
 5290              	.L622:
 5291 0024 0068     		ldr	r0, [r0]
 5292 0026 0021     		movs	r1, #0
ARM GAS  /tmp/ccEnBWAK.s 			page 90


 5293 0028 0A46     		mov	r2, r1
 5294 002a FFF7FEFF 		bl	TIM_CCxChannelCmd
 5295 002e 2068     		ldr	r0, [r4]
 5296 0030 0421     		movs	r1, #4
 5297 0032 0022     		movs	r2, #0
 5298 0034 FFF7FEFF 		bl	TIM_CCxChannelCmd
 5299              	.L620:
 5300 0038 2368     		ldr	r3, [r4]
 5301 003a 196A     		ldr	r1, [r3, #32]
 5302 003c 41F21112 		movw	r2, #4369
 5303 0040 1142     		tst	r1, r2
 5304 0042 08D1     		bne	.L621
 5305 0044 196A     		ldr	r1, [r3, #32]
 5306 0046 40F24442 		movw	r2, #1092
 5307 004a 1142     		tst	r1, r2
 5308 004c 03D1     		bne	.L621
 5309 004e 1A68     		ldr	r2, [r3]
 5310 0050 22F00102 		bic	r2, r2, #1
 5311 0054 1A60     		str	r2, [r3]
 5312              	.L621:
 5313 0056 0020     		movs	r0, #0
 5314 0058 10BD     		pop	{r4, pc}
 5316 005a 00BF     		.section	.text.HAL_TIM_Encoder_Start_IT,"ax",%progbits
 5317              		.align	2
 5318              		.global	HAL_TIM_Encoder_Start_IT
 5319              		.thumb
 5320              		.thumb_func
 5322              	HAL_TIM_Encoder_Start_IT:
 5323              		@ args = 0, pretend = 0, frame = 0
 5324              		@ frame_needed = 0, uses_anonymous_args = 0
 5325 0000 10B5     		push	{r4, lr}
 5326 0002 0446     		mov	r4, r0
 5327 0004 11B1     		cbz	r1, .L626
 5328 0006 0429     		cmp	r1, #4
 5329 0008 0BD0     		beq	.L627
 5330 000a 15E0     		b	.L629
 5331              	.L626:
 5332 000c 0068     		ldr	r0, [r0]
 5333 000e 0021     		movs	r1, #0
 5334 0010 0122     		movs	r2, #1
 5335 0012 FFF7FEFF 		bl	TIM_CCxChannelCmd
 5336 0016 2268     		ldr	r2, [r4]
 5337 0018 D368     		ldr	r3, [r2, #12]
 5338 001a 43F00203 		orr	r3, r3, #2
 5339 001e D360     		str	r3, [r2, #12]
 5340 0020 1EE0     		b	.L628
 5341              	.L627:
 5342 0022 0068     		ldr	r0, [r0]
 5343 0024 0421     		movs	r1, #4
 5344 0026 0122     		movs	r2, #1
 5345 0028 FFF7FEFF 		bl	TIM_CCxChannelCmd
 5346 002c 2268     		ldr	r2, [r4]
 5347 002e D368     		ldr	r3, [r2, #12]
 5348 0030 43F00403 		orr	r3, r3, #4
 5349 0034 D360     		str	r3, [r2, #12]
 5350 0036 13E0     		b	.L628
 5351              	.L629:
ARM GAS  /tmp/ccEnBWAK.s 			page 91


 5352 0038 0068     		ldr	r0, [r0]
 5353 003a 0021     		movs	r1, #0
 5354 003c 0122     		movs	r2, #1
 5355 003e FFF7FEFF 		bl	TIM_CCxChannelCmd
 5356 0042 2068     		ldr	r0, [r4]
 5357 0044 0421     		movs	r1, #4
 5358 0046 0122     		movs	r2, #1
 5359 0048 FFF7FEFF 		bl	TIM_CCxChannelCmd
 5360 004c 2268     		ldr	r2, [r4]
 5361 004e D368     		ldr	r3, [r2, #12]
 5362 0050 43F00203 		orr	r3, r3, #2
 5363 0054 D360     		str	r3, [r2, #12]
 5364 0056 2268     		ldr	r2, [r4]
 5365 0058 D368     		ldr	r3, [r2, #12]
 5366 005a 43F00403 		orr	r3, r3, #4
 5367 005e D360     		str	r3, [r2, #12]
 5368              	.L628:
 5369 0060 2268     		ldr	r2, [r4]
 5370 0062 1368     		ldr	r3, [r2]
 5371 0064 43F00103 		orr	r3, r3, #1
 5372 0068 1360     		str	r3, [r2]
 5373 006a 0020     		movs	r0, #0
 5374 006c 10BD     		pop	{r4, pc}
 5376 006e 00BF     		.section	.text.HAL_TIM_Encoder_Stop_IT,"ax",%progbits
 5377              		.align	2
 5378              		.global	HAL_TIM_Encoder_Stop_IT
 5379              		.thumb
 5380              		.thumb_func
 5382              	HAL_TIM_Encoder_Stop_IT:
 5383              		@ args = 0, pretend = 0, frame = 0
 5384              		@ frame_needed = 0, uses_anonymous_args = 0
 5385 0000 10B5     		push	{r4, lr}
 5386 0002 0446     		mov	r4, r0
 5387 0004 49B9     		cbnz	r1, .L632
 5388 0006 0068     		ldr	r0, [r0]
 5389 0008 0A46     		mov	r2, r1
 5390 000a FFF7FEFF 		bl	TIM_CCxChannelCmd
 5391 000e 2268     		ldr	r2, [r4]
 5392 0010 D368     		ldr	r3, [r2, #12]
 5393 0012 23F00203 		bic	r3, r3, #2
 5394 0016 D360     		str	r3, [r2, #12]
 5395 0018 20E0     		b	.L633
 5396              	.L632:
 5397 001a 0429     		cmp	r1, #4
 5398 001c 0AD1     		bne	.L634
 5399 001e 0068     		ldr	r0, [r0]
 5400 0020 0421     		movs	r1, #4
 5401 0022 0022     		movs	r2, #0
 5402 0024 FFF7FEFF 		bl	TIM_CCxChannelCmd
 5403 0028 2268     		ldr	r2, [r4]
 5404 002a D368     		ldr	r3, [r2, #12]
 5405 002c 23F00403 		bic	r3, r3, #4
 5406 0030 D360     		str	r3, [r2, #12]
 5407 0032 13E0     		b	.L633
 5408              	.L634:
 5409 0034 0068     		ldr	r0, [r0]
 5410 0036 0021     		movs	r1, #0
ARM GAS  /tmp/ccEnBWAK.s 			page 92


 5411 0038 0A46     		mov	r2, r1
 5412 003a FFF7FEFF 		bl	TIM_CCxChannelCmd
 5413 003e 2068     		ldr	r0, [r4]
 5414 0040 0421     		movs	r1, #4
 5415 0042 0022     		movs	r2, #0
 5416 0044 FFF7FEFF 		bl	TIM_CCxChannelCmd
 5417 0048 2268     		ldr	r2, [r4]
 5418 004a D368     		ldr	r3, [r2, #12]
 5419 004c 23F00203 		bic	r3, r3, #2
 5420 0050 D360     		str	r3, [r2, #12]
 5421 0052 2268     		ldr	r2, [r4]
 5422 0054 D368     		ldr	r3, [r2, #12]
 5423 0056 23F00403 		bic	r3, r3, #4
 5424 005a D360     		str	r3, [r2, #12]
 5425              	.L633:
 5426 005c 2368     		ldr	r3, [r4]
 5427 005e 196A     		ldr	r1, [r3, #32]
 5428 0060 41F21112 		movw	r2, #4369
 5429 0064 1142     		tst	r1, r2
 5430 0066 08D1     		bne	.L635
 5431 0068 196A     		ldr	r1, [r3, #32]
 5432 006a 40F24442 		movw	r2, #1092
 5433 006e 1142     		tst	r1, r2
 5434 0070 03D1     		bne	.L635
 5435 0072 1A68     		ldr	r2, [r3]
 5436 0074 22F00102 		bic	r2, r2, #1
 5437 0078 1A60     		str	r2, [r3]
 5438              	.L635:
 5439 007a 0123     		movs	r3, #1
 5440 007c 84F83D30 		strb	r3, [r4, #61]
 5441 0080 0020     		movs	r0, #0
 5442 0082 10BD     		pop	{r4, pc}
 5444              		.section	.text.HAL_TIM_Encoder_Start_DMA,"ax",%progbits
 5445              		.align	2
 5446              		.global	HAL_TIM_Encoder_Start_DMA
 5447              		.thumb
 5448              		.thumb_func
 5450              	HAL_TIM_Encoder_Start_DMA:
 5451              		@ args = 4, pretend = 0, frame = 0
 5452              		@ frame_needed = 0, uses_anonymous_args = 0
 5453 0000 70B5     		push	{r4, r5, r6, lr}
 5454 0002 BDF81050 		ldrh	r5, [sp, #16]
 5455 0006 90F83D40 		ldrb	r4, [r0, #61]	@ zero_extendqisi2
 5456 000a E4B2     		uxtb	r4, r4
 5457 000c 022C     		cmp	r4, #2
 5458 000e 00F09880 		beq	.L645
 5459 0012 90F83D40 		ldrb	r4, [r0, #61]	@ zero_extendqisi2
 5460 0016 E4B2     		uxtb	r4, r4
 5461 0018 012C     		cmp	r4, #1
 5462 001a 07D1     		bne	.L639
 5463 001c 02B1     		cbz	r2, .L640
 5464 001e 13B9     		cbnz	r3, .L641
 5465              	.L640:
 5466 0020 002D     		cmp	r5, #0
 5467 0022 40F09080 		bne	.L646
 5468              	.L641:
 5469 0026 0224     		movs	r4, #2
ARM GAS  /tmp/ccEnBWAK.s 			page 93


 5470 0028 80F83D40 		strb	r4, [r0, #61]
 5471              	.L639:
 5472 002c 1E46     		mov	r6, r3
 5473 002e 0446     		mov	r4, r0
 5474 0030 0429     		cmp	r1, #4
 5475 0032 26D0     		beq	.L642
 5476 0034 3C29     		cmp	r1, #60
 5477 0036 47D0     		beq	.L643
 5478 0038 0029     		cmp	r1, #0
 5479 003a 40F08680 		bne	.L652
 5480 003e 436A     		ldr	r3, [r0, #36]
 5481 0040 4749     		ldr	r1, .L654
 5482 0042 9962     		str	r1, [r3, #40]
 5483 0044 436A     		ldr	r3, [r0, #36]
 5484 0046 4749     		ldr	r1, .L654+4
 5485 0048 D962     		str	r1, [r3, #44]
 5486 004a 436A     		ldr	r3, [r0, #36]
 5487 004c 4649     		ldr	r1, .L654+8
 5488 004e 1963     		str	r1, [r3, #48]
 5489 0050 0168     		ldr	r1, [r0]
 5490 0052 406A     		ldr	r0, [r0, #36]
 5491 0054 3431     		adds	r1, r1, #52
 5492 0056 2B46     		mov	r3, r5
 5493 0058 FFF7FEFF 		bl	HAL_DMA_Start_IT
 5494 005c 0546     		mov	r5, r0
 5495 005e 0028     		cmp	r0, #0
 5496 0060 75D1     		bne	.L648
 5497 0062 2268     		ldr	r2, [r4]
 5498 0064 D368     		ldr	r3, [r2, #12]
 5499 0066 43F40073 		orr	r3, r3, #512
 5500 006a D360     		str	r3, [r2, #12]
 5501 006c 2268     		ldr	r2, [r4]
 5502 006e 1368     		ldr	r3, [r2]
 5503 0070 43F00103 		orr	r3, r3, #1
 5504 0074 1360     		str	r3, [r2]
 5505 0076 2068     		ldr	r0, [r4]
 5506 0078 0021     		movs	r1, #0
 5507 007a 0122     		movs	r2, #1
 5508 007c FFF7FEFF 		bl	TIM_CCxChannelCmd
 5509 0080 6CE0     		b	.L638
 5510              	.L642:
 5511 0082 836A     		ldr	r3, [r0, #40]
 5512 0084 364A     		ldr	r2, .L654
 5513 0086 9A62     		str	r2, [r3, #40]
 5514 0088 836A     		ldr	r3, [r0, #40]
 5515 008a 364A     		ldr	r2, .L654+4
 5516 008c DA62     		str	r2, [r3, #44]
 5517 008e 836A     		ldr	r3, [r0, #40]
 5518 0090 354A     		ldr	r2, .L654+8
 5519 0092 1A63     		str	r2, [r3, #48]
 5520 0094 0168     		ldr	r1, [r0]
 5521 0096 806A     		ldr	r0, [r0, #40]
 5522 0098 3831     		adds	r1, r1, #56
 5523 009a 3246     		mov	r2, r6
 5524 009c 2B46     		mov	r3, r5
 5525 009e FFF7FEFF 		bl	HAL_DMA_Start_IT
 5526 00a2 0546     		mov	r5, r0
ARM GAS  /tmp/ccEnBWAK.s 			page 94


 5527 00a4 0028     		cmp	r0, #0
 5528 00a6 54D1     		bne	.L649
 5529 00a8 2268     		ldr	r2, [r4]
 5530 00aa D368     		ldr	r3, [r2, #12]
 5531 00ac 43F48063 		orr	r3, r3, #1024
 5532 00b0 D360     		str	r3, [r2, #12]
 5533 00b2 2268     		ldr	r2, [r4]
 5534 00b4 1368     		ldr	r3, [r2]
 5535 00b6 43F00103 		orr	r3, r3, #1
 5536 00ba 1360     		str	r3, [r2]
 5537 00bc 2068     		ldr	r0, [r4]
 5538 00be 0421     		movs	r1, #4
 5539 00c0 0122     		movs	r2, #1
 5540 00c2 FFF7FEFF 		bl	TIM_CCxChannelCmd
 5541 00c6 49E0     		b	.L638
 5542              	.L643:
 5543 00c8 436A     		ldr	r3, [r0, #36]
 5544 00ca 2549     		ldr	r1, .L654
 5545 00cc 9962     		str	r1, [r3, #40]
 5546 00ce 436A     		ldr	r3, [r0, #36]
 5547 00d0 2449     		ldr	r1, .L654+4
 5548 00d2 D962     		str	r1, [r3, #44]
 5549 00d4 436A     		ldr	r3, [r0, #36]
 5550 00d6 2449     		ldr	r1, .L654+8
 5551 00d8 1963     		str	r1, [r3, #48]
 5552 00da 0168     		ldr	r1, [r0]
 5553 00dc 406A     		ldr	r0, [r0, #36]
 5554 00de 3431     		adds	r1, r1, #52
 5555 00e0 2B46     		mov	r3, r5
 5556 00e2 FFF7FEFF 		bl	HAL_DMA_Start_IT
 5557 00e6 0028     		cmp	r0, #0
 5558 00e8 35D1     		bne	.L650
 5559 00ea A36A     		ldr	r3, [r4, #40]
 5560 00ec 1C4A     		ldr	r2, .L654
 5561 00ee 9A62     		str	r2, [r3, #40]
 5562 00f0 A36A     		ldr	r3, [r4, #40]
 5563 00f2 1C4A     		ldr	r2, .L654+4
 5564 00f4 DA62     		str	r2, [r3, #44]
 5565 00f6 A36A     		ldr	r3, [r4, #40]
 5566 00f8 1B4A     		ldr	r2, .L654+8
 5567 00fa 1A63     		str	r2, [r3, #48]
 5568 00fc 2168     		ldr	r1, [r4]
 5569 00fe A06A     		ldr	r0, [r4, #40]
 5570 0100 3831     		adds	r1, r1, #56
 5571 0102 3246     		mov	r2, r6
 5572 0104 2B46     		mov	r3, r5
 5573 0106 FFF7FEFF 		bl	HAL_DMA_Start_IT
 5574 010a 0546     		mov	r5, r0
 5575 010c 28BB     		cbnz	r0, .L651
 5576 010e 2268     		ldr	r2, [r4]
 5577 0110 1368     		ldr	r3, [r2]
 5578 0112 43F00103 		orr	r3, r3, #1
 5579 0116 1360     		str	r3, [r2]
 5580 0118 2068     		ldr	r0, [r4]
 5581 011a 0021     		movs	r1, #0
 5582 011c 0122     		movs	r2, #1
 5583 011e FFF7FEFF 		bl	TIM_CCxChannelCmd
ARM GAS  /tmp/ccEnBWAK.s 			page 95


 5584 0122 2068     		ldr	r0, [r4]
 5585 0124 0421     		movs	r1, #4
 5586 0126 0122     		movs	r2, #1
 5587 0128 FFF7FEFF 		bl	TIM_CCxChannelCmd
 5588 012c 2268     		ldr	r2, [r4]
 5589 012e D368     		ldr	r3, [r2, #12]
 5590 0130 43F40073 		orr	r3, r3, #512
 5591 0134 D360     		str	r3, [r2, #12]
 5592 0136 2268     		ldr	r2, [r4]
 5593 0138 D368     		ldr	r3, [r2, #12]
 5594 013a 43F48063 		orr	r3, r3, #1024
 5595 013e D360     		str	r3, [r2, #12]
 5596 0140 0CE0     		b	.L638
 5597              	.L645:
 5598 0142 0225     		movs	r5, #2
 5599 0144 0AE0     		b	.L638
 5600              	.L646:
 5601 0146 0125     		movs	r5, #1
 5602 0148 08E0     		b	.L638
 5603              	.L652:
 5604 014a 0025     		movs	r5, #0
 5605 014c 06E0     		b	.L638
 5606              	.L648:
 5607 014e 0125     		movs	r5, #1
 5608 0150 04E0     		b	.L638
 5609              	.L649:
 5610 0152 0125     		movs	r5, #1
 5611 0154 02E0     		b	.L638
 5612              	.L650:
 5613 0156 0125     		movs	r5, #1
 5614 0158 00E0     		b	.L638
 5615              	.L651:
 5616 015a 0125     		movs	r5, #1
 5617              	.L638:
 5618 015c 2846     		mov	r0, r5
 5619 015e 70BD     		pop	{r4, r5, r6, pc}
 5620              	.L655:
 5621              		.align	2
 5622              	.L654:
 5623 0160 00000000 		.word	TIM_DMACaptureCplt
 5624 0164 00000000 		.word	TIM_DMACaptureHalfCplt
 5625 0168 00000000 		.word	TIM_DMAError
 5627              		.section	.text.HAL_TIM_Encoder_Stop_DMA,"ax",%progbits
 5628              		.align	2
 5629              		.global	HAL_TIM_Encoder_Stop_DMA
 5630              		.thumb
 5631              		.thumb_func
 5633              	HAL_TIM_Encoder_Stop_DMA:
 5634              		@ args = 0, pretend = 0, frame = 0
 5635              		@ frame_needed = 0, uses_anonymous_args = 0
 5636 0000 10B5     		push	{r4, lr}
 5637 0002 0446     		mov	r4, r0
 5638 0004 61B9     		cbnz	r1, .L657
 5639 0006 0068     		ldr	r0, [r0]
 5640 0008 0A46     		mov	r2, r1
 5641 000a FFF7FEFF 		bl	TIM_CCxChannelCmd
 5642 000e 2268     		ldr	r2, [r4]
ARM GAS  /tmp/ccEnBWAK.s 			page 96


 5643 0010 D368     		ldr	r3, [r2, #12]
 5644 0012 23F40073 		bic	r3, r3, #512
 5645 0016 D360     		str	r3, [r2, #12]
 5646 0018 606A     		ldr	r0, [r4, #36]
 5647 001a FFF7FEFF 		bl	HAL_DMA_Abort_IT
 5648 001e 29E0     		b	.L658
 5649              	.L657:
 5650 0020 0429     		cmp	r1, #4
 5651 0022 0DD1     		bne	.L659
 5652 0024 0068     		ldr	r0, [r0]
 5653 0026 0421     		movs	r1, #4
 5654 0028 0022     		movs	r2, #0
 5655 002a FFF7FEFF 		bl	TIM_CCxChannelCmd
 5656 002e 2268     		ldr	r2, [r4]
 5657 0030 D368     		ldr	r3, [r2, #12]
 5658 0032 23F48063 		bic	r3, r3, #1024
 5659 0036 D360     		str	r3, [r2, #12]
 5660 0038 A06A     		ldr	r0, [r4, #40]
 5661 003a FFF7FEFF 		bl	HAL_DMA_Abort_IT
 5662 003e 19E0     		b	.L658
 5663              	.L659:
 5664 0040 0068     		ldr	r0, [r0]
 5665 0042 0021     		movs	r1, #0
 5666 0044 0A46     		mov	r2, r1
 5667 0046 FFF7FEFF 		bl	TIM_CCxChannelCmd
 5668 004a 2068     		ldr	r0, [r4]
 5669 004c 0421     		movs	r1, #4
 5670 004e 0022     		movs	r2, #0
 5671 0050 FFF7FEFF 		bl	TIM_CCxChannelCmd
 5672 0054 2268     		ldr	r2, [r4]
 5673 0056 D368     		ldr	r3, [r2, #12]
 5674 0058 23F40073 		bic	r3, r3, #512
 5675 005c D360     		str	r3, [r2, #12]
 5676 005e 2268     		ldr	r2, [r4]
 5677 0060 D368     		ldr	r3, [r2, #12]
 5678 0062 23F48063 		bic	r3, r3, #1024
 5679 0066 D360     		str	r3, [r2, #12]
 5680 0068 606A     		ldr	r0, [r4, #36]
 5681 006a FFF7FEFF 		bl	HAL_DMA_Abort_IT
 5682 006e A06A     		ldr	r0, [r4, #40]
 5683 0070 FFF7FEFF 		bl	HAL_DMA_Abort_IT
 5684              	.L658:
 5685 0074 2368     		ldr	r3, [r4]
 5686 0076 196A     		ldr	r1, [r3, #32]
 5687 0078 41F21112 		movw	r2, #4369
 5688 007c 1142     		tst	r1, r2
 5689 007e 08D1     		bne	.L660
 5690 0080 196A     		ldr	r1, [r3, #32]
 5691 0082 40F24442 		movw	r2, #1092
 5692 0086 1142     		tst	r1, r2
 5693 0088 03D1     		bne	.L660
 5694 008a 1A68     		ldr	r2, [r3]
 5695 008c 22F00102 		bic	r2, r2, #1
 5696 0090 1A60     		str	r2, [r3]
 5697              	.L660:
 5698 0092 0123     		movs	r3, #1
 5699 0094 84F83D30 		strb	r3, [r4, #61]
ARM GAS  /tmp/ccEnBWAK.s 			page 97


 5700 0098 0020     		movs	r0, #0
 5701 009a 10BD     		pop	{r4, pc}
 5703              		.ident	"GCC: (15:4.9.3+svn231177-1) 4.9.3 20150529 (prerelease)"
ARM GAS  /tmp/ccEnBWAK.s 			page 98


DEFINED SYMBOLS
                            *ABS*:0000000000000000 stm32f1xx_hal_tim.c
     /tmp/ccEnBWAK.s:16     .text.TIM_OC1_SetConfig:0000000000000000 $t
     /tmp/ccEnBWAK.s:20     .text.TIM_OC1_SetConfig:0000000000000000 TIM_OC1_SetConfig
     /tmp/ccEnBWAK.s:64     .text.TIM_OC1_SetConfig:0000000000000054 $d
     /tmp/ccEnBWAK.s:67     .text.TIM_OC3_SetConfig:0000000000000000 $t
     /tmp/ccEnBWAK.s:71     .text.TIM_OC3_SetConfig:0000000000000000 TIM_OC3_SetConfig
     /tmp/ccEnBWAK.s:115    .text.TIM_OC3_SetConfig:000000000000005c $d
     /tmp/ccEnBWAK.s:118    .text.TIM_OC4_SetConfig:0000000000000000 $t
     /tmp/ccEnBWAK.s:122    .text.TIM_OC4_SetConfig:0000000000000000 TIM_OC4_SetConfig
     /tmp/ccEnBWAK.s:156    .text.TIM_OC4_SetConfig:0000000000000044 $d
     /tmp/ccEnBWAK.s:159    .text.TIM_TI1_ConfigInputStage:0000000000000000 $t
     /tmp/ccEnBWAK.s:163    .text.TIM_TI1_ConfigInputStage:0000000000000000 TIM_TI1_ConfigInputStage
     /tmp/ccEnBWAK.s:183    .text.TIM_TI2_SetConfig:0000000000000000 $t
     /tmp/ccEnBWAK.s:187    .text.TIM_TI2_SetConfig:0000000000000000 TIM_TI2_SetConfig
     /tmp/ccEnBWAK.s:213    .text.TIM_TI2_ConfigInputStage:0000000000000000 $t
     /tmp/ccEnBWAK.s:217    .text.TIM_TI2_ConfigInputStage:0000000000000000 TIM_TI2_ConfigInputStage
     /tmp/ccEnBWAK.s:237    .text.TIM_TI3_SetConfig:0000000000000000 $t
     /tmp/ccEnBWAK.s:241    .text.TIM_TI3_SetConfig:0000000000000000 TIM_TI3_SetConfig
     /tmp/ccEnBWAK.s:267    .text.TIM_TI4_SetConfig:0000000000000000 $t
     /tmp/ccEnBWAK.s:271    .text.TIM_TI4_SetConfig:0000000000000000 TIM_TI4_SetConfig
     /tmp/ccEnBWAK.s:297    .text.TIM_ITRx_SetConfig:0000000000000000 $t
     /tmp/ccEnBWAK.s:301    .text.TIM_ITRx_SetConfig:0000000000000000 TIM_ITRx_SetConfig
     /tmp/ccEnBWAK.s:313    .text.HAL_TIM_Base_MspInit:0000000000000000 $t
     /tmp/ccEnBWAK.s:318    .text.HAL_TIM_Base_MspInit:0000000000000000 HAL_TIM_Base_MspInit
     /tmp/ccEnBWAK.s:325    .text.HAL_TIM_Base_MspDeInit:0000000000000000 $t
     /tmp/ccEnBWAK.s:330    .text.HAL_TIM_Base_MspDeInit:0000000000000000 HAL_TIM_Base_MspDeInit
     /tmp/ccEnBWAK.s:337    .text.HAL_TIM_Base_DeInit:0000000000000000 $t
     /tmp/ccEnBWAK.s:342    .text.HAL_TIM_Base_DeInit:0000000000000000 HAL_TIM_Base_DeInit
     /tmp/ccEnBWAK.s:370    .text.HAL_TIM_Base_Start:0000000000000000 $t
     /tmp/ccEnBWAK.s:375    .text.HAL_TIM_Base_Start:0000000000000000 HAL_TIM_Base_Start
     /tmp/ccEnBWAK.s:396    .text.HAL_TIM_Base_Stop:0000000000000000 $t
     /tmp/ccEnBWAK.s:401    .text.HAL_TIM_Base_Stop:0000000000000000 HAL_TIM_Base_Stop
     /tmp/ccEnBWAK.s:426    .text.HAL_TIM_Base_Start_IT:0000000000000000 $t
     /tmp/ccEnBWAK.s:431    .text.HAL_TIM_Base_Start_IT:0000000000000000 HAL_TIM_Base_Start_IT
     /tmp/ccEnBWAK.s:452    .text.HAL_TIM_Base_Stop_IT:0000000000000000 $t
     /tmp/ccEnBWAK.s:457    .text.HAL_TIM_Base_Stop_IT:0000000000000000 HAL_TIM_Base_Stop_IT
     /tmp/ccEnBWAK.s:482    .text.HAL_TIM_Base_Start_DMA:0000000000000000 $t
     /tmp/ccEnBWAK.s:487    .text.HAL_TIM_Base_Start_DMA:0000000000000000 HAL_TIM_Base_Start_DMA
     /tmp/ccEnBWAK.s:549    .text.HAL_TIM_Base_Start_DMA:0000000000000074 $d
     /tmp/ccEnBWAK.s:1607   .text.TIM_DMAPeriodElapsedCplt:0000000000000000 TIM_DMAPeriodElapsedCplt
     /tmp/ccEnBWAK.s:1634   .text.TIM_DMAPeriodElapsedHalfCplt:0000000000000000 TIM_DMAPeriodElapsedHalfCplt
     /tmp/ccEnBWAK.s:2127   .text.TIM_DMAError:0000000000000000 TIM_DMAError
     /tmp/ccEnBWAK.s:554    .text.HAL_TIM_Base_Stop_DMA:0000000000000000 $t
     /tmp/ccEnBWAK.s:559    .text.HAL_TIM_Base_Stop_DMA:0000000000000000 HAL_TIM_Base_Stop_DMA
     /tmp/ccEnBWAK.s:589    .text.HAL_TIM_OC_MspInit:0000000000000000 $t
     /tmp/ccEnBWAK.s:594    .text.HAL_TIM_OC_MspInit:0000000000000000 HAL_TIM_OC_MspInit
     /tmp/ccEnBWAK.s:601    .text.HAL_TIM_OC_MspDeInit:0000000000000000 $t
     /tmp/ccEnBWAK.s:606    .text.HAL_TIM_OC_MspDeInit:0000000000000000 HAL_TIM_OC_MspDeInit
     /tmp/ccEnBWAK.s:613    .text.HAL_TIM_OC_DeInit:0000000000000000 $t
     /tmp/ccEnBWAK.s:618    .text.HAL_TIM_OC_DeInit:0000000000000000 HAL_TIM_OC_DeInit
     /tmp/ccEnBWAK.s:646    .text.HAL_TIM_PWM_MspInit:0000000000000000 $t
     /tmp/ccEnBWAK.s:651    .text.HAL_TIM_PWM_MspInit:0000000000000000 HAL_TIM_PWM_MspInit
     /tmp/ccEnBWAK.s:658    .text.HAL_TIM_PWM_MspDeInit:0000000000000000 $t
     /tmp/ccEnBWAK.s:663    .text.HAL_TIM_PWM_MspDeInit:0000000000000000 HAL_TIM_PWM_MspDeInit
     /tmp/ccEnBWAK.s:670    .text.HAL_TIM_PWM_DeInit:0000000000000000 $t
     /tmp/ccEnBWAK.s:675    .text.HAL_TIM_PWM_DeInit:0000000000000000 HAL_TIM_PWM_DeInit
ARM GAS  /tmp/ccEnBWAK.s 			page 99


     /tmp/ccEnBWAK.s:703    .text.HAL_TIM_IC_MspInit:0000000000000000 $t
     /tmp/ccEnBWAK.s:708    .text.HAL_TIM_IC_MspInit:0000000000000000 HAL_TIM_IC_MspInit
     /tmp/ccEnBWAK.s:715    .text.HAL_TIM_IC_MspDeInit:0000000000000000 $t
     /tmp/ccEnBWAK.s:720    .text.HAL_TIM_IC_MspDeInit:0000000000000000 HAL_TIM_IC_MspDeInit
     /tmp/ccEnBWAK.s:727    .text.HAL_TIM_IC_DeInit:0000000000000000 $t
     /tmp/ccEnBWAK.s:732    .text.HAL_TIM_IC_DeInit:0000000000000000 HAL_TIM_IC_DeInit
     /tmp/ccEnBWAK.s:760    .text.HAL_TIM_OnePulse_MspInit:0000000000000000 $t
     /tmp/ccEnBWAK.s:765    .text.HAL_TIM_OnePulse_MspInit:0000000000000000 HAL_TIM_OnePulse_MspInit
     /tmp/ccEnBWAK.s:772    .text.HAL_TIM_OnePulse_MspDeInit:0000000000000000 $t
     /tmp/ccEnBWAK.s:777    .text.HAL_TIM_OnePulse_MspDeInit:0000000000000000 HAL_TIM_OnePulse_MspDeInit
     /tmp/ccEnBWAK.s:784    .text.HAL_TIM_OnePulse_DeInit:0000000000000000 $t
     /tmp/ccEnBWAK.s:789    .text.HAL_TIM_OnePulse_DeInit:0000000000000000 HAL_TIM_OnePulse_DeInit
     /tmp/ccEnBWAK.s:817    .text.HAL_TIM_Encoder_MspInit:0000000000000000 $t
     /tmp/ccEnBWAK.s:822    .text.HAL_TIM_Encoder_MspInit:0000000000000000 HAL_TIM_Encoder_MspInit
     /tmp/ccEnBWAK.s:829    .text.HAL_TIM_Encoder_MspDeInit:0000000000000000 $t
     /tmp/ccEnBWAK.s:834    .text.HAL_TIM_Encoder_MspDeInit:0000000000000000 HAL_TIM_Encoder_MspDeInit
     /tmp/ccEnBWAK.s:841    .text.HAL_TIM_Encoder_DeInit:0000000000000000 $t
     /tmp/ccEnBWAK.s:846    .text.HAL_TIM_Encoder_DeInit:0000000000000000 HAL_TIM_Encoder_DeInit
     /tmp/ccEnBWAK.s:874    .text.HAL_TIM_DMABurst_WriteStart:0000000000000000 $t
     /tmp/ccEnBWAK.s:879    .text.HAL_TIM_DMABurst_WriteStart:0000000000000000 HAL_TIM_DMABurst_WriteStart
     /tmp/ccEnBWAK.s:1106   .text.HAL_TIM_DMABurst_WriteStart:00000000000001c4 $d
     /tmp/ccEnBWAK.s:1790   .text.TIM_DMADelayPulseCplt:0000000000000000 TIM_DMADelayPulseCplt
     /tmp/ccEnBWAK.s:1848   .text.TIM_DMADelayPulseHalfCplt:0000000000000000 TIM_DMADelayPulseHalfCplt
     /tmp/ccEnBWAK.s:2072   .text.TIM_DMATriggerCplt:0000000000000000 TIM_DMATriggerCplt
     /tmp/ccEnBWAK.s:2099   .text.TIM_DMATriggerHalfCplt:0000000000000000 TIM_DMATriggerHalfCplt
     /tmp/ccEnBWAK.s:1117   .text.HAL_TIM_DMABurst_WriteStop:0000000000000000 $t
     /tmp/ccEnBWAK.s:1122   .text.HAL_TIM_DMABurst_WriteStop:0000000000000000 HAL_TIM_DMABurst_WriteStop
     /tmp/ccEnBWAK.s:1186   .text.HAL_TIM_DMABurst_ReadStart:0000000000000000 $t
     /tmp/ccEnBWAK.s:1191   .text.HAL_TIM_DMABurst_ReadStart:0000000000000000 HAL_TIM_DMABurst_ReadStart
     /tmp/ccEnBWAK.s:1418   .text.HAL_TIM_DMABurst_ReadStart:00000000000001c4 $d
     /tmp/ccEnBWAK.s:1674   .text.TIM_DMACaptureCplt:0000000000000000 TIM_DMACaptureCplt
     /tmp/ccEnBWAK.s:1732   .text.TIM_DMACaptureHalfCplt:0000000000000000 TIM_DMACaptureHalfCplt
     /tmp/ccEnBWAK.s:1429   .text.HAL_TIM_DMABurst_ReadStop:0000000000000000 $t
     /tmp/ccEnBWAK.s:1434   .text.HAL_TIM_DMABurst_ReadStop:0000000000000000 HAL_TIM_DMABurst_ReadStop
     /tmp/ccEnBWAK.s:1498   .text.HAL_TIM_GenerateEvent:0000000000000000 $t
     /tmp/ccEnBWAK.s:1503   .text.HAL_TIM_GenerateEvent:0000000000000000 HAL_TIM_GenerateEvent
     /tmp/ccEnBWAK.s:1525   .text.HAL_TIM_ConfigTI1Input:0000000000000000 $t
     /tmp/ccEnBWAK.s:1530   .text.HAL_TIM_ConfigTI1Input:0000000000000000 HAL_TIM_ConfigTI1Input
     /tmp/ccEnBWAK.s:1543   .text.HAL_TIM_ReadCapturedValue:0000000000000000 $t
     /tmp/ccEnBWAK.s:1548   .text.HAL_TIM_ReadCapturedValue:0000000000000000 HAL_TIM_ReadCapturedValue
     /tmp/ccEnBWAK.s:1556   .text.HAL_TIM_ReadCapturedValue:0000000000000008 $d
     /tmp/ccEnBWAK.s:1591   .text.HAL_TIM_PeriodElapsedCallback:0000000000000000 $t
     /tmp/ccEnBWAK.s:1596   .text.HAL_TIM_PeriodElapsedCallback:0000000000000000 HAL_TIM_PeriodElapsedCallback
     /tmp/ccEnBWAK.s:1603   .text.TIM_DMAPeriodElapsedCplt:0000000000000000 $t
     /tmp/ccEnBWAK.s:1618   .text.HAL_TIM_PeriodElapsedHalfCpltCallback:0000000000000000 $t
     /tmp/ccEnBWAK.s:1623   .text.HAL_TIM_PeriodElapsedHalfCpltCallback:0000000000000000 HAL_TIM_PeriodElapsedHalfCpltCallback
     /tmp/ccEnBWAK.s:1630   .text.TIM_DMAPeriodElapsedHalfCplt:0000000000000000 $t
     /tmp/ccEnBWAK.s:1645   .text.HAL_TIM_OC_DelayElapsedCallback:0000000000000000 $t
     /tmp/ccEnBWAK.s:1650   .text.HAL_TIM_OC_DelayElapsedCallback:0000000000000000 HAL_TIM_OC_DelayElapsedCallback
     /tmp/ccEnBWAK.s:1657   .text.HAL_TIM_IC_CaptureCallback:0000000000000000 $t
     /tmp/ccEnBWAK.s:1662   .text.HAL_TIM_IC_CaptureCallback:0000000000000000 HAL_TIM_IC_CaptureCallback
     /tmp/ccEnBWAK.s:1669   .text.TIM_DMACaptureCplt:0000000000000000 $t
     /tmp/ccEnBWAK.s:1715   .text.HAL_TIM_IC_CaptureHalfCpltCallback:0000000000000000 $t
     /tmp/ccEnBWAK.s:1720   .text.HAL_TIM_IC_CaptureHalfCpltCallback:0000000000000000 HAL_TIM_IC_CaptureHalfCpltCallback
     /tmp/ccEnBWAK.s:1727   .text.TIM_DMACaptureHalfCplt:0000000000000000 $t
     /tmp/ccEnBWAK.s:1773   .text.HAL_TIM_PWM_PulseFinishedCallback:0000000000000000 $t
     /tmp/ccEnBWAK.s:1778   .text.HAL_TIM_PWM_PulseFinishedCallback:0000000000000000 HAL_TIM_PWM_PulseFinishedCallback
ARM GAS  /tmp/ccEnBWAK.s 			page 100


     /tmp/ccEnBWAK.s:1785   .text.TIM_DMADelayPulseCplt:0000000000000000 $t
     /tmp/ccEnBWAK.s:1831   .text.HAL_TIM_PWM_PulseFinishedHalfCpltCallback:0000000000000000 $t
     /tmp/ccEnBWAK.s:1836   .text.HAL_TIM_PWM_PulseFinishedHalfCpltCallback:0000000000000000 HAL_TIM_PWM_PulseFinishedHalfCpltCallback
     /tmp/ccEnBWAK.s:1843   .text.TIM_DMADelayPulseHalfCplt:0000000000000000 $t
     /tmp/ccEnBWAK.s:1889   .text.HAL_TIM_TriggerCallback:0000000000000000 $t
     /tmp/ccEnBWAK.s:1894   .text.HAL_TIM_TriggerCallback:0000000000000000 HAL_TIM_TriggerCallback
     /tmp/ccEnBWAK.s:1901   .text.HAL_TIM_IRQHandler:0000000000000000 $t
     /tmp/ccEnBWAK.s:1906   .text.HAL_TIM_IRQHandler:0000000000000000 HAL_TIM_IRQHandler
     /tmp/ccEnBWAK.s:2068   .text.TIM_DMATriggerCplt:0000000000000000 $t
     /tmp/ccEnBWAK.s:2083   .text.HAL_TIM_TriggerHalfCpltCallback:0000000000000000 $t
     /tmp/ccEnBWAK.s:2088   .text.HAL_TIM_TriggerHalfCpltCallback:0000000000000000 HAL_TIM_TriggerHalfCpltCallback
     /tmp/ccEnBWAK.s:2095   .text.TIM_DMATriggerHalfCplt:0000000000000000 $t
     /tmp/ccEnBWAK.s:2110   .text.HAL_TIM_ErrorCallback:0000000000000000 $t
     /tmp/ccEnBWAK.s:2115   .text.HAL_TIM_ErrorCallback:0000000000000000 HAL_TIM_ErrorCallback
     /tmp/ccEnBWAK.s:2122   .text.TIM_DMAError:0000000000000000 $t
     /tmp/ccEnBWAK.s:2138   .text.HAL_TIM_Base_GetState:0000000000000000 $t
     /tmp/ccEnBWAK.s:2143   .text.HAL_TIM_Base_GetState:0000000000000000 HAL_TIM_Base_GetState
     /tmp/ccEnBWAK.s:2151   .text.HAL_TIM_OC_GetState:0000000000000000 $t
     /tmp/ccEnBWAK.s:2156   .text.HAL_TIM_OC_GetState:0000000000000000 HAL_TIM_OC_GetState
     /tmp/ccEnBWAK.s:2164   .text.HAL_TIM_PWM_GetState:0000000000000000 $t
     /tmp/ccEnBWAK.s:2169   .text.HAL_TIM_PWM_GetState:0000000000000000 HAL_TIM_PWM_GetState
     /tmp/ccEnBWAK.s:2177   .text.HAL_TIM_IC_GetState:0000000000000000 $t
     /tmp/ccEnBWAK.s:2182   .text.HAL_TIM_IC_GetState:0000000000000000 HAL_TIM_IC_GetState
     /tmp/ccEnBWAK.s:2190   .text.HAL_TIM_OnePulse_GetState:0000000000000000 $t
     /tmp/ccEnBWAK.s:2195   .text.HAL_TIM_OnePulse_GetState:0000000000000000 HAL_TIM_OnePulse_GetState
     /tmp/ccEnBWAK.s:2203   .text.HAL_TIM_Encoder_GetState:0000000000000000 $t
     /tmp/ccEnBWAK.s:2208   .text.HAL_TIM_Encoder_GetState:0000000000000000 HAL_TIM_Encoder_GetState
     /tmp/ccEnBWAK.s:2216   .text.TIM_Base_SetConfig:0000000000000000 $t
     /tmp/ccEnBWAK.s:2221   .text.TIM_Base_SetConfig:0000000000000000 TIM_Base_SetConfig
     /tmp/ccEnBWAK.s:2272   .text.TIM_Base_SetConfig:000000000000005c $d
     /tmp/ccEnBWAK.s:2275   .text.HAL_TIM_Base_Init:0000000000000000 $t
     /tmp/ccEnBWAK.s:2280   .text.HAL_TIM_Base_Init:0000000000000000 HAL_TIM_Base_Init
     /tmp/ccEnBWAK.s:2307   .text.HAL_TIM_OC_Init:0000000000000000 $t
     /tmp/ccEnBWAK.s:2312   .text.HAL_TIM_OC_Init:0000000000000000 HAL_TIM_OC_Init
     /tmp/ccEnBWAK.s:2339   .text.HAL_TIM_PWM_Init:0000000000000000 $t
     /tmp/ccEnBWAK.s:2344   .text.HAL_TIM_PWM_Init:0000000000000000 HAL_TIM_PWM_Init
     /tmp/ccEnBWAK.s:2371   .text.HAL_TIM_IC_Init:0000000000000000 $t
     /tmp/ccEnBWAK.s:2376   .text.HAL_TIM_IC_Init:0000000000000000 HAL_TIM_IC_Init
     /tmp/ccEnBWAK.s:2403   .text.HAL_TIM_OnePulse_Init:0000000000000000 $t
     /tmp/ccEnBWAK.s:2408   .text.HAL_TIM_OnePulse_Init:0000000000000000 HAL_TIM_OnePulse_Init
     /tmp/ccEnBWAK.s:2444   .text.HAL_TIM_Encoder_Init:0000000000000000 $t
     /tmp/ccEnBWAK.s:2449   .text.HAL_TIM_Encoder_Init:0000000000000000 HAL_TIM_Encoder_Init
     /tmp/ccEnBWAK.s:2516   .text.TIM_OC2_SetConfig:0000000000000000 $t
     /tmp/ccEnBWAK.s:2521   .text.TIM_OC2_SetConfig:0000000000000000 TIM_OC2_SetConfig
     /tmp/ccEnBWAK.s:2565   .text.TIM_OC2_SetConfig:000000000000005c $d
     /tmp/ccEnBWAK.s:2568   .text.HAL_TIM_OC_ConfigChannel:0000000000000000 $t
     /tmp/ccEnBWAK.s:2573   .text.HAL_TIM_OC_ConfigChannel:0000000000000000 HAL_TIM_OC_ConfigChannel
     /tmp/ccEnBWAK.s:2589   .text.HAL_TIM_OC_ConfigChannel:0000000000000020 $d
     /tmp/ccEnBWAK.s:2629   .text.HAL_TIM_PWM_ConfigChannel:0000000000000000 $t
     /tmp/ccEnBWAK.s:2634   .text.HAL_TIM_PWM_ConfigChannel:0000000000000000 HAL_TIM_PWM_ConfigChannel
     /tmp/ccEnBWAK.s:2651   .text.HAL_TIM_PWM_ConfigChannel:0000000000000022 $d
     /tmp/ccEnBWAK.s:2743   .text.TIM_TI1_SetConfig:0000000000000000 $t
     /tmp/ccEnBWAK.s:2748   .text.TIM_TI1_SetConfig:0000000000000000 TIM_TI1_SetConfig
     /tmp/ccEnBWAK.s:2798   .text.TIM_TI1_SetConfig:000000000000005c $d
     /tmp/ccEnBWAK.s:2801   .text.HAL_TIM_IC_ConfigChannel:0000000000000000 $t
     /tmp/ccEnBWAK.s:2806   .text.HAL_TIM_IC_ConfigChannel:0000000000000000 HAL_TIM_IC_ConfigChannel
     /tmp/ccEnBWAK.s:2897   .text.HAL_TIM_OnePulse_ConfigChannel:0000000000000000 $t
ARM GAS  /tmp/ccEnBWAK.s 			page 101


     /tmp/ccEnBWAK.s:2902   .text.HAL_TIM_OnePulse_ConfigChannel:0000000000000000 HAL_TIM_OnePulse_ConfigChannel
     /tmp/ccEnBWAK.s:3019   .text.TIM_ETR_SetConfig:0000000000000000 $t
     /tmp/ccEnBWAK.s:3024   .text.TIM_ETR_SetConfig:0000000000000000 TIM_ETR_SetConfig
     /tmp/ccEnBWAK.s:3039   .text.HAL_TIM_ConfigOCrefClear:0000000000000000 $t
     /tmp/ccEnBWAK.s:3044   .text.HAL_TIM_ConfigOCrefClear:0000000000000000 HAL_TIM_ConfigOCrefClear
     /tmp/ccEnBWAK.s:3087   .text.HAL_TIM_ConfigOCrefClear:0000000000000056 $d
     /tmp/ccEnBWAK.s:3167   .text.HAL_TIM_ConfigClockSource:0000000000000000 $t
     /tmp/ccEnBWAK.s:3172   .text.HAL_TIM_ConfigClockSource:0000000000000000 HAL_TIM_ConfigClockSource
     /tmp/ccEnBWAK.s:3282   .text.TIM_SlaveTimer_SetConfig:0000000000000000 $t
     /tmp/ccEnBWAK.s:3286   .text.TIM_SlaveTimer_SetConfig:0000000000000000 TIM_SlaveTimer_SetConfig
     /tmp/ccEnBWAK.s:3360   .text.HAL_TIM_SlaveConfigSynchro:0000000000000000 $t
     /tmp/ccEnBWAK.s:3365   .text.HAL_TIM_SlaveConfigSynchro:0000000000000000 HAL_TIM_SlaveConfigSynchro
     /tmp/ccEnBWAK.s:3408   .text.HAL_TIM_SlaveConfigSynchro_IT:0000000000000000 $t
     /tmp/ccEnBWAK.s:3413   .text.HAL_TIM_SlaveConfigSynchro_IT:0000000000000000 HAL_TIM_SlaveConfigSynchro_IT
     /tmp/ccEnBWAK.s:3456   .text.TIM_CCxChannelCmd:0000000000000000 $t
     /tmp/ccEnBWAK.s:3461   .text.TIM_CCxChannelCmd:0000000000000000 TIM_CCxChannelCmd
     /tmp/ccEnBWAK.s:3480   .text.HAL_TIM_OC_Start:0000000000000000 $t
     /tmp/ccEnBWAK.s:3485   .text.HAL_TIM_OC_Start:0000000000000000 HAL_TIM_OC_Start
     /tmp/ccEnBWAK.s:3515   .text.HAL_TIM_OC_Start:0000000000000034 $d
     /tmp/ccEnBWAK.s:3518   .text.HAL_TIM_OC_Stop:0000000000000000 $t
     /tmp/ccEnBWAK.s:3523   .text.HAL_TIM_OC_Stop:0000000000000000 HAL_TIM_OC_Stop
     /tmp/ccEnBWAK.s:3565   .text.HAL_TIM_OC_Stop:0000000000000054 $d
     /tmp/ccEnBWAK.s:3568   .text.HAL_TIM_OC_Start_IT:0000000000000000 $t
     /tmp/ccEnBWAK.s:3573   .text.HAL_TIM_OC_Start_IT:0000000000000000 HAL_TIM_OC_Start_IT
     /tmp/ccEnBWAK.s:3582   .text.HAL_TIM_OC_Start_IT:000000000000000c $d
     /tmp/ccEnBWAK.s:3645   .text.HAL_TIM_OC_Start_IT:0000000000000078 $d
     /tmp/ccEnBWAK.s:3648   .text.HAL_TIM_OC_Stop_IT:0000000000000000 $t
     /tmp/ccEnBWAK.s:3653   .text.HAL_TIM_OC_Stop_IT:0000000000000000 HAL_TIM_OC_Stop_IT
     /tmp/ccEnBWAK.s:3662   .text.HAL_TIM_OC_Stop_IT:000000000000000c $d
     /tmp/ccEnBWAK.s:3737   .text.HAL_TIM_OC_Stop_IT:0000000000000098 $d
     /tmp/ccEnBWAK.s:3740   .text.HAL_TIM_OC_Start_DMA:0000000000000000 $t
     /tmp/ccEnBWAK.s:3745   .text.HAL_TIM_OC_Start_DMA:0000000000000000 HAL_TIM_OC_Start_DMA
     /tmp/ccEnBWAK.s:3770   .text.HAL_TIM_OC_Start_DMA:0000000000000032 $d
     /tmp/ccEnBWAK.s:3917   .text.HAL_TIM_OC_Start_DMA:000000000000014c $d
     /tmp/ccEnBWAK.s:3923   .text.HAL_TIM_OC_Stop_DMA:0000000000000000 $t
     /tmp/ccEnBWAK.s:3928   .text.HAL_TIM_OC_Stop_DMA:0000000000000000 HAL_TIM_OC_Stop_DMA
     /tmp/ccEnBWAK.s:3938   .text.HAL_TIM_OC_Stop_DMA:000000000000000e $d
     /tmp/ccEnBWAK.s:4024   .text.HAL_TIM_OC_Stop_DMA:00000000000000b8 $d
     /tmp/ccEnBWAK.s:4027   .text.HAL_TIM_PWM_Start:0000000000000000 $t
     /tmp/ccEnBWAK.s:4032   .text.HAL_TIM_PWM_Start:0000000000000000 HAL_TIM_PWM_Start
     /tmp/ccEnBWAK.s:4062   .text.HAL_TIM_PWM_Start:0000000000000034 $d
     /tmp/ccEnBWAK.s:4065   .text.HAL_TIM_PWM_Stop:0000000000000000 $t
     /tmp/ccEnBWAK.s:4070   .text.HAL_TIM_PWM_Stop:0000000000000000 HAL_TIM_PWM_Stop
     /tmp/ccEnBWAK.s:4114   .text.HAL_TIM_PWM_Stop:0000000000000058 $d
     /tmp/ccEnBWAK.s:4117   .text.HAL_TIM_PWM_Start_IT:0000000000000000 $t
     /tmp/ccEnBWAK.s:4122   .text.HAL_TIM_PWM_Start_IT:0000000000000000 HAL_TIM_PWM_Start_IT
     /tmp/ccEnBWAK.s:4131   .text.HAL_TIM_PWM_Start_IT:000000000000000c $d
     /tmp/ccEnBWAK.s:4194   .text.HAL_TIM_PWM_Start_IT:0000000000000078 $d
     /tmp/ccEnBWAK.s:4197   .text.HAL_TIM_PWM_Stop_IT:0000000000000000 $t
     /tmp/ccEnBWAK.s:4202   .text.HAL_TIM_PWM_Stop_IT:0000000000000000 HAL_TIM_PWM_Stop_IT
     /tmp/ccEnBWAK.s:4211   .text.HAL_TIM_PWM_Stop_IT:000000000000000c $d
     /tmp/ccEnBWAK.s:4286   .text.HAL_TIM_PWM_Stop_IT:0000000000000098 $d
     /tmp/ccEnBWAK.s:4289   .text.HAL_TIM_PWM_Start_DMA:0000000000000000 $t
     /tmp/ccEnBWAK.s:4294   .text.HAL_TIM_PWM_Start_DMA:0000000000000000 HAL_TIM_PWM_Start_DMA
     /tmp/ccEnBWAK.s:4319   .text.HAL_TIM_PWM_Start_DMA:0000000000000032 $d
     /tmp/ccEnBWAK.s:4466   .text.HAL_TIM_PWM_Start_DMA:000000000000014c $d
     /tmp/ccEnBWAK.s:4472   .text.HAL_TIM_PWM_Stop_DMA:0000000000000000 $t
ARM GAS  /tmp/ccEnBWAK.s 			page 102


     /tmp/ccEnBWAK.s:4477   .text.HAL_TIM_PWM_Stop_DMA:0000000000000000 HAL_TIM_PWM_Stop_DMA
     /tmp/ccEnBWAK.s:4487   .text.HAL_TIM_PWM_Stop_DMA:000000000000000e $d
     /tmp/ccEnBWAK.s:4573   .text.HAL_TIM_PWM_Stop_DMA:00000000000000b8 $d
     /tmp/ccEnBWAK.s:4576   .text.HAL_TIM_IC_Start:0000000000000000 $t
     /tmp/ccEnBWAK.s:4581   .text.HAL_TIM_IC_Start:0000000000000000 HAL_TIM_IC_Start
     /tmp/ccEnBWAK.s:4602   .text.HAL_TIM_IC_Stop:0000000000000000 $t
     /tmp/ccEnBWAK.s:4607   .text.HAL_TIM_IC_Stop:0000000000000000 HAL_TIM_IC_Stop
     /tmp/ccEnBWAK.s:4632   .text.HAL_TIM_IC_Start_IT:0000000000000000 $t
     /tmp/ccEnBWAK.s:4637   .text.HAL_TIM_IC_Start_IT:0000000000000000 HAL_TIM_IC_Start_IT
     /tmp/ccEnBWAK.s:4646   .text.HAL_TIM_IC_Start_IT:000000000000000c $d
     /tmp/ccEnBWAK.s:4700   .text.HAL_TIM_IC_Stop_IT:0000000000000000 $t
     /tmp/ccEnBWAK.s:4705   .text.HAL_TIM_IC_Stop_IT:0000000000000000 HAL_TIM_IC_Stop_IT
     /tmp/ccEnBWAK.s:4714   .text.HAL_TIM_IC_Stop_IT:000000000000000c $d
     /tmp/ccEnBWAK.s:4772   .text.HAL_TIM_IC_Start_DMA:0000000000000000 $t
     /tmp/ccEnBWAK.s:4777   .text.HAL_TIM_IC_Start_DMA:0000000000000000 HAL_TIM_IC_Start_DMA
     /tmp/ccEnBWAK.s:4802   .text.HAL_TIM_IC_Start_DMA:000000000000002e $d
     /tmp/ccEnBWAK.s:4937   .text.HAL_TIM_IC_Start_DMA:0000000000000128 $d
     /tmp/ccEnBWAK.s:4942   .text.HAL_TIM_IC_Stop_DMA:0000000000000000 $t
     /tmp/ccEnBWAK.s:4947   .text.HAL_TIM_IC_Stop_DMA:0000000000000000 HAL_TIM_IC_Stop_DMA
     /tmp/ccEnBWAK.s:4957   .text.HAL_TIM_IC_Stop_DMA:000000000000000e $d
     /tmp/ccEnBWAK.s:5026   .text.HAL_TIM_OnePulse_Start:0000000000000000 $t
     /tmp/ccEnBWAK.s:5031   .text.HAL_TIM_OnePulse_Start:0000000000000000 HAL_TIM_OnePulse_Start
     /tmp/ccEnBWAK.s:5057   .text.HAL_TIM_OnePulse_Start:000000000000002c $d
     /tmp/ccEnBWAK.s:5060   .text.HAL_TIM_OnePulse_Stop:0000000000000000 $t
     /tmp/ccEnBWAK.s:5065   .text.HAL_TIM_OnePulse_Stop:0000000000000000 HAL_TIM_OnePulse_Stop
     /tmp/ccEnBWAK.s:5112   .text.HAL_TIM_OnePulse_Stop:0000000000000060 $d
     /tmp/ccEnBWAK.s:5115   .text.HAL_TIM_OnePulse_Start_IT:0000000000000000 $t
     /tmp/ccEnBWAK.s:5120   .text.HAL_TIM_OnePulse_Start_IT:0000000000000000 HAL_TIM_OnePulse_Start_IT
     /tmp/ccEnBWAK.s:5154   .text.HAL_TIM_OnePulse_Start_IT:0000000000000040 $d
     /tmp/ccEnBWAK.s:5157   .text.HAL_TIM_OnePulse_Stop_IT:0000000000000000 $t
     /tmp/ccEnBWAK.s:5162   .text.HAL_TIM_OnePulse_Stop_IT:0000000000000000 HAL_TIM_OnePulse_Stop_IT
     /tmp/ccEnBWAK.s:5217   .text.HAL_TIM_OnePulse_Stop_IT:0000000000000074 $d
     /tmp/ccEnBWAK.s:5220   .text.HAL_TIM_Encoder_Start:0000000000000000 $t
     /tmp/ccEnBWAK.s:5225   .text.HAL_TIM_Encoder_Start:0000000000000000 HAL_TIM_Encoder_Start
     /tmp/ccEnBWAK.s:5264   .text.HAL_TIM_Encoder_Stop:0000000000000000 $t
     /tmp/ccEnBWAK.s:5269   .text.HAL_TIM_Encoder_Stop:0000000000000000 HAL_TIM_Encoder_Stop
     /tmp/ccEnBWAK.s:5317   .text.HAL_TIM_Encoder_Start_IT:0000000000000000 $t
     /tmp/ccEnBWAK.s:5322   .text.HAL_TIM_Encoder_Start_IT:0000000000000000 HAL_TIM_Encoder_Start_IT
     /tmp/ccEnBWAK.s:5377   .text.HAL_TIM_Encoder_Stop_IT:0000000000000000 $t
     /tmp/ccEnBWAK.s:5382   .text.HAL_TIM_Encoder_Stop_IT:0000000000000000 HAL_TIM_Encoder_Stop_IT
     /tmp/ccEnBWAK.s:5445   .text.HAL_TIM_Encoder_Start_DMA:0000000000000000 $t
     /tmp/ccEnBWAK.s:5450   .text.HAL_TIM_Encoder_Start_DMA:0000000000000000 HAL_TIM_Encoder_Start_DMA
     /tmp/ccEnBWAK.s:5623   .text.HAL_TIM_Encoder_Start_DMA:0000000000000160 $d
     /tmp/ccEnBWAK.s:5628   .text.HAL_TIM_Encoder_Stop_DMA:0000000000000000 $t
     /tmp/ccEnBWAK.s:5633   .text.HAL_TIM_Encoder_Stop_DMA:0000000000000000 HAL_TIM_Encoder_Stop_DMA
     /tmp/ccEnBWAK.s:1569   .text.HAL_TIM_ReadCapturedValue:0000000000000015 $d
     /tmp/ccEnBWAK.s:1569   .text.HAL_TIM_ReadCapturedValue:0000000000000016 $t
     /tmp/ccEnBWAK.s:2602   .text.HAL_TIM_OC_ConfigChannel:000000000000002d $d
     /tmp/ccEnBWAK.s:2602   .text.HAL_TIM_OC_ConfigChannel:000000000000002e $t
     /tmp/ccEnBWAK.s:2664   .text.HAL_TIM_PWM_ConfigChannel:000000000000002f $d
     /tmp/ccEnBWAK.s:2664   .text.HAL_TIM_PWM_ConfigChannel:0000000000000030 $t
     /tmp/ccEnBWAK.s:3100   .text.HAL_TIM_ConfigOCrefClear:0000000000000063 $d
     /tmp/ccEnBWAK.s:3100   .text.HAL_TIM_ConfigOCrefClear:0000000000000064 $t
     /tmp/ccEnBWAK.s:3595   .text.HAL_TIM_OC_Start_IT:0000000000000019 $d
     /tmp/ccEnBWAK.s:3595   .text.HAL_TIM_OC_Start_IT:000000000000001a $t
     /tmp/ccEnBWAK.s:3675   .text.HAL_TIM_OC_Stop_IT:0000000000000019 $d
     /tmp/ccEnBWAK.s:3675   .text.HAL_TIM_OC_Stop_IT:000000000000001a $t
ARM GAS  /tmp/ccEnBWAK.s 			page 103


     /tmp/ccEnBWAK.s:3783   .text.HAL_TIM_OC_Start_DMA:000000000000003f $d
     /tmp/ccEnBWAK.s:3783   .text.HAL_TIM_OC_Start_DMA:0000000000000040 $t
     /tmp/ccEnBWAK.s:3951   .text.HAL_TIM_OC_Stop_DMA:000000000000001b $d
     /tmp/ccEnBWAK.s:3951   .text.HAL_TIM_OC_Stop_DMA:000000000000001c $t
     /tmp/ccEnBWAK.s:4144   .text.HAL_TIM_PWM_Start_IT:0000000000000019 $d
     /tmp/ccEnBWAK.s:4144   .text.HAL_TIM_PWM_Start_IT:000000000000001a $t
     /tmp/ccEnBWAK.s:4224   .text.HAL_TIM_PWM_Stop_IT:0000000000000019 $d
     /tmp/ccEnBWAK.s:4224   .text.HAL_TIM_PWM_Stop_IT:000000000000001a $t
     /tmp/ccEnBWAK.s:4332   .text.HAL_TIM_PWM_Start_DMA:000000000000003f $d
     /tmp/ccEnBWAK.s:4332   .text.HAL_TIM_PWM_Start_DMA:0000000000000040 $t
     /tmp/ccEnBWAK.s:4500   .text.HAL_TIM_PWM_Stop_DMA:000000000000001b $d
     /tmp/ccEnBWAK.s:4500   .text.HAL_TIM_PWM_Stop_DMA:000000000000001c $t
     /tmp/ccEnBWAK.s:4659   .text.HAL_TIM_IC_Start_IT:0000000000000019 $d
     /tmp/ccEnBWAK.s:4659   .text.HAL_TIM_IC_Start_IT:000000000000001a $t
     /tmp/ccEnBWAK.s:4727   .text.HAL_TIM_IC_Stop_IT:0000000000000019 $d
     /tmp/ccEnBWAK.s:4727   .text.HAL_TIM_IC_Stop_IT:000000000000001a $t
     /tmp/ccEnBWAK.s:4815   .text.HAL_TIM_IC_Start_DMA:000000000000003b $d
     /tmp/ccEnBWAK.s:4815   .text.HAL_TIM_IC_Start_DMA:000000000000003c $t
     /tmp/ccEnBWAK.s:4970   .text.HAL_TIM_IC_Stop_DMA:000000000000001b $d
     /tmp/ccEnBWAK.s:4970   .text.HAL_TIM_IC_Stop_DMA:000000000000001c $t

UNDEFINED SYMBOLS
HAL_DMA_Start_IT
HAL_DMA_Abort_IT
TIMEx_DMACommutationCplt
TIMEx_DMACommutationHalfCplt
HAL_TIMEx_BreakCallback
HAL_TIMEx_CommutCallback
