ARM GAS  /tmp/cc9Rk5Al.s 			page 1


   1              		.syntax unified
   2              		.cpu cortex-m3
   3              		.fpu softvfp
   4              		.eabi_attribute 20, 1
   5              		.eabi_attribute 21, 1
   6              		.eabi_attribute 23, 3
   7              		.eabi_attribute 24, 1
   8              		.eabi_attribute 25, 1
   9              		.eabi_attribute 26, 1
  10              		.eabi_attribute 30, 1
  11              		.eabi_attribute 34, 1
  12              		.eabi_attribute 18, 4
  13              		.thumb
  14              		.file	"stm32f1xx_hal_irda.c"
  15              		.section	.text.IRDA_EndTxTransfer,"ax",%progbits
  16              		.align	2
  17              		.thumb
  18              		.thumb_func
  20              	IRDA_EndTxTransfer:
  21              		@ args = 0, pretend = 0, frame = 0
  22              		@ frame_needed = 0, uses_anonymous_args = 0
  23              		@ link register save eliminated.
  24 0000 0268     		ldr	r2, [r0]
  25 0002 D368     		ldr	r3, [r2, #12]
  26 0004 23F0C003 		bic	r3, r3, #192
  27 0008 D360     		str	r3, [r2, #12]
  28 000a 2023     		movs	r3, #32
  29 000c 80F83530 		strb	r3, [r0, #53]
  30 0010 7047     		bx	lr
  32 0012 00BF     		.section	.text.IRDA_EndRxTransfer,"ax",%progbits
  33              		.align	2
  34              		.thumb
  35              		.thumb_func
  37              	IRDA_EndRxTransfer:
  38              		@ args = 0, pretend = 0, frame = 0
  39              		@ frame_needed = 0, uses_anonymous_args = 0
  40              		@ link register save eliminated.
  41 0000 0268     		ldr	r2, [r0]
  42 0002 D368     		ldr	r3, [r2, #12]
  43 0004 23F49073 		bic	r3, r3, #288
  44 0008 D360     		str	r3, [r2, #12]
  45 000a 0268     		ldr	r2, [r0]
  46 000c 5369     		ldr	r3, [r2, #20]
  47 000e 23F00103 		bic	r3, r3, #1
  48 0012 5361     		str	r3, [r2, #20]
  49 0014 2023     		movs	r3, #32
  50 0016 80F83630 		strb	r3, [r0, #54]
  51 001a 7047     		bx	lr
  53              		.section	.text.IRDA_Transmit_IT,"ax",%progbits
  54              		.align	2
  55              		.thumb
  56              		.thumb_func
  58              	IRDA_Transmit_IT:
  59              		@ args = 0, pretend = 0, frame = 0
  60              		@ frame_needed = 0, uses_anonymous_args = 0
  61              		@ link register save eliminated.
  62 0000 90F83530 		ldrb	r3, [r0, #53]	@ zero_extendqisi2
ARM GAS  /tmp/cc9Rk5Al.s 			page 2


  63 0004 DBB2     		uxtb	r3, r3
  64 0006 212B     		cmp	r3, #33
  65 0008 2AD1     		bne	.L8
  66 000a 8368     		ldr	r3, [r0, #8]
  67 000c B3F5805F 		cmp	r3, #4096
  68 0010 0FD1     		bne	.L5
  69 0012 C369     		ldr	r3, [r0, #28]
  70 0014 0268     		ldr	r2, [r0]
  71 0016 1B88     		ldrh	r3, [r3]
  72 0018 C3F30803 		ubfx	r3, r3, #0, #9
  73 001c 5360     		str	r3, [r2, #4]
  74 001e C368     		ldr	r3, [r0, #12]
  75 0020 1BB9     		cbnz	r3, .L6
  76 0022 C369     		ldr	r3, [r0, #28]
  77 0024 0233     		adds	r3, r3, #2
  78 0026 C361     		str	r3, [r0, #28]
  79 0028 09E0     		b	.L7
  80              	.L6:
  81 002a C369     		ldr	r3, [r0, #28]
  82 002c 0133     		adds	r3, r3, #1
  83 002e C361     		str	r3, [r0, #28]
  84 0030 05E0     		b	.L7
  85              	.L5:
  86 0032 0268     		ldr	r2, [r0]
  87 0034 C369     		ldr	r3, [r0, #28]
  88 0036 591C     		adds	r1, r3, #1
  89 0038 C161     		str	r1, [r0, #28]
  90 003a 1B78     		ldrb	r3, [r3]	@ zero_extendqisi2
  91 003c 5360     		str	r3, [r2, #4]
  92              	.L7:
  93 003e 438C     		ldrh	r3, [r0, #34]
  94 0040 013B     		subs	r3, r3, #1
  95 0042 9BB2     		uxth	r3, r3
  96 0044 4384     		strh	r3, [r0, #34]	@ movhi
  97 0046 6BB9     		cbnz	r3, .L9
  98 0048 0268     		ldr	r2, [r0]
  99 004a D368     		ldr	r3, [r2, #12]
 100 004c 23F08003 		bic	r3, r3, #128
 101 0050 D360     		str	r3, [r2, #12]
 102 0052 0268     		ldr	r2, [r0]
 103 0054 D368     		ldr	r3, [r2, #12]
 104 0056 43F04003 		orr	r3, r3, #64
 105 005a D360     		str	r3, [r2, #12]
 106 005c 0020     		movs	r0, #0
 107 005e 7047     		bx	lr
 108              	.L8:
 109 0060 0220     		movs	r0, #2
 110 0062 7047     		bx	lr
 111              	.L9:
 112 0064 0020     		movs	r0, #0
 113 0066 7047     		bx	lr
 115              		.section	.text.IRDA_SetConfig,"ax",%progbits
 116              		.align	2
 117              		.thumb
 118              		.thumb_func
 120              	IRDA_SetConfig:
 121              		@ args = 0, pretend = 0, frame = 0
ARM GAS  /tmp/cc9Rk5Al.s 			page 3


 122              		@ frame_needed = 0, uses_anonymous_args = 0
 123 0000 70B5     		push	{r4, r5, r6, lr}
 124 0002 0446     		mov	r4, r0
 125 0004 0268     		ldr	r2, [r0]
 126 0006 1369     		ldr	r3, [r2, #16]
 127 0008 23F44053 		bic	r3, r3, #12288
 128 000c 1361     		str	r3, [r2, #16]
 129 000e 0268     		ldr	r2, [r0]
 130 0010 D368     		ldr	r3, [r2, #12]
 131 0012 23F4B053 		bic	r3, r3, #5632
 132 0016 23F00C03 		bic	r3, r3, #12
 133 001a D360     		str	r3, [r2, #12]
 134 001c 0168     		ldr	r1, [r0]
 135 001e C868     		ldr	r0, [r1, #12]
 136 0020 A368     		ldr	r3, [r4, #8]
 137 0022 E268     		ldr	r2, [r4, #12]
 138 0024 1A43     		orrs	r2, r2, r3
 139 0026 2369     		ldr	r3, [r4, #16]
 140 0028 1343     		orrs	r3, r3, r2
 141 002a 0343     		orrs	r3, r3, r0
 142 002c CB60     		str	r3, [r1, #12]
 143 002e 2268     		ldr	r2, [r4]
 144 0030 5369     		ldr	r3, [r2, #20]
 145 0032 23F44073 		bic	r3, r3, #768
 146 0036 5361     		str	r3, [r2, #20]
 147 0038 2268     		ldr	r2, [r4]
 148 003a 234B     		ldr	r3, .L14
 149 003c 9A42     		cmp	r2, r3
 150 003e 21D1     		bne	.L11
 151 0040 FFF7FEFF 		bl	HAL_RCC_GetPCLK2Freq
 152 0044 2568     		ldr	r5, [r4]
 153 0046 AE68     		ldr	r6, [r5, #8]
 154 0048 00EB8000 		add	r0, r0, r0, lsl #2
 155 004c 00EB8000 		add	r0, r0, r0, lsl #2
 156 0050 6368     		ldr	r3, [r4, #4]
 157 0052 9B00     		lsls	r3, r3, #2
 158 0054 B0FBF3F0 		udiv	r0, r0, r3
 159 0058 1C4B     		ldr	r3, .L14+4
 160 005a A3FB0024 		umull	r2, r4, r3, r0
 161 005e 6409     		lsrs	r4, r4, #5
 162 0060 6421     		movs	r1, #100
 163 0062 01FB1402 		mls	r2, r1, r4, r0
 164 0066 1201     		lsls	r2, r2, #4
 165 0068 3232     		adds	r2, r2, #50
 166 006a A3FB0232 		umull	r3, r2, r3, r2
 167 006e 5309     		lsrs	r3, r2, #5
 168 0070 03F0F002 		and	r2, r3, #240
 169 0074 02EB0414 		add	r4, r2, r4, lsl #4
 170 0078 03F00F02 		and	r2, r3, #15
 171 007c A318     		adds	r3, r4, r2
 172 007e 3343     		orrs	r3, r3, r6
 173 0080 AB60     		str	r3, [r5, #8]
 174 0082 70BD     		pop	{r4, r5, r6, pc}
 175              	.L11:
 176 0084 FFF7FEFF 		bl	HAL_RCC_GetPCLK1Freq
 177 0088 2568     		ldr	r5, [r4]
 178 008a AE68     		ldr	r6, [r5, #8]
ARM GAS  /tmp/cc9Rk5Al.s 			page 4


 179 008c 00EB8000 		add	r0, r0, r0, lsl #2
 180 0090 00EB8000 		add	r0, r0, r0, lsl #2
 181 0094 6368     		ldr	r3, [r4, #4]
 182 0096 9B00     		lsls	r3, r3, #2
 183 0098 B0FBF3F0 		udiv	r0, r0, r3
 184 009c 0B4B     		ldr	r3, .L14+4
 185 009e A3FB0024 		umull	r2, r4, r3, r0
 186 00a2 6409     		lsrs	r4, r4, #5
 187 00a4 6421     		movs	r1, #100
 188 00a6 01FB1402 		mls	r2, r1, r4, r0
 189 00aa 1201     		lsls	r2, r2, #4
 190 00ac 3232     		adds	r2, r2, #50
 191 00ae A3FB0232 		umull	r3, r2, r3, r2
 192 00b2 5309     		lsrs	r3, r2, #5
 193 00b4 03F0F002 		and	r2, r3, #240
 194 00b8 02EB0414 		add	r4, r2, r4, lsl #4
 195 00bc 03F00F02 		and	r2, r3, #15
 196 00c0 A318     		adds	r3, r4, r2
 197 00c2 3343     		orrs	r3, r3, r6
 198 00c4 AB60     		str	r3, [r5, #8]
 199 00c6 70BD     		pop	{r4, r5, r6, pc}
 200              	.L15:
 201              		.align	2
 202              	.L14:
 203 00c8 00380140 		.word	1073821696
 204 00cc 1F85EB51 		.word	1374389535
 206              		.section	.text.IRDA_WaitOnFlagUntilTimeout,"ax",%progbits
 207              		.align	2
 208              		.thumb
 209              		.thumb_func
 211              	IRDA_WaitOnFlagUntilTimeout:
 212              		@ args = 4, pretend = 0, frame = 0
 213              		@ frame_needed = 0, uses_anonymous_args = 0
 214 0000 2DE9F041 		push	{r4, r5, r6, r7, r8, lr}
 215 0004 0646     		mov	r6, r0
 216 0006 0C46     		mov	r4, r1
 217 0008 1746     		mov	r7, r2
 218 000a 9846     		mov	r8, r3
 219 000c 069D     		ldr	r5, [sp, #24]
 220 000e 1EE0     		b	.L18
 221              	.L21:
 222 0010 B5F1FF3F 		cmp	r5, #-1
 223 0014 1BD0     		beq	.L18
 224 0016 2DB1     		cbz	r5, .L19
 225 0018 FFF7FEFF 		bl	HAL_GetTick
 226 001c C8EB0000 		rsb	r0, r8, r0
 227 0020 A842     		cmp	r0, r5
 228 0022 14D9     		bls	.L18
 229              	.L19:
 230 0024 3268     		ldr	r2, [r6]
 231 0026 D368     		ldr	r3, [r2, #12]
 232 0028 23F4D073 		bic	r3, r3, #416
 233 002c D360     		str	r3, [r2, #12]
 234 002e 3268     		ldr	r2, [r6]
 235 0030 5369     		ldr	r3, [r2, #20]
 236 0032 23F00103 		bic	r3, r3, #1
 237 0036 5361     		str	r3, [r2, #20]
ARM GAS  /tmp/cc9Rk5Al.s 			page 5


 238 0038 2023     		movs	r3, #32
 239 003a 86F83530 		strb	r3, [r6, #53]
 240 003e 86F83630 		strb	r3, [r6, #54]
 241 0042 0023     		movs	r3, #0
 242 0044 86F83430 		strb	r3, [r6, #52]
 243 0048 0320     		movs	r0, #3
 244 004a BDE8F081 		pop	{r4, r5, r6, r7, r8, pc}
 245              	.L18:
 246 004e 3368     		ldr	r3, [r6]
 247 0050 1B68     		ldr	r3, [r3]
 248 0052 2340     		ands	r3, r3, r4
 249 0054 A342     		cmp	r3, r4
 250 0056 14BF     		ite	ne
 251 0058 0023     		movne	r3, #0
 252 005a 0123     		moveq	r3, #1
 253 005c BB42     		cmp	r3, r7
 254 005e D7D0     		beq	.L21
 255 0060 0020     		movs	r0, #0
 256 0062 BDE8F081 		pop	{r4, r5, r6, r7, r8, pc}
 258 0066 00BF     		.section	.text.HAL_IRDA_MspInit,"ax",%progbits
 259              		.align	2
 260              		.weak	HAL_IRDA_MspInit
 261              		.thumb
 262              		.thumb_func
 264              	HAL_IRDA_MspInit:
 265              		@ args = 0, pretend = 0, frame = 0
 266              		@ frame_needed = 0, uses_anonymous_args = 0
 267              		@ link register save eliminated.
 268 0000 7047     		bx	lr
 270 0002 00BF     		.section	.text.HAL_IRDA_Init,"ax",%progbits
 271              		.align	2
 272              		.global	HAL_IRDA_Init
 273              		.thumb
 274              		.thumb_func
 276              	HAL_IRDA_Init:
 277              		@ args = 0, pretend = 0, frame = 0
 278              		@ frame_needed = 0, uses_anonymous_args = 0
 279 0000 0028     		cmp	r0, #0
 280 0002 40D0     		beq	.L27
 281 0004 10B5     		push	{r4, lr}
 282 0006 0446     		mov	r4, r0
 283 0008 90F83530 		ldrb	r3, [r0, #53]	@ zero_extendqisi2
 284 000c 13F0FF0F 		tst	r3, #255
 285 0010 04D1     		bne	.L26
 286 0012 0023     		movs	r3, #0
 287 0014 80F83430 		strb	r3, [r0, #52]
 288 0018 FFF7FEFF 		bl	HAL_IRDA_MspInit
 289              	.L26:
 290 001c 2423     		movs	r3, #36
 291 001e 84F83530 		strb	r3, [r4, #53]
 292 0022 2268     		ldr	r2, [r4]
 293 0024 D368     		ldr	r3, [r2, #12]
 294 0026 23F40053 		bic	r3, r3, #8192
 295 002a D360     		str	r3, [r2, #12]
 296 002c 2046     		mov	r0, r4
 297 002e FFF7FEFF 		bl	IRDA_SetConfig
 298 0032 2268     		ldr	r2, [r4]
ARM GAS  /tmp/cc9Rk5Al.s 			page 6


 299 0034 1369     		ldr	r3, [r2, #16]
 300 0036 23F4F043 		bic	r3, r3, #30720
 301 003a 1361     		str	r3, [r2, #16]
 302 003c 2268     		ldr	r2, [r4]
 303 003e 5369     		ldr	r3, [r2, #20]
 304 0040 23F02803 		bic	r3, r3, #40
 305 0044 5361     		str	r3, [r2, #20]
 306 0046 2268     		ldr	r2, [r4]
 307 0048 D368     		ldr	r3, [r2, #12]
 308 004a 43F40053 		orr	r3, r3, #8192
 309 004e D360     		str	r3, [r2, #12]
 310 0050 2168     		ldr	r1, [r4]
 311 0052 8B69     		ldr	r3, [r1, #24]
 312 0054 23F0FF02 		bic	r2, r3, #255
 313 0058 237D     		ldrb	r3, [r4, #20]	@ zero_extendqisi2
 314 005a 1343     		orrs	r3, r3, r2
 315 005c 8B61     		str	r3, [r1, #24]
 316 005e 2168     		ldr	r1, [r4]
 317 0060 4B69     		ldr	r3, [r1, #20]
 318 0062 23F00402 		bic	r2, r3, #4
 319 0066 A369     		ldr	r3, [r4, #24]
 320 0068 1343     		orrs	r3, r3, r2
 321 006a 4B61     		str	r3, [r1, #20]
 322 006c 2268     		ldr	r2, [r4]
 323 006e 5369     		ldr	r3, [r2, #20]
 324 0070 43F00203 		orr	r3, r3, #2
 325 0074 5361     		str	r3, [r2, #20]
 326 0076 0020     		movs	r0, #0
 327 0078 A063     		str	r0, [r4, #56]
 328 007a 2023     		movs	r3, #32
 329 007c 84F83530 		strb	r3, [r4, #53]
 330 0080 84F83630 		strb	r3, [r4, #54]
 331 0084 10BD     		pop	{r4, pc}
 332              	.L27:
 333 0086 0120     		movs	r0, #1
 334 0088 7047     		bx	lr
 336 008a 00BF     		.section	.text.HAL_IRDA_MspDeInit,"ax",%progbits
 337              		.align	2
 338              		.weak	HAL_IRDA_MspDeInit
 339              		.thumb
 340              		.thumb_func
 342              	HAL_IRDA_MspDeInit:
 343              		@ args = 0, pretend = 0, frame = 0
 344              		@ frame_needed = 0, uses_anonymous_args = 0
 345              		@ link register save eliminated.
 346 0000 7047     		bx	lr
 348 0002 00BF     		.section	.text.HAL_IRDA_DeInit,"ax",%progbits
 349              		.align	2
 350              		.global	HAL_IRDA_DeInit
 351              		.thumb
 352              		.thumb_func
 354              	HAL_IRDA_DeInit:
 355              		@ args = 0, pretend = 0, frame = 0
 356              		@ frame_needed = 0, uses_anonymous_args = 0
 357 0000 A0B1     		cbz	r0, .L33
 358 0002 10B5     		push	{r4, lr}
 359 0004 0446     		mov	r4, r0
ARM GAS  /tmp/cc9Rk5Al.s 			page 7


 360 0006 2423     		movs	r3, #36
 361 0008 80F83530 		strb	r3, [r0, #53]
 362 000c 0268     		ldr	r2, [r0]
 363 000e D368     		ldr	r3, [r2, #12]
 364 0010 23F40053 		bic	r3, r3, #8192
 365 0014 D360     		str	r3, [r2, #12]
 366 0016 FFF7FEFF 		bl	HAL_IRDA_MspDeInit
 367 001a 0020     		movs	r0, #0
 368 001c A063     		str	r0, [r4, #56]
 369 001e 84F83500 		strb	r0, [r4, #53]
 370 0022 84F83600 		strb	r0, [r4, #54]
 371 0026 84F83400 		strb	r0, [r4, #52]
 372 002a 10BD     		pop	{r4, pc}
 373              	.L33:
 374 002c 0120     		movs	r0, #1
 375 002e 7047     		bx	lr
 377              		.section	.text.HAL_IRDA_Transmit,"ax",%progbits
 378              		.align	2
 379              		.global	HAL_IRDA_Transmit
 380              		.thumb
 381              		.thumb_func
 383              	HAL_IRDA_Transmit:
 384              		@ args = 0, pretend = 0, frame = 0
 385              		@ frame_needed = 0, uses_anonymous_args = 0
 386 0000 2DE9F041 		push	{r4, r5, r6, r7, r8, lr}
 387 0004 82B0     		sub	sp, sp, #8
 388 0006 0446     		mov	r4, r0
 389 0008 1E46     		mov	r6, r3
 390 000a 90F83530 		ldrb	r3, [r0, #53]	@ zero_extendqisi2
 391 000e DBB2     		uxtb	r3, r3
 392 0010 202B     		cmp	r3, #32
 393 0012 54D1     		bne	.L43
 394 0014 0D46     		mov	r5, r1
 395 0016 9046     		mov	r8, r2
 396 0018 0029     		cmp	r1, #0
 397 001a 52D0     		beq	.L44
 398 001c 002A     		cmp	r2, #0
 399 001e 52D0     		beq	.L45
 400 0020 90F83430 		ldrb	r3, [r0, #52]	@ zero_extendqisi2
 401 0024 012B     		cmp	r3, #1
 402 0026 50D0     		beq	.L46
 403 0028 0123     		movs	r3, #1
 404 002a 80F83430 		strb	r3, [r0, #52]
 405 002e 0023     		movs	r3, #0
 406 0030 8363     		str	r3, [r0, #56]
 407 0032 2123     		movs	r3, #33
 408 0034 80F83530 		strb	r3, [r0, #53]
 409 0038 FFF7FEFF 		bl	HAL_GetTick
 410 003c 0746     		mov	r7, r0
 411 003e A4F82080 		strh	r8, [r4, #32]	@ movhi
 412 0042 A4F82280 		strh	r8, [r4, #34]	@ movhi
 413 0046 26E0     		b	.L38
 414              	.L42:
 415 0048 638C     		ldrh	r3, [r4, #34]
 416 004a 013B     		subs	r3, r3, #1
 417 004c 9BB2     		uxth	r3, r3
 418 004e 6384     		strh	r3, [r4, #34]	@ movhi
ARM GAS  /tmp/cc9Rk5Al.s 			page 8


 419 0050 A368     		ldr	r3, [r4, #8]
 420 0052 B3F5805F 		cmp	r3, #4096
 421 0056 12D1     		bne	.L39
 422 0058 0096     		str	r6, [sp]
 423 005a 2046     		mov	r0, r4
 424 005c 8021     		movs	r1, #128
 425 005e 0022     		movs	r2, #0
 426 0060 3B46     		mov	r3, r7
 427 0062 FFF7FEFF 		bl	IRDA_WaitOnFlagUntilTimeout
 428 0066 90BB     		cbnz	r0, .L47
 429 0068 2268     		ldr	r2, [r4]
 430 006a 2B88     		ldrh	r3, [r5]
 431 006c C3F30803 		ubfx	r3, r3, #0, #9
 432 0070 5360     		str	r3, [r2, #4]
 433 0072 E368     		ldr	r3, [r4, #12]
 434 0074 0BB9     		cbnz	r3, .L40
 435 0076 0235     		adds	r5, r5, #2
 436 0078 0DE0     		b	.L38
 437              	.L40:
 438 007a 0135     		adds	r5, r5, #1
 439 007c 0BE0     		b	.L38
 440              	.L39:
 441 007e 0096     		str	r6, [sp]
 442 0080 2046     		mov	r0, r4
 443 0082 8021     		movs	r1, #128
 444 0084 0022     		movs	r2, #0
 445 0086 3B46     		mov	r3, r7
 446 0088 FFF7FEFF 		bl	IRDA_WaitOnFlagUntilTimeout
 447 008c 08BB     		cbnz	r0, .L48
 448 008e 2368     		ldr	r3, [r4]
 449 0090 2A78     		ldrb	r2, [r5]	@ zero_extendqisi2
 450 0092 5A60     		str	r2, [r3, #4]
 451 0094 0135     		adds	r5, r5, #1
 452              	.L38:
 453 0096 638C     		ldrh	r3, [r4, #34]
 454 0098 9BB2     		uxth	r3, r3
 455 009a 002B     		cmp	r3, #0
 456 009c D4D1     		bne	.L42
 457 009e 0096     		str	r6, [sp]
 458 00a0 2046     		mov	r0, r4
 459 00a2 4021     		movs	r1, #64
 460 00a4 0022     		movs	r2, #0
 461 00a6 3B46     		mov	r3, r7
 462 00a8 FFF7FEFF 		bl	IRDA_WaitOnFlagUntilTimeout
 463 00ac 0346     		mov	r3, r0
 464 00ae 90B9     		cbnz	r0, .L49
 465 00b0 2022     		movs	r2, #32
 466 00b2 84F83520 		strb	r2, [r4, #53]
 467 00b6 0022     		movs	r2, #0
 468 00b8 84F83420 		strb	r2, [r4, #52]
 469 00bc 0CE0     		b	.L37
 470              	.L43:
 471 00be 0223     		movs	r3, #2
 472 00c0 0AE0     		b	.L37
 473              	.L44:
 474 00c2 0123     		movs	r3, #1
 475 00c4 08E0     		b	.L37
ARM GAS  /tmp/cc9Rk5Al.s 			page 9


 476              	.L45:
 477 00c6 0123     		movs	r3, #1
 478 00c8 06E0     		b	.L37
 479              	.L46:
 480 00ca 0223     		movs	r3, #2
 481 00cc 04E0     		b	.L37
 482              	.L47:
 483 00ce 0323     		movs	r3, #3
 484 00d0 02E0     		b	.L37
 485              	.L48:
 486 00d2 0323     		movs	r3, #3
 487 00d4 00E0     		b	.L37
 488              	.L49:
 489 00d6 0323     		movs	r3, #3
 490              	.L37:
 491 00d8 1846     		mov	r0, r3
 492 00da 02B0     		add	sp, sp, #8
 493              		@ sp needed
 494 00dc BDE8F081 		pop	{r4, r5, r6, r7, r8, pc}
 496              		.section	.text.HAL_IRDA_Receive,"ax",%progbits
 497              		.align	2
 498              		.global	HAL_IRDA_Receive
 499              		.thumb
 500              		.thumb_func
 502              	HAL_IRDA_Receive:
 503              		@ args = 0, pretend = 0, frame = 0
 504              		@ frame_needed = 0, uses_anonymous_args = 0
 505 0000 2DE9F041 		push	{r4, r5, r6, r7, r8, lr}
 506 0004 82B0     		sub	sp, sp, #8
 507 0006 0446     		mov	r4, r0
 508 0008 1E46     		mov	r6, r3
 509 000a 90F83630 		ldrb	r3, [r0, #54]	@ zero_extendqisi2
 510 000e DBB2     		uxtb	r3, r3
 511 0010 202B     		cmp	r3, #32
 512 0012 59D1     		bne	.L59
 513 0014 0D46     		mov	r5, r1
 514 0016 9046     		mov	r8, r2
 515 0018 0029     		cmp	r1, #0
 516 001a 57D0     		beq	.L60
 517 001c 002A     		cmp	r2, #0
 518 001e 57D0     		beq	.L61
 519 0020 90F83430 		ldrb	r3, [r0, #52]	@ zero_extendqisi2
 520 0024 012B     		cmp	r3, #1
 521 0026 55D0     		beq	.L62
 522 0028 0123     		movs	r3, #1
 523 002a 80F83430 		strb	r3, [r0, #52]
 524 002e 0023     		movs	r3, #0
 525 0030 8363     		str	r3, [r0, #56]
 526 0032 2223     		movs	r3, #34
 527 0034 80F83630 		strb	r3, [r0, #54]
 528 0038 FFF7FEFF 		bl	HAL_GetTick
 529 003c 0746     		mov	r7, r0
 530 003e A4F82880 		strh	r8, [r4, #40]	@ movhi
 531 0042 A4F82A80 		strh	r8, [r4, #42]	@ movhi
 532 0046 34E0     		b	.L53
 533              	.L58:
 534 0048 638D     		ldrh	r3, [r4, #42]
ARM GAS  /tmp/cc9Rk5Al.s 			page 10


 535 004a 013B     		subs	r3, r3, #1
 536 004c 9BB2     		uxth	r3, r3
 537 004e 6385     		strh	r3, [r4, #42]	@ movhi
 538 0050 A368     		ldr	r3, [r4, #8]
 539 0052 B3F5805F 		cmp	r3, #4096
 540 0056 17D1     		bne	.L54
 541 0058 0096     		str	r6, [sp]
 542 005a 2046     		mov	r0, r4
 543 005c 2021     		movs	r1, #32
 544 005e 0022     		movs	r2, #0
 545 0060 3B46     		mov	r3, r7
 546 0062 FFF7FEFF 		bl	IRDA_WaitOnFlagUntilTimeout
 547 0066 0028     		cmp	r0, #0
 548 0068 36D1     		bne	.L63
 549 006a E368     		ldr	r3, [r4, #12]
 550 006c 33B9     		cbnz	r3, .L55
 551 006e 2368     		ldr	r3, [r4]
 552 0070 5B68     		ldr	r3, [r3, #4]
 553 0072 C3F30803 		ubfx	r3, r3, #0, #9
 554 0076 25F8023B 		strh	r3, [r5], #2	@ movhi
 555 007a 1AE0     		b	.L53
 556              	.L55:
 557 007c 2368     		ldr	r3, [r4]
 558 007e 5B68     		ldr	r3, [r3, #4]
 559 0080 DBB2     		uxtb	r3, r3
 560 0082 25F8013B 		strh	r3, [r5], #1	@ movhi
 561 0086 14E0     		b	.L53
 562              	.L54:
 563 0088 0096     		str	r6, [sp]
 564 008a 2046     		mov	r0, r4
 565 008c 2021     		movs	r1, #32
 566 008e 0022     		movs	r2, #0
 567 0090 3B46     		mov	r3, r7
 568 0092 FFF7FEFF 		bl	IRDA_WaitOnFlagUntilTimeout
 569 0096 08BB     		cbnz	r0, .L64
 570 0098 E368     		ldr	r3, [r4, #12]
 571 009a 23B9     		cbnz	r3, .L57
 572 009c 2368     		ldr	r3, [r4]
 573 009e 5B68     		ldr	r3, [r3, #4]
 574 00a0 2B70     		strb	r3, [r5]
 575 00a2 0135     		adds	r5, r5, #1
 576 00a4 05E0     		b	.L53
 577              	.L57:
 578 00a6 2368     		ldr	r3, [r4]
 579 00a8 5B68     		ldr	r3, [r3, #4]
 580 00aa 03F07F03 		and	r3, r3, #127
 581 00ae 2B70     		strb	r3, [r5]
 582 00b0 0135     		adds	r5, r5, #1
 583              	.L53:
 584 00b2 638D     		ldrh	r3, [r4, #42]
 585 00b4 9BB2     		uxth	r3, r3
 586 00b6 002B     		cmp	r3, #0
 587 00b8 C6D1     		bne	.L58
 588 00ba 2023     		movs	r3, #32
 589 00bc 84F83630 		strb	r3, [r4, #54]
 590 00c0 0020     		movs	r0, #0
 591 00c2 84F83400 		strb	r0, [r4, #52]
ARM GAS  /tmp/cc9Rk5Al.s 			page 11


 592 00c6 0AE0     		b	.L52
 593              	.L59:
 594 00c8 0220     		movs	r0, #2
 595 00ca 08E0     		b	.L52
 596              	.L60:
 597 00cc 0120     		movs	r0, #1
 598 00ce 06E0     		b	.L52
 599              	.L61:
 600 00d0 0120     		movs	r0, #1
 601 00d2 04E0     		b	.L52
 602              	.L62:
 603 00d4 0220     		movs	r0, #2
 604 00d6 02E0     		b	.L52
 605              	.L63:
 606 00d8 0320     		movs	r0, #3
 607 00da 00E0     		b	.L52
 608              	.L64:
 609 00dc 0320     		movs	r0, #3
 610              	.L52:
 611 00de 02B0     		add	sp, sp, #8
 612              		@ sp needed
 613 00e0 BDE8F081 		pop	{r4, r5, r6, r7, r8, pc}
 615              		.section	.text.HAL_IRDA_Transmit_IT,"ax",%progbits
 616              		.align	2
 617              		.global	HAL_IRDA_Transmit_IT
 618              		.thumb
 619              		.thumb_func
 621              	HAL_IRDA_Transmit_IT:
 622              		@ args = 0, pretend = 0, frame = 0
 623              		@ frame_needed = 0, uses_anonymous_args = 0
 624              		@ link register save eliminated.
 625 0000 90F83530 		ldrb	r3, [r0, #53]	@ zero_extendqisi2
 626 0004 DBB2     		uxtb	r3, r3
 627 0006 202B     		cmp	r3, #32
 628 0008 16D1     		bne	.L68
 629 000a B9B1     		cbz	r1, .L69
 630 000c C2B1     		cbz	r2, .L70
 631 000e 90F83430 		ldrb	r3, [r0, #52]	@ zero_extendqisi2
 632 0012 012B     		cmp	r3, #1
 633 0014 16D0     		beq	.L71
 634 0016 C161     		str	r1, [r0, #28]
 635 0018 0284     		strh	r2, [r0, #32]	@ movhi
 636 001a 4284     		strh	r2, [r0, #34]	@ movhi
 637 001c 0023     		movs	r3, #0
 638 001e 8363     		str	r3, [r0, #56]
 639 0020 2122     		movs	r2, #33
 640 0022 80F83520 		strb	r2, [r0, #53]
 641 0026 80F83430 		strb	r3, [r0, #52]
 642 002a 0168     		ldr	r1, [r0]
 643 002c CA68     		ldr	r2, [r1, #12]
 644 002e 42F08002 		orr	r2, r2, #128
 645 0032 CA60     		str	r2, [r1, #12]
 646 0034 1846     		mov	r0, r3
 647 0036 7047     		bx	lr
 648              	.L68:
 649 0038 0220     		movs	r0, #2
 650 003a 7047     		bx	lr
ARM GAS  /tmp/cc9Rk5Al.s 			page 12


 651              	.L69:
 652 003c 0120     		movs	r0, #1
 653 003e 7047     		bx	lr
 654              	.L70:
 655 0040 0120     		movs	r0, #1
 656 0042 7047     		bx	lr
 657              	.L71:
 658 0044 0220     		movs	r0, #2
 659 0046 7047     		bx	lr
 661              		.section	.text.HAL_IRDA_Receive_IT,"ax",%progbits
 662              		.align	2
 663              		.global	HAL_IRDA_Receive_IT
 664              		.thumb
 665              		.thumb_func
 667              	HAL_IRDA_Receive_IT:
 668              		@ args = 0, pretend = 0, frame = 0
 669              		@ frame_needed = 0, uses_anonymous_args = 0
 670              		@ link register save eliminated.
 671 0000 90F83630 		ldrb	r3, [r0, #54]	@ zero_extendqisi2
 672 0004 DBB2     		uxtb	r3, r3
 673 0006 202B     		cmp	r3, #32
 674 0008 1BD1     		bne	.L74
 675 000a E1B1     		cbz	r1, .L75
 676 000c EAB1     		cbz	r2, .L76
 677 000e 90F83430 		ldrb	r3, [r0, #52]	@ zero_extendqisi2
 678 0012 012B     		cmp	r3, #1
 679 0014 1BD0     		beq	.L77
 680 0016 4162     		str	r1, [r0, #36]
 681 0018 0285     		strh	r2, [r0, #40]	@ movhi
 682 001a 4285     		strh	r2, [r0, #42]	@ movhi
 683 001c 0023     		movs	r3, #0
 684 001e 8363     		str	r3, [r0, #56]
 685 0020 2222     		movs	r2, #34
 686 0022 80F83620 		strb	r2, [r0, #54]
 687 0026 80F83430 		strb	r3, [r0, #52]
 688 002a 0168     		ldr	r1, [r0]
 689 002c CA68     		ldr	r2, [r1, #12]
 690 002e 42F49072 		orr	r2, r2, #288
 691 0032 CA60     		str	r2, [r1, #12]
 692 0034 0168     		ldr	r1, [r0]
 693 0036 4A69     		ldr	r2, [r1, #20]
 694 0038 42F00102 		orr	r2, r2, #1
 695 003c 4A61     		str	r2, [r1, #20]
 696 003e 1846     		mov	r0, r3
 697 0040 7047     		bx	lr
 698              	.L74:
 699 0042 0220     		movs	r0, #2
 700 0044 7047     		bx	lr
 701              	.L75:
 702 0046 0120     		movs	r0, #1
 703 0048 7047     		bx	lr
 704              	.L76:
 705 004a 0120     		movs	r0, #1
 706 004c 7047     		bx	lr
 707              	.L77:
 708 004e 0220     		movs	r0, #2
 709 0050 7047     		bx	lr
ARM GAS  /tmp/cc9Rk5Al.s 			page 13


 711 0052 00BF     		.section	.text.HAL_IRDA_Transmit_DMA,"ax",%progbits
 712              		.align	2
 713              		.global	HAL_IRDA_Transmit_DMA
 714              		.thumb
 715              		.thumb_func
 717              	HAL_IRDA_Transmit_DMA:
 718              		@ args = 0, pretend = 0, frame = 0
 719              		@ frame_needed = 0, uses_anonymous_args = 0
 720 0000 38B5     		push	{r3, r4, r5, lr}
 721 0002 0446     		mov	r4, r0
 722 0004 1346     		mov	r3, r2
 723 0006 90F83520 		ldrb	r2, [r0, #53]	@ zero_extendqisi2
 724 000a D2B2     		uxtb	r2, r2
 725 000c 202A     		cmp	r2, #32
 726 000e 2FD1     		bne	.L80
 727 0010 0029     		cmp	r1, #0
 728 0012 2FD0     		beq	.L81
 729 0014 002B     		cmp	r3, #0
 730 0016 2FD0     		beq	.L82
 731 0018 90F83420 		ldrb	r2, [r0, #52]	@ zero_extendqisi2
 732 001c 012A     		cmp	r2, #1
 733 001e 2DD0     		beq	.L83
 734 0020 0122     		movs	r2, #1
 735 0022 80F83420 		strb	r2, [r0, #52]
 736 0026 C161     		str	r1, [r0, #28]
 737 0028 0384     		strh	r3, [r0, #32]	@ movhi
 738 002a 4384     		strh	r3, [r0, #34]	@ movhi
 739 002c 0025     		movs	r5, #0
 740 002e 8563     		str	r5, [r0, #56]
 741 0030 2122     		movs	r2, #33
 742 0032 80F83520 		strb	r2, [r0, #53]
 743 0036 C26A     		ldr	r2, [r0, #44]
 744 0038 1148     		ldr	r0, .L85
 745 003a 9062     		str	r0, [r2, #40]
 746 003c E26A     		ldr	r2, [r4, #44]
 747 003e 1148     		ldr	r0, .L85+4
 748 0040 D062     		str	r0, [r2, #44]
 749 0042 E26A     		ldr	r2, [r4, #44]
 750 0044 1048     		ldr	r0, .L85+8
 751 0046 1063     		str	r0, [r2, #48]
 752 0048 E26A     		ldr	r2, [r4, #44]
 753 004a 5563     		str	r5, [r2, #52]
 754 004c 2268     		ldr	r2, [r4]
 755 004e E06A     		ldr	r0, [r4, #44]
 756 0050 0432     		adds	r2, r2, #4
 757 0052 FFF7FEFF 		bl	HAL_DMA_Start_IT
 758 0056 2368     		ldr	r3, [r4]
 759 0058 6FF04002 		mvn	r2, #64
 760 005c 1A60     		str	r2, [r3]
 761 005e 84F83450 		strb	r5, [r4, #52]
 762 0062 2268     		ldr	r2, [r4]
 763 0064 5369     		ldr	r3, [r2, #20]
 764 0066 43F08003 		orr	r3, r3, #128
 765 006a 5361     		str	r3, [r2, #20]
 766 006c 2846     		mov	r0, r5
 767 006e 38BD     		pop	{r3, r4, r5, pc}
 768              	.L80:
ARM GAS  /tmp/cc9Rk5Al.s 			page 14


 769 0070 0220     		movs	r0, #2
 770 0072 38BD     		pop	{r3, r4, r5, pc}
 771              	.L81:
 772 0074 0120     		movs	r0, #1
 773 0076 38BD     		pop	{r3, r4, r5, pc}
 774              	.L82:
 775 0078 0120     		movs	r0, #1
 776 007a 38BD     		pop	{r3, r4, r5, pc}
 777              	.L83:
 778 007c 0220     		movs	r0, #2
 779 007e 38BD     		pop	{r3, r4, r5, pc}
 780              	.L86:
 781              		.align	2
 782              	.L85:
 783 0080 00000000 		.word	IRDA_DMATransmitCplt
 784 0084 00000000 		.word	IRDA_DMATransmitHalfCplt
 785 0088 00000000 		.word	IRDA_DMAError
 787              		.section	.text.HAL_IRDA_Receive_DMA,"ax",%progbits
 788              		.align	2
 789              		.global	HAL_IRDA_Receive_DMA
 790              		.thumb
 791              		.thumb_func
 793              	HAL_IRDA_Receive_DMA:
 794              		@ args = 0, pretend = 0, frame = 8
 795              		@ frame_needed = 0, uses_anonymous_args = 0
 796 0000 70B5     		push	{r4, r5, r6, lr}
 797 0002 82B0     		sub	sp, sp, #8
 798 0004 0446     		mov	r4, r0
 799 0006 1346     		mov	r3, r2
 800 0008 90F83620 		ldrb	r2, [r0, #54]	@ zero_extendqisi2
 801 000c D2B2     		uxtb	r2, r2
 802 000e 202A     		cmp	r2, #32
 803 0010 3CD1     		bne	.L89
 804 0012 0E46     		mov	r6, r1
 805 0014 0029     		cmp	r1, #0
 806 0016 3BD0     		beq	.L90
 807 0018 002B     		cmp	r3, #0
 808 001a 3BD0     		beq	.L91
 809 001c 90F83420 		ldrb	r2, [r0, #52]	@ zero_extendqisi2
 810 0020 012A     		cmp	r2, #1
 811 0022 39D0     		beq	.L92
 812 0024 0122     		movs	r2, #1
 813 0026 80F83420 		strb	r2, [r0, #52]
 814 002a 6162     		str	r1, [r4, #36]
 815 002c 0385     		strh	r3, [r0, #40]	@ movhi
 816 002e 0025     		movs	r5, #0
 817 0030 8563     		str	r5, [r0, #56]
 818 0032 2222     		movs	r2, #34
 819 0034 80F83620 		strb	r2, [r0, #54]
 820 0038 026B     		ldr	r2, [r0, #48]
 821 003a 1949     		ldr	r1, .L94
 822 003c 9162     		str	r1, [r2, #40]
 823 003e 026B     		ldr	r2, [r0, #48]
 824 0040 1849     		ldr	r1, .L94+4
 825 0042 D162     		str	r1, [r2, #44]
 826 0044 026B     		ldr	r2, [r0, #48]
 827 0046 1849     		ldr	r1, .L94+8
ARM GAS  /tmp/cc9Rk5Al.s 			page 15


 828 0048 1163     		str	r1, [r2, #48]
 829 004a 026B     		ldr	r2, [r0, #48]
 830 004c 5563     		str	r5, [r2, #52]
 831 004e 0168     		ldr	r1, [r0]
 832 0050 006B     		ldr	r0, [r0, #48]
 833 0052 0431     		adds	r1, r1, #4
 834 0054 3246     		mov	r2, r6
 835 0056 FFF7FEFF 		bl	HAL_DMA_Start_IT
 836 005a 0195     		str	r5, [sp, #4]
 837 005c 2368     		ldr	r3, [r4]
 838 005e 1A68     		ldr	r2, [r3]
 839 0060 0192     		str	r2, [sp, #4]
 840 0062 5A68     		ldr	r2, [r3, #4]
 841 0064 0192     		str	r2, [sp, #4]
 842 0066 019A     		ldr	r2, [sp, #4]
 843 0068 84F83450 		strb	r5, [r4, #52]
 844 006c DA68     		ldr	r2, [r3, #12]
 845 006e 42F48072 		orr	r2, r2, #256
 846 0072 DA60     		str	r2, [r3, #12]
 847 0074 2268     		ldr	r2, [r4]
 848 0076 5369     		ldr	r3, [r2, #20]
 849 0078 43F00103 		orr	r3, r3, #1
 850 007c 5361     		str	r3, [r2, #20]
 851 007e 2268     		ldr	r2, [r4]
 852 0080 5369     		ldr	r3, [r2, #20]
 853 0082 43F04003 		orr	r3, r3, #64
 854 0086 5361     		str	r3, [r2, #20]
 855 0088 2846     		mov	r0, r5
 856 008a 06E0     		b	.L88
 857              	.L89:
 858 008c 0220     		movs	r0, #2
 859 008e 04E0     		b	.L88
 860              	.L90:
 861 0090 0120     		movs	r0, #1
 862 0092 02E0     		b	.L88
 863              	.L91:
 864 0094 0120     		movs	r0, #1
 865 0096 00E0     		b	.L88
 866              	.L92:
 867 0098 0220     		movs	r0, #2
 868              	.L88:
 869 009a 02B0     		add	sp, sp, #8
 870              		@ sp needed
 871 009c 70BD     		pop	{r4, r5, r6, pc}
 872              	.L95:
 873 009e 00BF     		.align	2
 874              	.L94:
 875 00a0 00000000 		.word	IRDA_DMAReceiveCplt
 876 00a4 00000000 		.word	IRDA_DMAReceiveHalfCplt
 877 00a8 00000000 		.word	IRDA_DMAError
 879              		.section	.text.HAL_IRDA_DMAPause,"ax",%progbits
 880              		.align	2
 881              		.global	HAL_IRDA_DMAPause
 882              		.thumb
 883              		.thumb_func
 885              	HAL_IRDA_DMAPause:
 886              		@ args = 0, pretend = 0, frame = 0
ARM GAS  /tmp/cc9Rk5Al.s 			page 16


 887              		@ frame_needed = 0, uses_anonymous_args = 0
 888              		@ link register save eliminated.
 889 0000 90F83430 		ldrb	r3, [r0, #52]	@ zero_extendqisi2
 890 0004 012B     		cmp	r3, #1
 891 0006 2DD0     		beq	.L100
 892 0008 0123     		movs	r3, #1
 893 000a 80F83430 		strb	r3, [r0, #52]
 894 000e 0168     		ldr	r1, [r0]
 895 0010 4B69     		ldr	r3, [r1, #20]
 896 0012 03F08002 		and	r2, r3, #128
 897 0016 90F83530 		ldrb	r3, [r0, #53]	@ zero_extendqisi2
 898 001a DBB2     		uxtb	r3, r3
 899 001c 212B     		cmp	r3, #33
 900 001e 04D1     		bne	.L98
 901 0020 1AB1     		cbz	r2, .L98
 902 0022 4B69     		ldr	r3, [r1, #20]
 903 0024 23F08003 		bic	r3, r3, #128
 904 0028 4B61     		str	r3, [r1, #20]
 905              	.L98:
 906 002a 0168     		ldr	r1, [r0]
 907 002c 4B69     		ldr	r3, [r1, #20]
 908 002e 03F04002 		and	r2, r3, #64
 909 0032 90F83630 		ldrb	r3, [r0, #54]	@ zero_extendqisi2
 910 0036 DBB2     		uxtb	r3, r3
 911 0038 222B     		cmp	r3, #34
 912 003a 0ED1     		bne	.L99
 913 003c 6AB1     		cbz	r2, .L99
 914 003e CB68     		ldr	r3, [r1, #12]
 915 0040 23F48073 		bic	r3, r3, #256
 916 0044 CB60     		str	r3, [r1, #12]
 917 0046 0268     		ldr	r2, [r0]
 918 0048 5369     		ldr	r3, [r2, #20]
 919 004a 23F00103 		bic	r3, r3, #1
 920 004e 5361     		str	r3, [r2, #20]
 921 0050 0268     		ldr	r2, [r0]
 922 0052 5369     		ldr	r3, [r2, #20]
 923 0054 23F04003 		bic	r3, r3, #64
 924 0058 5361     		str	r3, [r2, #20]
 925              	.L99:
 926 005a 0023     		movs	r3, #0
 927 005c 80F83430 		strb	r3, [r0, #52]
 928 0060 1846     		mov	r0, r3
 929 0062 7047     		bx	lr
 930              	.L100:
 931 0064 0220     		movs	r0, #2
 932 0066 7047     		bx	lr
 934              		.section	.text.HAL_IRDA_DMAResume,"ax",%progbits
 935              		.align	2
 936              		.global	HAL_IRDA_DMAResume
 937              		.thumb
 938              		.thumb_func
 940              	HAL_IRDA_DMAResume:
 941              		@ args = 0, pretend = 0, frame = 8
 942              		@ frame_needed = 0, uses_anonymous_args = 0
 943              		@ link register save eliminated.
 944 0000 90F83430 		ldrb	r3, [r0, #52]	@ zero_extendqisi2
 945 0004 012B     		cmp	r3, #1
ARM GAS  /tmp/cc9Rk5Al.s 			page 17


 946 0006 2DD0     		beq	.L105
 947 0008 0123     		movs	r3, #1
 948 000a 80F83430 		strb	r3, [r0, #52]
 949 000e 90F83530 		ldrb	r3, [r0, #53]	@ zero_extendqisi2
 950 0012 DBB2     		uxtb	r3, r3
 951 0014 212B     		cmp	r3, #33
 952 0016 04D1     		bne	.L103
 953 0018 0268     		ldr	r2, [r0]
 954 001a 5369     		ldr	r3, [r2, #20]
 955 001c 43F08003 		orr	r3, r3, #128
 956 0020 5361     		str	r3, [r2, #20]
 957              	.L103:
 958 0022 90F83630 		ldrb	r3, [r0, #54]	@ zero_extendqisi2
 959 0026 DBB2     		uxtb	r3, r3
 960 0028 222B     		cmp	r3, #34
 961 002a 1FD1     		bne	.L107
 962 002c 82B0     		sub	sp, sp, #8
 963 002e 0023     		movs	r3, #0
 964 0030 0193     		str	r3, [sp, #4]
 965 0032 0368     		ldr	r3, [r0]
 966 0034 1A68     		ldr	r2, [r3]
 967 0036 0192     		str	r2, [sp, #4]
 968 0038 5A68     		ldr	r2, [r3, #4]
 969 003a 0192     		str	r2, [sp, #4]
 970 003c 019A     		ldr	r2, [sp, #4]
 971 003e DA68     		ldr	r2, [r3, #12]
 972 0040 42F48072 		orr	r2, r2, #256
 973 0044 DA60     		str	r2, [r3, #12]
 974 0046 0268     		ldr	r2, [r0]
 975 0048 5369     		ldr	r3, [r2, #20]
 976 004a 43F00103 		orr	r3, r3, #1
 977 004e 5361     		str	r3, [r2, #20]
 978 0050 0268     		ldr	r2, [r0]
 979 0052 5369     		ldr	r3, [r2, #20]
 980 0054 43F04003 		orr	r3, r3, #64
 981 0058 5361     		str	r3, [r2, #20]
 982 005a 0023     		movs	r3, #0
 983 005c 80F83430 		strb	r3, [r0, #52]
 984 0060 1846     		mov	r0, r3
 985 0062 01E0     		b	.L102
 986              	.L105:
 987 0064 0220     		movs	r0, #2
 988 0066 7047     		bx	lr
 989              	.L102:
 990 0068 02B0     		add	sp, sp, #8
 991              		@ sp needed
 992 006a 7047     		bx	lr
 993              	.L107:
 994 006c 0023     		movs	r3, #0
 995 006e 80F83430 		strb	r3, [r0, #52]
 996 0072 1846     		mov	r0, r3
 997 0074 7047     		bx	lr
 999 0076 00BF     		.section	.text.HAL_IRDA_DMAStop,"ax",%progbits
 1000              		.align	2
 1001              		.global	HAL_IRDA_DMAStop
 1002              		.thumb
 1003              		.thumb_func
ARM GAS  /tmp/cc9Rk5Al.s 			page 18


 1005              	HAL_IRDA_DMAStop:
 1006              		@ args = 0, pretend = 0, frame = 0
 1007              		@ frame_needed = 0, uses_anonymous_args = 0
 1008 0000 10B5     		push	{r4, lr}
 1009 0002 0446     		mov	r4, r0
 1010 0004 0168     		ldr	r1, [r0]
 1011 0006 4B69     		ldr	r3, [r1, #20]
 1012 0008 03F08002 		and	r2, r3, #128
 1013 000c 90F83530 		ldrb	r3, [r0, #53]	@ zero_extendqisi2
 1014 0010 DBB2     		uxtb	r3, r3
 1015 0012 212B     		cmp	r3, #33
 1016 0014 0BD1     		bne	.L110
 1017 0016 52B1     		cbz	r2, .L110
 1018 0018 4B69     		ldr	r3, [r1, #20]
 1019 001a 23F08003 		bic	r3, r3, #128
 1020 001e 4B61     		str	r3, [r1, #20]
 1021 0020 C06A     		ldr	r0, [r0, #44]
 1022 0022 08B1     		cbz	r0, .L111
 1023 0024 FFF7FEFF 		bl	HAL_DMA_Abort
 1024              	.L111:
 1025 0028 2046     		mov	r0, r4
 1026 002a FFF7FEFF 		bl	IRDA_EndTxTransfer
 1027              	.L110:
 1028 002e 2168     		ldr	r1, [r4]
 1029 0030 4B69     		ldr	r3, [r1, #20]
 1030 0032 03F04002 		and	r2, r3, #64
 1031 0036 94F83630 		ldrb	r3, [r4, #54]	@ zero_extendqisi2
 1032 003a DBB2     		uxtb	r3, r3
 1033 003c 222B     		cmp	r3, #34
 1034 003e 0BD1     		bne	.L112
 1035 0040 52B1     		cbz	r2, .L112
 1036 0042 4B69     		ldr	r3, [r1, #20]
 1037 0044 23F04003 		bic	r3, r3, #64
 1038 0048 4B61     		str	r3, [r1, #20]
 1039 004a 206B     		ldr	r0, [r4, #48]
 1040 004c 08B1     		cbz	r0, .L113
 1041 004e FFF7FEFF 		bl	HAL_DMA_Abort
 1042              	.L113:
 1043 0052 2046     		mov	r0, r4
 1044 0054 FFF7FEFF 		bl	IRDA_EndRxTransfer
 1045              	.L112:
 1046 0058 0020     		movs	r0, #0
 1047 005a 10BD     		pop	{r4, pc}
 1049              		.section	.text.HAL_IRDA_Abort,"ax",%progbits
 1050              		.align	2
 1051              		.global	HAL_IRDA_Abort
 1052              		.thumb
 1053              		.thumb_func
 1055              	HAL_IRDA_Abort:
 1056              		@ args = 0, pretend = 0, frame = 0
 1057              		@ frame_needed = 0, uses_anonymous_args = 0
 1058 0000 10B5     		push	{r4, lr}
 1059 0002 0446     		mov	r4, r0
 1060 0004 0268     		ldr	r2, [r0]
 1061 0006 D368     		ldr	r3, [r2, #12]
 1062 0008 23F4F073 		bic	r3, r3, #480
 1063 000c D360     		str	r3, [r2, #12]
ARM GAS  /tmp/cc9Rk5Al.s 			page 19


 1064 000e 0268     		ldr	r2, [r0]
 1065 0010 5369     		ldr	r3, [r2, #20]
 1066 0012 23F00103 		bic	r3, r3, #1
 1067 0016 5361     		str	r3, [r2, #20]
 1068 0018 0368     		ldr	r3, [r0]
 1069 001a 5A69     		ldr	r2, [r3, #20]
 1070 001c 12F0800F 		tst	r2, #128
 1071 0020 0AD0     		beq	.L116
 1072 0022 5A69     		ldr	r2, [r3, #20]
 1073 0024 22F08002 		bic	r2, r2, #128
 1074 0028 5A61     		str	r2, [r3, #20]
 1075 002a C36A     		ldr	r3, [r0, #44]
 1076 002c 23B1     		cbz	r3, .L116
 1077 002e 0022     		movs	r2, #0
 1078 0030 5A63     		str	r2, [r3, #52]
 1079 0032 C06A     		ldr	r0, [r0, #44]
 1080 0034 FFF7FEFF 		bl	HAL_DMA_Abort
 1081              	.L116:
 1082 0038 2368     		ldr	r3, [r4]
 1083 003a 5A69     		ldr	r2, [r3, #20]
 1084 003c 12F0400F 		tst	r2, #64
 1085 0040 0AD0     		beq	.L117
 1086 0042 5A69     		ldr	r2, [r3, #20]
 1087 0044 22F04002 		bic	r2, r2, #64
 1088 0048 5A61     		str	r2, [r3, #20]
 1089 004a 236B     		ldr	r3, [r4, #48]
 1090 004c 23B1     		cbz	r3, .L117
 1091 004e 0022     		movs	r2, #0
 1092 0050 5A63     		str	r2, [r3, #52]
 1093 0052 206B     		ldr	r0, [r4, #48]
 1094 0054 FFF7FEFF 		bl	HAL_DMA_Abort
 1095              	.L117:
 1096 0058 0020     		movs	r0, #0
 1097 005a 6084     		strh	r0, [r4, #34]	@ movhi
 1098 005c 6085     		strh	r0, [r4, #42]	@ movhi
 1099 005e A063     		str	r0, [r4, #56]
 1100 0060 2023     		movs	r3, #32
 1101 0062 84F83630 		strb	r3, [r4, #54]
 1102 0066 84F83530 		strb	r3, [r4, #53]
 1103 006a 10BD     		pop	{r4, pc}
 1105              		.section	.text.HAL_IRDA_AbortTransmit,"ax",%progbits
 1106              		.align	2
 1107              		.global	HAL_IRDA_AbortTransmit
 1108              		.thumb
 1109              		.thumb_func
 1111              	HAL_IRDA_AbortTransmit:
 1112              		@ args = 0, pretend = 0, frame = 0
 1113              		@ frame_needed = 0, uses_anonymous_args = 0
 1114 0000 10B5     		push	{r4, lr}
 1115 0002 0446     		mov	r4, r0
 1116 0004 0268     		ldr	r2, [r0]
 1117 0006 D368     		ldr	r3, [r2, #12]
 1118 0008 23F0C003 		bic	r3, r3, #192
 1119 000c D360     		str	r3, [r2, #12]
 1120 000e 0368     		ldr	r3, [r0]
 1121 0010 5A69     		ldr	r2, [r3, #20]
 1122 0012 12F0800F 		tst	r2, #128
ARM GAS  /tmp/cc9Rk5Al.s 			page 20


 1123 0016 0AD0     		beq	.L120
 1124 0018 5A69     		ldr	r2, [r3, #20]
 1125 001a 22F08002 		bic	r2, r2, #128
 1126 001e 5A61     		str	r2, [r3, #20]
 1127 0020 C36A     		ldr	r3, [r0, #44]
 1128 0022 23B1     		cbz	r3, .L120
 1129 0024 0022     		movs	r2, #0
 1130 0026 5A63     		str	r2, [r3, #52]
 1131 0028 C06A     		ldr	r0, [r0, #44]
 1132 002a FFF7FEFF 		bl	HAL_DMA_Abort
 1133              	.L120:
 1134 002e 0020     		movs	r0, #0
 1135 0030 6084     		strh	r0, [r4, #34]	@ movhi
 1136 0032 2023     		movs	r3, #32
 1137 0034 84F83530 		strb	r3, [r4, #53]
 1138 0038 10BD     		pop	{r4, pc}
 1140 003a 00BF     		.section	.text.HAL_IRDA_AbortReceive,"ax",%progbits
 1141              		.align	2
 1142              		.global	HAL_IRDA_AbortReceive
 1143              		.thumb
 1144              		.thumb_func
 1146              	HAL_IRDA_AbortReceive:
 1147              		@ args = 0, pretend = 0, frame = 0
 1148              		@ frame_needed = 0, uses_anonymous_args = 0
 1149 0000 10B5     		push	{r4, lr}
 1150 0002 0446     		mov	r4, r0
 1151 0004 0268     		ldr	r2, [r0]
 1152 0006 D368     		ldr	r3, [r2, #12]
 1153 0008 23F49073 		bic	r3, r3, #288
 1154 000c D360     		str	r3, [r2, #12]
 1155 000e 0268     		ldr	r2, [r0]
 1156 0010 5369     		ldr	r3, [r2, #20]
 1157 0012 23F00103 		bic	r3, r3, #1
 1158 0016 5361     		str	r3, [r2, #20]
 1159 0018 0368     		ldr	r3, [r0]
 1160 001a 5A69     		ldr	r2, [r3, #20]
 1161 001c 12F0400F 		tst	r2, #64
 1162 0020 0AD0     		beq	.L123
 1163 0022 5A69     		ldr	r2, [r3, #20]
 1164 0024 22F04002 		bic	r2, r2, #64
 1165 0028 5A61     		str	r2, [r3, #20]
 1166 002a 036B     		ldr	r3, [r0, #48]
 1167 002c 23B1     		cbz	r3, .L123
 1168 002e 0022     		movs	r2, #0
 1169 0030 5A63     		str	r2, [r3, #52]
 1170 0032 006B     		ldr	r0, [r0, #48]
 1171 0034 FFF7FEFF 		bl	HAL_DMA_Abort
 1172              	.L123:
 1173 0038 0020     		movs	r0, #0
 1174 003a 6085     		strh	r0, [r4, #42]	@ movhi
 1175 003c 2023     		movs	r3, #32
 1176 003e 84F83630 		strb	r3, [r4, #54]
 1177 0042 10BD     		pop	{r4, pc}
 1179              		.section	.text.HAL_IRDA_TxCpltCallback,"ax",%progbits
 1180              		.align	2
 1181              		.weak	HAL_IRDA_TxCpltCallback
 1182              		.thumb
ARM GAS  /tmp/cc9Rk5Al.s 			page 21


 1183              		.thumb_func
 1185              	HAL_IRDA_TxCpltCallback:
 1186              		@ args = 0, pretend = 0, frame = 0
 1187              		@ frame_needed = 0, uses_anonymous_args = 0
 1188              		@ link register save eliminated.
 1189 0000 7047     		bx	lr
 1191 0002 00BF     		.section	.text.IRDA_DMATransmitCplt,"ax",%progbits
 1192              		.align	2
 1193              		.thumb
 1194              		.thumb_func
 1196              	IRDA_DMATransmitCplt:
 1197              		@ args = 0, pretend = 0, frame = 0
 1198              		@ frame_needed = 0, uses_anonymous_args = 0
 1199 0000 08B5     		push	{r3, lr}
 1200 0002 436A     		ldr	r3, [r0, #36]
 1201 0004 0268     		ldr	r2, [r0]
 1202 0006 1268     		ldr	r2, [r2]
 1203 0008 12F0200F 		tst	r2, #32
 1204 000c 0CD1     		bne	.L127
 1205 000e 0022     		movs	r2, #0
 1206 0010 5A84     		strh	r2, [r3, #34]	@ movhi
 1207 0012 1968     		ldr	r1, [r3]
 1208 0014 4A69     		ldr	r2, [r1, #20]
 1209 0016 22F08002 		bic	r2, r2, #128
 1210 001a 4A61     		str	r2, [r1, #20]
 1211 001c 1A68     		ldr	r2, [r3]
 1212 001e D368     		ldr	r3, [r2, #12]
 1213 0020 43F04003 		orr	r3, r3, #64
 1214 0024 D360     		str	r3, [r2, #12]
 1215 0026 08BD     		pop	{r3, pc}
 1216              	.L127:
 1217 0028 1846     		mov	r0, r3
 1218 002a FFF7FEFF 		bl	HAL_IRDA_TxCpltCallback
 1219 002e 08BD     		pop	{r3, pc}
 1221              		.section	.text.IRDA_EndTransmit_IT,"ax",%progbits
 1222              		.align	2
 1223              		.thumb
 1224              		.thumb_func
 1226              	IRDA_EndTransmit_IT:
 1227              		@ args = 0, pretend = 0, frame = 0
 1228              		@ frame_needed = 0, uses_anonymous_args = 0
 1229 0000 08B5     		push	{r3, lr}
 1230 0002 0168     		ldr	r1, [r0]
 1231 0004 CA68     		ldr	r2, [r1, #12]
 1232 0006 22F04002 		bic	r2, r2, #64
 1233 000a CA60     		str	r2, [r1, #12]
 1234 000c 0168     		ldr	r1, [r0]
 1235 000e 4A69     		ldr	r2, [r1, #20]
 1236 0010 22F00102 		bic	r2, r2, #1
 1237 0014 4A61     		str	r2, [r1, #20]
 1238 0016 2022     		movs	r2, #32
 1239 0018 80F83520 		strb	r2, [r0, #53]
 1240 001c FFF7FEFF 		bl	HAL_IRDA_TxCpltCallback
 1241 0020 0020     		movs	r0, #0
 1242 0022 08BD     		pop	{r3, pc}
 1244              		.section	.text.HAL_IRDA_TxHalfCpltCallback,"ax",%progbits
 1245              		.align	2
ARM GAS  /tmp/cc9Rk5Al.s 			page 22


 1246              		.weak	HAL_IRDA_TxHalfCpltCallback
 1247              		.thumb
 1248              		.thumb_func
 1250              	HAL_IRDA_TxHalfCpltCallback:
 1251              		@ args = 0, pretend = 0, frame = 0
 1252              		@ frame_needed = 0, uses_anonymous_args = 0
 1253              		@ link register save eliminated.
 1254 0000 7047     		bx	lr
 1256 0002 00BF     		.section	.text.IRDA_DMATransmitHalfCplt,"ax",%progbits
 1257              		.align	2
 1258              		.thumb
 1259              		.thumb_func
 1261              	IRDA_DMATransmitHalfCplt:
 1262              		@ args = 0, pretend = 0, frame = 0
 1263              		@ frame_needed = 0, uses_anonymous_args = 0
 1264 0000 08B5     		push	{r3, lr}
 1265 0002 406A     		ldr	r0, [r0, #36]
 1266 0004 FFF7FEFF 		bl	HAL_IRDA_TxHalfCpltCallback
 1267 0008 08BD     		pop	{r3, pc}
 1269 000a 00BF     		.section	.text.HAL_IRDA_RxCpltCallback,"ax",%progbits
 1270              		.align	2
 1271              		.weak	HAL_IRDA_RxCpltCallback
 1272              		.thumb
 1273              		.thumb_func
 1275              	HAL_IRDA_RxCpltCallback:
 1276              		@ args = 0, pretend = 0, frame = 0
 1277              		@ frame_needed = 0, uses_anonymous_args = 0
 1278              		@ link register save eliminated.
 1279 0000 7047     		bx	lr
 1281 0002 00BF     		.section	.text.IRDA_DMAReceiveCplt,"ax",%progbits
 1282              		.align	2
 1283              		.thumb
 1284              		.thumb_func
 1286              	IRDA_DMAReceiveCplt:
 1287              		@ args = 0, pretend = 0, frame = 0
 1288              		@ frame_needed = 0, uses_anonymous_args = 0
 1289 0000 08B5     		push	{r3, lr}
 1290 0002 436A     		ldr	r3, [r0, #36]
 1291 0004 0268     		ldr	r2, [r0]
 1292 0006 1268     		ldr	r2, [r2]
 1293 0008 12F0200F 		tst	r2, #32
 1294 000c 13D1     		bne	.L137
 1295 000e 0022     		movs	r2, #0
 1296 0010 5A85     		strh	r2, [r3, #42]	@ movhi
 1297 0012 1968     		ldr	r1, [r3]
 1298 0014 CA68     		ldr	r2, [r1, #12]
 1299 0016 22F48072 		bic	r2, r2, #256
 1300 001a CA60     		str	r2, [r1, #12]
 1301 001c 1968     		ldr	r1, [r3]
 1302 001e 4A69     		ldr	r2, [r1, #20]
 1303 0020 22F00102 		bic	r2, r2, #1
 1304 0024 4A61     		str	r2, [r1, #20]
 1305 0026 1968     		ldr	r1, [r3]
 1306 0028 4A69     		ldr	r2, [r1, #20]
 1307 002a 22F04002 		bic	r2, r2, #64
 1308 002e 4A61     		str	r2, [r1, #20]
 1309 0030 2022     		movs	r2, #32
ARM GAS  /tmp/cc9Rk5Al.s 			page 23


 1310 0032 83F83620 		strb	r2, [r3, #54]
 1311              	.L137:
 1312 0036 1846     		mov	r0, r3
 1313 0038 FFF7FEFF 		bl	HAL_IRDA_RxCpltCallback
 1314 003c 08BD     		pop	{r3, pc}
 1316 003e 00BF     		.section	.text.IRDA_Receive_IT,"ax",%progbits
 1317              		.align	2
 1318              		.thumb
 1319              		.thumb_func
 1321              	IRDA_Receive_IT:
 1322              		@ args = 0, pretend = 0, frame = 0
 1323              		@ frame_needed = 0, uses_anonymous_args = 0
 1324 0000 08B5     		push	{r3, lr}
 1325 0002 90F83630 		ldrb	r3, [r0, #54]	@ zero_extendqisi2
 1326 0006 DBB2     		uxtb	r3, r3
 1327 0008 222B     		cmp	r3, #34
 1328 000a 3ED1     		bne	.L145
 1329 000c 0368     		ldr	r3, [r0]
 1330 000e 5B68     		ldr	r3, [r3, #4]
 1331 0010 99B2     		uxth	r1, r3
 1332 0012 8268     		ldr	r2, [r0, #8]
 1333 0014 B2F5805F 		cmp	r2, #4096
 1334 0018 0FD1     		bne	.L141
 1335 001a 426A     		ldr	r2, [r0, #36]
 1336 001c C368     		ldr	r3, [r0, #12]
 1337 001e 33B9     		cbnz	r3, .L142
 1338 0020 C1F30801 		ubfx	r1, r1, #0, #9
 1339 0024 1180     		strh	r1, [r2]	@ movhi
 1340 0026 436A     		ldr	r3, [r0, #36]
 1341 0028 0233     		adds	r3, r3, #2
 1342 002a 4362     		str	r3, [r0, #36]
 1343 002c 12E0     		b	.L143
 1344              	.L142:
 1345 002e C9B2     		uxtb	r1, r1
 1346 0030 1180     		strh	r1, [r2]	@ movhi
 1347 0032 436A     		ldr	r3, [r0, #36]
 1348 0034 0133     		adds	r3, r3, #1
 1349 0036 4362     		str	r3, [r0, #36]
 1350 0038 0CE0     		b	.L143
 1351              	.L141:
 1352 003a C268     		ldr	r2, [r0, #12]
 1353 003c 22B9     		cbnz	r2, .L144
 1354 003e 426A     		ldr	r2, [r0, #36]
 1355 0040 511C     		adds	r1, r2, #1
 1356 0042 4162     		str	r1, [r0, #36]
 1357 0044 1370     		strb	r3, [r2]
 1358 0046 05E0     		b	.L143
 1359              	.L144:
 1360 0048 426A     		ldr	r2, [r0, #36]
 1361 004a 511C     		adds	r1, r2, #1
 1362 004c 4162     		str	r1, [r0, #36]
 1363 004e 03F07F03 		and	r3, r3, #127
 1364 0052 1370     		strb	r3, [r2]
 1365              	.L143:
 1366 0054 438D     		ldrh	r3, [r0, #42]
 1367 0056 013B     		subs	r3, r3, #1
 1368 0058 9BB2     		uxth	r3, r3
ARM GAS  /tmp/cc9Rk5Al.s 			page 24


 1369 005a 4385     		strh	r3, [r0, #42]	@ movhi
 1370 005c BBB9     		cbnz	r3, .L146
 1371 005e 0268     		ldr	r2, [r0]
 1372 0060 D368     		ldr	r3, [r2, #12]
 1373 0062 23F02003 		bic	r3, r3, #32
 1374 0066 D360     		str	r3, [r2, #12]
 1375 0068 0268     		ldr	r2, [r0]
 1376 006a D368     		ldr	r3, [r2, #12]
 1377 006c 23F48073 		bic	r3, r3, #256
 1378 0070 D360     		str	r3, [r2, #12]
 1379 0072 0268     		ldr	r2, [r0]
 1380 0074 5369     		ldr	r3, [r2, #20]
 1381 0076 23F00103 		bic	r3, r3, #1
 1382 007a 5361     		str	r3, [r2, #20]
 1383 007c 2023     		movs	r3, #32
 1384 007e 80F83630 		strb	r3, [r0, #54]
 1385 0082 FFF7FEFF 		bl	HAL_IRDA_RxCpltCallback
 1386 0086 0020     		movs	r0, #0
 1387 0088 08BD     		pop	{r3, pc}
 1388              	.L145:
 1389 008a 0220     		movs	r0, #2
 1390 008c 08BD     		pop	{r3, pc}
 1391              	.L146:
 1392 008e 0020     		movs	r0, #0
 1393 0090 08BD     		pop	{r3, pc}
 1395 0092 00BF     		.section	.text.HAL_IRDA_RxHalfCpltCallback,"ax",%progbits
 1396              		.align	2
 1397              		.weak	HAL_IRDA_RxHalfCpltCallback
 1398              		.thumb
 1399              		.thumb_func
 1401              	HAL_IRDA_RxHalfCpltCallback:
 1402              		@ args = 0, pretend = 0, frame = 0
 1403              		@ frame_needed = 0, uses_anonymous_args = 0
 1404              		@ link register save eliminated.
 1405 0000 7047     		bx	lr
 1407 0002 00BF     		.section	.text.IRDA_DMAReceiveHalfCplt,"ax",%progbits
 1408              		.align	2
 1409              		.thumb
 1410              		.thumb_func
 1412              	IRDA_DMAReceiveHalfCplt:
 1413              		@ args = 0, pretend = 0, frame = 0
 1414              		@ frame_needed = 0, uses_anonymous_args = 0
 1415 0000 08B5     		push	{r3, lr}
 1416 0002 406A     		ldr	r0, [r0, #36]
 1417 0004 FFF7FEFF 		bl	HAL_IRDA_RxHalfCpltCallback
 1418 0008 08BD     		pop	{r3, pc}
 1420 000a 00BF     		.section	.text.HAL_IRDA_ErrorCallback,"ax",%progbits
 1421              		.align	2
 1422              		.weak	HAL_IRDA_ErrorCallback
 1423              		.thumb
 1424              		.thumb_func
 1426              	HAL_IRDA_ErrorCallback:
 1427              		@ args = 0, pretend = 0, frame = 0
 1428              		@ frame_needed = 0, uses_anonymous_args = 0
 1429              		@ link register save eliminated.
 1430 0000 7047     		bx	lr
 1432 0002 00BF     		.section	.text.IRDA_DMAError,"ax",%progbits
ARM GAS  /tmp/cc9Rk5Al.s 			page 25


 1433              		.align	2
 1434              		.thumb
 1435              		.thumb_func
 1437              	IRDA_DMAError:
 1438              		@ args = 0, pretend = 0, frame = 0
 1439              		@ frame_needed = 0, uses_anonymous_args = 0
 1440 0000 10B5     		push	{r4, lr}
 1441 0002 446A     		ldr	r4, [r0, #36]
 1442 0004 2368     		ldr	r3, [r4]
 1443 0006 5B69     		ldr	r3, [r3, #20]
 1444 0008 03F08002 		and	r2, r3, #128
 1445 000c 94F83530 		ldrb	r3, [r4, #53]	@ zero_extendqisi2
 1446 0010 DBB2     		uxtb	r3, r3
 1447 0012 212B     		cmp	r3, #33
 1448 0014 05D1     		bne	.L153
 1449 0016 22B1     		cbz	r2, .L153
 1450 0018 0023     		movs	r3, #0
 1451 001a 6384     		strh	r3, [r4, #34]	@ movhi
 1452 001c 2046     		mov	r0, r4
 1453 001e FFF7FEFF 		bl	IRDA_EndTxTransfer
 1454              	.L153:
 1455 0022 2368     		ldr	r3, [r4]
 1456 0024 5B69     		ldr	r3, [r3, #20]
 1457 0026 03F04002 		and	r2, r3, #64
 1458 002a 94F83630 		ldrb	r3, [r4, #54]	@ zero_extendqisi2
 1459 002e DBB2     		uxtb	r3, r3
 1460 0030 222B     		cmp	r3, #34
 1461 0032 05D1     		bne	.L154
 1462 0034 22B1     		cbz	r2, .L154
 1463 0036 0023     		movs	r3, #0
 1464 0038 6385     		strh	r3, [r4, #42]	@ movhi
 1465 003a 2046     		mov	r0, r4
 1466 003c FFF7FEFF 		bl	IRDA_EndRxTransfer
 1467              	.L154:
 1468 0040 A36B     		ldr	r3, [r4, #56]
 1469 0042 43F01003 		orr	r3, r3, #16
 1470 0046 A363     		str	r3, [r4, #56]
 1471 0048 2046     		mov	r0, r4
 1472 004a FFF7FEFF 		bl	HAL_IRDA_ErrorCallback
 1473 004e 10BD     		pop	{r4, pc}
 1475              		.section	.text.HAL_IRDA_IRQHandler,"ax",%progbits
 1476              		.align	2
 1477              		.global	HAL_IRDA_IRQHandler
 1478              		.thumb
 1479              		.thumb_func
 1481              	HAL_IRDA_IRQHandler:
 1482              		@ args = 0, pretend = 0, frame = 0
 1483              		@ frame_needed = 0, uses_anonymous_args = 0
 1484 0000 10B5     		push	{r4, lr}
 1485 0002 0446     		mov	r4, r0
 1486 0004 0268     		ldr	r2, [r0]
 1487 0006 1368     		ldr	r3, [r2]
 1488 0008 D168     		ldr	r1, [r2, #12]
 1489 000a 5269     		ldr	r2, [r2, #20]
 1490 000c 13F00F00 		ands	r0, r3, #15
 1491 0010 09D1     		bne	.L157
 1492 0012 13F0200F 		tst	r3, #32
ARM GAS  /tmp/cc9Rk5Al.s 			page 26


 1493 0016 06D0     		beq	.L157
 1494 0018 11F0200F 		tst	r1, #32
 1495 001c 03D0     		beq	.L157
 1496 001e 2046     		mov	r0, r4
 1497 0020 FFF7FEFF 		bl	IRDA_Receive_IT
 1498 0024 10BD     		pop	{r4, pc}
 1499              	.L157:
 1500 0026 0028     		cmp	r0, #0
 1501 0028 62D0     		beq	.L159
 1502 002a 12F00102 		ands	r2, r2, #1
 1503 002e 02D1     		bne	.L160
 1504 0030 11F4907F 		tst	r1, #288
 1505 0034 5CD0     		beq	.L159
 1506              	.L160:
 1507 0036 13F0010F 		tst	r3, #1
 1508 003a 06D0     		beq	.L161
 1509 003c 11F4807F 		tst	r1, #256
 1510 0040 03D0     		beq	.L161
 1511 0042 A06B     		ldr	r0, [r4, #56]
 1512 0044 40F00100 		orr	r0, r0, #1
 1513 0048 A063     		str	r0, [r4, #56]
 1514              	.L161:
 1515 004a 13F0040F 		tst	r3, #4
 1516 004e 04D0     		beq	.L162
 1517 0050 1AB1     		cbz	r2, .L162
 1518 0052 A06B     		ldr	r0, [r4, #56]
 1519 0054 40F00200 		orr	r0, r0, #2
 1520 0058 A063     		str	r0, [r4, #56]
 1521              	.L162:
 1522 005a 13F0020F 		tst	r3, #2
 1523 005e 04D0     		beq	.L163
 1524 0060 1AB1     		cbz	r2, .L163
 1525 0062 A06B     		ldr	r0, [r4, #56]
 1526 0064 40F00400 		orr	r0, r0, #4
 1527 0068 A063     		str	r0, [r4, #56]
 1528              	.L163:
 1529 006a 13F0080F 		tst	r3, #8
 1530 006e 04D0     		beq	.L164
 1531 0070 1AB1     		cbz	r2, .L164
 1532 0072 A26B     		ldr	r2, [r4, #56]
 1533 0074 42F00802 		orr	r2, r2, #8
 1534 0078 A263     		str	r2, [r4, #56]
 1535              	.L164:
 1536 007a A26B     		ldr	r2, [r4, #56]
 1537 007c 002A     		cmp	r2, #0
 1538 007e 4AD0     		beq	.L156
 1539 0080 13F0200F 		tst	r3, #32
 1540 0084 05D0     		beq	.L165
 1541 0086 11F0200F 		tst	r1, #32
 1542 008a 02D0     		beq	.L165
 1543 008c 2046     		mov	r0, r4
 1544 008e FFF7FEFF 		bl	IRDA_Receive_IT
 1545              	.L165:
 1546 0092 2368     		ldr	r3, [r4]
 1547 0094 5B69     		ldr	r3, [r3, #20]
 1548 0096 03F04003 		and	r3, r3, #64
 1549 009a A26B     		ldr	r2, [r4, #56]
ARM GAS  /tmp/cc9Rk5Al.s 			page 27


 1550 009c 12F0080F 		tst	r2, #8
 1551 00a0 00D1     		bne	.L166
 1552 00a2 FBB1     		cbz	r3, .L167
 1553              	.L166:
 1554 00a4 2046     		mov	r0, r4
 1555 00a6 FFF7FEFF 		bl	IRDA_EndRxTransfer
 1556 00aa 2368     		ldr	r3, [r4]
 1557 00ac 5A69     		ldr	r2, [r3, #20]
 1558 00ae 12F0400F 		tst	r2, #64
 1559 00b2 13D0     		beq	.L168
 1560 00b4 5A69     		ldr	r2, [r3, #20]
 1561 00b6 22F04002 		bic	r2, r2, #64
 1562 00ba 5A61     		str	r2, [r3, #20]
 1563 00bc 236B     		ldr	r3, [r4, #48]
 1564 00be 4BB1     		cbz	r3, .L169
 1565 00c0 154A     		ldr	r2, .L172
 1566 00c2 5A63     		str	r2, [r3, #52]
 1567 00c4 206B     		ldr	r0, [r4, #48]
 1568 00c6 FFF7FEFF 		bl	HAL_DMA_Abort_IT
 1569 00ca 20B3     		cbz	r0, .L156
 1570 00cc 206B     		ldr	r0, [r4, #48]
 1571 00ce 436B     		ldr	r3, [r0, #52]
 1572 00d0 9847     		blx	r3
 1573 00d2 10BD     		pop	{r4, pc}
 1574              	.L169:
 1575 00d4 2046     		mov	r0, r4
 1576 00d6 FFF7FEFF 		bl	HAL_IRDA_ErrorCallback
 1577 00da 10BD     		pop	{r4, pc}
 1578              	.L168:
 1579 00dc 2046     		mov	r0, r4
 1580 00de FFF7FEFF 		bl	HAL_IRDA_ErrorCallback
 1581 00e2 10BD     		pop	{r4, pc}
 1582              	.L167:
 1583 00e4 2046     		mov	r0, r4
 1584 00e6 FFF7FEFF 		bl	HAL_IRDA_ErrorCallback
 1585 00ea 0023     		movs	r3, #0
 1586 00ec A363     		str	r3, [r4, #56]
 1587 00ee 10BD     		pop	{r4, pc}
 1588              	.L159:
 1589 00f0 13F0800F 		tst	r3, #128
 1590 00f4 06D0     		beq	.L170
 1591 00f6 11F0800F 		tst	r1, #128
 1592 00fa 03D0     		beq	.L170
 1593 00fc 2046     		mov	r0, r4
 1594 00fe FFF7FEFF 		bl	IRDA_Transmit_IT
 1595 0102 10BD     		pop	{r4, pc}
 1596              	.L170:
 1597 0104 13F0400F 		tst	r3, #64
 1598 0108 05D0     		beq	.L156
 1599 010a 11F0400F 		tst	r1, #64
 1600 010e 02D0     		beq	.L156
 1601 0110 2046     		mov	r0, r4
 1602 0112 FFF7FEFF 		bl	IRDA_EndTransmit_IT
 1603              	.L156:
 1604 0116 10BD     		pop	{r4, pc}
 1605              	.L173:
 1606              		.align	2
ARM GAS  /tmp/cc9Rk5Al.s 			page 28


 1607              	.L172:
 1608 0118 00000000 		.word	IRDA_DMAAbortOnError
 1610              		.section	.text.IRDA_DMAAbortOnError,"ax",%progbits
 1611              		.align	2
 1612              		.thumb
 1613              		.thumb_func
 1615              	IRDA_DMAAbortOnError:
 1616              		@ args = 0, pretend = 0, frame = 0
 1617              		@ frame_needed = 0, uses_anonymous_args = 0
 1618 0000 08B5     		push	{r3, lr}
 1619 0002 406A     		ldr	r0, [r0, #36]
 1620 0004 0023     		movs	r3, #0
 1621 0006 4385     		strh	r3, [r0, #42]	@ movhi
 1622 0008 4384     		strh	r3, [r0, #34]	@ movhi
 1623 000a FFF7FEFF 		bl	HAL_IRDA_ErrorCallback
 1624 000e 08BD     		pop	{r3, pc}
 1626              		.section	.text.HAL_IRDA_AbortCpltCallback,"ax",%progbits
 1627              		.align	2
 1628              		.weak	HAL_IRDA_AbortCpltCallback
 1629              		.thumb
 1630              		.thumb_func
 1632              	HAL_IRDA_AbortCpltCallback:
 1633              		@ args = 0, pretend = 0, frame = 0
 1634              		@ frame_needed = 0, uses_anonymous_args = 0
 1635              		@ link register save eliminated.
 1636 0000 7047     		bx	lr
 1638 0002 00BF     		.section	.text.HAL_IRDA_Abort_IT,"ax",%progbits
 1639              		.align	2
 1640              		.global	HAL_IRDA_Abort_IT
 1641              		.thumb
 1642              		.thumb_func
 1644              	HAL_IRDA_Abort_IT:
 1645              		@ args = 0, pretend = 0, frame = 0
 1646              		@ frame_needed = 0, uses_anonymous_args = 0
 1647 0000 10B5     		push	{r4, lr}
 1648 0002 0446     		mov	r4, r0
 1649 0004 0268     		ldr	r2, [r0]
 1650 0006 D368     		ldr	r3, [r2, #12]
 1651 0008 23F4F073 		bic	r3, r3, #480
 1652 000c D360     		str	r3, [r2, #12]
 1653 000e 0268     		ldr	r2, [r0]
 1654 0010 5369     		ldr	r3, [r2, #20]
 1655 0012 23F00103 		bic	r3, r3, #1
 1656 0016 5361     		str	r3, [r2, #20]
 1657 0018 C36A     		ldr	r3, [r0, #44]
 1658 001a 4BB1     		cbz	r3, .L178
 1659 001c 0268     		ldr	r2, [r0]
 1660 001e 5269     		ldr	r2, [r2, #20]
 1661 0020 12F0800F 		tst	r2, #128
 1662 0024 02D0     		beq	.L179
 1663 0026 264A     		ldr	r2, .L190
 1664 0028 5A63     		str	r2, [r3, #52]
 1665 002a 01E0     		b	.L178
 1666              	.L179:
 1667 002c 0022     		movs	r2, #0
 1668 002e 5A63     		str	r2, [r3, #52]
 1669              	.L178:
ARM GAS  /tmp/cc9Rk5Al.s 			page 29


 1670 0030 236B     		ldr	r3, [r4, #48]
 1671 0032 4BB1     		cbz	r3, .L180
 1672 0034 2268     		ldr	r2, [r4]
 1673 0036 5269     		ldr	r2, [r2, #20]
 1674 0038 12F0400F 		tst	r2, #64
 1675 003c 02D0     		beq	.L181
 1676 003e 214A     		ldr	r2, .L190+4
 1677 0040 5A63     		str	r2, [r3, #52]
 1678 0042 01E0     		b	.L180
 1679              	.L181:
 1680 0044 0022     		movs	r2, #0
 1681 0046 5A63     		str	r2, [r3, #52]
 1682              	.L180:
 1683 0048 2368     		ldr	r3, [r4]
 1684 004a 5A69     		ldr	r2, [r3, #20]
 1685 004c 12F0800F 		tst	r2, #128
 1686 0050 0DD0     		beq	.L185
 1687 0052 5A69     		ldr	r2, [r3, #20]
 1688 0054 22F08002 		bic	r2, r2, #128
 1689 0058 5A61     		str	r2, [r3, #20]
 1690 005a E06A     		ldr	r0, [r4, #44]
 1691 005c 48B1     		cbz	r0, .L186
 1692 005e FFF7FEFF 		bl	HAL_DMA_Abort_IT
 1693 0062 40B1     		cbz	r0, .L187
 1694 0064 E36A     		ldr	r3, [r4, #44]
 1695 0066 0022     		movs	r2, #0
 1696 0068 5A63     		str	r2, [r3, #52]
 1697 006a 0122     		movs	r2, #1
 1698 006c 04E0     		b	.L182
 1699              	.L185:
 1700 006e 0122     		movs	r2, #1
 1701 0070 02E0     		b	.L182
 1702              	.L186:
 1703 0072 0122     		movs	r2, #1
 1704 0074 00E0     		b	.L182
 1705              	.L187:
 1706 0076 0022     		movs	r2, #0
 1707              	.L182:
 1708 0078 2368     		ldr	r3, [r4]
 1709 007a 5969     		ldr	r1, [r3, #20]
 1710 007c 11F0400F 		tst	r1, #64
 1711 0080 0ED0     		beq	.L183
 1712 0082 5969     		ldr	r1, [r3, #20]
 1713 0084 21F04001 		bic	r1, r1, #64
 1714 0088 5961     		str	r1, [r3, #20]
 1715 008a 206B     		ldr	r0, [r4, #48]
 1716 008c 40B1     		cbz	r0, .L183
 1717 008e FFF7FEFF 		bl	HAL_DMA_Abort_IT
 1718 0092 20B1     		cbz	r0, .L188
 1719 0094 236B     		ldr	r3, [r4, #48]
 1720 0096 0022     		movs	r2, #0
 1721 0098 5A63     		str	r2, [r3, #52]
 1722 009a 0122     		movs	r2, #1
 1723 009c 00E0     		b	.L183
 1724              	.L188:
 1725 009e 0022     		movs	r2, #0
 1726              	.L183:
ARM GAS  /tmp/cc9Rk5Al.s 			page 30


 1727 00a0 5AB1     		cbz	r2, .L184
 1728 00a2 0023     		movs	r3, #0
 1729 00a4 6384     		strh	r3, [r4, #34]	@ movhi
 1730 00a6 6385     		strh	r3, [r4, #42]	@ movhi
 1731 00a8 A363     		str	r3, [r4, #56]
 1732 00aa 2023     		movs	r3, #32
 1733 00ac 84F83530 		strb	r3, [r4, #53]
 1734 00b0 84F83630 		strb	r3, [r4, #54]
 1735 00b4 2046     		mov	r0, r4
 1736 00b6 FFF7FEFF 		bl	HAL_IRDA_AbortCpltCallback
 1737              	.L184:
 1738 00ba 0020     		movs	r0, #0
 1739 00bc 10BD     		pop	{r4, pc}
 1740              	.L191:
 1741 00be 00BF     		.align	2
 1742              	.L190:
 1743 00c0 00000000 		.word	IRDA_DMATxAbortCallback
 1744 00c4 00000000 		.word	IRDA_DMARxAbortCallback
 1746              		.section	.text.IRDA_DMARxAbortCallback,"ax",%progbits
 1747              		.align	2
 1748              		.thumb
 1749              		.thumb_func
 1751              	IRDA_DMARxAbortCallback:
 1752              		@ args = 0, pretend = 0, frame = 0
 1753              		@ frame_needed = 0, uses_anonymous_args = 0
 1754 0000 08B5     		push	{r3, lr}
 1755 0002 406A     		ldr	r0, [r0, #36]
 1756 0004 036B     		ldr	r3, [r0, #48]
 1757 0006 0022     		movs	r2, #0
 1758 0008 5A63     		str	r2, [r3, #52]
 1759 000a C36A     		ldr	r3, [r0, #44]
 1760 000c 0BB1     		cbz	r3, .L193
 1761 000e 5B6B     		ldr	r3, [r3, #52]
 1762 0010 53B9     		cbnz	r3, .L192
 1763              	.L193:
 1764 0012 0023     		movs	r3, #0
 1765 0014 4384     		strh	r3, [r0, #34]	@ movhi
 1766 0016 4385     		strh	r3, [r0, #42]	@ movhi
 1767 0018 8363     		str	r3, [r0, #56]
 1768 001a 2023     		movs	r3, #32
 1769 001c 80F83530 		strb	r3, [r0, #53]
 1770 0020 80F83630 		strb	r3, [r0, #54]
 1771 0024 FFF7FEFF 		bl	HAL_IRDA_AbortCpltCallback
 1772              	.L192:
 1773 0028 08BD     		pop	{r3, pc}
 1775 002a 00BF     		.section	.text.IRDA_DMATxAbortCallback,"ax",%progbits
 1776              		.align	2
 1777              		.thumb
 1778              		.thumb_func
 1780              	IRDA_DMATxAbortCallback:
 1781              		@ args = 0, pretend = 0, frame = 0
 1782              		@ frame_needed = 0, uses_anonymous_args = 0
 1783 0000 08B5     		push	{r3, lr}
 1784 0002 406A     		ldr	r0, [r0, #36]
 1785 0004 C36A     		ldr	r3, [r0, #44]
 1786 0006 0022     		movs	r2, #0
 1787 0008 5A63     		str	r2, [r3, #52]
ARM GAS  /tmp/cc9Rk5Al.s 			page 31


 1788 000a 036B     		ldr	r3, [r0, #48]
 1789 000c 0BB1     		cbz	r3, .L197
 1790 000e 5B6B     		ldr	r3, [r3, #52]
 1791 0010 53B9     		cbnz	r3, .L196
 1792              	.L197:
 1793 0012 0023     		movs	r3, #0
 1794 0014 4384     		strh	r3, [r0, #34]	@ movhi
 1795 0016 4385     		strh	r3, [r0, #42]	@ movhi
 1796 0018 8363     		str	r3, [r0, #56]
 1797 001a 2023     		movs	r3, #32
 1798 001c 80F83530 		strb	r3, [r0, #53]
 1799 0020 80F83630 		strb	r3, [r0, #54]
 1800 0024 FFF7FEFF 		bl	HAL_IRDA_AbortCpltCallback
 1801              	.L196:
 1802 0028 08BD     		pop	{r3, pc}
 1804 002a 00BF     		.section	.text.HAL_IRDA_AbortTransmitCpltCallback,"ax",%progbits
 1805              		.align	2
 1806              		.weak	HAL_IRDA_AbortTransmitCpltCallback
 1807              		.thumb
 1808              		.thumb_func
 1810              	HAL_IRDA_AbortTransmitCpltCallback:
 1811              		@ args = 0, pretend = 0, frame = 0
 1812              		@ frame_needed = 0, uses_anonymous_args = 0
 1813              		@ link register save eliminated.
 1814 0000 7047     		bx	lr
 1816 0002 00BF     		.section	.text.HAL_IRDA_AbortTransmit_IT,"ax",%progbits
 1817              		.align	2
 1818              		.global	HAL_IRDA_AbortTransmit_IT
 1819              		.thumb
 1820              		.thumb_func
 1822              	HAL_IRDA_AbortTransmit_IT:
 1823              		@ args = 0, pretend = 0, frame = 0
 1824              		@ frame_needed = 0, uses_anonymous_args = 0
 1825 0000 10B5     		push	{r4, lr}
 1826 0002 0446     		mov	r4, r0
 1827 0004 0268     		ldr	r2, [r0]
 1828 0006 D368     		ldr	r3, [r2, #12]
 1829 0008 23F0C003 		bic	r3, r3, #192
 1830 000c D360     		str	r3, [r2, #12]
 1831 000e 0368     		ldr	r3, [r0]
 1832 0010 5A69     		ldr	r2, [r3, #20]
 1833 0012 12F0800F 		tst	r2, #128
 1834 0016 17D0     		beq	.L202
 1835 0018 5A69     		ldr	r2, [r3, #20]
 1836 001a 22F08002 		bic	r2, r2, #128
 1837 001e 5A61     		str	r2, [r3, #20]
 1838 0020 C36A     		ldr	r3, [r0, #44]
 1839 0022 4BB1     		cbz	r3, .L203
 1840 0024 0D4A     		ldr	r2, .L206
 1841 0026 5A63     		str	r2, [r3, #52]
 1842 0028 C06A     		ldr	r0, [r0, #44]
 1843 002a FFF7FEFF 		bl	HAL_DMA_Abort_IT
 1844 002e 90B1     		cbz	r0, .L204
 1845 0030 E06A     		ldr	r0, [r4, #44]
 1846 0032 436B     		ldr	r3, [r0, #52]
 1847 0034 9847     		blx	r3
 1848 0036 0EE0     		b	.L204
ARM GAS  /tmp/cc9Rk5Al.s 			page 32


 1849              	.L203:
 1850 0038 0023     		movs	r3, #0
 1851 003a 4384     		strh	r3, [r0, #34]	@ movhi
 1852 003c 2023     		movs	r3, #32
 1853 003e 80F83530 		strb	r3, [r0, #53]
 1854 0042 FFF7FEFF 		bl	HAL_IRDA_AbortTransmitCpltCallback
 1855 0046 06E0     		b	.L204
 1856              	.L202:
 1857 0048 0023     		movs	r3, #0
 1858 004a 4384     		strh	r3, [r0, #34]	@ movhi
 1859 004c 2023     		movs	r3, #32
 1860 004e 80F83530 		strb	r3, [r0, #53]
 1861 0052 FFF7FEFF 		bl	HAL_IRDA_AbortTransmitCpltCallback
 1862              	.L204:
 1863 0056 0020     		movs	r0, #0
 1864 0058 10BD     		pop	{r4, pc}
 1865              	.L207:
 1866 005a 00BF     		.align	2
 1867              	.L206:
 1868 005c 00000000 		.word	IRDA_DMATxOnlyAbortCallback
 1870              		.section	.text.IRDA_DMATxOnlyAbortCallback,"ax",%progbits
 1871              		.align	2
 1872              		.thumb
 1873              		.thumb_func
 1875              	IRDA_DMATxOnlyAbortCallback:
 1876              		@ args = 0, pretend = 0, frame = 0
 1877              		@ frame_needed = 0, uses_anonymous_args = 0
 1878 0000 08B5     		push	{r3, lr}
 1879 0002 406A     		ldr	r0, [r0, #36]
 1880 0004 0023     		movs	r3, #0
 1881 0006 4384     		strh	r3, [r0, #34]	@ movhi
 1882 0008 2023     		movs	r3, #32
 1883 000a 80F83530 		strb	r3, [r0, #53]
 1884 000e FFF7FEFF 		bl	HAL_IRDA_AbortTransmitCpltCallback
 1885 0012 08BD     		pop	{r3, pc}
 1887              		.section	.text.HAL_IRDA_AbortReceiveCpltCallback,"ax",%progbits
 1888              		.align	2
 1889              		.weak	HAL_IRDA_AbortReceiveCpltCallback
 1890              		.thumb
 1891              		.thumb_func
 1893              	HAL_IRDA_AbortReceiveCpltCallback:
 1894              		@ args = 0, pretend = 0, frame = 0
 1895              		@ frame_needed = 0, uses_anonymous_args = 0
 1896              		@ link register save eliminated.
 1897 0000 7047     		bx	lr
 1899 0002 00BF     		.section	.text.HAL_IRDA_AbortReceive_IT,"ax",%progbits
 1900              		.align	2
 1901              		.global	HAL_IRDA_AbortReceive_IT
 1902              		.thumb
 1903              		.thumb_func
 1905              	HAL_IRDA_AbortReceive_IT:
 1906              		@ args = 0, pretend = 0, frame = 0
 1907              		@ frame_needed = 0, uses_anonymous_args = 0
 1908 0000 10B5     		push	{r4, lr}
 1909 0002 0446     		mov	r4, r0
 1910 0004 0268     		ldr	r2, [r0]
 1911 0006 D368     		ldr	r3, [r2, #12]
ARM GAS  /tmp/cc9Rk5Al.s 			page 33


 1912 0008 23F49073 		bic	r3, r3, #288
 1913 000c D360     		str	r3, [r2, #12]
 1914 000e 0268     		ldr	r2, [r0]
 1915 0010 5369     		ldr	r3, [r2, #20]
 1916 0012 23F00103 		bic	r3, r3, #1
 1917 0016 5361     		str	r3, [r2, #20]
 1918 0018 0368     		ldr	r3, [r0]
 1919 001a 5A69     		ldr	r2, [r3, #20]
 1920 001c 12F0400F 		tst	r2, #64
 1921 0020 17D0     		beq	.L212
 1922 0022 5A69     		ldr	r2, [r3, #20]
 1923 0024 22F04002 		bic	r2, r2, #64
 1924 0028 5A61     		str	r2, [r3, #20]
 1925 002a 036B     		ldr	r3, [r0, #48]
 1926 002c 4BB1     		cbz	r3, .L213
 1927 002e 0D4A     		ldr	r2, .L216
 1928 0030 5A63     		str	r2, [r3, #52]
 1929 0032 006B     		ldr	r0, [r0, #48]
 1930 0034 FFF7FEFF 		bl	HAL_DMA_Abort_IT
 1931 0038 90B1     		cbz	r0, .L214
 1932 003a 206B     		ldr	r0, [r4, #48]
 1933 003c 436B     		ldr	r3, [r0, #52]
 1934 003e 9847     		blx	r3
 1935 0040 0EE0     		b	.L214
 1936              	.L213:
 1937 0042 0023     		movs	r3, #0
 1938 0044 4385     		strh	r3, [r0, #42]	@ movhi
 1939 0046 2023     		movs	r3, #32
 1940 0048 80F83630 		strb	r3, [r0, #54]
 1941 004c FFF7FEFF 		bl	HAL_IRDA_AbortReceiveCpltCallback
 1942 0050 06E0     		b	.L214
 1943              	.L212:
 1944 0052 0023     		movs	r3, #0
 1945 0054 4385     		strh	r3, [r0, #42]	@ movhi
 1946 0056 2023     		movs	r3, #32
 1947 0058 80F83630 		strb	r3, [r0, #54]
 1948 005c FFF7FEFF 		bl	HAL_IRDA_AbortReceiveCpltCallback
 1949              	.L214:
 1950 0060 0020     		movs	r0, #0
 1951 0062 10BD     		pop	{r4, pc}
 1952              	.L217:
 1953              		.align	2
 1954              	.L216:
 1955 0064 00000000 		.word	IRDA_DMARxOnlyAbortCallback
 1957              		.section	.text.IRDA_DMARxOnlyAbortCallback,"ax",%progbits
 1958              		.align	2
 1959              		.thumb
 1960              		.thumb_func
 1962              	IRDA_DMARxOnlyAbortCallback:
 1963              		@ args = 0, pretend = 0, frame = 0
 1964              		@ frame_needed = 0, uses_anonymous_args = 0
 1965 0000 08B5     		push	{r3, lr}
 1966 0002 406A     		ldr	r0, [r0, #36]
 1967 0004 0023     		movs	r3, #0
 1968 0006 4385     		strh	r3, [r0, #42]	@ movhi
 1969 0008 2023     		movs	r3, #32
 1970 000a 80F83630 		strb	r3, [r0, #54]
ARM GAS  /tmp/cc9Rk5Al.s 			page 34


 1971 000e FFF7FEFF 		bl	HAL_IRDA_AbortReceiveCpltCallback
 1972 0012 08BD     		pop	{r3, pc}
 1974              		.section	.text.HAL_IRDA_GetState,"ax",%progbits
 1975              		.align	2
 1976              		.global	HAL_IRDA_GetState
 1977              		.thumb
 1978              		.thumb_func
 1980              	HAL_IRDA_GetState:
 1981              		@ args = 0, pretend = 0, frame = 0
 1982              		@ frame_needed = 0, uses_anonymous_args = 0
 1983              		@ link register save eliminated.
 1984 0000 90F83530 		ldrb	r3, [r0, #53]	@ zero_extendqisi2
 1985 0004 90F83600 		ldrb	r0, [r0, #54]	@ zero_extendqisi2
 1986 0008 1843     		orrs	r0, r0, r3
 1987 000a 7047     		bx	lr
 1989              		.section	.text.HAL_IRDA_GetError,"ax",%progbits
 1990              		.align	2
 1991              		.global	HAL_IRDA_GetError
 1992              		.thumb
 1993              		.thumb_func
 1995              	HAL_IRDA_GetError:
 1996              		@ args = 0, pretend = 0, frame = 0
 1997              		@ frame_needed = 0, uses_anonymous_args = 0
 1998              		@ link register save eliminated.
 1999 0000 806B     		ldr	r0, [r0, #56]
 2000 0002 7047     		bx	lr
 2002              		.ident	"GCC: (15:4.9.3+svn231177-1) 4.9.3 20150529 (prerelease)"
ARM GAS  /tmp/cc9Rk5Al.s 			page 35

